
build/esense.elf:     file format elf32-littlearm


Disassembly of section .text:

08002160 <Reset_Handler>:
 8002160:	b672      	cpsid	i
 8002162:	4826      	ldr	r0, [pc, #152]	; (80021fc <endfiniloop+0x6>)
 8002164:	f380 8809 	msr	PSP, r0
 8002168:	4825      	ldr	r0, [pc, #148]	; (8002200 <endfiniloop+0xa>)
 800216a:	f64e 5108 	movw	r1, #60680	; 0xed08
 800216e:	f2ce 0100 	movt	r1, #57344	; 0xe000
 8002172:	6008      	str	r0, [r1, #0]
 8002174:	2002      	movs	r0, #2
 8002176:	f380 8814 	msr	CONTROL, r0
 800217a:	f3bf 8f6f 	isb	sy
 800217e:	f009 f835 	bl	800b1ec <__core_init>
 8002182:	f009 f863 	bl	800b24c <__early_init>
 8002186:	f04f 3055 	mov.w	r0, #1431655765	; 0x55555555
 800218a:	491e      	ldr	r1, [pc, #120]	; (8002204 <endfiniloop+0xe>)
 800218c:	4a1e      	ldr	r2, [pc, #120]	; (8002208 <endfiniloop+0x12>)

0800218e <msloop>:
 800218e:	4291      	cmp	r1, r2
 8002190:	bf3c      	itt	cc
 8002192:	f841 0b04 	strcc.w	r0, [r1], #4
 8002196:	e7fa      	bcc.n	800218e <msloop>
 8002198:	491c      	ldr	r1, [pc, #112]	; (800220c <endfiniloop+0x16>)
 800219a:	4a18      	ldr	r2, [pc, #96]	; (80021fc <endfiniloop+0x6>)

0800219c <psloop>:
 800219c:	4291      	cmp	r1, r2
 800219e:	bf3c      	itt	cc
 80021a0:	f841 0b04 	strcc.w	r0, [r1], #4
 80021a4:	e7fa      	bcc.n	800219c <psloop>
 80021a6:	491a      	ldr	r1, [pc, #104]	; (8002210 <endfiniloop+0x1a>)
 80021a8:	4a1a      	ldr	r2, [pc, #104]	; (8002214 <endfiniloop+0x1e>)
 80021aa:	4b1b      	ldr	r3, [pc, #108]	; (8002218 <endfiniloop+0x22>)

080021ac <dloop>:
 80021ac:	429a      	cmp	r2, r3
 80021ae:	bf3e      	ittt	cc
 80021b0:	f851 0b04 	ldrcc.w	r0, [r1], #4
 80021b4:	f842 0b04 	strcc.w	r0, [r2], #4
 80021b8:	e7f8      	bcc.n	80021ac <dloop>
 80021ba:	2000      	movs	r0, #0
 80021bc:	4917      	ldr	r1, [pc, #92]	; (800221c <endfiniloop+0x26>)
 80021be:	4a18      	ldr	r2, [pc, #96]	; (8002220 <endfiniloop+0x2a>)

080021c0 <bloop>:
 80021c0:	4291      	cmp	r1, r2
 80021c2:	bf3c      	itt	cc
 80021c4:	f841 0b04 	strcc.w	r0, [r1], #4
 80021c8:	e7fa      	bcc.n	80021c0 <bloop>
 80021ca:	f009 f813 	bl	800b1f4 <__init_ram_areas>
 80021ce:	f009 f80e 	bl	800b1ee <__late_init>
 80021d2:	4c14      	ldr	r4, [pc, #80]	; (8002224 <endfiniloop+0x2e>)
 80021d4:	4d14      	ldr	r5, [pc, #80]	; (8002228 <endfiniloop+0x32>)

080021d6 <initloop>:
 80021d6:	42ac      	cmp	r4, r5
 80021d8:	da03      	bge.n	80021e2 <endinitloop>
 80021da:	f854 1b04 	ldr.w	r1, [r4], #4
 80021de:	4788      	blx	r1
 80021e0:	e7f9      	b.n	80021d6 <initloop>

080021e2 <endinitloop>:
 80021e2:	f009 f873 	bl	800b2cc <main>
 80021e6:	4c11      	ldr	r4, [pc, #68]	; (800222c <endfiniloop+0x36>)
 80021e8:	4d11      	ldr	r5, [pc, #68]	; (8002230 <endfiniloop+0x3a>)

080021ea <finiloop>:
 80021ea:	42ac      	cmp	r4, r5
 80021ec:	da03      	bge.n	80021f6 <endfiniloop>
 80021ee:	f854 1b04 	ldr.w	r1, [r4], #4
 80021f2:	4788      	blx	r1
 80021f4:	e7f9      	b.n	80021ea <finiloop>

080021f6 <endfiniloop>:
 80021f6:	f008 bffb 	b.w	800b1f0 <__default_exit>
 80021fa:	0000      	.short	0x0000
 80021fc:	20000800 	.word	0x20000800
 8002200:	08002000 	.word	0x08002000
 8002204:	20000000 	.word	0x20000000
 8002208:	20000400 	.word	0x20000400
 800220c:	20000400 	.word	0x20000400
 8002210:	0800cda0 	.word	0x0800cda0
 8002214:	20000800 	.word	0x20000800
 8002218:	20000928 	.word	0x20000928
 800221c:	20000928 	.word	0x20000928
 8002220:	20001650 	.word	0x20001650
 8002224:	08002160 	.word	0x08002160
 8002228:	08002160 	.word	0x08002160
 800222c:	08002160 	.word	0x08002160
 8002230:	08002160 	.word	0x08002160

08002234 <_binary_data_license_bin_start>:
 8002234:	2a2a2a2a 	.word	0x2a2a2a2a
 8002238:	2a2a2a2a 	.word	0x2a2a2a2a
 800223c:	2a2a2a2a 	.word	0x2a2a2a2a
 8002240:	2a2a2a2a 	.word	0x2a2a2a2a
 8002244:	2a2a2a2a 	.word	0x2a2a2a2a
 8002248:	2a2a2a2a 	.word	0x2a2a2a2a
 800224c:	2a2a2a2a 	.word	0x2a2a2a2a
 8002250:	2a2a2a2a 	.word	0x2a2a2a2a
 8002254:	2a2a2a2a 	.word	0x2a2a2a2a
 8002258:	2a2a2a2a 	.word	0x2a2a2a2a
 800225c:	2a2a2a2a 	.word	0x2a2a2a2a
 8002260:	2a2a2a2a 	.word	0x2a2a2a2a
 8002264:	2a2a2a2a 	.word	0x2a2a2a2a
 8002268:	2a2a2a2a 	.word	0x2a2a2a2a
 800226c:	2a2a2a2a 	.word	0x2a2a2a2a
 8002270:	2a2a2a2a 	.word	0x2a2a2a2a
 8002274:	2a2a2a2a 	.word	0x2a2a2a2a
 8002278:	2a2a2a2a 	.word	0x2a2a2a2a
 800227c:	2a2a2a2a 	.word	0x2a2a2a2a
 8002280:	2a2a2a2a 	.word	0x2a2a2a2a
 8002284:	0a0d2a2a 	.word	0x0a0d2a2a
 8002288:	65657246 	.word	0x65657246
 800228c:	534f5452 	.word	0x534f5452
 8002290:	72654b20 	.word	0x72654b20
 8002294:	206c656e 	.word	0x206c656e
 8002298:	2e303156 	.word	0x2e303156
 800229c:	0d302e30 	.word	0x0d302e30
 80022a0:	706f430a 	.word	0x706f430a
 80022a4:	67697279 	.word	0x67697279
 80022a8:	28207468 	.word	0x28207468
 80022ac:	32202943 	.word	0x32202943
 80022b0:	20373130 	.word	0x20373130
 80022b4:	7a616d41 	.word	0x7a616d41
 80022b8:	632e6e6f 	.word	0x632e6e6f
 80022bc:	202c6d6f 	.word	0x202c6d6f
 80022c0:	2e636e49 	.word	0x2e636e49
 80022c4:	20726f20 	.word	0x20726f20
 80022c8:	20737469 	.word	0x20737469
 80022cc:	69666661 	.word	0x69666661
 80022d0:	7461696c 	.word	0x7461696c
 80022d4:	202e7365 	.word	0x202e7365
 80022d8:	6c6c4120 	.word	0x6c6c4120
 80022dc:	67695220 	.word	0x67695220
 80022e0:	20737468 	.word	0x20737468
 80022e4:	65736552 	.word	0x65736552
 80022e8:	64657672 	.word	0x64657672
 80022ec:	0d0a0d2e 	.word	0x0d0a0d2e
 80022f0:	7265500a 	.word	0x7265500a
 80022f4:	7373696d 	.word	0x7373696d
 80022f8:	206e6f69 	.word	0x206e6f69
 80022fc:	68207369 	.word	0x68207369
 8002300:	62657265 	.word	0x62657265
 8002304:	72672079 	.word	0x72672079
 8002308:	65746e61 	.word	0x65746e61
 800230c:	66202c64 	.word	0x66202c64
 8002310:	20656572 	.word	0x20656572
 8002314:	6320666f 	.word	0x6320666f
 8002318:	67726168 	.word	0x67726168
 800231c:	74202c65 	.word	0x74202c65
 8002320:	6e61206f 	.word	0x6e61206f
 8002324:	65702079 	.word	0x65702079
 8002328:	6e6f7372 	.word	0x6e6f7372
 800232c:	74626f20 	.word	0x74626f20
 8002330:	696e6961 	.word	0x696e6961
 8002334:	6120676e 	.word	0x6120676e
 8002338:	706f6320 	.word	0x706f6320
 800233c:	666f2079 	.word	0x666f2079
 8002340:	68740a0d 	.word	0x68740a0d
 8002344:	73207369 	.word	0x73207369
 8002348:	7774666f 	.word	0x7774666f
 800234c:	20657261 	.word	0x20657261
 8002350:	20646e61 	.word	0x20646e61
 8002354:	6f737361 	.word	0x6f737361
 8002358:	74616963 	.word	0x74616963
 800235c:	64206465 	.word	0x64206465
 8002360:	6d75636f 	.word	0x6d75636f
 8002364:	61746e65 	.word	0x61746e65
 8002368:	6e6f6974 	.word	0x6e6f6974
 800236c:	6c696620 	.word	0x6c696620
 8002370:	28207365 	.word	0x28207365
 8002374:	20656874 	.word	0x20656874
 8002378:	666f5322 	.word	0x666f5322
 800237c:	72617774 	.word	0x72617774
 8002380:	2c292265 	.word	0x2c292265
 8002384:	206f7420 	.word	0x206f7420
 8002388:	6c616564 	.word	0x6c616564
 800238c:	0d6e6920 	.word	0x0d6e6920
 8002390:	6568740a 	.word	0x6568740a
 8002394:	666f5320 	.word	0x666f5320
 8002398:	72617774 	.word	0x72617774
 800239c:	69772065 	.word	0x69772065
 80023a0:	756f6874 	.word	0x756f6874
 80023a4:	65722074 	.word	0x65722074
 80023a8:	69727473 	.word	0x69727473
 80023ac:	6f697463 	.word	0x6f697463
 80023b0:	69202c6e 	.word	0x69202c6e
 80023b4:	756c636e 	.word	0x756c636e
 80023b8:	676e6964 	.word	0x676e6964
 80023bc:	74697720 	.word	0x74697720
 80023c0:	74756f68 	.word	0x74756f68
 80023c4:	6d696c20 	.word	0x6d696c20
 80023c8:	74617469 	.word	0x74617469
 80023cc:	206e6f69 	.word	0x206e6f69
 80023d0:	20656874 	.word	0x20656874
 80023d4:	68676972 	.word	0x68676972
 80023d8:	74207374 	.word	0x74207374
 80023dc:	750a0d6f 	.word	0x750a0d6f
 80023e0:	202c6573 	.word	0x202c6573
 80023e4:	79706f63 	.word	0x79706f63
 80023e8:	6f6d202c 	.word	0x6f6d202c
 80023ec:	79666964 	.word	0x79666964
 80023f0:	656d202c 	.word	0x656d202c
 80023f4:	2c656772 	.word	0x2c656772
 80023f8:	62757020 	.word	0x62757020
 80023fc:	6873696c 	.word	0x6873696c
 8002400:	6964202c 	.word	0x6964202c
 8002404:	69727473 	.word	0x69727473
 8002408:	65747562 	.word	0x65747562
 800240c:	7573202c 	.word	0x7573202c
 8002410:	63696c62 	.word	0x63696c62
 8002414:	65736e65 	.word	0x65736e65
 8002418:	6e61202c 	.word	0x6e61202c
 800241c:	726f2f64 	.word	0x726f2f64
 8002420:	6c657320 	.word	0x6c657320
 8002424:	6f63206c 	.word	0x6f63206c
 8002428:	73656970 	.word	0x73656970
 800242c:	0d666f20 	.word	0x0d666f20
 8002430:	6568740a 	.word	0x6568740a
 8002434:	666f5320 	.word	0x666f5320
 8002438:	72617774 	.word	0x72617774
 800243c:	61202c65 	.word	0x61202c65
 8002440:	7420646e 	.word	0x7420646e
 8002444:	6570206f 	.word	0x6570206f
 8002448:	74696d72 	.word	0x74696d72
 800244c:	72657020 	.word	0x72657020
 8002450:	736e6f73 	.word	0x736e6f73
 8002454:	206f7420 	.word	0x206f7420
 8002458:	6d6f6877 	.word	0x6d6f6877
 800245c:	65687420 	.word	0x65687420
 8002460:	666f5320 	.word	0x666f5320
 8002464:	72617774 	.word	0x72617774
 8002468:	73692065 	.word	0x73692065
 800246c:	72756620 	.word	0x72756620
 8002470:	6873696e 	.word	0x6873696e
 8002474:	74206465 	.word	0x74206465
 8002478:	6f64206f 	.word	0x6f64206f
 800247c:	2c6f7320 	.word	0x2c6f7320
 8002480:	75730a0d 	.word	0x75730a0d
 8002484:	63656a62 	.word	0x63656a62
 8002488:	6f742074 	.word	0x6f742074
 800248c:	65687420 	.word	0x65687420
 8002490:	6c6f6620 	.word	0x6c6f6620
 8002494:	69776f6c 	.word	0x69776f6c
 8002498:	6320676e 	.word	0x6320676e
 800249c:	69646e6f 	.word	0x69646e6f
 80024a0:	6e6f6974 	.word	0x6e6f6974
 80024a4:	0a0d3a73 	.word	0x0a0d3a73
 80024a8:	68540a0d 	.word	0x68540a0d
 80024ac:	62612065 	.word	0x62612065
 80024b0:	2065766f 	.word	0x2065766f
 80024b4:	79706f63 	.word	0x79706f63
 80024b8:	68676972 	.word	0x68676972
 80024bc:	6f6e2074 	.word	0x6f6e2074
 80024c0:	65636974 	.word	0x65636974
 80024c4:	646e6120 	.word	0x646e6120
 80024c8:	69687420 	.word	0x69687420
 80024cc:	65702073 	.word	0x65702073
 80024d0:	73696d72 	.word	0x73696d72
 80024d4:	6e6f6973 	.word	0x6e6f6973
 80024d8:	746f6e20 	.word	0x746f6e20
 80024dc:	20656369 	.word	0x20656369
 80024e0:	6c616873 	.word	0x6c616873
 80024e4:	6562206c 	.word	0x6562206c
 80024e8:	636e6920 	.word	0x636e6920
 80024ec:	6564756c 	.word	0x6564756c
 80024f0:	6e692064 	.word	0x6e692064
 80024f4:	6c6c6120 	.word	0x6c6c6120
 80024f8:	6f630a0d 	.word	0x6f630a0d
 80024fc:	73656970 	.word	0x73656970
 8002500:	20726f20 	.word	0x20726f20
 8002504:	73627573 	.word	0x73627573
 8002508:	746e6174 	.word	0x746e6174
 800250c:	206c6169 	.word	0x206c6169
 8002510:	74726f70 	.word	0x74726f70
 8002514:	736e6f69 	.word	0x736e6f69
 8002518:	20666f20 	.word	0x20666f20
 800251c:	20656874 	.word	0x20656874
 8002520:	74666f53 	.word	0x74666f53
 8002524:	65726177 	.word	0x65726177
 8002528:	6649202e 	.word	0x6649202e
 800252c:	756f7920 	.word	0x756f7920
 8002530:	73697720 	.word	0x73697720
 8002534:	6f742068 	.word	0x6f742068
 8002538:	65737520 	.word	0x65737520
 800253c:	72756f20 	.word	0x72756f20
 8002540:	616d4120 	.word	0x616d4120
 8002544:	0d6e6f7a 	.word	0x0d6e6f7a
 8002548:	6572460a 	.word	0x6572460a
 800254c:	4f545265 	.word	0x4f545265
 8002550:	616e2053 	.word	0x616e2053
 8002554:	202c656d 	.word	0x202c656d
 8002558:	61656c70 	.word	0x61656c70
 800255c:	64206573 	.word	0x64206573
 8002560:	6f73206f 	.word	0x6f73206f
 8002564:	206e6920 	.word	0x206e6920
 8002568:	61662061 	.word	0x61662061
 800256c:	75207269 	.word	0x75207269
 8002570:	77206573 	.word	0x77206573
 8002574:	74207961 	.word	0x74207961
 8002578:	20746168 	.word	0x20746168
 800257c:	73656f64 	.word	0x73656f64
 8002580:	746f6e20 	.word	0x746f6e20
 8002584:	75616320 	.word	0x75616320
 8002588:	63206573 	.word	0x63206573
 800258c:	75666e6f 	.word	0x75666e6f
 8002590:	6e6f6973 	.word	0x6e6f6973
 8002594:	0d0a0d2e 	.word	0x0d0a0d2e
 8002598:	4548540a 	.word	0x4548540a
 800259c:	464f5320 	.word	0x464f5320
 80025a0:	52415754 	.word	0x52415754
 80025a4:	53492045 	.word	0x53492045
 80025a8:	4f525020 	.word	0x4f525020
 80025ac:	45444956 	.word	0x45444956
 80025b0:	41222044 	.word	0x41222044
 80025b4:	53492053 	.word	0x53492053
 80025b8:	57202c22 	.word	0x57202c22
 80025bc:	4f485449 	.word	0x4f485449
 80025c0:	57205455 	.word	0x57205455
 80025c4:	41525241 	.word	0x41525241
 80025c8:	2059544e 	.word	0x2059544e
 80025cc:	4120464f 	.word	0x4120464f
 80025d0:	4b20594e 	.word	0x4b20594e
 80025d4:	2c444e49 	.word	0x2c444e49
 80025d8:	50584520 	.word	0x50584520
 80025dc:	53534552 	.word	0x53534552
 80025e0:	0d524f20 	.word	0x0d524f20
 80025e4:	504d490a 	.word	0x504d490a
 80025e8:	4445494c 	.word	0x4445494c
 80025ec:	4e49202c 	.word	0x4e49202c
 80025f0:	44554c43 	.word	0x44554c43
 80025f4:	20474e49 	.word	0x20474e49
 80025f8:	20545542 	.word	0x20545542
 80025fc:	20544f4e 	.word	0x20544f4e
 8002600:	494d494c 	.word	0x494d494c
 8002604:	20444554 	.word	0x20444554
 8002608:	54204f54 	.word	0x54204f54
 800260c:	57204548 	.word	0x57204548
 8002610:	41525241 	.word	0x41525241
 8002614:	4549544e 	.word	0x4549544e
 8002618:	464f2053 	.word	0x464f2053
 800261c:	52454d20 	.word	0x52454d20
 8002620:	4e414843 	.word	0x4e414843
 8002624:	49424154 	.word	0x49424154
 8002628:	5954494c 	.word	0x5954494c
 800262c:	4946202c 	.word	0x4946202c
 8002630:	53454e54 	.word	0x53454e54
 8002634:	460a0d53 	.word	0x460a0d53
 8002638:	4120524f 	.word	0x4120524f
 800263c:	52415020 	.word	0x52415020
 8002640:	55434954 	.word	0x55434954
 8002644:	2052414c 	.word	0x2052414c
 8002648:	50525550 	.word	0x50525550
 800264c:	2045534f 	.word	0x2045534f
 8002650:	20444e41 	.word	0x20444e41
 8002654:	494e4f4e 	.word	0x494e4f4e
 8002658:	4952464e 	.word	0x4952464e
 800265c:	4d45474e 	.word	0x4d45474e
 8002660:	2e544e45 	.word	0x2e544e45
 8002664:	204e4920 	.word	0x204e4920
 8002668:	45204f4e 	.word	0x45204f4e
 800266c:	544e4556 	.word	0x544e4556
 8002670:	41485320 	.word	0x41485320
 8002674:	54204c4c 	.word	0x54204c4c
 8002678:	41204548 	.word	0x41204548
 800267c:	4f485455 	.word	0x4f485455
 8002680:	4f205352 	.word	0x4f205352
 8002684:	430a0d52 	.word	0x430a0d52
 8002688:	5259504f 	.word	0x5259504f
 800268c:	54484749 	.word	0x54484749
 8002690:	4c4f4820 	.word	0x4c4f4820
 8002694:	53524544 	.word	0x53524544
 8002698:	20454220 	.word	0x20454220
 800269c:	4241494c 	.word	0x4241494c
 80026a0:	4620454c 	.word	0x4620454c
 80026a4:	4120524f 	.word	0x4120524f
 80026a8:	4320594e 	.word	0x4320594e
 80026ac:	4d49414c 	.word	0x4d49414c
 80026b0:	4144202c 	.word	0x4144202c
 80026b4:	4547414d 	.word	0x4547414d
 80026b8:	524f2053 	.word	0x524f2053
 80026bc:	48544f20 	.word	0x48544f20
 80026c0:	4c205245 	.word	0x4c205245
 80026c4:	49424149 	.word	0x49424149
 80026c8:	5954494c 	.word	0x5954494c
 80026cc:	4857202c 	.word	0x4857202c
 80026d0:	45485445 	.word	0x45485445
 80026d4:	490a0d52 	.word	0x490a0d52
 80026d8:	4e41204e 	.word	0x4e41204e
 80026dc:	54434120 	.word	0x54434120
 80026e0:	204e4f49 	.word	0x204e4f49
 80026e4:	4320464f 	.word	0x4320464f
 80026e8:	52544e4f 	.word	0x52544e4f
 80026ec:	2c544341 	.word	0x2c544341
 80026f0:	524f5420 	.word	0x524f5420
 80026f4:	524f2054 	.word	0x524f2054
 80026f8:	48544f20 	.word	0x48544f20
 80026fc:	49575245 	.word	0x49575245
 8002700:	202c4553 	.word	0x202c4553
 8002704:	53495241 	.word	0x53495241
 8002708:	20474e49 	.word	0x20474e49
 800270c:	4d4f5246 	.word	0x4d4f5246
 8002710:	554f202c 	.word	0x554f202c
 8002714:	464f2054 	.word	0x464f2054
 8002718:	20524f20 	.word	0x20524f20
 800271c:	0a0d4e49 	.word	0x0a0d4e49
 8002720:	4e4e4f43 	.word	0x4e4e4f43
 8002724:	49544345 	.word	0x49544345
 8002728:	57204e4f 	.word	0x57204e4f
 800272c:	20485449 	.word	0x20485449
 8002730:	20454854 	.word	0x20454854
 8002734:	54464f53 	.word	0x54464f53
 8002738:	45524157 	.word	0x45524157
 800273c:	20524f20 	.word	0x20524f20
 8002740:	20454854 	.word	0x20454854
 8002744:	20455355 	.word	0x20455355
 8002748:	4f20524f 	.word	0x4f20524f
 800274c:	52454854 	.word	0x52454854
 8002750:	41454420 	.word	0x41454420
 8002754:	474e494c 	.word	0x474e494c
 8002758:	4e492053 	.word	0x4e492053
 800275c:	45485420 	.word	0x45485420
 8002760:	464f5320 	.word	0x464f5320
 8002764:	52415754 	.word	0x52415754
 8002768:	0a0d2e45 	.word	0x0a0d2e45
 800276c:	74680a0d 	.word	0x74680a0d
 8002770:	2f3a7074 	.word	0x2f3a7074
 8002774:	7777772f 	.word	0x7777772f
 8002778:	6572462e 	.word	0x6572462e
 800277c:	4f545265 	.word	0x4f545265
 8002780:	726f2e53 	.word	0x726f2e53
 8002784:	680a0d67 	.word	0x680a0d67
 8002788:	3a707474 	.word	0x3a707474
 800278c:	77612f2f 	.word	0x77612f2f
 8002790:	6d612e73 	.word	0x6d612e73
 8002794:	6e6f7a61 	.word	0x6e6f7a61
 8002798:	6d6f632e 	.word	0x6d6f632e
 800279c:	6572662f 	.word	0x6572662f
 80027a0:	6f747265 	.word	0x6f747265
 80027a4:	2a0a0d73 	.word	0x2a0a0d73
 80027a8:	2a2a2a2a 	.word	0x2a2a2a2a
 80027ac:	2a2a2a2a 	.word	0x2a2a2a2a
 80027b0:	2a2a2a2a 	.word	0x2a2a2a2a
 80027b4:	2a2a2a2a 	.word	0x2a2a2a2a
 80027b8:	2a2a2a2a 	.word	0x2a2a2a2a
 80027bc:	2a2a2a2a 	.word	0x2a2a2a2a
 80027c0:	2a2a2a2a 	.word	0x2a2a2a2a
 80027c4:	2a2a2a2a 	.word	0x2a2a2a2a
 80027c8:	2a2a2a2a 	.word	0x2a2a2a2a
 80027cc:	2a2a2a2a 	.word	0x2a2a2a2a
 80027d0:	2a2a2a2a 	.word	0x2a2a2a2a
 80027d4:	2a2a2a2a 	.word	0x2a2a2a2a
 80027d8:	2a2a2a2a 	.word	0x2a2a2a2a
 80027dc:	2a2a2a2a 	.word	0x2a2a2a2a
 80027e0:	2a2a2a2a 	.word	0x2a2a2a2a
 80027e4:	2a2a2a2a 	.word	0x2a2a2a2a
 80027e8:	2a2a2a2a 	.word	0x2a2a2a2a
 80027ec:	2a2a2a2a 	.word	0x2a2a2a2a
 80027f0:	2a2a2a2a 	.word	0x2a2a2a2a
 80027f4:	2a2a2a2a 	.word	0x2a2a2a2a
 80027f8:	430a0d2a 	.word	0x430a0d2a
 80027fc:	5259504f 	.word	0x5259504f
 8002800:	54484749 	.word	0x54484749
 8002804:	20296328 	.word	0x20296328
 8002808:	36313032 	.word	0x36313032
 800280c:	4d545320 	.word	0x4d545320
 8002810:	6f726369 	.word	0x6f726369
 8002814:	63656c65 	.word	0x63656c65
 8002818:	6e6f7274 	.word	0x6e6f7274
 800281c:	0d736369 	.word	0x0d736369
 8002820:	520a0d0a 	.word	0x520a0d0a
 8002824:	73696465 	.word	0x73696465
 8002828:	62697274 	.word	0x62697274
 800282c:	6f697475 	.word	0x6f697475
 8002830:	6e61206e 	.word	0x6e61206e
 8002834:	73752064 	.word	0x73752064
 8002838:	6e692065 	.word	0x6e692065
 800283c:	756f7320 	.word	0x756f7320
 8002840:	20656372 	.word	0x20656372
 8002844:	20646e61 	.word	0x20646e61
 8002848:	616e6962 	.word	0x616e6962
 800284c:	66207972 	.word	0x66207972
 8002850:	736d726f 	.word	0x736d726f
 8002854:	6977202c 	.word	0x6977202c
 8002858:	6f206874 	.word	0x6f206874
 800285c:	69772072 	.word	0x69772072
 8002860:	756f6874 	.word	0x756f6874
 8002864:	6f6d2074 	.word	0x6f6d2074
 8002868:	69666964 	.word	0x69666964
 800286c:	69746163 	.word	0x69746163
 8002870:	0d2c6e6f 	.word	0x0d2c6e6f
 8002874:	6572610a 	.word	0x6572610a
 8002878:	72657020 	.word	0x72657020
 800287c:	7474696d 	.word	0x7474696d
 8002880:	70206465 	.word	0x70206465
 8002884:	69766f72 	.word	0x69766f72
 8002888:	20646564 	.word	0x20646564
 800288c:	74616874 	.word	0x74616874
 8002890:	65687420 	.word	0x65687420
 8002894:	6c6f6620 	.word	0x6c6f6620
 8002898:	69776f6c 	.word	0x69776f6c
 800289c:	6320676e 	.word	0x6320676e
 80028a0:	69646e6f 	.word	0x69646e6f
 80028a4:	6e6f6974 	.word	0x6e6f6974
 80028a8:	72612073 	.word	0x72612073
 80028ac:	656d2065 	.word	0x656d2065
 80028b0:	0a0d3a74 	.word	0x0a0d3a74
 80028b4:	2e312020 	.word	0x2e312020
 80028b8:	64655220 	.word	0x64655220
 80028bc:	72747369 	.word	0x72747369
 80028c0:	74756269 	.word	0x74756269
 80028c4:	736e6f69 	.word	0x736e6f69
 80028c8:	20666f20 	.word	0x20666f20
 80028cc:	72756f73 	.word	0x72756f73
 80028d0:	63206563 	.word	0x63206563
 80028d4:	2065646f 	.word	0x2065646f
 80028d8:	7473756d 	.word	0x7473756d
 80028dc:	74657220 	.word	0x74657220
 80028e0:	206e6961 	.word	0x206e6961
 80028e4:	20656874 	.word	0x20656874
 80028e8:	766f6261 	.word	0x766f6261
 80028ec:	6f632065 	.word	0x6f632065
 80028f0:	69727970 	.word	0x69727970
 80028f4:	20746867 	.word	0x20746867
 80028f8:	69746f6e 	.word	0x69746f6e
 80028fc:	0d2c6563 	.word	0x0d2c6563
 8002900:	2020200a 	.word	0x2020200a
 8002904:	68742020 	.word	0x68742020
 8002908:	6c207369 	.word	0x6c207369
 800290c:	20747369 	.word	0x20747369
 8002910:	6320666f 	.word	0x6320666f
 8002914:	69646e6f 	.word	0x69646e6f
 8002918:	6e6f6974 	.word	0x6e6f6974
 800291c:	6e612073 	.word	0x6e612073
 8002920:	68742064 	.word	0x68742064
 8002924:	6f662065 	.word	0x6f662065
 8002928:	776f6c6c 	.word	0x776f6c6c
 800292c:	20676e69 	.word	0x20676e69
 8002930:	63736964 	.word	0x63736964
 8002934:	6d69616c 	.word	0x6d69616c
 8002938:	0d2e7265 	.word	0x0d2e7265
 800293c:	3220200a 	.word	0x3220200a
 8002940:	6552202e 	.word	0x6552202e
 8002944:	74736964 	.word	0x74736964
 8002948:	75626972 	.word	0x75626972
 800294c:	6e6f6974 	.word	0x6e6f6974
 8002950:	6e692073 	.word	0x6e692073
 8002954:	6e696220 	.word	0x6e696220
 8002958:	20797261 	.word	0x20797261
 800295c:	6d726f66 	.word	0x6d726f66
 8002960:	73756d20 	.word	0x73756d20
 8002964:	65722074 	.word	0x65722074
 8002968:	646f7270 	.word	0x646f7270
 800296c:	20656375 	.word	0x20656375
 8002970:	20656874 	.word	0x20656874
 8002974:	766f6261 	.word	0x766f6261
 8002978:	6f632065 	.word	0x6f632065
 800297c:	69727970 	.word	0x69727970
 8002980:	20746867 	.word	0x20746867
 8002984:	69746f6e 	.word	0x69746f6e
 8002988:	0d2c6563 	.word	0x0d2c6563
 800298c:	2020200a 	.word	0x2020200a
 8002990:	68742020 	.word	0x68742020
 8002994:	6c207369 	.word	0x6c207369
 8002998:	20747369 	.word	0x20747369
 800299c:	6320666f 	.word	0x6320666f
 80029a0:	69646e6f 	.word	0x69646e6f
 80029a4:	6e6f6974 	.word	0x6e6f6974
 80029a8:	6e612073 	.word	0x6e612073
 80029ac:	68742064 	.word	0x68742064
 80029b0:	6f662065 	.word	0x6f662065
 80029b4:	776f6c6c 	.word	0x776f6c6c
 80029b8:	20676e69 	.word	0x20676e69
 80029bc:	63736964 	.word	0x63736964
 80029c0:	6d69616c 	.word	0x6d69616c
 80029c4:	69207265 	.word	0x69207265
 80029c8:	6874206e 	.word	0x6874206e
 80029cc:	6f642065 	.word	0x6f642065
 80029d0:	656d7563 	.word	0x656d7563
 80029d4:	7461746e 	.word	0x7461746e
 80029d8:	0d6e6f69 	.word	0x0d6e6f69
 80029dc:	2020200a 	.word	0x2020200a
 80029e0:	6e612020 	.word	0x6e612020
 80029e4:	726f2f64 	.word	0x726f2f64
 80029e8:	68746f20 	.word	0x68746f20
 80029ec:	6d207265 	.word	0x6d207265
 80029f0:	72657461 	.word	0x72657461
 80029f4:	736c6169 	.word	0x736c6169
 80029f8:	6f727020 	.word	0x6f727020
 80029fc:	65646976 	.word	0x65646976
 8002a00:	69772064 	.word	0x69772064
 8002a04:	74206874 	.word	0x74206874
 8002a08:	64206568 	.word	0x64206568
 8002a0c:	72747369 	.word	0x72747369
 8002a10:	74756269 	.word	0x74756269
 8002a14:	2e6e6f69 	.word	0x2e6e6f69
 8002a18:	20200a0d 	.word	0x20200a0d
 8002a1c:	4e202e33 	.word	0x4e202e33
 8002a20:	68746965 	.word	0x68746965
 8002a24:	74207265 	.word	0x74207265
 8002a28:	6e206568 	.word	0x6e206568
 8002a2c:	20656d61 	.word	0x20656d61
 8002a30:	5320666f 	.word	0x5320666f
 8002a34:	63694d54 	.word	0x63694d54
 8002a38:	6c656f72 	.word	0x6c656f72
 8002a3c:	72746365 	.word	0x72746365
 8002a40:	63696e6f 	.word	0x63696e6f
 8002a44:	6f6e2073 	.word	0x6f6e2073
 8002a48:	68742072 	.word	0x68742072
 8002a4c:	616e2065 	.word	0x616e2065
 8002a50:	2073656d 	.word	0x2073656d
 8002a54:	6920666f 	.word	0x6920666f
 8002a58:	63207374 	.word	0x63207374
 8002a5c:	72746e6f 	.word	0x72746e6f
 8002a60:	74756269 	.word	0x74756269
 8002a64:	0d73726f 	.word	0x0d73726f
 8002a68:	2020200a 	.word	0x2020200a
 8002a6c:	616d2020 	.word	0x616d2020
 8002a70:	65622079 	.word	0x65622079
 8002a74:	65737520 	.word	0x65737520
 8002a78:	6f742064 	.word	0x6f742064
 8002a7c:	646e6520 	.word	0x646e6520
 8002a80:	6573726f 	.word	0x6573726f
 8002a84:	20726f20 	.word	0x20726f20
 8002a88:	6d6f7270 	.word	0x6d6f7270
 8002a8c:	2065746f 	.word	0x2065746f
 8002a90:	646f7270 	.word	0x646f7270
 8002a94:	73746375 	.word	0x73746375
 8002a98:	72656420 	.word	0x72656420
 8002a9c:	64657669 	.word	0x64657669
 8002aa0:	6f726620 	.word	0x6f726620
 8002aa4:	6874206d 	.word	0x6874206d
 8002aa8:	73207369 	.word	0x73207369
 8002aac:	7774666f 	.word	0x7774666f
 8002ab0:	0d657261 	.word	0x0d657261
 8002ab4:	2020200a 	.word	0x2020200a
 8002ab8:	69772020 	.word	0x69772020
 8002abc:	756f6874 	.word	0x756f6874
 8002ac0:	70732074 	.word	0x70732074
 8002ac4:	66696365 	.word	0x66696365
 8002ac8:	70206369 	.word	0x70206369
 8002acc:	726f6972 	.word	0x726f6972
 8002ad0:	69727720 	.word	0x69727720
 8002ad4:	6e657474 	.word	0x6e657474
 8002ad8:	72657020 	.word	0x72657020
 8002adc:	7373696d 	.word	0x7373696d
 8002ae0:	2e6e6f69 	.word	0x2e6e6f69
 8002ae4:	20200a0d 	.word	0x20200a0d
 8002ae8:	48540a0d 	.word	0x48540a0d
 8002aec:	53205349 	.word	0x53205349
 8002af0:	5754464f 	.word	0x5754464f
 8002af4:	20455241 	.word	0x20455241
 8002af8:	50205349 	.word	0x50205349
 8002afc:	49564f52 	.word	0x49564f52
 8002b00:	20444544 	.word	0x20444544
 8002b04:	54205942 	.word	0x54205942
 8002b08:	43204548 	.word	0x43204548
 8002b0c:	5259504f 	.word	0x5259504f
 8002b10:	54484749 	.word	0x54484749
 8002b14:	4c4f4820 	.word	0x4c4f4820
 8002b18:	53524544 	.word	0x53524544
 8002b1c:	444e4120 	.word	0x444e4120
 8002b20:	4e4f4320 	.word	0x4e4f4320
 8002b24:	42495254 	.word	0x42495254
 8002b28:	524f5455 	.word	0x524f5455
 8002b2c:	41222053 	.word	0x41222053
 8002b30:	53492053 	.word	0x53492053
 8002b34:	410a0d22 	.word	0x410a0d22
 8002b38:	4120444e 	.word	0x4120444e
 8002b3c:	4520594e 	.word	0x4520594e
 8002b40:	45525058 	.word	0x45525058
 8002b44:	4f205353 	.word	0x4f205353
 8002b48:	4d492052 	.word	0x4d492052
 8002b4c:	45494c50 	.word	0x45494c50
 8002b50:	41572044 	.word	0x41572044
 8002b54:	4e415252 	.word	0x4e415252
 8002b58:	53454954 	.word	0x53454954
 8002b5c:	4e49202c 	.word	0x4e49202c
 8002b60:	44554c43 	.word	0x44554c43
 8002b64:	2c474e49 	.word	0x2c474e49
 8002b68:	54554220 	.word	0x54554220
 8002b6c:	544f4e20 	.word	0x544f4e20
 8002b70:	4d494c20 	.word	0x4d494c20
 8002b74:	44455449 	.word	0x44455449
 8002b78:	2c4f5420 	.word	0x2c4f5420
 8002b7c:	45485420 	.word	0x45485420
 8002b80:	4d490a0d 	.word	0x4d490a0d
 8002b84:	45494c50 	.word	0x45494c50
 8002b88:	41572044 	.word	0x41572044
 8002b8c:	4e415252 	.word	0x4e415252
 8002b90:	53454954 	.word	0x53454954
 8002b94:	20464f20 	.word	0x20464f20
 8002b98:	4352454d 	.word	0x4352454d
 8002b9c:	544e4148 	.word	0x544e4148
 8002ba0:	4c494241 	.word	0x4c494241
 8002ba4:	20595449 	.word	0x20595449
 8002ba8:	20444e41 	.word	0x20444e41
 8002bac:	4e544946 	.word	0x4e544946
 8002bb0:	20535345 	.word	0x20535345
 8002bb4:	20524f46 	.word	0x20524f46
 8002bb8:	41502041 	.word	0x41502041
 8002bbc:	43495452 	.word	0x43495452
 8002bc0:	52414c55 	.word	0x52414c55
 8002bc4:	52555020 	.word	0x52555020
 8002bc8:	45534f50 	.word	0x45534f50
 8002bcc:	45524120 	.word	0x45524120
 8002bd0:	49440a0d 	.word	0x49440a0d
 8002bd4:	414c4353 	.word	0x414c4353
 8002bd8:	44454d49 	.word	0x44454d49
 8002bdc:	4e49202e 	.word	0x4e49202e
 8002be0:	204f4e20 	.word	0x204f4e20
 8002be4:	4e455645 	.word	0x4e455645
 8002be8:	48532054 	.word	0x48532054
 8002bec:	204c4c41 	.word	0x204c4c41
 8002bf0:	20454854 	.word	0x20454854
 8002bf4:	59504f43 	.word	0x59504f43
 8002bf8:	48474952 	.word	0x48474952
 8002bfc:	4f482054 	.word	0x4f482054
 8002c00:	5245444c 	.word	0x5245444c
 8002c04:	20524f20 	.word	0x20524f20
 8002c08:	544e4f43 	.word	0x544e4f43
 8002c0c:	55424952 	.word	0x55424952
 8002c10:	53524f54 	.word	0x53524f54
 8002c14:	20454220 	.word	0x20454220
 8002c18:	4241494c 	.word	0x4241494c
 8002c1c:	0a0d454c 	.word	0x0a0d454c
 8002c20:	20524f46 	.word	0x20524f46
 8002c24:	20594e41 	.word	0x20594e41
 8002c28:	45524944 	.word	0x45524944
 8002c2c:	202c5443 	.word	0x202c5443
 8002c30:	49444e49 	.word	0x49444e49
 8002c34:	54434552 	.word	0x54434552
 8002c38:	4e49202c 	.word	0x4e49202c
 8002c3c:	45444943 	.word	0x45444943
 8002c40:	4c41544e 	.word	0x4c41544e
 8002c44:	5053202c 	.word	0x5053202c
 8002c48:	41494345 	.word	0x41494345
 8002c4c:	45202c4c 	.word	0x45202c4c
 8002c50:	504d4558 	.word	0x504d4558
 8002c54:	5952414c 	.word	0x5952414c
 8002c58:	524f202c 	.word	0x524f202c
 8002c5c:	4e4f4320 	.word	0x4e4f4320
 8002c60:	55514553 	.word	0x55514553
 8002c64:	49544e45 	.word	0x49544e45
 8002c68:	0a0d4c41 	.word	0x0a0d4c41
 8002c6c:	414d4144 	.word	0x414d4144
 8002c70:	20534547 	.word	0x20534547
 8002c74:	434e4928 	.word	0x434e4928
 8002c78:	4944554c 	.word	0x4944554c
 8002c7c:	202c474e 	.word	0x202c474e
 8002c80:	20545542 	.word	0x20545542
 8002c84:	20544f4e 	.word	0x20544f4e
 8002c88:	494d494c 	.word	0x494d494c
 8002c8c:	20444554 	.word	0x20444554
 8002c90:	202c4f54 	.word	0x202c4f54
 8002c94:	434f5250 	.word	0x434f5250
 8002c98:	4d455255 	.word	0x4d455255
 8002c9c:	20544e45 	.word	0x20544e45
 8002ca0:	5320464f 	.word	0x5320464f
 8002ca4:	54534255 	.word	0x54534255
 8002ca8:	54555449 	.word	0x54555449
 8002cac:	4f472045 	.word	0x4f472045
 8002cb0:	2053444f 	.word	0x2053444f
 8002cb4:	0a0d524f 	.word	0x0a0d524f
 8002cb8:	56524553 	.word	0x56524553
 8002cbc:	53454349 	.word	0x53454349
 8002cc0:	4f4c203b 	.word	0x4f4c203b
 8002cc4:	4f205353 	.word	0x4f205353
 8002cc8:	53552046 	.word	0x53552046
 8002ccc:	44202c45 	.word	0x44202c45
 8002cd0:	2c415441 	.word	0x2c415441
 8002cd4:	20524f20 	.word	0x20524f20
 8002cd8:	464f5250 	.word	0x464f5250
 8002cdc:	3b535449 	.word	0x3b535449
 8002ce0:	20524f20 	.word	0x20524f20
 8002ce4:	49535542 	.word	0x49535542
 8002ce8:	5353454e 	.word	0x5353454e
 8002cec:	544e4920 	.word	0x544e4920
 8002cf0:	55525245 	.word	0x55525245
 8002cf4:	4f495450 	.word	0x4f495450
 8002cf8:	4820294e 	.word	0x4820294e
 8002cfc:	5645574f 	.word	0x5645574f
 8002d00:	0a0d5245 	.word	0x0a0d5245
 8002d04:	53554143 	.word	0x53554143
 8002d08:	41204445 	.word	0x41204445
 8002d0c:	4f20444e 	.word	0x4f20444e
 8002d10:	4e41204e 	.word	0x4e41204e
 8002d14:	48542059 	.word	0x48542059
 8002d18:	59524f45 	.word	0x59524f45
 8002d1c:	20464f20 	.word	0x20464f20
 8002d20:	4241494c 	.word	0x4241494c
 8002d24:	54494c49 	.word	0x54494c49
 8002d28:	57202c59 	.word	0x57202c59
 8002d2c:	48544548 	.word	0x48544548
 8002d30:	49205245 	.word	0x49205245
 8002d34:	4f43204e 	.word	0x4f43204e
 8002d38:	4152544e 	.word	0x4152544e
 8002d3c:	202c5443 	.word	0x202c5443
 8002d40:	49525453 	.word	0x49525453
 8002d44:	4c205443 	.word	0x4c205443
 8002d48:	49424149 	.word	0x49424149
 8002d4c:	5954494c 	.word	0x5954494c
 8002d50:	4f0a0d2c 	.word	0x4f0a0d2c
 8002d54:	4f542052 	.word	0x4f542052
 8002d58:	28205452 	.word	0x28205452
 8002d5c:	4c434e49 	.word	0x4c434e49
 8002d60:	4e494455 	.word	0x4e494455
 8002d64:	454e2047 	.word	0x454e2047
 8002d68:	47494c47 	.word	0x47494c47
 8002d6c:	45434e45 	.word	0x45434e45
 8002d70:	20524f20 	.word	0x20524f20
 8002d74:	4548544f 	.word	0x4548544f
 8002d78:	53495752 	.word	0x53495752
 8002d7c:	41202945 	.word	0x41202945
 8002d80:	49534952 	.word	0x49534952
 8002d84:	4920474e 	.word	0x4920474e
 8002d88:	4e41204e 	.word	0x4e41204e
 8002d8c:	41572059 	.word	0x41572059
 8002d90:	554f2059 	.word	0x554f2059
 8002d94:	464f2054 	.word	0x464f2054
 8002d98:	45485420 	.word	0x45485420
 8002d9c:	45535520 	.word	0x45535520
 8002da0:	464f0a0d 	.word	0x464f0a0d
 8002da4:	49485420 	.word	0x49485420
 8002da8:	4f532053 	.word	0x4f532053
 8002dac:	41575446 	.word	0x41575446
 8002db0:	202c4552 	.word	0x202c4552
 8002db4:	4e455645 	.word	0x4e455645
 8002db8:	20464920 	.word	0x20464920
 8002dbc:	49564441 	.word	0x49564441
 8002dc0:	20444553 	.word	0x20444553
 8002dc4:	5420464f 	.word	0x5420464f
 8002dc8:	50204548 	.word	0x50204548
 8002dcc:	4953534f 	.word	0x4953534f
 8002dd0:	494c4942 	.word	0x494c4942
 8002dd4:	4f205954 	.word	0x4f205954
 8002dd8:	55532046 	.word	0x55532046
 8002ddc:	44204843 	.word	0x44204843
 8002de0:	47414d41 	.word	0x47414d41
 8002de4:	0a0d2e45 	.word	0x0a0d2e45
 8002de8:	2a2a2a2a 	.word	0x2a2a2a2a
 8002dec:	2a2a2a2a 	.word	0x2a2a2a2a
 8002df0:	2a2a2a2a 	.word	0x2a2a2a2a
 8002df4:	2a2a2a2a 	.word	0x2a2a2a2a
 8002df8:	2a2a2a2a 	.word	0x2a2a2a2a
 8002dfc:	2a2a2a2a 	.word	0x2a2a2a2a
 8002e00:	2a2a2a2a 	.word	0x2a2a2a2a
 8002e04:	2a2a2a2a 	.word	0x2a2a2a2a
 8002e08:	2a2a2a2a 	.word	0x2a2a2a2a
 8002e0c:	2a2a2a2a 	.word	0x2a2a2a2a
 8002e10:	2a2a2a2a 	.word	0x2a2a2a2a
 8002e14:	2a2a2a2a 	.word	0x2a2a2a2a
 8002e18:	2a2a2a2a 	.word	0x2a2a2a2a
 8002e1c:	2a2a2a2a 	.word	0x2a2a2a2a
 8002e20:	2a2a2a2a 	.word	0x2a2a2a2a
 8002e24:	2a2a2a2a 	.word	0x2a2a2a2a
 8002e28:	2a2a2a2a 	.word	0x2a2a2a2a
 8002e2c:	2a2a2a2a 	.word	0x2a2a2a2a
 8002e30:	2a2a2a2a 	.word	0x2a2a2a2a
 8002e34:	2a2a2a2a 	.word	0x2a2a2a2a
 8002e38:	0a0d2a2a 	.word	0x0a0d2a2a
 8002e3c:	62696843 	.word	0x62696843
 8002e40:	20534f69 	.word	0x20534f69
 8002e44:	6f43202d 	.word	0x6f43202d
 8002e48:	69727970 	.word	0x69727970
 8002e4c:	20746867 	.word	0x20746867
 8002e50:	20294328 	.word	0x20294328
 8002e54:	36303032 	.word	0x36303032
 8002e58:	30322e2e 	.word	0x30322e2e
 8002e5c:	47203631 	.word	0x47203631
 8002e60:	61766f69 	.word	0x61766f69
 8002e64:	20696e6e 	.word	0x20696e6e
 8002e68:	53206944 	.word	0x53206944
 8002e6c:	6f697269 	.word	0x6f697269
 8002e70:	0a0d0a0d 	.word	0x0a0d0a0d
 8002e74:	6563694c 	.word	0x6563694c
 8002e78:	6465736e 	.word	0x6465736e
 8002e7c:	646e7520 	.word	0x646e7520
 8002e80:	74207265 	.word	0x74207265
 8002e84:	41206568 	.word	0x41206568
 8002e88:	68636170 	.word	0x68636170
 8002e8c:	694c2065 	.word	0x694c2065
 8002e90:	736e6563 	.word	0x736e6563
 8002e94:	56202c65 	.word	0x56202c65
 8002e98:	69737265 	.word	0x69737265
 8002e9c:	32206e6f 	.word	0x32206e6f
 8002ea0:	2820302e 	.word	0x2820302e
 8002ea4:	20656874 	.word	0x20656874
 8002ea8:	63694c22 	.word	0x63694c22
 8002eac:	65736e65 	.word	0x65736e65
 8002eb0:	0d3b2922 	.word	0x0d3b2922
 8002eb4:	756f790a 	.word	0x756f790a
 8002eb8:	79616d20 	.word	0x79616d20
 8002ebc:	746f6e20 	.word	0x746f6e20
 8002ec0:	65737520 	.word	0x65737520
 8002ec4:	69687420 	.word	0x69687420
 8002ec8:	69662073 	.word	0x69662073
 8002ecc:	6520656c 	.word	0x6520656c
 8002ed0:	70656378 	.word	0x70656378
 8002ed4:	6e692074 	.word	0x6e692074
 8002ed8:	6d6f6320 	.word	0x6d6f6320
 8002edc:	61696c70 	.word	0x61696c70
 8002ee0:	2065636e 	.word	0x2065636e
 8002ee4:	68746977 	.word	0x68746977
 8002ee8:	65687420 	.word	0x65687420
 8002eec:	63694c20 	.word	0x63694c20
 8002ef0:	65736e65 	.word	0x65736e65
 8002ef4:	590a0d2e 	.word	0x590a0d2e
 8002ef8:	6d20756f 	.word	0x6d20756f
 8002efc:	6f207961 	.word	0x6f207961
 8002f00:	69617462 	.word	0x69617462
 8002f04:	2061206e 	.word	0x2061206e
 8002f08:	79706f63 	.word	0x79706f63
 8002f0c:	20666f20 	.word	0x20666f20
 8002f10:	20656874 	.word	0x20656874
 8002f14:	6563694c 	.word	0x6563694c
 8002f18:	2065736e 	.word	0x2065736e
 8002f1c:	0a0d7461 	.word	0x0a0d7461
 8002f20:	20200a0d 	.word	0x20200a0d
 8002f24:	74682020 	.word	0x74682020
 8002f28:	2f3a7074 	.word	0x2f3a7074
 8002f2c:	7777772f 	.word	0x7777772f
 8002f30:	6170612e 	.word	0x6170612e
 8002f34:	2e656863 	.word	0x2e656863
 8002f38:	2f67726f 	.word	0x2f67726f
 8002f3c:	6563696c 	.word	0x6563696c
 8002f40:	7365736e 	.word	0x7365736e
 8002f44:	43494c2f 	.word	0x43494c2f
 8002f48:	45534e45 	.word	0x45534e45
 8002f4c:	302e322d 	.word	0x302e322d
 8002f50:	0a0d0a0d 	.word	0x0a0d0a0d
 8002f54:	656c6e55 	.word	0x656c6e55
 8002f58:	72207373 	.word	0x72207373
 8002f5c:	69757165 	.word	0x69757165
 8002f60:	20646572 	.word	0x20646572
 8002f64:	61207962 	.word	0x61207962
 8002f68:	696c7070 	.word	0x696c7070
 8002f6c:	6c626163 	.word	0x6c626163
 8002f70:	616c2065 	.word	0x616c2065
 8002f74:	726f2077 	.word	0x726f2077
 8002f78:	72676120 	.word	0x72676120
 8002f7c:	20646565 	.word	0x20646565
 8002f80:	69206f74 	.word	0x69206f74
 8002f84:	7277206e 	.word	0x7277206e
 8002f88:	6e697469 	.word	0x6e697469
 8002f8c:	73202c67 	.word	0x73202c67
 8002f90:	7774666f 	.word	0x7774666f
 8002f94:	0d657261 	.word	0x0d657261
 8002f98:	7369640a 	.word	0x7369640a
 8002f9c:	62697274 	.word	0x62697274
 8002fa0:	64657475 	.word	0x64657475
 8002fa4:	646e7520 	.word	0x646e7520
 8002fa8:	74207265 	.word	0x74207265
 8002fac:	4c206568 	.word	0x4c206568
 8002fb0:	6e656369 	.word	0x6e656369
 8002fb4:	69206573 	.word	0x69206573
 8002fb8:	69642073 	.word	0x69642073
 8002fbc:	69727473 	.word	0x69727473
 8002fc0:	65747562 	.word	0x65747562
 8002fc4:	6e6f2064 	.word	0x6e6f2064
 8002fc8:	206e6120 	.word	0x206e6120
 8002fcc:	20534122 	.word	0x20534122
 8002fd0:	20225349 	.word	0x20225349
 8002fd4:	49534142 	.word	0x49534142
 8002fd8:	0a0d2c53 	.word	0x0a0d2c53
 8002fdc:	48544957 	.word	0x48544957
 8002fe0:	2054554f 	.word	0x2054554f
 8002fe4:	52524157 	.word	0x52524157
 8002fe8:	49544e41 	.word	0x49544e41
 8002fec:	4f205345 	.word	0x4f205345
 8002ff0:	4f432052 	.word	0x4f432052
 8002ff4:	5449444e 	.word	0x5449444e
 8002ff8:	534e4f49 	.word	0x534e4f49
 8002ffc:	20464f20 	.word	0x20464f20
 8003000:	20594e41 	.word	0x20594e41
 8003004:	444e494b 	.word	0x444e494b
 8003008:	6965202c 	.word	0x6965202c
 800300c:	72656874 	.word	0x72656874
 8003010:	70786520 	.word	0x70786520
 8003014:	73736572 	.word	0x73736572
 8003018:	20726f20 	.word	0x20726f20
 800301c:	6c706d69 	.word	0x6c706d69
 8003020:	2e646569 	.word	0x2e646569
 8003024:	65530a0d 	.word	0x65530a0d
 8003028:	68742065 	.word	0x68742065
 800302c:	694c2065 	.word	0x694c2065
 8003030:	736e6563 	.word	0x736e6563
 8003034:	6f662065 	.word	0x6f662065
 8003038:	68742072 	.word	0x68742072
 800303c:	70732065 	.word	0x70732065
 8003040:	66696365 	.word	0x66696365
 8003044:	6c206369 	.word	0x6c206369
 8003048:	75676e61 	.word	0x75676e61
 800304c:	20656761 	.word	0x20656761
 8003050:	65766f67 	.word	0x65766f67
 8003054:	6e696e72 	.word	0x6e696e72
 8003058:	65702067 	.word	0x65702067
 800305c:	73696d72 	.word	0x73696d72
 8003060:	6e6f6973 	.word	0x6e6f6973
 8003064:	6e612073 	.word	0x6e612073
 8003068:	6c0a0d64 	.word	0x6c0a0d64
 800306c:	74696d69 	.word	0x74696d69
 8003070:	6f697461 	.word	0x6f697461
 8003074:	7520736e 	.word	0x7520736e
 8003078:	7265646e 	.word	0x7265646e
 800307c:	65687420 	.word	0x65687420
 8003080:	63694c20 	.word	0x63694c20
 8003084:	65736e65 	.word	0x65736e65
 8003088:	2a0a0d2e 	.word	0x2a0a0d2e
 800308c:	2a2a2a2a 	.word	0x2a2a2a2a
 8003090:	2a2a2a2a 	.word	0x2a2a2a2a
 8003094:	2a2a2a2a 	.word	0x2a2a2a2a
 8003098:	2a2a2a2a 	.word	0x2a2a2a2a
 800309c:	2a2a2a2a 	.word	0x2a2a2a2a
 80030a0:	2a2a2a2a 	.word	0x2a2a2a2a
 80030a4:	2a2a2a2a 	.word	0x2a2a2a2a
 80030a8:	2a2a2a2a 	.word	0x2a2a2a2a
 80030ac:	2a2a2a2a 	.word	0x2a2a2a2a
 80030b0:	2a2a2a2a 	.word	0x2a2a2a2a
 80030b4:	2a2a2a2a 	.word	0x2a2a2a2a
 80030b8:	2a2a2a2a 	.word	0x2a2a2a2a
 80030bc:	2a2a2a2a 	.word	0x2a2a2a2a
 80030c0:	2a2a2a2a 	.word	0x2a2a2a2a
 80030c4:	2a2a2a2a 	.word	0x2a2a2a2a
 80030c8:	2a2a2a2a 	.word	0x2a2a2a2a
 80030cc:	2a2a2a2a 	.word	0x2a2a2a2a
 80030d0:	2a2a2a2a 	.word	0x2a2a2a2a
 80030d4:	2a2a2a2a 	.word	0x2a2a2a2a
 80030d8:	2a2a2a2a 	.word	0x2a2a2a2a
 80030dc:	430a0d2a 	.word	0x430a0d2a
 80030e0:	7279706f 	.word	0x7279706f
 80030e4:	74686769 	.word	0x74686769
 80030e8:	29632820 	.word	0x29632820
 80030ec:	31303220 	.word	0x31303220
 80030f0:	30322d37 	.word	0x30322d37
 80030f4:	202c3831 	.word	0x202c3831
 80030f8:	74726542 	.word	0x74726542
 80030fc:	20646c6f 	.word	0x20646c6f
 8003100:	206e6156 	.word	0x206e6156
 8003104:	206e6564 	.word	0x206e6564
 8003108:	67726542 	.word	0x67726542
 800310c:	76282068 	.word	0x76282068
 8003110:	65646e61 	.word	0x65646e61
 8003114:	7265626e 	.word	0x7265626e
 8003118:	62406867 	.word	0x62406867
 800311c:	6f747265 	.word	0x6f747265
 8003120:	6f2e646c 	.word	0x6f2e646c
 8003124:	0d296772 	.word	0x0d296772
 8003128:	6c6c410a 	.word	0x6c6c410a
 800312c:	67697220 	.word	0x67697220
 8003130:	20737468 	.word	0x20737468
 8003134:	65736572 	.word	0x65736572
 8003138:	64657672 	.word	0x64657672
 800313c:	540a0d2e 	.word	0x540a0d2e
 8003140:	20736968 	.word	0x20736968
 8003144:	6b726f77 	.word	0x6b726f77
 8003148:	73616820 	.word	0x73616820
 800314c:	65656220 	.word	0x65656220
 8003150:	6564206e 	.word	0x6564206e
 8003154:	6f6c6576 	.word	0x6f6c6576
 8003158:	20646570 	.word	0x20646570
 800315c:	73206f74 	.word	0x73206f74
 8003160:	6f707075 	.word	0x6f707075
 8003164:	72207472 	.word	0x72207472
 8003168:	61657365 	.word	0x61657365
 800316c:	20686372 	.word	0x20686372
 8003170:	646e7566 	.word	0x646e7566
 8003174:	62206465 	.word	0x62206465
 8003178:	220a0d79 	.word	0x220a0d79
 800317c:	646e7546 	.word	0x646e7546
 8003180:	726f6620 	.word	0x726f6620
 8003184:	69635320 	.word	0x69635320
 8003188:	69746e65 	.word	0x69746e65
 800318c:	20636966 	.word	0x20636966
 8003190:	65736552 	.word	0x65736552
 8003194:	68637261 	.word	0x68637261
 8003198:	6c46202c 	.word	0x6c46202c
 800319c:	65646e61 	.word	0x65646e61
 80031a0:	20227372 	.word	0x20227372
 80031a4:	572e4628 	.word	0x572e4628
 80031a8:	2d2e4f2e 	.word	0x2d2e4f2e
 80031ac:	61616c56 	.word	0x61616c56
 80031b0:	7265646e 	.word	0x7265646e
 80031b4:	2e296e65 	.word	0x2e296e65
 80031b8:	0a0d0a0d 	.word	0x0a0d0a0d
 80031bc:	69646552 	.word	0x69646552
 80031c0:	69727473 	.word	0x69727473
 80031c4:	69747562 	.word	0x69747562
 80031c8:	61206e6f 	.word	0x61206e6f
 80031cc:	7520646e 	.word	0x7520646e
 80031d0:	69206573 	.word	0x69206573
 80031d4:	6f73206e 	.word	0x6f73206e
 80031d8:	65637275 	.word	0x65637275
 80031dc:	646e6120 	.word	0x646e6120
 80031e0:	6e696220 	.word	0x6e696220
 80031e4:	20797261 	.word	0x20797261
 80031e8:	6d726f66 	.word	0x6d726f66
 80031ec:	77202c73 	.word	0x77202c73
 80031f0:	20687469 	.word	0x20687469
 80031f4:	7720726f 	.word	0x7720726f
 80031f8:	6f687469 	.word	0x6f687469
 80031fc:	0a0d7475 	.word	0x0a0d7475
 8003200:	69646f6d 	.word	0x69646f6d
 8003204:	61636966 	.word	0x61636966
 8003208:	6e6f6974 	.word	0x6e6f6974
 800320c:	7261202c 	.word	0x7261202c
 8003210:	65702065 	.word	0x65702065
 8003214:	74696d72 	.word	0x74696d72
 8003218:	20646574 	.word	0x20646574
 800321c:	766f7270 	.word	0x766f7270
 8003220:	64656469 	.word	0x64656469
 8003224:	61687420 	.word	0x61687420
 8003228:	68742074 	.word	0x68742074
 800322c:	6f662065 	.word	0x6f662065
 8003230:	776f6c6c 	.word	0x776f6c6c
 8003234:	20676e69 	.word	0x20676e69
 8003238:	646e6f63 	.word	0x646e6f63
 800323c:	6f697469 	.word	0x6f697469
 8003240:	6120736e 	.word	0x6120736e
 8003244:	6d206572 	.word	0x6d206572
 8003248:	0d3a7465 	.word	0x0d3a7465
 800324c:	2020200a 	.word	0x2020200a
 8003250:	52202a20 	.word	0x52202a20
 8003254:	73696465 	.word	0x73696465
 8003258:	62697274 	.word	0x62697274
 800325c:	6f697475 	.word	0x6f697475
 8003260:	6f20736e 	.word	0x6f20736e
 8003264:	6f732066 	.word	0x6f732066
 8003268:	65637275 	.word	0x65637275
 800326c:	646f6320 	.word	0x646f6320
 8003270:	756d2065 	.word	0x756d2065
 8003274:	72207473 	.word	0x72207473
 8003278:	69617465 	.word	0x69617465
 800327c:	6874206e 	.word	0x6874206e
 8003280:	62612065 	.word	0x62612065
 8003284:	2065766f 	.word	0x2065766f
 8003288:	79706f63 	.word	0x79706f63
 800328c:	68676972 	.word	0x68676972
 8003290:	200a0d74 	.word	0x200a0d74
 8003294:	20202020 	.word	0x20202020
 8003298:	746f6e20 	.word	0x746f6e20
 800329c:	2c656369 	.word	0x2c656369
 80032a0:	69687420 	.word	0x69687420
 80032a4:	696c2073 	.word	0x696c2073
 80032a8:	6f207473 	.word	0x6f207473
 80032ac:	6f632066 	.word	0x6f632066
 80032b0:	7469646e 	.word	0x7469646e
 80032b4:	736e6f69 	.word	0x736e6f69
 80032b8:	646e6120 	.word	0x646e6120
 80032bc:	65687420 	.word	0x65687420
 80032c0:	6c6f6620 	.word	0x6c6f6620
 80032c4:	69776f6c 	.word	0x69776f6c
 80032c8:	6420676e 	.word	0x6420676e
 80032cc:	6c637369 	.word	0x6c637369
 80032d0:	656d6961 	.word	0x656d6961
 80032d4:	0a0d2e72 	.word	0x0a0d2e72
 80032d8:	20202020 	.word	0x20202020
 80032dc:	6552202a 	.word	0x6552202a
 80032e0:	74736964 	.word	0x74736964
 80032e4:	75626972 	.word	0x75626972
 80032e8:	6e6f6974 	.word	0x6e6f6974
 80032ec:	6e692073 	.word	0x6e692073
 80032f0:	6e696220 	.word	0x6e696220
 80032f4:	20797261 	.word	0x20797261
 80032f8:	6d726f66 	.word	0x6d726f66
 80032fc:	73756d20 	.word	0x73756d20
 8003300:	65722074 	.word	0x65722074
 8003304:	646f7270 	.word	0x646f7270
 8003308:	20656375 	.word	0x20656375
 800330c:	20656874 	.word	0x20656874
 8003310:	766f6261 	.word	0x766f6261
 8003314:	6f632065 	.word	0x6f632065
 8003318:	69727970 	.word	0x69727970
 800331c:	0d746867 	.word	0x0d746867
 8003320:	2020200a 	.word	0x2020200a
 8003324:	6e202020 	.word	0x6e202020
 8003328:	6369746f 	.word	0x6369746f
 800332c:	74202c65 	.word	0x74202c65
 8003330:	20736968 	.word	0x20736968
 8003334:	7473696c 	.word	0x7473696c
 8003338:	20666f20 	.word	0x20666f20
 800333c:	646e6f63 	.word	0x646e6f63
 8003340:	6f697469 	.word	0x6f697469
 8003344:	6120736e 	.word	0x6120736e
 8003348:	7420646e 	.word	0x7420646e
 800334c:	66206568 	.word	0x66206568
 8003350:	6f6c6c6f 	.word	0x6f6c6c6f
 8003354:	676e6977 	.word	0x676e6977
 8003358:	73696420 	.word	0x73696420
 800335c:	69616c63 	.word	0x69616c63
 8003360:	2072656d 	.word	0x2072656d
 8003364:	74206e69 	.word	0x74206e69
 8003368:	0a0d6568 	.word	0x0a0d6568
 800336c:	20202020 	.word	0x20202020
 8003370:	6f642020 	.word	0x6f642020
 8003374:	656d7563 	.word	0x656d7563
 8003378:	7461746e 	.word	0x7461746e
 800337c:	206e6f69 	.word	0x206e6f69
 8003380:	2f646e61 	.word	0x2f646e61
 8003384:	6f20726f 	.word	0x6f20726f
 8003388:	72656874 	.word	0x72656874
 800338c:	74616d20 	.word	0x74616d20
 8003390:	61697265 	.word	0x61697265
 8003394:	7020736c 	.word	0x7020736c
 8003398:	69766f72 	.word	0x69766f72
 800339c:	20646564 	.word	0x20646564
 80033a0:	68746977 	.word	0x68746977
 80033a4:	65687420 	.word	0x65687420
 80033a8:	73696420 	.word	0x73696420
 80033ac:	62697274 	.word	0x62697274
 80033b0:	6f697475 	.word	0x6f697475
 80033b4:	0a0d2e6e 	.word	0x0a0d2e6e
 80033b8:	20202020 	.word	0x20202020
 80033bc:	654e202a 	.word	0x654e202a
 80033c0:	65687469 	.word	0x65687469
 80033c4:	68742072 	.word	0x68742072
 80033c8:	616e2065 	.word	0x616e2065
 80033cc:	6f20656d 	.word	0x6f20656d
 80033d0:	68742066 	.word	0x68742066
 80033d4:	75612065 	.word	0x75612065
 80033d8:	726f6874 	.word	0x726f6874
 80033dc:	726f6e20 	.word	0x726f6e20
 80033e0:	65687420 	.word	0x65687420
 80033e4:	20200a0d 	.word	0x20200a0d
 80033e8:	20202020 	.word	0x20202020
 80033ec:	656d616e 	.word	0x656d616e
 80033f0:	666f2073 	.word	0x666f2073
 80033f4:	73746920 	.word	0x73746920
 80033f8:	6e6f6320 	.word	0x6e6f6320
 80033fc:	62697274 	.word	0x62697274
 8003400:	726f7475 	.word	0x726f7475
 8003404:	616d2073 	.word	0x616d2073
 8003408:	65622079 	.word	0x65622079
 800340c:	65737520 	.word	0x65737520
 8003410:	6f742064 	.word	0x6f742064
 8003414:	646e6520 	.word	0x646e6520
 8003418:	6573726f 	.word	0x6573726f
 800341c:	20726f20 	.word	0x20726f20
 8003420:	6d6f7270 	.word	0x6d6f7270
 8003424:	2065746f 	.word	0x2065746f
 8003428:	646f7270 	.word	0x646f7270
 800342c:	73746375 	.word	0x73746375
 8003430:	20200a0d 	.word	0x20200a0d
 8003434:	20202020 	.word	0x20202020
 8003438:	69726564 	.word	0x69726564
 800343c:	20646576 	.word	0x20646576
 8003440:	6d6f7266 	.word	0x6d6f7266
 8003444:	69687420 	.word	0x69687420
 8003448:	6f732073 	.word	0x6f732073
 800344c:	61777466 	.word	0x61777466
 8003450:	77206572 	.word	0x77206572
 8003454:	6f687469 	.word	0x6f687469
 8003458:	73207475 	.word	0x73207475
 800345c:	69636570 	.word	0x69636570
 8003460:	20636966 	.word	0x20636966
 8003464:	6f697270 	.word	0x6f697270
 8003468:	72772072 	.word	0x72772072
 800346c:	65747469 	.word	0x65747469
 8003470:	6570206e 	.word	0x6570206e
 8003474:	73696d72 	.word	0x73696d72
 8003478:	6e6f6973 	.word	0x6e6f6973
 800347c:	0d0a0d2e 	.word	0x0d0a0d2e
 8003480:	4948540a 	.word	0x4948540a
 8003484:	4f532053 	.word	0x4f532053
 8003488:	41575446 	.word	0x41575446
 800348c:	49204552 	.word	0x49204552
 8003490:	52502053 	.word	0x52502053
 8003494:	4449564f 	.word	0x4449564f
 8003498:	42204445 	.word	0x42204445
 800349c:	48542059 	.word	0x48542059
 80034a0:	4f432045 	.word	0x4f432045
 80034a4:	49525950 	.word	0x49525950
 80034a8:	20544847 	.word	0x20544847
 80034ac:	444c4f48 	.word	0x444c4f48
 80034b0:	20535245 	.word	0x20535245
 80034b4:	20444e41 	.word	0x20444e41
 80034b8:	544e4f43 	.word	0x544e4f43
 80034bc:	55424952 	.word	0x55424952
 80034c0:	53524f54 	.word	0x53524f54
 80034c4:	53412220 	.word	0x53412220
 80034c8:	22534920 	.word	0x22534920
 80034cc:	444e4120 	.word	0x444e4120
 80034d0:	4e410a0d 	.word	0x4e410a0d
 80034d4:	58452059 	.word	0x58452059
 80034d8:	53455250 	.word	0x53455250
 80034dc:	524f2053 	.word	0x524f2053
 80034e0:	504d4920 	.word	0x504d4920
 80034e4:	4445494c 	.word	0x4445494c
 80034e8:	52415720 	.word	0x52415720
 80034ec:	544e4152 	.word	0x544e4152
 80034f0:	2c534549 	.word	0x2c534549
 80034f4:	434e4920 	.word	0x434e4920
 80034f8:	4944554c 	.word	0x4944554c
 80034fc:	202c474e 	.word	0x202c474e
 8003500:	20545542 	.word	0x20545542
 8003504:	20544f4e 	.word	0x20544f4e
 8003508:	494d494c 	.word	0x494d494c
 800350c:	20444554 	.word	0x20444554
 8003510:	202c4f54 	.word	0x202c4f54
 8003514:	20454854 	.word	0x20454854
 8003518:	4c504d49 	.word	0x4c504d49
 800351c:	0d444549 	.word	0x0d444549
 8003520:	5241570a 	.word	0x5241570a
 8003524:	544e4152 	.word	0x544e4152
 8003528:	20534549 	.word	0x20534549
 800352c:	4d20464f 	.word	0x4d20464f
 8003530:	48435245 	.word	0x48435245
 8003534:	41544e41 	.word	0x41544e41
 8003538:	494c4942 	.word	0x494c4942
 800353c:	41205954 	.word	0x41205954
 8003540:	4620444e 	.word	0x4620444e
 8003544:	454e5449 	.word	0x454e5449
 8003548:	46205353 	.word	0x46205353
 800354c:	4120524f 	.word	0x4120524f
 8003550:	52415020 	.word	0x52415020
 8003554:	55434954 	.word	0x55434954
 8003558:	2052414c 	.word	0x2052414c
 800355c:	50525550 	.word	0x50525550
 8003560:	2045534f 	.word	0x2045534f
 8003564:	0d455241 	.word	0x0d455241
 8003568:	5349440a 	.word	0x5349440a
 800356c:	49414c43 	.word	0x49414c43
 8003570:	2e44454d 	.word	0x2e44454d
 8003574:	204e4920 	.word	0x204e4920
 8003578:	45204f4e 	.word	0x45204f4e
 800357c:	544e4556 	.word	0x544e4556
 8003580:	41485320 	.word	0x41485320
 8003584:	54204c4c 	.word	0x54204c4c
 8003588:	41204548 	.word	0x41204548
 800358c:	4f485455 	.word	0x4f485455
 8003590:	524f2052 	.word	0x524f2052
 8003594:	53494420 	.word	0x53494420
 8003598:	42495254 	.word	0x42495254
 800359c:	524f5455 	.word	0x524f5455
 80035a0:	20454220 	.word	0x20454220
 80035a4:	4241494c 	.word	0x4241494c
 80035a8:	4620454c 	.word	0x4620454c
 80035ac:	4120524f 	.word	0x4120524f
 80035b0:	0a0d594e 	.word	0x0a0d594e
 80035b4:	45524944 	.word	0x45524944
 80035b8:	202c5443 	.word	0x202c5443
 80035bc:	49444e49 	.word	0x49444e49
 80035c0:	54434552 	.word	0x54434552
 80035c4:	4e49202c 	.word	0x4e49202c
 80035c8:	45444943 	.word	0x45444943
 80035cc:	4c41544e 	.word	0x4c41544e
 80035d0:	5053202c 	.word	0x5053202c
 80035d4:	41494345 	.word	0x41494345
 80035d8:	45202c4c 	.word	0x45202c4c
 80035dc:	504d4558 	.word	0x504d4558
 80035e0:	5952414c 	.word	0x5952414c
 80035e4:	524f202c 	.word	0x524f202c
 80035e8:	4e4f4320 	.word	0x4e4f4320
 80035ec:	55514553 	.word	0x55514553
 80035f0:	49544e45 	.word	0x49544e45
 80035f4:	44204c41 	.word	0x44204c41
 80035f8:	47414d41 	.word	0x47414d41
 80035fc:	0a0d5345 	.word	0x0a0d5345
 8003600:	434e4928 	.word	0x434e4928
 8003604:	4944554c 	.word	0x4944554c
 8003608:	202c474e 	.word	0x202c474e
 800360c:	20545542 	.word	0x20545542
 8003610:	20544f4e 	.word	0x20544f4e
 8003614:	494d494c 	.word	0x494d494c
 8003618:	20444554 	.word	0x20444554
 800361c:	202c4f54 	.word	0x202c4f54
 8003620:	434f5250 	.word	0x434f5250
 8003624:	4d455255 	.word	0x4d455255
 8003628:	20544e45 	.word	0x20544e45
 800362c:	5320464f 	.word	0x5320464f
 8003630:	54534255 	.word	0x54534255
 8003634:	54555449 	.word	0x54555449
 8003638:	4f472045 	.word	0x4f472045
 800363c:	2053444f 	.word	0x2053444f
 8003640:	5320524f 	.word	0x5320524f
 8003644:	49565245 	.word	0x49565245
 8003648:	3b534543 	.word	0x3b534543
 800364c:	4f4c0a0d 	.word	0x4f4c0a0d
 8003650:	4f205353 	.word	0x4f205353
 8003654:	53552046 	.word	0x53552046
 8003658:	44202c45 	.word	0x44202c45
 800365c:	2c415441 	.word	0x2c415441
 8003660:	20524f20 	.word	0x20524f20
 8003664:	464f5250 	.word	0x464f5250
 8003668:	3b535449 	.word	0x3b535449
 800366c:	20524f20 	.word	0x20524f20
 8003670:	49535542 	.word	0x49535542
 8003674:	5353454e 	.word	0x5353454e
 8003678:	544e4920 	.word	0x544e4920
 800367c:	55525245 	.word	0x55525245
 8003680:	4f495450 	.word	0x4f495450
 8003684:	4820294e 	.word	0x4820294e
 8003688:	5645574f 	.word	0x5645574f
 800368c:	43205245 	.word	0x43205245
 8003690:	45535541 	.word	0x45535541
 8003694:	4e412044 	.word	0x4e412044
 8003698:	4f0a0d44 	.word	0x4f0a0d44
 800369c:	4e41204e 	.word	0x4e41204e
 80036a0:	48542059 	.word	0x48542059
 80036a4:	59524f45 	.word	0x59524f45
 80036a8:	20464f20 	.word	0x20464f20
 80036ac:	4241494c 	.word	0x4241494c
 80036b0:	54494c49 	.word	0x54494c49
 80036b4:	57202c59 	.word	0x57202c59
 80036b8:	48544548 	.word	0x48544548
 80036bc:	49205245 	.word	0x49205245
 80036c0:	4f43204e 	.word	0x4f43204e
 80036c4:	4152544e 	.word	0x4152544e
 80036c8:	202c5443 	.word	0x202c5443
 80036cc:	49525453 	.word	0x49525453
 80036d0:	4c205443 	.word	0x4c205443
 80036d4:	49424149 	.word	0x49424149
 80036d8:	5954494c 	.word	0x5954494c
 80036dc:	524f202c 	.word	0x524f202c
 80036e0:	524f5420 	.word	0x524f5420
 80036e4:	280a0d54 	.word	0x280a0d54
 80036e8:	4c434e49 	.word	0x4c434e49
 80036ec:	4e494455 	.word	0x4e494455
 80036f0:	454e2047 	.word	0x454e2047
 80036f4:	47494c47 	.word	0x47494c47
 80036f8:	45434e45 	.word	0x45434e45
 80036fc:	20524f20 	.word	0x20524f20
 8003700:	4548544f 	.word	0x4548544f
 8003704:	53495752 	.word	0x53495752
 8003708:	41202945 	.word	0x41202945
 800370c:	49534952 	.word	0x49534952
 8003710:	4920474e 	.word	0x4920474e
 8003714:	4e41204e 	.word	0x4e41204e
 8003718:	41572059 	.word	0x41572059
 800371c:	554f2059 	.word	0x554f2059
 8003720:	464f2054 	.word	0x464f2054
 8003724:	45485420 	.word	0x45485420
 8003728:	45535520 	.word	0x45535520
 800372c:	20464f20 	.word	0x20464f20
 8003730:	53494854 	.word	0x53494854
 8003734:	4f530a0d 	.word	0x4f530a0d
 8003738:	41575446 	.word	0x41575446
 800373c:	202c4552 	.word	0x202c4552
 8003740:	4e455645 	.word	0x4e455645
 8003744:	20464920 	.word	0x20464920
 8003748:	49564441 	.word	0x49564441
 800374c:	20444553 	.word	0x20444553
 8003750:	5420464f 	.word	0x5420464f
 8003754:	50204548 	.word	0x50204548
 8003758:	4953534f 	.word	0x4953534f
 800375c:	494c4942 	.word	0x494c4942
 8003760:	4f205954 	.word	0x4f205954
 8003764:	55532046 	.word	0x55532046
 8003768:	44204843 	.word	0x44204843
 800376c:	47414d41 	.word	0x47414d41
 8003770:	0a0d2e45 	.word	0x0a0d2e45
 8003774:	2a2a2a2a 	.word	0x2a2a2a2a
 8003778:	2a2a2a2a 	.word	0x2a2a2a2a
 800377c:	2a2a2a2a 	.word	0x2a2a2a2a
 8003780:	2a2a2a2a 	.word	0x2a2a2a2a
 8003784:	2a2a2a2a 	.word	0x2a2a2a2a
 8003788:	2a2a2a2a 	.word	0x2a2a2a2a
 800378c:	2a2a2a2a 	.word	0x2a2a2a2a
 8003790:	2a2a2a2a 	.word	0x2a2a2a2a
 8003794:	2a2a2a2a 	.word	0x2a2a2a2a
 8003798:	2a2a2a2a 	.word	0x2a2a2a2a
 800379c:	2a2a2a2a 	.word	0x2a2a2a2a
 80037a0:	2a2a2a2a 	.word	0x2a2a2a2a
 80037a4:	2a2a2a2a 	.word	0x2a2a2a2a
 80037a8:	2a2a2a2a 	.word	0x2a2a2a2a
 80037ac:	2a2a2a2a 	.word	0x2a2a2a2a
 80037b0:	2a2a2a2a 	.word	0x2a2a2a2a
 80037b4:	2a2a2a2a 	.word	0x2a2a2a2a
 80037b8:	2a2a2a2a 	.word	0x2a2a2a2a
 80037bc:	2a2a2a2a 	.word	0x2a2a2a2a
 80037c0:	2a2a2a2a 	.word	0x2a2a2a2a
 80037c4:	0a0d2a2a 	.word	0x0a0d2a2a
 80037c8:	0d00      	.short	0x0d00
 80037ca:	0a          	.byte	0x0a

080037cb <_binary_data_license_bin_end>:
	...

080037cc <__aeabi_uldivmod>:
 80037cc:	b953      	cbnz	r3, 80037e4 <__aeabi_uldivmod+0x18>
 80037ce:	b94a      	cbnz	r2, 80037e4 <__aeabi_uldivmod+0x18>
 80037d0:	2900      	cmp	r1, #0
 80037d2:	bf08      	it	eq
 80037d4:	2800      	cmpeq	r0, #0
 80037d6:	bf1c      	itt	ne
 80037d8:	f04f 31ff 	movne.w	r1, #4294967295	; 0xffffffff
 80037dc:	f04f 30ff 	movne.w	r0, #4294967295	; 0xffffffff
 80037e0:	f000 b97a 	b.w	8003ad8 <__aeabi_idiv0>
 80037e4:	f1ad 0c08 	sub.w	ip, sp, #8
 80037e8:	e96d ce04 	strd	ip, lr, [sp, #-16]!
 80037ec:	f000 f806 	bl	80037fc <__udivmoddi4>
 80037f0:	f8dd e004 	ldr.w	lr, [sp, #4]
 80037f4:	e9dd 2302 	ldrd	r2, r3, [sp, #8]
 80037f8:	b004      	add	sp, #16
 80037fa:	4770      	bx	lr

080037fc <__udivmoddi4>:
 80037fc:	e92d 47f0 	stmdb	sp!, {r4, r5, r6, r7, r8, r9, sl, lr}
 8003800:	9d08      	ldr	r5, [sp, #32]
 8003802:	460e      	mov	r6, r1
 8003804:	4604      	mov	r4, r0
 8003806:	468e      	mov	lr, r1
 8003808:	2b00      	cmp	r3, #0
 800380a:	d14d      	bne.n	80038a8 <__udivmoddi4+0xac>
 800380c:	428a      	cmp	r2, r1
 800380e:	4694      	mov	ip, r2
 8003810:	d969      	bls.n	80038e6 <__udivmoddi4+0xea>
 8003812:	fab2 f282 	clz	r2, r2
 8003816:	b152      	cbz	r2, 800382e <__udivmoddi4+0x32>
 8003818:	fa01 f302 	lsl.w	r3, r1, r2
 800381c:	f1c2 0120 	rsb	r1, r2, #32
 8003820:	fa20 f101 	lsr.w	r1, r0, r1
 8003824:	fa0c fc02 	lsl.w	ip, ip, r2
 8003828:	ea41 0e03 	orr.w	lr, r1, r3
 800382c:	4094      	lsls	r4, r2
 800382e:	ea4f 471c 	mov.w	r7, ip, lsr #16
 8003832:	fbbe f0f7 	udiv	r0, lr, r7
 8003836:	fa1f f68c 	uxth.w	r6, ip
 800383a:	fb07 ee10 	mls	lr, r7, r0, lr
 800383e:	fb00 f106 	mul.w	r1, r0, r6
 8003842:	0c23      	lsrs	r3, r4, #16
 8003844:	ea43 430e 	orr.w	r3, r3, lr, lsl #16
 8003848:	4299      	cmp	r1, r3
 800384a:	d90a      	bls.n	8003862 <__udivmoddi4+0x66>
 800384c:	eb1c 0303 	adds.w	r3, ip, r3
 8003850:	f100 3eff 	add.w	lr, r0, #4294967295	; 0xffffffff
 8003854:	f080 811f 	bcs.w	8003a96 <__udivmoddi4+0x29a>
 8003858:	4299      	cmp	r1, r3
 800385a:	f240 811c 	bls.w	8003a96 <__udivmoddi4+0x29a>
 800385e:	3802      	subs	r0, #2
 8003860:	4463      	add	r3, ip
 8003862:	1a5b      	subs	r3, r3, r1
 8003864:	fbb3 fef7 	udiv	lr, r3, r7
 8003868:	fb07 331e 	mls	r3, r7, lr, r3
 800386c:	fb0e f606 	mul.w	r6, lr, r6
 8003870:	b2a4      	uxth	r4, r4
 8003872:	ea44 4403 	orr.w	r4, r4, r3, lsl #16
 8003876:	42a6      	cmp	r6, r4
 8003878:	d90b      	bls.n	8003892 <__udivmoddi4+0x96>
 800387a:	eb1c 0404 	adds.w	r4, ip, r4
 800387e:	f10e 33ff 	add.w	r3, lr, #4294967295	; 0xffffffff
 8003882:	f080 810a 	bcs.w	8003a9a <__udivmoddi4+0x29e>
 8003886:	42a6      	cmp	r6, r4
 8003888:	f240 8107 	bls.w	8003a9a <__udivmoddi4+0x29e>
 800388c:	4464      	add	r4, ip
 800388e:	f1ae 0e02 	sub.w	lr, lr, #2
 8003892:	2100      	movs	r1, #0
 8003894:	1ba4      	subs	r4, r4, r6
 8003896:	ea4e 4000 	orr.w	r0, lr, r0, lsl #16
 800389a:	b11d      	cbz	r5, 80038a4 <__udivmoddi4+0xa8>
 800389c:	2300      	movs	r3, #0
 800389e:	40d4      	lsrs	r4, r2
 80038a0:	e9c5 4300 	strd	r4, r3, [r5]
 80038a4:	e8bd 87f0 	ldmia.w	sp!, {r4, r5, r6, r7, r8, r9, sl, pc}
 80038a8:	428b      	cmp	r3, r1
 80038aa:	4607      	mov	r7, r0
 80038ac:	d908      	bls.n	80038c0 <__udivmoddi4+0xc4>
 80038ae:	2d00      	cmp	r5, #0
 80038b0:	f000 80ee 	beq.w	8003a90 <__udivmoddi4+0x294>
 80038b4:	2100      	movs	r1, #0
 80038b6:	e9c5 0600 	strd	r0, r6, [r5]
 80038ba:	4608      	mov	r0, r1
 80038bc:	e8bd 87f0 	ldmia.w	sp!, {r4, r5, r6, r7, r8, r9, sl, pc}
 80038c0:	fab3 f183 	clz	r1, r3
 80038c4:	2900      	cmp	r1, #0
 80038c6:	d149      	bne.n	800395c <__udivmoddi4+0x160>
 80038c8:	42b3      	cmp	r3, r6
 80038ca:	d302      	bcc.n	80038d2 <__udivmoddi4+0xd6>
 80038cc:	4282      	cmp	r2, r0
 80038ce:	f200 80fe 	bhi.w	8003ace <__udivmoddi4+0x2d2>
 80038d2:	1abc      	subs	r4, r7, r2
 80038d4:	eb66 0303 	sbc.w	r3, r6, r3
 80038d8:	2001      	movs	r0, #1
 80038da:	469e      	mov	lr, r3
 80038dc:	2d00      	cmp	r5, #0
 80038de:	d0e1      	beq.n	80038a4 <__udivmoddi4+0xa8>
 80038e0:	e9c5 4e00 	strd	r4, lr, [r5]
 80038e4:	e7de      	b.n	80038a4 <__udivmoddi4+0xa8>
 80038e6:	b902      	cbnz	r2, 80038ea <__udivmoddi4+0xee>
 80038e8:	deff      	udf	#255	; 0xff
 80038ea:	fab2 f282 	clz	r2, r2
 80038ee:	2a00      	cmp	r2, #0
 80038f0:	f040 808e 	bne.w	8003a10 <__udivmoddi4+0x214>
 80038f4:	eba1 000c 	sub.w	r0, r1, ip
 80038f8:	2101      	movs	r1, #1
 80038fa:	ea4f 471c 	mov.w	r7, ip, lsr #16
 80038fe:	fa1f f68c 	uxth.w	r6, ip
 8003902:	fbb0 fef7 	udiv	lr, r0, r7
 8003906:	fb07 001e 	mls	r0, r7, lr, r0
 800390a:	0c23      	lsrs	r3, r4, #16
 800390c:	ea43 4300 	orr.w	r3, r3, r0, lsl #16
 8003910:	fb06 f00e 	mul.w	r0, r6, lr
 8003914:	4298      	cmp	r0, r3
 8003916:	d908      	bls.n	800392a <__udivmoddi4+0x12e>
 8003918:	eb1c 0303 	adds.w	r3, ip, r3
 800391c:	f10e 38ff 	add.w	r8, lr, #4294967295	; 0xffffffff
 8003920:	d202      	bcs.n	8003928 <__udivmoddi4+0x12c>
 8003922:	4298      	cmp	r0, r3
 8003924:	f200 80cf 	bhi.w	8003ac6 <__udivmoddi4+0x2ca>
 8003928:	46c6      	mov	lr, r8
 800392a:	1a1b      	subs	r3, r3, r0
 800392c:	fbb3 f0f7 	udiv	r0, r3, r7
 8003930:	fb07 3310 	mls	r3, r7, r0, r3
 8003934:	fb00 f606 	mul.w	r6, r0, r6
 8003938:	b2a4      	uxth	r4, r4
 800393a:	ea44 4403 	orr.w	r4, r4, r3, lsl #16
 800393e:	42a6      	cmp	r6, r4
 8003940:	d908      	bls.n	8003954 <__udivmoddi4+0x158>
 8003942:	eb1c 0404 	adds.w	r4, ip, r4
 8003946:	f100 33ff 	add.w	r3, r0, #4294967295	; 0xffffffff
 800394a:	d202      	bcs.n	8003952 <__udivmoddi4+0x156>
 800394c:	42a6      	cmp	r6, r4
 800394e:	f200 80b7 	bhi.w	8003ac0 <__udivmoddi4+0x2c4>
 8003952:	4618      	mov	r0, r3
 8003954:	1ba4      	subs	r4, r4, r6
 8003956:	ea40 400e 	orr.w	r0, r0, lr, lsl #16
 800395a:	e79e      	b.n	800389a <__udivmoddi4+0x9e>
 800395c:	f1c1 0c20 	rsb	ip, r1, #32
 8003960:	fa22 f00c 	lsr.w	r0, r2, ip
 8003964:	408b      	lsls	r3, r1
 8003966:	4303      	orrs	r3, r0
 8003968:	ea4f 4913 	mov.w	r9, r3, lsr #16
 800396c:	fa26 f00c 	lsr.w	r0, r6, ip
 8003970:	fbb0 f8f9 	udiv	r8, r0, r9
 8003974:	fb09 0018 	mls	r0, r9, r8, r0
 8003978:	fa06 f401 	lsl.w	r4, r6, r1
 800397c:	fa27 f60c 	lsr.w	r6, r7, ip
 8003980:	4334      	orrs	r4, r6
 8003982:	fa1f fe83 	uxth.w	lr, r3
 8003986:	0c26      	lsrs	r6, r4, #16
 8003988:	ea46 4600 	orr.w	r6, r6, r0, lsl #16
 800398c:	fb08 f00e 	mul.w	r0, r8, lr
 8003990:	42b0      	cmp	r0, r6
 8003992:	fa02 f201 	lsl.w	r2, r2, r1
 8003996:	fa07 f701 	lsl.w	r7, r7, r1
 800399a:	d90a      	bls.n	80039b2 <__udivmoddi4+0x1b6>
 800399c:	199e      	adds	r6, r3, r6
 800399e:	f108 3aff 	add.w	sl, r8, #4294967295	; 0xffffffff
 80039a2:	f080 808b 	bcs.w	8003abc <__udivmoddi4+0x2c0>
 80039a6:	42b0      	cmp	r0, r6
 80039a8:	f240 8088 	bls.w	8003abc <__udivmoddi4+0x2c0>
 80039ac:	f1a8 0802 	sub.w	r8, r8, #2
 80039b0:	441e      	add	r6, r3
 80039b2:	1a36      	subs	r6, r6, r0
 80039b4:	fbb6 f0f9 	udiv	r0, r6, r9
 80039b8:	fb09 6610 	mls	r6, r9, r0, r6
 80039bc:	fb00 fe0e 	mul.w	lr, r0, lr
 80039c0:	b2a4      	uxth	r4, r4
 80039c2:	ea44 4606 	orr.w	r6, r4, r6, lsl #16
 80039c6:	45b6      	cmp	lr, r6
 80039c8:	d907      	bls.n	80039da <__udivmoddi4+0x1de>
 80039ca:	199e      	adds	r6, r3, r6
 80039cc:	f100 34ff 	add.w	r4, r0, #4294967295	; 0xffffffff
 80039d0:	d270      	bcs.n	8003ab4 <__udivmoddi4+0x2b8>
 80039d2:	45b6      	cmp	lr, r6
 80039d4:	d96e      	bls.n	8003ab4 <__udivmoddi4+0x2b8>
 80039d6:	3802      	subs	r0, #2
 80039d8:	441e      	add	r6, r3
 80039da:	ea40 4008 	orr.w	r0, r0, r8, lsl #16
 80039de:	fba0 8402 	umull	r8, r4, r0, r2
 80039e2:	eba6 060e 	sub.w	r6, r6, lr
 80039e6:	42a6      	cmp	r6, r4
 80039e8:	46c6      	mov	lr, r8
 80039ea:	46a1      	mov	r9, r4
 80039ec:	d359      	bcc.n	8003aa2 <__udivmoddi4+0x2a6>
 80039ee:	d056      	beq.n	8003a9e <__udivmoddi4+0x2a2>
 80039f0:	2d00      	cmp	r5, #0
 80039f2:	d06e      	beq.n	8003ad2 <__udivmoddi4+0x2d6>
 80039f4:	ebb7 020e 	subs.w	r2, r7, lr
 80039f8:	eb66 0609 	sbc.w	r6, r6, r9
 80039fc:	40ca      	lsrs	r2, r1
 80039fe:	fa06 fc0c 	lsl.w	ip, r6, ip
 8003a02:	ea4c 0202 	orr.w	r2, ip, r2
 8003a06:	40ce      	lsrs	r6, r1
 8003a08:	e9c5 2600 	strd	r2, r6, [r5]
 8003a0c:	2100      	movs	r1, #0
 8003a0e:	e749      	b.n	80038a4 <__udivmoddi4+0xa8>
 8003a10:	fa0c fc02 	lsl.w	ip, ip, r2
 8003a14:	f1c2 0020 	rsb	r0, r2, #32
 8003a18:	fa21 fe00 	lsr.w	lr, r1, r0
 8003a1c:	ea4f 471c 	mov.w	r7, ip, lsr #16
 8003a20:	fa01 f302 	lsl.w	r3, r1, r2
 8003a24:	fbbe f1f7 	udiv	r1, lr, r7
 8003a28:	fb07 ee11 	mls	lr, r7, r1, lr
 8003a2c:	fa24 f000 	lsr.w	r0, r4, r0
 8003a30:	4318      	orrs	r0, r3
 8003a32:	fa1f f68c 	uxth.w	r6, ip
 8003a36:	0c03      	lsrs	r3, r0, #16
 8003a38:	ea43 430e 	orr.w	r3, r3, lr, lsl #16
 8003a3c:	fb01 fe06 	mul.w	lr, r1, r6
 8003a40:	459e      	cmp	lr, r3
 8003a42:	fa04 f402 	lsl.w	r4, r4, r2
 8003a46:	d908      	bls.n	8003a5a <__udivmoddi4+0x25e>
 8003a48:	eb1c 0303 	adds.w	r3, ip, r3
 8003a4c:	f101 38ff 	add.w	r8, r1, #4294967295	; 0xffffffff
 8003a50:	d232      	bcs.n	8003ab8 <__udivmoddi4+0x2bc>
 8003a52:	459e      	cmp	lr, r3
 8003a54:	d930      	bls.n	8003ab8 <__udivmoddi4+0x2bc>
 8003a56:	3902      	subs	r1, #2
 8003a58:	4463      	add	r3, ip
 8003a5a:	eba3 030e 	sub.w	r3, r3, lr
 8003a5e:	fbb3 fef7 	udiv	lr, r3, r7
 8003a62:	fb07 331e 	mls	r3, r7, lr, r3
 8003a66:	b280      	uxth	r0, r0
 8003a68:	ea40 4003 	orr.w	r0, r0, r3, lsl #16
 8003a6c:	fb0e f306 	mul.w	r3, lr, r6
 8003a70:	4283      	cmp	r3, r0
 8003a72:	d909      	bls.n	8003a88 <__udivmoddi4+0x28c>
 8003a74:	eb1c 0000 	adds.w	r0, ip, r0
 8003a78:	f10e 38ff 	add.w	r8, lr, #4294967295	; 0xffffffff
 8003a7c:	d218      	bcs.n	8003ab0 <__udivmoddi4+0x2b4>
 8003a7e:	4283      	cmp	r3, r0
 8003a80:	d916      	bls.n	8003ab0 <__udivmoddi4+0x2b4>
 8003a82:	f1ae 0e02 	sub.w	lr, lr, #2
 8003a86:	4460      	add	r0, ip
 8003a88:	1ac0      	subs	r0, r0, r3
 8003a8a:	ea4e 4101 	orr.w	r1, lr, r1, lsl #16
 8003a8e:	e738      	b.n	8003902 <__udivmoddi4+0x106>
 8003a90:	4629      	mov	r1, r5
 8003a92:	4628      	mov	r0, r5
 8003a94:	e706      	b.n	80038a4 <__udivmoddi4+0xa8>
 8003a96:	4670      	mov	r0, lr
 8003a98:	e6e3      	b.n	8003862 <__udivmoddi4+0x66>
 8003a9a:	469e      	mov	lr, r3
 8003a9c:	e6f9      	b.n	8003892 <__udivmoddi4+0x96>
 8003a9e:	4547      	cmp	r7, r8
 8003aa0:	d2a6      	bcs.n	80039f0 <__udivmoddi4+0x1f4>
 8003aa2:	ebb8 0e02 	subs.w	lr, r8, r2
 8003aa6:	eb64 0303 	sbc.w	r3, r4, r3
 8003aaa:	3801      	subs	r0, #1
 8003aac:	4699      	mov	r9, r3
 8003aae:	e79f      	b.n	80039f0 <__udivmoddi4+0x1f4>
 8003ab0:	46c6      	mov	lr, r8
 8003ab2:	e7e9      	b.n	8003a88 <__udivmoddi4+0x28c>
 8003ab4:	4620      	mov	r0, r4
 8003ab6:	e790      	b.n	80039da <__udivmoddi4+0x1de>
 8003ab8:	4641      	mov	r1, r8
 8003aba:	e7ce      	b.n	8003a5a <__udivmoddi4+0x25e>
 8003abc:	46d0      	mov	r8, sl
 8003abe:	e778      	b.n	80039b2 <__udivmoddi4+0x1b6>
 8003ac0:	4464      	add	r4, ip
 8003ac2:	3802      	subs	r0, #2
 8003ac4:	e746      	b.n	8003954 <__udivmoddi4+0x158>
 8003ac6:	f1ae 0e02 	sub.w	lr, lr, #2
 8003aca:	4463      	add	r3, ip
 8003acc:	e72d      	b.n	800392a <__udivmoddi4+0x12e>
 8003ace:	4608      	mov	r0, r1
 8003ad0:	e704      	b.n	80038dc <__udivmoddi4+0xe0>
 8003ad2:	4629      	mov	r1, r5
 8003ad4:	e6e6      	b.n	80038a4 <__udivmoddi4+0xa8>
 8003ad6:	bf00      	nop

08003ad8 <__aeabi_idiv0>:
 8003ad8:	4770      	bx	lr
 8003ada:	bf00      	nop

08003adc <memcpy>:
 8003adc:	4684      	mov	ip, r0
 8003ade:	ea41 0300 	orr.w	r3, r1, r0
 8003ae2:	f013 0303 	ands.w	r3, r3, #3
 8003ae6:	d149      	bne.n	8003b7c <memcpy+0xa0>
 8003ae8:	3a40      	subs	r2, #64	; 0x40
 8003aea:	d323      	bcc.n	8003b34 <memcpy+0x58>
 8003aec:	680b      	ldr	r3, [r1, #0]
 8003aee:	6003      	str	r3, [r0, #0]
 8003af0:	684b      	ldr	r3, [r1, #4]
 8003af2:	6043      	str	r3, [r0, #4]
 8003af4:	688b      	ldr	r3, [r1, #8]
 8003af6:	6083      	str	r3, [r0, #8]
 8003af8:	68cb      	ldr	r3, [r1, #12]
 8003afa:	60c3      	str	r3, [r0, #12]
 8003afc:	690b      	ldr	r3, [r1, #16]
 8003afe:	6103      	str	r3, [r0, #16]
 8003b00:	694b      	ldr	r3, [r1, #20]
 8003b02:	6143      	str	r3, [r0, #20]
 8003b04:	698b      	ldr	r3, [r1, #24]
 8003b06:	6183      	str	r3, [r0, #24]
 8003b08:	69cb      	ldr	r3, [r1, #28]
 8003b0a:	61c3      	str	r3, [r0, #28]
 8003b0c:	6a0b      	ldr	r3, [r1, #32]
 8003b0e:	6203      	str	r3, [r0, #32]
 8003b10:	6a4b      	ldr	r3, [r1, #36]	; 0x24
 8003b12:	6243      	str	r3, [r0, #36]	; 0x24
 8003b14:	6a8b      	ldr	r3, [r1, #40]	; 0x28
 8003b16:	6283      	str	r3, [r0, #40]	; 0x28
 8003b18:	6acb      	ldr	r3, [r1, #44]	; 0x2c
 8003b1a:	62c3      	str	r3, [r0, #44]	; 0x2c
 8003b1c:	6b0b      	ldr	r3, [r1, #48]	; 0x30
 8003b1e:	6303      	str	r3, [r0, #48]	; 0x30
 8003b20:	6b4b      	ldr	r3, [r1, #52]	; 0x34
 8003b22:	6343      	str	r3, [r0, #52]	; 0x34
 8003b24:	6b8b      	ldr	r3, [r1, #56]	; 0x38
 8003b26:	6383      	str	r3, [r0, #56]	; 0x38
 8003b28:	6bcb      	ldr	r3, [r1, #60]	; 0x3c
 8003b2a:	63c3      	str	r3, [r0, #60]	; 0x3c
 8003b2c:	3040      	adds	r0, #64	; 0x40
 8003b2e:	3140      	adds	r1, #64	; 0x40
 8003b30:	3a40      	subs	r2, #64	; 0x40
 8003b32:	d2db      	bcs.n	8003aec <memcpy+0x10>
 8003b34:	3230      	adds	r2, #48	; 0x30
 8003b36:	d30b      	bcc.n	8003b50 <memcpy+0x74>
 8003b38:	680b      	ldr	r3, [r1, #0]
 8003b3a:	6003      	str	r3, [r0, #0]
 8003b3c:	684b      	ldr	r3, [r1, #4]
 8003b3e:	6043      	str	r3, [r0, #4]
 8003b40:	688b      	ldr	r3, [r1, #8]
 8003b42:	6083      	str	r3, [r0, #8]
 8003b44:	68cb      	ldr	r3, [r1, #12]
 8003b46:	60c3      	str	r3, [r0, #12]
 8003b48:	3010      	adds	r0, #16
 8003b4a:	3110      	adds	r1, #16
 8003b4c:	3a10      	subs	r2, #16
 8003b4e:	d2f3      	bcs.n	8003b38 <memcpy+0x5c>
 8003b50:	320c      	adds	r2, #12
 8003b52:	d305      	bcc.n	8003b60 <memcpy+0x84>
 8003b54:	f851 3b04 	ldr.w	r3, [r1], #4
 8003b58:	f840 3b04 	str.w	r3, [r0], #4
 8003b5c:	3a04      	subs	r2, #4
 8003b5e:	d2f9      	bcs.n	8003b54 <memcpy+0x78>
 8003b60:	3204      	adds	r2, #4
 8003b62:	d008      	beq.n	8003b76 <memcpy+0x9a>
 8003b64:	07d2      	lsls	r2, r2, #31
 8003b66:	bf1c      	itt	ne
 8003b68:	f811 3b01 	ldrbne.w	r3, [r1], #1
 8003b6c:	f800 3b01 	strbne.w	r3, [r0], #1
 8003b70:	d301      	bcc.n	8003b76 <memcpy+0x9a>
 8003b72:	880b      	ldrh	r3, [r1, #0]
 8003b74:	8003      	strh	r3, [r0, #0]
 8003b76:	4660      	mov	r0, ip
 8003b78:	4770      	bx	lr
 8003b7a:	bf00      	nop
 8003b7c:	2a08      	cmp	r2, #8
 8003b7e:	d313      	bcc.n	8003ba8 <memcpy+0xcc>
 8003b80:	078b      	lsls	r3, r1, #30
 8003b82:	d0b1      	beq.n	8003ae8 <memcpy+0xc>
 8003b84:	f010 0303 	ands.w	r3, r0, #3
 8003b88:	d0ae      	beq.n	8003ae8 <memcpy+0xc>
 8003b8a:	f1c3 0304 	rsb	r3, r3, #4
 8003b8e:	1ad2      	subs	r2, r2, r3
 8003b90:	07db      	lsls	r3, r3, #31
 8003b92:	bf1c      	itt	ne
 8003b94:	f811 3b01 	ldrbne.w	r3, [r1], #1
 8003b98:	f800 3b01 	strbne.w	r3, [r0], #1
 8003b9c:	d3a4      	bcc.n	8003ae8 <memcpy+0xc>
 8003b9e:	f831 3b02 	ldrh.w	r3, [r1], #2
 8003ba2:	f820 3b02 	strh.w	r3, [r0], #2
 8003ba6:	e79f      	b.n	8003ae8 <memcpy+0xc>
 8003ba8:	3a04      	subs	r2, #4
 8003baa:	d3d9      	bcc.n	8003b60 <memcpy+0x84>
 8003bac:	3a01      	subs	r2, #1
 8003bae:	f811 3b01 	ldrb.w	r3, [r1], #1
 8003bb2:	f800 3b01 	strb.w	r3, [r0], #1
 8003bb6:	d2f9      	bcs.n	8003bac <memcpy+0xd0>
 8003bb8:	780b      	ldrb	r3, [r1, #0]
 8003bba:	7003      	strb	r3, [r0, #0]
 8003bbc:	784b      	ldrb	r3, [r1, #1]
 8003bbe:	7043      	strb	r3, [r0, #1]
 8003bc0:	788b      	ldrb	r3, [r1, #2]
 8003bc2:	7083      	strb	r3, [r0, #2]
 8003bc4:	4660      	mov	r0, ip
 8003bc6:	4770      	bx	lr

08003bc8 <strcmp>:
 8003bc8:	ea80 0c01 	eor.w	ip, r0, r1
 8003bcc:	f01c 0f03 	tst.w	ip, #3
 8003bd0:	d137      	bne.n	8003c42 <strcmp+0x7a>
 8003bd2:	f010 0c03 	ands.w	ip, r0, #3
 8003bd6:	f020 0003 	bic.w	r0, r0, #3
 8003bda:	f021 0103 	bic.w	r1, r1, #3
 8003bde:	f850 2b04 	ldr.w	r2, [r0], #4
 8003be2:	bf08      	it	eq
 8003be4:	f851 3b04 	ldreq.w	r3, [r1], #4
 8003be8:	d00e      	beq.n	8003c08 <strcmp+0x40>
 8003bea:	f08c 0c03 	eor.w	ip, ip, #3
 8003bee:	f06f 437f 	mvn.w	r3, #4278190080	; 0xff000000
 8003bf2:	ea4f 0ccc 	mov.w	ip, ip, lsl #3
 8003bf6:	fa23 fc0c 	lsr.w	ip, r3, ip
 8003bfa:	f851 3b04 	ldr.w	r3, [r1], #4
 8003bfe:	ea42 020c 	orr.w	r2, r2, ip
 8003c02:	ea43 030c 	orr.w	r3, r3, ip
 8003c06:	bf00      	nop
 8003c08:	f1a2 3c01 	sub.w	ip, r2, #16843009	; 0x1010101
 8003c0c:	429a      	cmp	r2, r3
 8003c0e:	bf01      	itttt	eq
 8003c10:	ea2c 0c02 	biceq.w	ip, ip, r2
 8003c14:	f01c 3f80 	tsteq.w	ip, #2155905152	; 0x80808080
 8003c18:	f850 2b04 	ldreq.w	r2, [r0], #4
 8003c1c:	f851 3b04 	ldreq.w	r3, [r1], #4
 8003c20:	d0f2      	beq.n	8003c08 <strcmp+0x40>
 8003c22:	ea4f 6002 	mov.w	r0, r2, lsl #24
 8003c26:	ea4f 2212 	mov.w	r2, r2, lsr #8
 8003c2a:	2801      	cmp	r0, #1
 8003c2c:	bf28      	it	cs
 8003c2e:	ebb0 6f03 	cmpcs.w	r0, r3, lsl #24
 8003c32:	bf08      	it	eq
 8003c34:	0a1b      	lsreq	r3, r3, #8
 8003c36:	d0f4      	beq.n	8003c22 <strcmp+0x5a>
 8003c38:	f003 03ff 	and.w	r3, r3, #255	; 0xff
 8003c3c:	0e00      	lsrs	r0, r0, #24
 8003c3e:	1ac0      	subs	r0, r0, r3
 8003c40:	4770      	bx	lr
 8003c42:	f010 0f03 	tst.w	r0, #3
 8003c46:	d00a      	beq.n	8003c5e <strcmp+0x96>
 8003c48:	f810 2b01 	ldrb.w	r2, [r0], #1
 8003c4c:	f811 3b01 	ldrb.w	r3, [r1], #1
 8003c50:	2a01      	cmp	r2, #1
 8003c52:	bf28      	it	cs
 8003c54:	429a      	cmpcs	r2, r3
 8003c56:	d0f4      	beq.n	8003c42 <strcmp+0x7a>
 8003c58:	eba2 0003 	sub.w	r0, r2, r3
 8003c5c:	4770      	bx	lr
 8003c5e:	f84d 5d04 	str.w	r5, [sp, #-4]!
 8003c62:	f850 2b04 	ldr.w	r2, [r0], #4
 8003c66:	f001 0503 	and.w	r5, r1, #3
 8003c6a:	f021 0103 	bic.w	r1, r1, #3
 8003c6e:	f851 3b04 	ldr.w	r3, [r1], #4
 8003c72:	2d02      	cmp	r5, #2
 8003c74:	d026      	beq.n	8003cc4 <strcmp+0xfc>
 8003c76:	d84d      	bhi.n	8003d14 <strcmp+0x14c>
 8003c78:	f022 457f 	bic.w	r5, r2, #4278190080	; 0xff000000
 8003c7c:	ebb5 2f13 	cmp.w	r5, r3, lsr #8
 8003c80:	f1a2 3c01 	sub.w	ip, r2, #16843009	; 0x1010101
 8003c84:	ea2c 0c02 	bic.w	ip, ip, r2
 8003c88:	d10d      	bne.n	8003ca6 <strcmp+0xde>
 8003c8a:	f01c 3c80 	ands.w	ip, ip, #2155905152	; 0x80808080
 8003c8e:	bf08      	it	eq
 8003c90:	f851 3b04 	ldreq.w	r3, [r1], #4
 8003c94:	d10a      	bne.n	8003cac <strcmp+0xe4>
 8003c96:	ea85 0502 	eor.w	r5, r5, r2
 8003c9a:	ebb5 6f03 	cmp.w	r5, r3, lsl #24
 8003c9e:	d10c      	bne.n	8003cba <strcmp+0xf2>
 8003ca0:	f850 2b04 	ldr.w	r2, [r0], #4
 8003ca4:	e7e8      	b.n	8003c78 <strcmp+0xb0>
 8003ca6:	ea4f 2313 	mov.w	r3, r3, lsr #8
 8003caa:	e05b      	b.n	8003d64 <strcmp+0x19c>
 8003cac:	f03c 4c7f 	bics.w	ip, ip, #4278190080	; 0xff000000
 8003cb0:	d154      	bne.n	8003d5c <strcmp+0x194>
 8003cb2:	780b      	ldrb	r3, [r1, #0]
 8003cb4:	ea4f 6512 	mov.w	r5, r2, lsr #24
 8003cb8:	e054      	b.n	8003d64 <strcmp+0x19c>
 8003cba:	ea4f 6512 	mov.w	r5, r2, lsr #24
 8003cbe:	f003 03ff 	and.w	r3, r3, #255	; 0xff
 8003cc2:	e04f      	b.n	8003d64 <strcmp+0x19c>
 8003cc4:	ea4f 4502 	mov.w	r5, r2, lsl #16
 8003cc8:	f1a2 3c01 	sub.w	ip, r2, #16843009	; 0x1010101
 8003ccc:	ea4f 4515 	mov.w	r5, r5, lsr #16
 8003cd0:	ea2c 0c02 	bic.w	ip, ip, r2
 8003cd4:	ebb5 4f13 	cmp.w	r5, r3, lsr #16
 8003cd8:	d118      	bne.n	8003d0c <strcmp+0x144>
 8003cda:	f01c 3c80 	ands.w	ip, ip, #2155905152	; 0x80808080
 8003cde:	bf08      	it	eq
 8003ce0:	f851 3b04 	ldreq.w	r3, [r1], #4
 8003ce4:	d107      	bne.n	8003cf6 <strcmp+0x12e>
 8003ce6:	ea85 0502 	eor.w	r5, r5, r2
 8003cea:	ebb5 4f03 	cmp.w	r5, r3, lsl #16
 8003cee:	d109      	bne.n	8003d04 <strcmp+0x13c>
 8003cf0:	f850 2b04 	ldr.w	r2, [r0], #4
 8003cf4:	e7e6      	b.n	8003cc4 <strcmp+0xfc>
 8003cf6:	ea5f 4c0c 	movs.w	ip, ip, lsl #16
 8003cfa:	d12f      	bne.n	8003d5c <strcmp+0x194>
 8003cfc:	880b      	ldrh	r3, [r1, #0]
 8003cfe:	ea4f 4512 	mov.w	r5, r2, lsr #16
 8003d02:	e02f      	b.n	8003d64 <strcmp+0x19c>
 8003d04:	ea4f 4303 	mov.w	r3, r3, lsl #16
 8003d08:	ea4f 4512 	mov.w	r5, r2, lsr #16
 8003d0c:	ea4f 4313 	mov.w	r3, r3, lsr #16
 8003d10:	e028      	b.n	8003d64 <strcmp+0x19c>
 8003d12:	bf00      	nop
 8003d14:	f002 05ff 	and.w	r5, r2, #255	; 0xff
 8003d18:	ebb5 6f13 	cmp.w	r5, r3, lsr #24
 8003d1c:	f1a2 3c01 	sub.w	ip, r2, #16843009	; 0x1010101
 8003d20:	ea2c 0c02 	bic.w	ip, ip, r2
 8003d24:	d10d      	bne.n	8003d42 <strcmp+0x17a>
 8003d26:	f01c 3c80 	ands.w	ip, ip, #2155905152	; 0x80808080
 8003d2a:	bf08      	it	eq
 8003d2c:	f851 3b04 	ldreq.w	r3, [r1], #4
 8003d30:	d10a      	bne.n	8003d48 <strcmp+0x180>
 8003d32:	ea85 0502 	eor.w	r5, r5, r2
 8003d36:	ebb5 2f03 	cmp.w	r5, r3, lsl #8
 8003d3a:	d10a      	bne.n	8003d52 <strcmp+0x18a>
 8003d3c:	f850 2b04 	ldr.w	r2, [r0], #4
 8003d40:	e7e8      	b.n	8003d14 <strcmp+0x14c>
 8003d42:	ea4f 6313 	mov.w	r3, r3, lsr #24
 8003d46:	e00d      	b.n	8003d64 <strcmp+0x19c>
 8003d48:	f012 0fff 	tst.w	r2, #255	; 0xff
 8003d4c:	d006      	beq.n	8003d5c <strcmp+0x194>
 8003d4e:	f851 3b04 	ldr.w	r3, [r1], #4
 8003d52:	ea4f 2512 	mov.w	r5, r2, lsr #8
 8003d56:	f023 437f 	bic.w	r3, r3, #4278190080	; 0xff000000
 8003d5a:	e003      	b.n	8003d64 <strcmp+0x19c>
 8003d5c:	f04f 0000 	mov.w	r0, #0
 8003d60:	bc20      	pop	{r5}
 8003d62:	4770      	bx	lr
 8003d64:	f005 02ff 	and.w	r2, r5, #255	; 0xff
 8003d68:	f003 00ff 	and.w	r0, r3, #255	; 0xff
 8003d6c:	2801      	cmp	r0, #1
 8003d6e:	bf28      	it	cs
 8003d70:	4290      	cmpcs	r0, r2
 8003d72:	bf04      	itt	eq
 8003d74:	0a2d      	lsreq	r5, r5, #8
 8003d76:	0a1b      	lsreq	r3, r3, #8
 8003d78:	d0f4      	beq.n	8003d64 <strcmp+0x19c>
 8003d7a:	eba2 0000 	sub.w	r0, r2, r0
 8003d7e:	bc20      	pop	{r5}
 8003d80:	4770      	bx	lr
 8003d82:	bf00      	nop

08003d84 <Vector6C.part.0>:
extern UBaseType_t uxSavedInterruptStatus;

static inline void osalOsRescheduleS(void)
{
    osalDbgCheckClassS();
    if(uxYieldPending()) taskYIELD();
 8003d84:	f04f 23e0 	mov.w	r3, #3758153728	; 0xe000e000
 8003d88:	4a0d      	ldr	r2, [pc, #52]	; (8003dc0 <Vector6C.part.0+0x3c>)
 8003d8a:	f8d3 1d20 	ldr.w	r1, [r3, #3360]	; 0xd20
 8003d8e:	6011      	str	r1, [r2, #0]
 8003d90:	4a0c      	ldr	r2, [pc, #48]	; (8003dc4 <Vector6C.part.0+0x40>)
 8003d92:	6812      	ldr	r2, [r2, #0]
 8003d94:	b14a      	cbz	r2, 8003daa <Vector6C.part.0+0x26>
 8003d96:	f8d3 2d20 	ldr.w	r2, [r3, #3360]	; 0xd20
 8003d9a:	f422 027f 	bic.w	r2, r2, #16711680	; 0xff0000
 8003d9e:	f8c3 2d20 	str.w	r2, [r3, #3360]	; 0xd20
 8003da2:	f8d3 2d20 	ldr.w	r2, [r3, #3360]	; 0xd20
 8003da6:	f8c3 2d20 	str.w	r2, [r3, #3360]	; 0xd20
 8003daa:	f04f 23e0 	mov.w	r3, #3758153728	; 0xe000e000
 8003dae:	f04f 5280 	mov.w	r2, #268435456	; 0x10000000
 8003db2:	f8c3 2d04 	str.w	r2, [r3, #3332]	; 0xd04
 8003db6:	f3bf 8f4f 	dsb	sy
 8003dba:	f3bf 8f6f 	isb	sy
}
 8003dbe:	4770      	bx	lr
 8003dc0:	2000134c 	.word	0x2000134c
 8003dc4:	20001358 	.word	0x20001358

08003dc8 <sduRequestsHook>:
 * @retval true         Message handled internally.
 * @retval false        Message not handled.
 */
bool sduRequestsHook(USBDriver *usbp) {

  if ((usbp->setup[0] & USB_RTYPE_TYPE_MASK) == USB_RTYPE_TYPE_CLASS) {
 8003dc8:	f890 2074 	ldrb.w	r2, [r0, #116]	; 0x74
bool sduRequestsHook(USBDriver *usbp) {
 8003dcc:	4603      	mov	r3, r0
  if ((usbp->setup[0] & USB_RTYPE_TYPE_MASK) == USB_RTYPE_TYPE_CLASS) {
 8003dce:	f002 0260 	and.w	r2, r2, #96	; 0x60
 8003dd2:	2a20      	cmp	r2, #32
 8003dd4:	d114      	bne.n	8003e00 <sduRequestsHook+0x38>
    switch (usbp->setup[1]) {
 8003dd6:	f890 2075 	ldrb.w	r2, [r0, #117]	; 0x75
 8003dda:	2000      	movs	r0, #0
 8003ddc:	2a21      	cmp	r2, #33	; 0x21
 8003dde:	d802      	bhi.n	8003de6 <sduRequestsHook+0x1e>
 8003de0:	2a1f      	cmp	r2, #31
 8003de2:	d803      	bhi.n	8003dec <sduRequestsHook+0x24>
 8003de4:	4770      	bx	lr
 8003de6:	2a22      	cmp	r2, #34	; 0x22
 8003de8:	d007      	beq.n	8003dfa <sduRequestsHook+0x32>
 8003dea:	4770      	bx	lr
    case CDC_GET_LINE_CODING:
      usbSetupTransfer(usbp, (uint8_t *)&linecoding, sizeof(linecoding), NULL);
 8003dec:	4a05      	ldr	r2, [pc, #20]	; (8003e04 <sduRequestsHook+0x3c>)
 8003dee:	669a      	str	r2, [r3, #104]	; 0x68
 8003df0:	2207      	movs	r2, #7
 8003df2:	66da      	str	r2, [r3, #108]	; 0x6c
    case CDC_SET_LINE_CODING:
      usbSetupTransfer(usbp, (uint8_t *)&linecoding, sizeof(linecoding), NULL);
      return true;
    case CDC_SET_CONTROL_LINE_STATE:
      /* Nothing to do, there are no control lines.*/
      usbSetupTransfer(usbp, NULL, 0, NULL);
 8003df4:	6718      	str	r0, [r3, #112]	; 0x70
      return true;
 8003df6:	2001      	movs	r0, #1
 8003df8:	4770      	bx	lr
      usbSetupTransfer(usbp, NULL, 0, NULL);
 8003dfa:	e9c3 001a 	strd	r0, r0, [r3, #104]	; 0x68
 8003dfe:	e7f9      	b.n	8003df4 <sduRequestsHook+0x2c>
    default:
      return false;
    }
  }
  return false;
 8003e00:	2000      	movs	r0, #0
}
 8003e02:	4770      	bx	lr
 8003e04:	20000850 	.word	0x20000850

08003e08 <sduInterruptTransmitted>:
 */
void sduInterruptTransmitted(USBDriver *usbp, usbep_t ep) {

  (void)usbp;
  (void)ep;
}
 8003e08:	4770      	bx	lr
	...

08003e0c <set_address>:
 *
 * @param[in] usbp      pointer to the @p USBDriver object
 */
static void set_address(USBDriver *usbp) {

  usbp->address = usbp->setup[2];
 8003e0c:	f890 3076 	ldrb.w	r3, [r0, #118]	; 0x76
 *
 * @notapi
 */
void usb_lld_set_address(USBDriver *usbp) {

  STM32_USB->DADDR = (uint32_t)(usbp->address) | DADDR_EF;
 8003e10:	4a07      	ldr	r2, [pc, #28]	; (8003e30 <set_address+0x24>)
 8003e12:	f880 307e 	strb.w	r3, [r0, #126]	; 0x7e
 8003e16:	f043 0380 	orr.w	r3, r3, #128	; 0x80
static void set_address(USBDriver *usbp) {
 8003e1a:	b510      	push	{r4, lr}
 8003e1c:	64d3      	str	r3, [r2, #76]	; 0x4c
  usb_lld_set_address(usbp);
  _usb_isr_invoke_event_cb(usbp, USB_EVENT_ADDRESS);
 8003e1e:	6843      	ldr	r3, [r0, #4]
static void set_address(USBDriver *usbp) {
 8003e20:	4604      	mov	r4, r0
  _usb_isr_invoke_event_cb(usbp, USB_EVENT_ADDRESS);
 8003e22:	681b      	ldr	r3, [r3, #0]
 8003e24:	b10b      	cbz	r3, 8003e2a <set_address+0x1e>
 8003e26:	2101      	movs	r1, #1
 8003e28:	4798      	blx	r3
  usbp->state = USB_SELECTED;
 8003e2a:	2303      	movs	r3, #3
 8003e2c:	7023      	strb	r3, [r4, #0]
}
 8003e2e:	bd10      	pop	{r4, pc}
 8003e30:	40005c00 	.word	0x40005c00

08003e34 <Vector6C>:
/**
 * @brief   DMA1 stream 1 shared ISR.
 *
 * @isr
 */
OSAL_IRQ_HANDLER(STM32_DMA1_CH1_HANDLER) {
 8003e34:	b508      	push	{r3, lr}

  OSAL_IRQ_PROLOGUE();

  dmaServeInterrupt(STM32_DMA1_STREAM1);
 8003e36:	4b0b      	ldr	r3, [pc, #44]	; (8003e64 <Vector6C+0x30>)
 8003e38:	6819      	ldr	r1, [r3, #0]
 8003e3a:	689a      	ldr	r2, [r3, #8]
 8003e3c:	f001 010e 	and.w	r1, r1, #14
 8003e40:	420a      	tst	r2, r1
 8003e42:	d005      	beq.n	8003e50 <Vector6C+0x1c>
 8003e44:	4a08      	ldr	r2, [pc, #32]	; (8003e68 <Vector6C+0x34>)
 8003e46:	6059      	str	r1, [r3, #4]
 8003e48:	6813      	ldr	r3, [r2, #0]
 8003e4a:	b10b      	cbz	r3, 8003e50 <Vector6C+0x1c>
 8003e4c:	6850      	ldr	r0, [r2, #4]
 8003e4e:	4798      	blx	r3
 8003e50:	2100      	movs	r1, #0
 8003e52:	4b06      	ldr	r3, [pc, #24]	; (8003e6c <Vector6C+0x38>)
 8003e54:	681a      	ldr	r2, [r3, #0]
 8003e56:	6019      	str	r1, [r3, #0]

  OSAL_IRQ_EPILOGUE();
 8003e58:	b11a      	cbz	r2, 8003e62 <Vector6C+0x2e>
}
 8003e5a:	e8bd 4008 	ldmia.w	sp!, {r3, lr}
 8003e5e:	f7ff bf91 	b.w	8003d84 <Vector6C.part.0>
 8003e62:	bd08      	pop	{r3, pc}
 8003e64:	40020000 	.word	0x40020000
 8003e68:	20000fe8 	.word	0x20000fe8
 8003e6c:	2000164c 	.word	0x2000164c

08003e70 <Vector70>:
/**
 * @brief   DMA1 stream 2 shared ISR.
 *
 * @isr
 */
OSAL_IRQ_HANDLER(STM32_DMA1_CH2_HANDLER) {
 8003e70:	b508      	push	{r3, lr}

  OSAL_IRQ_PROLOGUE();

  dmaServeInterrupt(STM32_DMA1_STREAM2);
 8003e72:	4b19      	ldr	r3, [pc, #100]	; (8003ed8 <Vector70+0x68>)
 8003e74:	6819      	ldr	r1, [r3, #0]
 8003e76:	69da      	ldr	r2, [r3, #28]
 8003e78:	0909      	lsrs	r1, r1, #4
 8003e7a:	f001 010e 	and.w	r1, r1, #14
 8003e7e:	420a      	tst	r2, r1
 8003e80:	d006      	beq.n	8003e90 <Vector70+0x20>
 8003e82:	010a      	lsls	r2, r1, #4
 8003e84:	605a      	str	r2, [r3, #4]
 8003e86:	4a15      	ldr	r2, [pc, #84]	; (8003edc <Vector70+0x6c>)
 8003e88:	6893      	ldr	r3, [r2, #8]
 8003e8a:	b10b      	cbz	r3, 8003e90 <Vector70+0x20>
 8003e8c:	68d0      	ldr	r0, [r2, #12]
 8003e8e:	4798      	blx	r3
 8003e90:	2100      	movs	r1, #0
 8003e92:	4b13      	ldr	r3, [pc, #76]	; (8003ee0 <Vector70+0x70>)
 8003e94:	681a      	ldr	r2, [r3, #0]
 8003e96:	6019      	str	r1, [r3, #0]

  OSAL_IRQ_EPILOGUE();
 8003e98:	b1e2      	cbz	r2, 8003ed4 <Vector70+0x64>
 8003e9a:	f04f 23e0 	mov.w	r3, #3758153728	; 0xe000e000
 8003e9e:	4a11      	ldr	r2, [pc, #68]	; (8003ee4 <Vector70+0x74>)
 8003ea0:	f8d3 1d20 	ldr.w	r1, [r3, #3360]	; 0xd20
 8003ea4:	6011      	str	r1, [r2, #0]
 8003ea6:	4a10      	ldr	r2, [pc, #64]	; (8003ee8 <Vector70+0x78>)
 8003ea8:	6812      	ldr	r2, [r2, #0]
 8003eaa:	b14a      	cbz	r2, 8003ec0 <Vector70+0x50>
 8003eac:	f8d3 2d20 	ldr.w	r2, [r3, #3360]	; 0xd20
 8003eb0:	f422 027f 	bic.w	r2, r2, #16711680	; 0xff0000
 8003eb4:	f8c3 2d20 	str.w	r2, [r3, #3360]	; 0xd20
 8003eb8:	f8d3 2d20 	ldr.w	r2, [r3, #3360]	; 0xd20
 8003ebc:	f8c3 2d20 	str.w	r2, [r3, #3360]	; 0xd20
 8003ec0:	f04f 23e0 	mov.w	r3, #3758153728	; 0xe000e000
 8003ec4:	f04f 5280 	mov.w	r2, #268435456	; 0x10000000
 8003ec8:	f8c3 2d04 	str.w	r2, [r3, #3332]	; 0xd04
 8003ecc:	f3bf 8f4f 	dsb	sy
 8003ed0:	f3bf 8f6f 	isb	sy
}
 8003ed4:	bd08      	pop	{r3, pc}
 8003ed6:	bf00      	nop
 8003ed8:	40020000 	.word	0x40020000
 8003edc:	20000fe8 	.word	0x20000fe8
 8003ee0:	2000164c 	.word	0x2000164c
 8003ee4:	2000134c 	.word	0x2000134c
 8003ee8:	20001358 	.word	0x20001358

08003eec <Vector74>:
/**
 * @brief   DMA1 stream 3 shared ISR.
 *
 * @isr
 */
OSAL_IRQ_HANDLER(STM32_DMA1_CH3_HANDLER) {
 8003eec:	b508      	push	{r3, lr}

  OSAL_IRQ_PROLOGUE();

  dmaServeInterrupt(STM32_DMA1_STREAM3);
 8003eee:	4b19      	ldr	r3, [pc, #100]	; (8003f54 <Vector74+0x68>)
 8003ef0:	6819      	ldr	r1, [r3, #0]
 8003ef2:	6b1a      	ldr	r2, [r3, #48]	; 0x30
 8003ef4:	0a09      	lsrs	r1, r1, #8
 8003ef6:	f001 010e 	and.w	r1, r1, #14
 8003efa:	420a      	tst	r2, r1
 8003efc:	d006      	beq.n	8003f0c <Vector74+0x20>
 8003efe:	020a      	lsls	r2, r1, #8
 8003f00:	605a      	str	r2, [r3, #4]
 8003f02:	4a15      	ldr	r2, [pc, #84]	; (8003f58 <Vector74+0x6c>)
 8003f04:	6913      	ldr	r3, [r2, #16]
 8003f06:	b10b      	cbz	r3, 8003f0c <Vector74+0x20>
 8003f08:	6950      	ldr	r0, [r2, #20]
 8003f0a:	4798      	blx	r3
 8003f0c:	2100      	movs	r1, #0
 8003f0e:	4b13      	ldr	r3, [pc, #76]	; (8003f5c <Vector74+0x70>)
 8003f10:	681a      	ldr	r2, [r3, #0]
 8003f12:	6019      	str	r1, [r3, #0]

  OSAL_IRQ_EPILOGUE();
 8003f14:	b1e2      	cbz	r2, 8003f50 <Vector74+0x64>
 8003f16:	f04f 23e0 	mov.w	r3, #3758153728	; 0xe000e000
 8003f1a:	4a11      	ldr	r2, [pc, #68]	; (8003f60 <Vector74+0x74>)
 8003f1c:	f8d3 1d20 	ldr.w	r1, [r3, #3360]	; 0xd20
 8003f20:	6011      	str	r1, [r2, #0]
 8003f22:	4a10      	ldr	r2, [pc, #64]	; (8003f64 <Vector74+0x78>)
 8003f24:	6812      	ldr	r2, [r2, #0]
 8003f26:	b14a      	cbz	r2, 8003f3c <Vector74+0x50>
 8003f28:	f8d3 2d20 	ldr.w	r2, [r3, #3360]	; 0xd20
 8003f2c:	f422 027f 	bic.w	r2, r2, #16711680	; 0xff0000
 8003f30:	f8c3 2d20 	str.w	r2, [r3, #3360]	; 0xd20
 8003f34:	f8d3 2d20 	ldr.w	r2, [r3, #3360]	; 0xd20
 8003f38:	f8c3 2d20 	str.w	r2, [r3, #3360]	; 0xd20
 8003f3c:	f04f 23e0 	mov.w	r3, #3758153728	; 0xe000e000
 8003f40:	f04f 5280 	mov.w	r2, #268435456	; 0x10000000
 8003f44:	f8c3 2d04 	str.w	r2, [r3, #3332]	; 0xd04
 8003f48:	f3bf 8f4f 	dsb	sy
 8003f4c:	f3bf 8f6f 	isb	sy
}
 8003f50:	bd08      	pop	{r3, pc}
 8003f52:	bf00      	nop
 8003f54:	40020000 	.word	0x40020000
 8003f58:	20000fe8 	.word	0x20000fe8
 8003f5c:	2000164c 	.word	0x2000164c
 8003f60:	2000134c 	.word	0x2000134c
 8003f64:	20001358 	.word	0x20001358

08003f68 <Vector78>:
/**
 * @brief   DMA1 stream 4 shared ISR.
 *
 * @isr
 */
OSAL_IRQ_HANDLER(STM32_DMA1_CH4_HANDLER) {
 8003f68:	b508      	push	{r3, lr}

  OSAL_IRQ_PROLOGUE();

  dmaServeInterrupt(STM32_DMA1_STREAM4);
 8003f6a:	4b19      	ldr	r3, [pc, #100]	; (8003fd0 <Vector78+0x68>)
 8003f6c:	6819      	ldr	r1, [r3, #0]
 8003f6e:	6c5a      	ldr	r2, [r3, #68]	; 0x44
 8003f70:	0b09      	lsrs	r1, r1, #12
 8003f72:	f001 010e 	and.w	r1, r1, #14
 8003f76:	420a      	tst	r2, r1
 8003f78:	d006      	beq.n	8003f88 <Vector78+0x20>
 8003f7a:	030a      	lsls	r2, r1, #12
 8003f7c:	605a      	str	r2, [r3, #4]
 8003f7e:	4a15      	ldr	r2, [pc, #84]	; (8003fd4 <Vector78+0x6c>)
 8003f80:	6993      	ldr	r3, [r2, #24]
 8003f82:	b10b      	cbz	r3, 8003f88 <Vector78+0x20>
 8003f84:	69d0      	ldr	r0, [r2, #28]
 8003f86:	4798      	blx	r3
 8003f88:	2100      	movs	r1, #0
 8003f8a:	4b13      	ldr	r3, [pc, #76]	; (8003fd8 <Vector78+0x70>)
 8003f8c:	681a      	ldr	r2, [r3, #0]
 8003f8e:	6019      	str	r1, [r3, #0]

  OSAL_IRQ_EPILOGUE();
 8003f90:	b1e2      	cbz	r2, 8003fcc <Vector78+0x64>
 8003f92:	f04f 23e0 	mov.w	r3, #3758153728	; 0xe000e000
 8003f96:	4a11      	ldr	r2, [pc, #68]	; (8003fdc <Vector78+0x74>)
 8003f98:	f8d3 1d20 	ldr.w	r1, [r3, #3360]	; 0xd20
 8003f9c:	6011      	str	r1, [r2, #0]
 8003f9e:	4a10      	ldr	r2, [pc, #64]	; (8003fe0 <Vector78+0x78>)
 8003fa0:	6812      	ldr	r2, [r2, #0]
 8003fa2:	b14a      	cbz	r2, 8003fb8 <Vector78+0x50>
 8003fa4:	f8d3 2d20 	ldr.w	r2, [r3, #3360]	; 0xd20
 8003fa8:	f422 027f 	bic.w	r2, r2, #16711680	; 0xff0000
 8003fac:	f8c3 2d20 	str.w	r2, [r3, #3360]	; 0xd20
 8003fb0:	f8d3 2d20 	ldr.w	r2, [r3, #3360]	; 0xd20
 8003fb4:	f8c3 2d20 	str.w	r2, [r3, #3360]	; 0xd20
 8003fb8:	f04f 23e0 	mov.w	r3, #3758153728	; 0xe000e000
 8003fbc:	f04f 5280 	mov.w	r2, #268435456	; 0x10000000
 8003fc0:	f8c3 2d04 	str.w	r2, [r3, #3332]	; 0xd04
 8003fc4:	f3bf 8f4f 	dsb	sy
 8003fc8:	f3bf 8f6f 	isb	sy
}
 8003fcc:	bd08      	pop	{r3, pc}
 8003fce:	bf00      	nop
 8003fd0:	40020000 	.word	0x40020000
 8003fd4:	20000fe8 	.word	0x20000fe8
 8003fd8:	2000164c 	.word	0x2000164c
 8003fdc:	2000134c 	.word	0x2000134c
 8003fe0:	20001358 	.word	0x20001358

08003fe4 <Vector7C>:
/**
 * @brief   DMA1 stream 5 shared ISR.
 *
 * @isr
 */
OSAL_IRQ_HANDLER(STM32_DMA1_CH5_HANDLER) {
 8003fe4:	b508      	push	{r3, lr}

  OSAL_IRQ_PROLOGUE();

  dmaServeInterrupt(STM32_DMA1_STREAM5);
 8003fe6:	4b19      	ldr	r3, [pc, #100]	; (800404c <Vector7C+0x68>)
 8003fe8:	6819      	ldr	r1, [r3, #0]
 8003fea:	6d9a      	ldr	r2, [r3, #88]	; 0x58
 8003fec:	0c09      	lsrs	r1, r1, #16
 8003fee:	f001 010e 	and.w	r1, r1, #14
 8003ff2:	420a      	tst	r2, r1
 8003ff4:	d006      	beq.n	8004004 <Vector7C+0x20>
 8003ff6:	040a      	lsls	r2, r1, #16
 8003ff8:	605a      	str	r2, [r3, #4]
 8003ffa:	4a15      	ldr	r2, [pc, #84]	; (8004050 <Vector7C+0x6c>)
 8003ffc:	6a13      	ldr	r3, [r2, #32]
 8003ffe:	b10b      	cbz	r3, 8004004 <Vector7C+0x20>
 8004000:	6a50      	ldr	r0, [r2, #36]	; 0x24
 8004002:	4798      	blx	r3
 8004004:	2100      	movs	r1, #0
 8004006:	4b13      	ldr	r3, [pc, #76]	; (8004054 <Vector7C+0x70>)
 8004008:	681a      	ldr	r2, [r3, #0]
 800400a:	6019      	str	r1, [r3, #0]

  OSAL_IRQ_EPILOGUE();
 800400c:	b1e2      	cbz	r2, 8004048 <Vector7C+0x64>
 800400e:	f04f 23e0 	mov.w	r3, #3758153728	; 0xe000e000
 8004012:	4a11      	ldr	r2, [pc, #68]	; (8004058 <Vector7C+0x74>)
 8004014:	f8d3 1d20 	ldr.w	r1, [r3, #3360]	; 0xd20
 8004018:	6011      	str	r1, [r2, #0]
 800401a:	4a10      	ldr	r2, [pc, #64]	; (800405c <Vector7C+0x78>)
 800401c:	6812      	ldr	r2, [r2, #0]
 800401e:	b14a      	cbz	r2, 8004034 <Vector7C+0x50>
 8004020:	f8d3 2d20 	ldr.w	r2, [r3, #3360]	; 0xd20
 8004024:	f422 027f 	bic.w	r2, r2, #16711680	; 0xff0000
 8004028:	f8c3 2d20 	str.w	r2, [r3, #3360]	; 0xd20
 800402c:	f8d3 2d20 	ldr.w	r2, [r3, #3360]	; 0xd20
 8004030:	f8c3 2d20 	str.w	r2, [r3, #3360]	; 0xd20
 8004034:	f04f 23e0 	mov.w	r3, #3758153728	; 0xe000e000
 8004038:	f04f 5280 	mov.w	r2, #268435456	; 0x10000000
 800403c:	f8c3 2d04 	str.w	r2, [r3, #3332]	; 0xd04
 8004040:	f3bf 8f4f 	dsb	sy
 8004044:	f3bf 8f6f 	isb	sy
}
 8004048:	bd08      	pop	{r3, pc}
 800404a:	bf00      	nop
 800404c:	40020000 	.word	0x40020000
 8004050:	20000fe8 	.word	0x20000fe8
 8004054:	2000164c 	.word	0x2000164c
 8004058:	2000134c 	.word	0x2000134c
 800405c:	20001358 	.word	0x20001358

08004060 <Vector80>:
/**
 * @brief   DMA1 stream 6 shared ISR.
 *
 * @isr
 */
OSAL_IRQ_HANDLER(STM32_DMA1_CH6_HANDLER) {
 8004060:	b508      	push	{r3, lr}

  OSAL_IRQ_PROLOGUE();

  dmaServeInterrupt(STM32_DMA1_STREAM6);
 8004062:	4b19      	ldr	r3, [pc, #100]	; (80040c8 <Vector80+0x68>)
 8004064:	6819      	ldr	r1, [r3, #0]
 8004066:	6eda      	ldr	r2, [r3, #108]	; 0x6c
 8004068:	0d09      	lsrs	r1, r1, #20
 800406a:	f001 010e 	and.w	r1, r1, #14
 800406e:	420a      	tst	r2, r1
 8004070:	d006      	beq.n	8004080 <Vector80+0x20>
 8004072:	050a      	lsls	r2, r1, #20
 8004074:	605a      	str	r2, [r3, #4]
 8004076:	4a15      	ldr	r2, [pc, #84]	; (80040cc <Vector80+0x6c>)
 8004078:	6a93      	ldr	r3, [r2, #40]	; 0x28
 800407a:	b10b      	cbz	r3, 8004080 <Vector80+0x20>
 800407c:	6ad0      	ldr	r0, [r2, #44]	; 0x2c
 800407e:	4798      	blx	r3
 8004080:	2100      	movs	r1, #0
 8004082:	4b13      	ldr	r3, [pc, #76]	; (80040d0 <Vector80+0x70>)
 8004084:	681a      	ldr	r2, [r3, #0]
 8004086:	6019      	str	r1, [r3, #0]

  OSAL_IRQ_EPILOGUE();
 8004088:	b1e2      	cbz	r2, 80040c4 <Vector80+0x64>
 800408a:	f04f 23e0 	mov.w	r3, #3758153728	; 0xe000e000
 800408e:	4a11      	ldr	r2, [pc, #68]	; (80040d4 <Vector80+0x74>)
 8004090:	f8d3 1d20 	ldr.w	r1, [r3, #3360]	; 0xd20
 8004094:	6011      	str	r1, [r2, #0]
 8004096:	4a10      	ldr	r2, [pc, #64]	; (80040d8 <Vector80+0x78>)
 8004098:	6812      	ldr	r2, [r2, #0]
 800409a:	b14a      	cbz	r2, 80040b0 <Vector80+0x50>
 800409c:	f8d3 2d20 	ldr.w	r2, [r3, #3360]	; 0xd20
 80040a0:	f422 027f 	bic.w	r2, r2, #16711680	; 0xff0000
 80040a4:	f8c3 2d20 	str.w	r2, [r3, #3360]	; 0xd20
 80040a8:	f8d3 2d20 	ldr.w	r2, [r3, #3360]	; 0xd20
 80040ac:	f8c3 2d20 	str.w	r2, [r3, #3360]	; 0xd20
 80040b0:	f04f 23e0 	mov.w	r3, #3758153728	; 0xe000e000
 80040b4:	f04f 5280 	mov.w	r2, #268435456	; 0x10000000
 80040b8:	f8c3 2d04 	str.w	r2, [r3, #3332]	; 0xd04
 80040bc:	f3bf 8f4f 	dsb	sy
 80040c0:	f3bf 8f6f 	isb	sy
}
 80040c4:	bd08      	pop	{r3, pc}
 80040c6:	bf00      	nop
 80040c8:	40020000 	.word	0x40020000
 80040cc:	20000fe8 	.word	0x20000fe8
 80040d0:	2000164c 	.word	0x2000164c
 80040d4:	2000134c 	.word	0x2000134c
 80040d8:	20001358 	.word	0x20001358

080040dc <Vector84>:
/**
 * @brief   DMA1 stream 7 shared ISR.
 *
 * @isr
 */
OSAL_IRQ_HANDLER(STM32_DMA1_CH7_HANDLER) {
 80040dc:	b508      	push	{r3, lr}

  OSAL_IRQ_PROLOGUE();

  dmaServeInterrupt(STM32_DMA1_STREAM7);
 80040de:	4b19      	ldr	r3, [pc, #100]	; (8004144 <Vector84+0x68>)
 80040e0:	6819      	ldr	r1, [r3, #0]
 80040e2:	f8d3 2080 	ldr.w	r2, [r3, #128]	; 0x80
 80040e6:	0e09      	lsrs	r1, r1, #24
 80040e8:	f001 010e 	and.w	r1, r1, #14
 80040ec:	420a      	tst	r2, r1
 80040ee:	d006      	beq.n	80040fe <Vector84+0x22>
 80040f0:	060a      	lsls	r2, r1, #24
 80040f2:	605a      	str	r2, [r3, #4]
 80040f4:	4a14      	ldr	r2, [pc, #80]	; (8004148 <Vector84+0x6c>)
 80040f6:	6b13      	ldr	r3, [r2, #48]	; 0x30
 80040f8:	b10b      	cbz	r3, 80040fe <Vector84+0x22>
 80040fa:	6b50      	ldr	r0, [r2, #52]	; 0x34
 80040fc:	4798      	blx	r3
 80040fe:	2100      	movs	r1, #0
 8004100:	4b12      	ldr	r3, [pc, #72]	; (800414c <Vector84+0x70>)
 8004102:	681a      	ldr	r2, [r3, #0]
 8004104:	6019      	str	r1, [r3, #0]

  OSAL_IRQ_EPILOGUE();
 8004106:	b1e2      	cbz	r2, 8004142 <Vector84+0x66>
 8004108:	f04f 23e0 	mov.w	r3, #3758153728	; 0xe000e000
 800410c:	4a10      	ldr	r2, [pc, #64]	; (8004150 <Vector84+0x74>)
 800410e:	f8d3 1d20 	ldr.w	r1, [r3, #3360]	; 0xd20
 8004112:	6011      	str	r1, [r2, #0]
 8004114:	4a0f      	ldr	r2, [pc, #60]	; (8004154 <Vector84+0x78>)
 8004116:	6812      	ldr	r2, [r2, #0]
 8004118:	b14a      	cbz	r2, 800412e <Vector84+0x52>
 800411a:	f8d3 2d20 	ldr.w	r2, [r3, #3360]	; 0xd20
 800411e:	f422 027f 	bic.w	r2, r2, #16711680	; 0xff0000
 8004122:	f8c3 2d20 	str.w	r2, [r3, #3360]	; 0xd20
 8004126:	f8d3 2d20 	ldr.w	r2, [r3, #3360]	; 0xd20
 800412a:	f8c3 2d20 	str.w	r2, [r3, #3360]	; 0xd20
 800412e:	f04f 23e0 	mov.w	r3, #3758153728	; 0xe000e000
 8004132:	f04f 5280 	mov.w	r2, #268435456	; 0x10000000
 8004136:	f8c3 2d04 	str.w	r2, [r3, #3332]	; 0xd04
 800413a:	f3bf 8f4f 	dsb	sy
 800413e:	f3bf 8f6f 	isb	sy
}
 8004142:	bd08      	pop	{r3, pc}
 8004144:	40020000 	.word	0x40020000
 8004148:	20000fe8 	.word	0x20000fe8
 800414c:	2000164c 	.word	0x2000164c
 8004150:	2000134c 	.word	0x2000134c
 8004154:	20001358 	.word	0x20001358

08004158 <notify3>:

#if STM32_SERIAL_USE_USART3 || defined(__DOXYGEN__)
static void notify3(io_queue_t *qp) {

  (void)qp;
  USART3->CR1 |= USART_CR1_TXEIE;
 8004158:	4a02      	ldr	r2, [pc, #8]	; (8004164 <notify3+0xc>)
 800415a:	68d3      	ldr	r3, [r2, #12]
 800415c:	f043 0380 	orr.w	r3, r3, #128	; 0x80
 8004160:	60d3      	str	r3, [r2, #12]
}
 8004162:	4770      	bx	lr
 8004164:	40004800 	.word	0x40004800

08004168 <usb_packet_write_from_buffer>:
  stm32_usb_descriptor_t *udp = USB_GET_DESCRIPTOR(ep);
 8004168:	4b0d      	ldr	r3, [pc, #52]	; (80041a0 <usb_packet_write_from_buffer+0x38>)
                                         size_t n) {
 800416a:	b510      	push	{r4, lr}
  stm32_usb_descriptor_t *udp = USB_GET_DESCRIPTOR(ep);
 800416c:	6d1b      	ldr	r3, [r3, #80]	; 0x50
 800416e:	0104      	lsls	r4, r0, #4
 8004170:	f103 4380 	add.w	r3, r3, #1073741824	; 0x40000000
 8004174:	f503 43c0 	add.w	r3, r3, #24576	; 0x6000
 8004178:	eb03 1000 	add.w	r0, r3, r0, lsl #4
  stm32_usb_pma_t *pmap = USB_ADDR2PTR(udp->TXADDR0);
 800417c:	58e3      	ldr	r3, [r4, r3]
 800417e:	4411      	add	r1, r2
 8004180:	f103 5300 	add.w	r3, r3, #536870912	; 0x20000000
 8004184:	f503 5340 	add.w	r3, r3, #12288	; 0x3000
 8004188:	005b      	lsls	r3, r3, #1
  udp->TXCOUNT0 = (stm32_usb_pma_t)n;
 800418a:	6042      	str	r2, [r0, #4]
  while (i > 0) {
 800418c:	2a00      	cmp	r2, #0
 800418e:	eba1 0002 	sub.w	r0, r1, r2
 8004192:	dc00      	bgt.n	8004196 <usb_packet_write_from_buffer+0x2e>
}
 8004194:	bd10      	pop	{r4, pc}
    w |= *buf++ << 8;
 8004196:	8800      	ldrh	r0, [r0, #0]
    i -= 2;
 8004198:	3a02      	subs	r2, #2
    w |= *buf++ << 8;
 800419a:	f843 0b04 	str.w	r0, [r3], #4
    i -= 2;
 800419e:	e7f5      	b.n	800418c <usb_packet_write_from_buffer+0x24>
 80041a0:	40005c00 	.word	0x40005c00

080041a4 <_put.lto_priv.2>:
}

static msg_t _put(void *ip, uint8_t b) {
  MemoryStream *msp = ip;

  if (msp->size - msp->eos <= 0)
 80041a4:	e9d0 2302 	ldrd	r2, r3, [r0, #8]
 80041a8:	429a      	cmp	r2, r3
    return MSG_RESET;
  *(msp->buffer + msp->eos) = b;
 80041aa:	bf1f      	itttt	ne
 80041ac:	6842      	ldrne	r2, [r0, #4]
 80041ae:	54d1      	strbne	r1, [r2, r3]
  msp->eos += 1;
 80041b0:	68c3      	ldrne	r3, [r0, #12]
 80041b2:	3301      	addne	r3, #1
 80041b4:	bf1a      	itte	ne
 80041b6:	60c3      	strne	r3, [r0, #12]
  return MSG_OK;
 80041b8:	2000      	movne	r0, #0
    return MSG_RESET;
 80041ba:	f06f 0001 	mvneq.w	r0, #1
}
 80041be:	4770      	bx	lr

080041c0 <_get.lto_priv.2>:

static msg_t _get(void *ip) {
  uint8_t b;
  MemoryStream *msp = ip;

  if (msp->eos - msp->offset <= 0)
 80041c0:	e9d0 2303 	ldrd	r2, r3, [r0, #12]
 80041c4:	429a      	cmp	r2, r3
    return MSG_RESET;
  b = *(msp->buffer + msp->offset);
 80041c6:	bf1f      	itttt	ne
 80041c8:	6842      	ldrne	r2, [r0, #4]
 80041ca:	5cd2      	ldrbne	r2, [r2, r3]
  msp->offset += 1;
 80041cc:	3301      	addne	r3, #1
 80041ce:	6103      	strne	r3, [r0, #16]
  return b;
 80041d0:	bf14      	ite	ne
 80041d2:	4610      	movne	r0, r2
    return MSG_RESET;
 80041d4:	f06f 0001 	mvneq.w	r0, #1
}
 80041d8:	4770      	bx	lr

080041da <strToInt>:

    return (result>=base)? -1 : result;
}

int32_t strToInt(char* string, uint8_t base)
{
 80041da:	b570      	push	{r4, r5, r6, lr}
    uint32_t value = 0;
    bool invert = false;
    unsigned int i = 0;

    if(string[0] == '\0') {
 80041dc:	7803      	ldrb	r3, [r0, #0]
 80041de:	b1e3      	cbz	r3, 800421a <strToInt+0x40>
        return -1;
    }

    if(string[0] == '-') {
 80041e0:	2b2d      	cmp	r3, #45	; 0x2d
 80041e2:	d127      	bne.n	8004234 <strToInt+0x5a>
        invert = true;
        i++;
 80041e4:	2201      	movs	r2, #1
    bool invert = false;
 80041e6:	4614      	mov	r4, r2
 80041e8:	4402      	add	r2, r0
        invert = true;
 80041ea:	2000      	movs	r0, #0
 80041ec:	e01b      	b.n	8004226 <strToInt+0x4c>
    }

    for(; string[i]; i++) {
        value *= base;
 80041ee:	fb00 f501 	mul.w	r5, r0, r1
    if(input >= '0' && input <= '9') {
 80041f2:	f1a3 0030 	sub.w	r0, r3, #48	; 0x30
 80041f6:	b2c0      	uxtb	r0, r0
    input &=~ 0x20;
 80041f8:	f003 03df 	and.w	r3, r3, #223	; 0xdf
    if(input >= '0' && input <= '9') {
 80041fc:	2809      	cmp	r0, #9
    if(input >= 'A' && input <= 'Z') {
 80041fe:	f1a3 0641 	sub.w	r6, r3, #65	; 0x41
    int8_t result = -1;
 8004202:	bf8c      	ite	hi
 8004204:	f04f 30ff 	movhi.w	r0, #4294967295	; 0xffffffff
        result = input - '0';
 8004208:	b240      	sxtbls	r0, r0
    if(input >= 'A' && input <= 'Z') {
 800420a:	2e19      	cmp	r6, #25
 800420c:	d808      	bhi.n	8004220 <strToInt+0x46>
        result = input - 'A' + 10;
 800420e:	f1a3 0037 	sub.w	r0, r3, #55	; 0x37
 8004212:	b2c3      	uxtb	r3, r0
    if(result >= base) {
 8004214:	4299      	cmp	r1, r3
        result = input - 'A' + 10;
 8004216:	b240      	sxtb	r0, r0
    if(result >= base) {
 8004218:	d804      	bhi.n	8004224 <strToInt+0x4a>
        return -1;
 800421a:	f04f 30ff 	mov.w	r0, #4294967295	; 0xffffffff
 800421e:	e008      	b.n	8004232 <strToInt+0x58>

        int8_t ci = charToInt(string[i], base);
        if(ci < 0) {
 8004220:	1c43      	adds	r3, r0, #1
 8004222:	d006      	beq.n	8004232 <strToInt+0x58>
            return -1;
        }

        value += ci;
 8004224:	4428      	add	r0, r5
    for(; string[i]; i++) {
 8004226:	f812 3b01 	ldrb.w	r3, [r2], #1
 800422a:	2b00      	cmp	r3, #0
 800422c:	d1df      	bne.n	80041ee <strToInt+0x14>
    }

    return (invert)? -value : value;
 800422e:	b104      	cbz	r4, 8004232 <strToInt+0x58>
 8004230:	4240      	negs	r0, r0
}
 8004232:	bd70      	pop	{r4, r5, r6, pc}
    unsigned int i = 0;
 8004234:	2200      	movs	r2, #0
 8004236:	e7d6      	b.n	80041e6 <strToInt+0xc>

08004238 <NVIC_SystemReset.lto_priv.0>:
  \details Acts as a special kind of Data Memory Barrier.
           It completes when all explicit memory accesses before this instruction complete.
 */
__attribute__((always_inline)) __STATIC_INLINE void __DSB(void)
{
  __ASM volatile ("dsb 0xF":::"memory");
 8004238:	f3bf 8f4f 	dsb	sy
__STATIC_INLINE void NVIC_SystemReset(void)
{
  __DSB();                                                          /* Ensure all outstanding memory accesses included
                                                                       buffered write are completed before reset */
  SCB->AIRCR  = (uint32_t)((0x5FAUL << SCB_AIRCR_VECTKEY_Pos)    |
                           (SCB->AIRCR & SCB_AIRCR_PRIGROUP_Msk) |
 800423c:	4905      	ldr	r1, [pc, #20]	; (8004254 <NVIC_SystemReset.lto_priv.0+0x1c>)
  SCB->AIRCR  = (uint32_t)((0x5FAUL << SCB_AIRCR_VECTKEY_Pos)    |
 800423e:	4b06      	ldr	r3, [pc, #24]	; (8004258 <NVIC_SystemReset.lto_priv.0+0x20>)
                           (SCB->AIRCR & SCB_AIRCR_PRIGROUP_Msk) |
 8004240:	68ca      	ldr	r2, [r1, #12]
 8004242:	f402 62e0 	and.w	r2, r2, #1792	; 0x700
  SCB->AIRCR  = (uint32_t)((0x5FAUL << SCB_AIRCR_VECTKEY_Pos)    |
 8004246:	4313      	orrs	r3, r2
 8004248:	60cb      	str	r3, [r1, #12]
 800424a:	f3bf 8f4f 	dsb	sy
  __ASM volatile ("nop");
 800424e:	bf00      	nop
 8004250:	e7fd      	b.n	800424e <NVIC_SystemReset.lto_priv.0+0x16>
 8004252:	bf00      	nop
 8004254:	e000ed00 	.word	0xe000ed00
 8004258:	05fa0004 	.word	0x05fa0004

0800425c <shellCommandRegister>:
    {"license", cmdLicense, NULL},
    {"sanity", cmdSanity, NULL},
};

void shellCommandRegister(char* name, shellcmd_t function, void* user)
{
 800425c:	b5f0      	push	{r4, r5, r6, r7, lr}
    /* -1 since there should be a final line with NULL, NULL, NULL */
    if(shellCommandsIndex >= sizeof(shellCommands)/sizeof(ShellCommand)-1) {
 800425e:	4d07      	ldr	r5, [pc, #28]	; (800427c <shellCommandRegister+0x20>)
 8004260:	782b      	ldrb	r3, [r5, #0]
 8004262:	2b0d      	cmp	r3, #13
 8004264:	d808      	bhi.n	8004278 <shellCommandRegister+0x1c>
        return;
    }
    shellCommands[shellCommandsIndex].sc_name = name;
 8004266:	240c      	movs	r4, #12
 8004268:	435c      	muls	r4, r3
 800426a:	4f05      	ldr	r7, [pc, #20]	; (8004280 <shellCommandRegister+0x24>)
    shellCommands[shellCommandsIndex].sc_function = function;
    shellCommands[shellCommandsIndex].sc_user = user;
    shellCommandsIndex++;
 800426c:	3301      	adds	r3, #1
    shellCommands[shellCommandsIndex].sc_name = name;
 800426e:	193e      	adds	r6, r7, r4
    shellCommands[shellCommandsIndex].sc_user = user;
 8004270:	e9c6 1201 	strd	r1, r2, [r6, #4]
    shellCommands[shellCommandsIndex].sc_name = name;
 8004274:	5138      	str	r0, [r7, r4]
    shellCommandsIndex++;
 8004276:	702b      	strb	r3, [r5, #0]
}
 8004278:	bdf0      	pop	{r4, r5, r6, r7, pc}
 800427a:	bf00      	nop
 800427c:	20000910 	.word	0x20000910
 8004280:	2000085c 	.word	0x2000085c

08004284 <systemEnableMCO>:
}


void systemEnableMCO(bool enable)
{
    if(enable) {
 8004284:	4b04      	ldr	r3, [pc, #16]	; (8004298 <systemEnableMCO+0x14>)
        RCC->CFGR |= STM32_MCOSEL_SYSCLK;
 8004286:	685a      	ldr	r2, [r3, #4]
    if(enable) {
 8004288:	b118      	cbz	r0, 8004292 <systemEnableMCO+0xe>
        RCC->CFGR |= STM32_MCOSEL_SYSCLK;
 800428a:	f042 6280 	orr.w	r2, r2, #67108864	; 0x4000000
    } else {
        RCC->CFGR &=~ STM32_MCOSEL_SYSCLK;
 800428e:	605a      	str	r2, [r3, #4]
    }
}
 8004290:	4770      	bx	lr
        RCC->CFGR &=~ STM32_MCOSEL_SYSCLK;
 8004292:	f022 6280 	bic.w	r2, r2, #67108864	; 0x4000000
 8004296:	e7fa      	b.n	800428e <systemEnableMCO+0xa>
 8004298:	40021000 	.word	0x40021000

0800429c <get_descriptor>:
        uint16_t lang)
{

    (void)usbp;
    (void)lang;
    switch (dtype) {
 800429c:	2902      	cmp	r1, #2
{
 800429e:	4613      	mov	r3, r2
 80042a0:	b570      	push	{r4, r5, r6, lr}
    switch (dtype) {
 80042a2:	d054      	beq.n	800434e <get_descriptor+0xb2>
 80042a4:	2903      	cmp	r1, #3
 80042a6:	d004      	beq.n	80042b2 <get_descriptor+0x16>
        case USB_DESCRIPTOR_DEVICE:
            return &vcom_device_descriptor;
 80042a8:	2901      	cmp	r1, #1
 80042aa:	482b      	ldr	r0, [pc, #172]	; (8004358 <get_descriptor+0xbc>)
 80042ac:	bf18      	it	ne
 80042ae:	2000      	movne	r0, #0
                usbMakeSerial();
                return &vcom_strings[dindex];
            }
    }
    return NULL;
}
 80042b0:	bd70      	pop	{r4, r5, r6, pc}
            if (dindex < 3)
 80042b2:	2a02      	cmp	r2, #2
 80042b4:	d803      	bhi.n	80042be <get_descriptor+0x22>
                return &vcom_strings[dindex];
 80042b6:	4829      	ldr	r0, [pc, #164]	; (800435c <get_descriptor+0xc0>)
 80042b8:	eb00 00c2 	add.w	r0, r0, r2, lsl #3
 80042bc:	e7f8      	b.n	80042b0 <get_descriptor+0x14>
            if (dindex == 3) {
 80042be:	2a03      	cmp	r2, #3
 80042c0:	d147      	bne.n	8004352 <get_descriptor+0xb6>
    if(serialString[0]) {
 80042c2:	4927      	ldr	r1, [pc, #156]	; (8004360 <get_descriptor+0xc4>)
 80042c4:	780a      	ldrb	r2, [r1, #0]
 80042c6:	b10a      	cbz	r2, 80042cc <get_descriptor+0x30>
                return &vcom_strings[dindex];
 80042c8:	4826      	ldr	r0, [pc, #152]	; (8004364 <get_descriptor+0xc8>)
 80042ca:	e7f1      	b.n	80042b0 <get_descriptor+0x14>
    serialString[0] = USB_DESC_BYTE(sizeof(serialString));
 80042cc:	2084      	movs	r0, #132	; 0x84
    serialString[1] = USB_DESC_BYTE(USB_DESCRIPTOR_STRING);
 80042ce:	460c      	mov	r4, r1
    serialString[0] = USB_DESC_BYTE(sizeof(serialString));
 80042d0:	7008      	strb	r0, [r1, #0]
        serialString[3+i]=0;
 80042d2:	4616      	mov	r6, r2
 80042d4:	4608      	mov	r0, r1
    serialString[1] = USB_DESC_BYTE(USB_DESCRIPTOR_STRING);
 80042d6:	704b      	strb	r3, [r1, #1]
        serialString[2+i]=hexNibble((idReg[i>>2] >> (4*((i>>1)%2))) & 0xF);
 80042d8:	0893      	lsrs	r3, r2, #2
 80042da:	f103 5300 	add.w	r3, r3, #536870912	; 0x20000000
 80042de:	f5a3 5380 	sub.w	r3, r3, #4096	; 0x1000
 80042e2:	f893 37e8 	ldrb.w	r3, [r3, #2024]	; 0x7e8
 80042e6:	f3c2 0540 	ubfx	r5, r2, #1, #1
 80042ea:	00ad      	lsls	r5, r5, #2
 80042ec:	412b      	asrs	r3, r5
 80042ee:	f003 030f 	and.w	r3, r3, #15
    if(a<10) {
 80042f2:	2b09      	cmp	r3, #9
 80042f4:	f102 0202 	add.w	r2, r2, #2
        return '0'+a;
 80042f8:	bf94      	ite	ls
 80042fa:	3330      	addls	r3, #48	; 0x30
        return 'a'+a-10;
 80042fc:	3357      	addhi	r3, #87	; 0x57
    for(i=0; i<48; i+=2) {
 80042fe:	2a30      	cmp	r2, #48	; 0x30
        serialString[2+i]=hexNibble((idReg[i>>2] >> (4*((i>>1)%2))) & 0xF);
 8004300:	70a3      	strb	r3, [r4, #2]
        serialString[3+i]=0;
 8004302:	70e6      	strb	r6, [r4, #3]
    for(i=0; i<48; i+=2) {
 8004304:	f104 0402 	add.w	r4, r4, #2
 8004308:	d1e6      	bne.n	80042d8 <get_descriptor+0x3c>
    serialString[50]='-';
 800430a:	232d      	movs	r3, #45	; 0x2d
    serialString[51]=0;
 800430c:	f881 6033 	strb.w	r6, [r1, #51]	; 0x33
    serialString[50]='-';
 8004310:	f881 3032 	strb.w	r3, [r1, #50]	; 0x32
        serialString[53+i]=0;
 8004314:	2400      	movs	r4, #0
    serialString[51]=0;
 8004316:	2114      	movs	r1, #20
 8004318:	4d13      	ldr	r5, [pc, #76]	; (8004368 <get_descriptor+0xcc>)
        serialString[52+i]=hexNibble(*buildId >> 4);
 800431a:	f815 3f01 	ldrb.w	r3, [r5, #1]!
        serialString[53+i]=0;
 800431e:	f880 4035 	strb.w	r4, [r0, #53]	; 0x35
        serialString[52+i]=hexNibble(*buildId >> 4);
 8004322:	091a      	lsrs	r2, r3, #4
    if(a<10) {
 8004324:	2b9f      	cmp	r3, #159	; 0x9f
        serialString[54+i]=hexNibble(*buildId & 0xF);
 8004326:	f003 030f 	and.w	r3, r3, #15
        return '0'+a;
 800432a:	bf94      	ite	ls
 800432c:	3230      	addls	r2, #48	; 0x30
        return 'a'+a-10;
 800432e:	3257      	addhi	r2, #87	; 0x57
    if(a<10) {
 8004330:	2b09      	cmp	r3, #9
        return '0'+a;
 8004332:	bf94      	ite	ls
 8004334:	3330      	addls	r3, #48	; 0x30
        return 'a'+a-10;
 8004336:	3357      	addhi	r3, #87	; 0x57
    for(i=0; i<80; i+=4) {
 8004338:	3901      	subs	r1, #1
        serialString[52+i]=hexNibble(*buildId >> 4);
 800433a:	f880 2034 	strb.w	r2, [r0, #52]	; 0x34
        serialString[54+i]=hexNibble(*buildId & 0xF);
 800433e:	f880 3036 	strb.w	r3, [r0, #54]	; 0x36
        serialString[55+i]=0;
 8004342:	f880 4037 	strb.w	r4, [r0, #55]	; 0x37
    for(i=0; i<80; i+=4) {
 8004346:	f100 0004 	add.w	r0, r0, #4
 800434a:	d1e6      	bne.n	800431a <get_descriptor+0x7e>
 800434c:	e7bc      	b.n	80042c8 <get_descriptor+0x2c>
    switch (dtype) {
 800434e:	4807      	ldr	r0, [pc, #28]	; (800436c <get_descriptor+0xd0>)
 8004350:	e7ae      	b.n	80042b0 <get_descriptor+0x14>
    return NULL;
 8004352:	2000      	movs	r0, #0
 8004354:	e7ac      	b.n	80042b0 <get_descriptor+0x14>
 8004356:	bf00      	nop
 8004358:	0800cc48 	.word	0x0800cc48
 800435c:	0800ccf8 	.word	0x0800ccf8
 8004360:	20001231 	.word	0x20001231
 8004364:	0800cd10 	.word	0x0800cd10
 8004368:	0800cd83 	.word	0x0800cd83
 800436c:	0800cbfc 	.word	0x0800cbfc

08004370 <i2cSafeResultToString>:
}


const char* i2cSafeResultToString(i2c_result result)
{
    if(result == I2C_BUS_OK) return "OK";
 8004370:	4602      	mov	r2, r0
 8004372:	b188      	cbz	r0, 8004398 <i2cSafeResultToString+0x28>
    else if(result == I2C_BUS_TIMEOUT) return "Timeout";
 8004374:	1c41      	adds	r1, r0, #1
 8004376:	d011      	beq.n	800439c <i2cSafeResultToString+0x2c>
    else if(result == I2C_BUS_RESET) return "Transfer Error";
 8004378:	1c83      	adds	r3, r0, #2
 800437a:	d011      	beq.n	80043a0 <i2cSafeResultToString+0x30>
    else if(result == I2C_BUS_STUCK_SCL_PULLED_LOW) return "SCL stuck low";
 800437c:	2801      	cmp	r0, #1
 800437e:	d011      	beq.n	80043a4 <i2cSafeResultToString+0x34>
    else if(result == I2C_BUS_STUCK_SDA_PULLED_LOW) return "SDA stuck low";
 8004380:	2802      	cmp	r0, #2
 8004382:	d011      	beq.n	80043a8 <i2cSafeResultToString+0x38>
    else if(result == I2C_BUS_STUCK_SCL_PULLED_HIGH) return "SCL stuck high";
 8004384:	2803      	cmp	r0, #3
 8004386:	d011      	beq.n	80043ac <i2cSafeResultToString+0x3c>
    else if(result == I2C_BUS_STUCK_SDA_PULLED_HIGH) return "SDA stuck high";
 8004388:	2804      	cmp	r0, #4
 800438a:	d011      	beq.n	80043b0 <i2cSafeResultToString+0x40>
    else if(result == I2C_BUS_STUCK_SHORTED_TOGETHER) return "SDA/SCL shorted together";
    else return "Unknown";
 800438c:	4b09      	ldr	r3, [pc, #36]	; (80043b4 <i2cSafeResultToString+0x44>)
 800438e:	480a      	ldr	r0, [pc, #40]	; (80043b8 <i2cSafeResultToString+0x48>)
 8004390:	2a05      	cmp	r2, #5
 8004392:	bf08      	it	eq
 8004394:	4618      	moveq	r0, r3
 8004396:	4770      	bx	lr
    if(result == I2C_BUS_OK) return "OK";
 8004398:	4808      	ldr	r0, [pc, #32]	; (80043bc <i2cSafeResultToString+0x4c>)
 800439a:	4770      	bx	lr
    else if(result == I2C_BUS_TIMEOUT) return "Timeout";
 800439c:	4808      	ldr	r0, [pc, #32]	; (80043c0 <i2cSafeResultToString+0x50>)
 800439e:	4770      	bx	lr
    else if(result == I2C_BUS_RESET) return "Transfer Error";
 80043a0:	4808      	ldr	r0, [pc, #32]	; (80043c4 <i2cSafeResultToString+0x54>)
 80043a2:	4770      	bx	lr
    else if(result == I2C_BUS_STUCK_SCL_PULLED_LOW) return "SCL stuck low";
 80043a4:	4808      	ldr	r0, [pc, #32]	; (80043c8 <i2cSafeResultToString+0x58>)
 80043a6:	4770      	bx	lr
    else if(result == I2C_BUS_STUCK_SDA_PULLED_LOW) return "SDA stuck low";
 80043a8:	4808      	ldr	r0, [pc, #32]	; (80043cc <i2cSafeResultToString+0x5c>)
 80043aa:	4770      	bx	lr
    else if(result == I2C_BUS_STUCK_SCL_PULLED_HIGH) return "SCL stuck high";
 80043ac:	4808      	ldr	r0, [pc, #32]	; (80043d0 <i2cSafeResultToString+0x60>)
 80043ae:	4770      	bx	lr
    else if(result == I2C_BUS_STUCK_SDA_PULLED_HIGH) return "SDA stuck high";
 80043b0:	4808      	ldr	r0, [pc, #32]	; (80043d4 <i2cSafeResultToString+0x64>)
}
 80043b2:	4770      	bx	lr
 80043b4:	0800ba74 	.word	0x0800ba74
 80043b8:	0800bad2 	.word	0x0800bad2
 80043bc:	0800ba8d 	.word	0x0800ba8d
 80043c0:	0800ba90 	.word	0x0800ba90
 80043c4:	0800ba98 	.word	0x0800ba98
 80043c8:	0800baa7 	.word	0x0800baa7
 80043cc:	0800bac4 	.word	0x0800bac4
 80043d0:	0800bab5 	.word	0x0800bab5
 80043d4:	0800ba65 	.word	0x0800ba65

080043d8 <gpioGetPortDriver>:
    return &GPIODriverData.ports[index];
}

static const GPIOPort* gpioGetPortDriver(uint8_t index)
{
    if(index >= GPIODriverData.numPorts) {
 80043d8:	4b04      	ldr	r3, [pc, #16]	; (80043ec <gpioGetPortDriver+0x14>)
 80043da:	791a      	ldrb	r2, [r3, #4]
 80043dc:	4282      	cmp	r2, r0
        return &gpioDummyPort;
    }

    return &GPIODriverData.ports[index];
 80043de:	bf83      	ittte	hi
 80043e0:	220c      	movhi	r2, #12
 80043e2:	681b      	ldrhi	r3, [r3, #0]
 80043e4:	fb02 3000 	mlahi	r0, r2, r0, r3
        return &gpioDummyPort;
 80043e8:	4801      	ldrls	r0, [pc, #4]	; (80043f0 <gpioGetPortDriver+0x18>)
}
 80043ea:	4770      	bx	lr
 80043ec:	20000928 	.word	0x20000928
 80043f0:	0800ca68 	.word	0x0800ca68

080043f4 <gpioGetPin>:

    return port->functions->setValue(port, 1<<gpioPin, on<<gpioPin);
}

bool gpioGetPin(uint16_t pin)
{
 80043f4:	b513      	push	{r0, r1, r4, lr}
 80043f6:	4604      	mov	r4, r0
    uint8_t gpioPort = pin >> 8;
    uint8_t gpioPin = pin & 0xff;

    const GPIOPort* port = gpioGetPortDriver(gpioPort);
 80043f8:	0a00      	lsrs	r0, r0, #8
 80043fa:	f7ff ffed 	bl	80043d8 <gpioGetPortDriver>

    uint32_t value = 0;
 80043fe:	2300      	movs	r3, #0
 8004400:	9301      	str	r3, [sp, #4]
    port->functions->getValue(port, &value);
 8004402:	6883      	ldr	r3, [r0, #8]
 8004404:	a901      	add	r1, sp, #4
 8004406:	68db      	ldr	r3, [r3, #12]
 8004408:	4798      	blx	r3

    return (value >> gpioPin) & 1;
 800440a:	9801      	ldr	r0, [sp, #4]
 800440c:	b2e4      	uxtb	r4, r4
 800440e:	40e0      	lsrs	r0, r4
}
 8004410:	f000 0001 	and.w	r0, r0, #1
 8004414:	b002      	add	sp, #8
 8004416:	bd10      	pop	{r4, pc}

08004418 <gpioPortIoDisable>:

    return value;
}

void gpioPortIoDisable(uint8_t gpioPort, bool disable)
{
 8004418:	b510      	push	{r4, lr}
    const GPIOPort* port = gpioGetPortDriver(gpioPort);
 800441a:	f7ff ffdd 	bl	80043d8 <gpioGetPortDriver>

    if(port->functions->busIoDisable) {
 800441e:	6883      	ldr	r3, [r0, #8]
 8004420:	691b      	ldr	r3, [r3, #16]
 8004422:	b113      	cbz	r3, 800442a <gpioPortIoDisable+0x12>
        port->functions->busIoDisable(port, disable);
    }
}
 8004424:	e8bd 4010 	ldmia.w	sp!, {r4, lr}
        port->functions->busIoDisable(port, disable);
 8004428:	4718      	bx	r3
}
 800442a:	bd10      	pop	{r4, pc}

0800442c <gpioCPUSetPinMode>:
{
    (void)driver;
    (void)pin;
    (void)pinMode;

    palSetPadMode((ioportid_t)driver->driver, pin, pinMode);
 800442c:	2301      	movs	r3, #1
    0xF,        /* PAL_MODE_STM32_ALTERNATE_OPENDRAIN, 50MHz.*/
  };
  uint32_t mh, ml, crh, crl, cfg;
  unsigned i;

  if (mode == PAL_MODE_INPUT_PULLUP)
 800442e:	2a03      	cmp	r2, #3
{
 8004430:	b5f0      	push	{r4, r5, r6, r7, lr}
    palSetPadMode((ioportid_t)driver->driver, pin, pinMode);
 8004432:	6800      	ldr	r0, [r0, #0]
 8004434:	fa03 f101 	lsl.w	r1, r3, r1
 8004438:	d129      	bne.n	800448e <gpioCPUSetPinMode+0x62>
    port->BSRR = mask;
 800443a:	6101      	str	r1, [r0, #16]
  else if (mode == PAL_MODE_INPUT_PULLDOWN)
    port->BRR = mask;
  cfg = cfgtab[mode];
 800443c:	4b16      	ldr	r3, [pc, #88]	; (8004498 <gpioCPUSetPinMode+0x6c>)
 800443e:	2608      	movs	r6, #8
 8004440:	5c9f      	ldrb	r7, [r3, r2]
  mh = ml = crh = crl = 0;
 8004442:	2300      	movs	r3, #0
 8004444:	461a      	mov	r2, r3
 8004446:	461d      	mov	r5, r3
 8004448:	461c      	mov	r4, r3
  for (i = 0; i < 8; i++) {
    ml <<= 4;
    mh <<= 4;
    crl <<= 4;
    crh <<= 4;
    if ((mask & 0x0080) == 0)
 800444a:	f011 0f80 	tst.w	r1, #128	; 0x80
    ml <<= 4;
 800444e:	ea4f 1404 	mov.w	r4, r4, lsl #4
    crl <<= 4;
 8004452:	ea4f 1202 	mov.w	r2, r2, lsl #4
    mh <<= 4;
 8004456:	ea4f 1505 	mov.w	r5, r5, lsl #4
    crh <<= 4;
 800445a:	ea4f 1303 	mov.w	r3, r3, lsl #4
      ml |= 0xf;
 800445e:	bf0c      	ite	eq
 8004460:	f044 040f 	orreq.w	r4, r4, #15
    else
      crl |= cfg;
 8004464:	433a      	orrne	r2, r7
    if ((mask & 0x8000) == 0)
 8004466:	f411 4f00 	tst.w	r1, #32768	; 0x8000
      mh |= 0xf;
 800446a:	bf0c      	ite	eq
 800446c:	f045 050f 	orreq.w	r5, r5, #15
    else
      crh |= cfg;
 8004470:	433b      	orrne	r3, r7
  for (i = 0; i < 8; i++) {
 8004472:	3e01      	subs	r6, #1
    mask <<= 1;
 8004474:	ea4f 0141 	mov.w	r1, r1, lsl #1
  for (i = 0; i < 8; i++) {
 8004478:	d1e7      	bne.n	800444a <gpioCPUSetPinMode+0x1e>
  }
  port->CRH = (port->CRH & mh) | crh;
 800447a:	6841      	ldr	r1, [r0, #4]
 800447c:	4029      	ands	r1, r5
 800447e:	430b      	orrs	r3, r1
 8004480:	6043      	str	r3, [r0, #4]
  port->CRL = (port->CRL & ml) | crl;
 8004482:	6803      	ldr	r3, [r0, #0]
 8004484:	4023      	ands	r3, r4
 8004486:	4313      	orrs	r3, r2
 8004488:	6003      	str	r3, [r0, #0]

    return true;
}
 800448a:	2001      	movs	r0, #1
 800448c:	bdf0      	pop	{r4, r5, r6, r7, pc}
  else if (mode == PAL_MODE_INPUT_PULLDOWN)
 800448e:	2a04      	cmp	r2, #4
    port->BRR = mask;
 8004490:	bf08      	it	eq
 8004492:	6141      	streq	r1, [r0, #20]
 8004494:	e7d2      	b.n	800443c <gpioCPUSetPinMode+0x10>
 8004496:	bf00      	nop
 8004498:	0800c928 	.word	0x0800c928

0800449c <gpioCPUSetValue>:
    (void)driver;
    (void)pinsToChange;
    (void)newValue;

    //syssts_t sts = osalSysGetStatusAndLockX();
    palWriteGroup((ioportid_t)driver->driver, pinsToChange, 0, newValue);
 800449c:	6803      	ldr	r3, [r0, #0]
 800449e:	ea21 0002 	bic.w	r0, r1, r2
 80044a2:	400a      	ands	r2, r1
 80044a4:	ea42 4200 	orr.w	r2, r2, r0, lsl #16
 80044a8:	611a      	str	r2, [r3, #16]
    //osalSysRestoreStatusX(sts);

    return true;
}
 80044aa:	2001      	movs	r0, #1
 80044ac:	4770      	bx	lr

080044ae <gpioCPUGetValue>:
static bool gpioCPUGetValue(const GPIOPort* driver, uint32_t* value)
{
    (void)driver;
    (void)value;

    *value = palReadPort((ioportid_t)driver->driver);
 80044ae:	6803      	ldr	r3, [r0, #0]

    return true;
}
 80044b0:	2001      	movs	r0, #1
    *value = palReadPort((ioportid_t)driver->driver);
 80044b2:	689b      	ldr	r3, [r3, #8]
 80044b4:	600b      	str	r3, [r1, #0]
}
 80044b6:	4770      	bx	lr

080044b8 <gpioCPUInit>:
    .getValue = gpioCPUGetValue,
    .status = gpioCPUStatus
};

void gpioCPUInit(uint8_t gpioPortId, ioportid_t port)
{
 80044b8:	b510      	push	{r4, lr}
    if(index >= GPIODriverData.numPorts) {
 80044ba:	4a0c      	ldr	r2, [pc, #48]	; (80044ec <gpioCPUInit+0x34>)
 80044bc:	7913      	ldrb	r3, [r2, #4]
 80044be:	4283      	cmp	r3, r0
 80044c0:	d912      	bls.n	80044e8 <gpioCPUInit+0x30>
    if(GPIODriverData.registeredPorts & _BV(index)) {
 80044c2:	6894      	ldr	r4, [r2, #8]
 80044c4:	fa24 f300 	lsr.w	r3, r4, r0
 80044c8:	07db      	lsls	r3, r3, #31
 80044ca:	d40d      	bmi.n	80044e8 <gpioCPUInit+0x30>
    GPIODriverData.registeredPorts |= _BV(index);
 80044cc:	2301      	movs	r3, #1
 80044ce:	4083      	lsls	r3, r0
 80044d0:	4323      	orrs	r3, r4
 80044d2:	6093      	str	r3, [r2, #8]
    return &GPIODriverData.ports[index];
 80044d4:	230c      	movs	r3, #12
 80044d6:	4358      	muls	r0, r3
 80044d8:	6813      	ldr	r3, [r2, #0]
    GPIOPort* portDriver = gpioRegisterPortDriver(gpioPortId);
    if(!portDriver) {
 80044da:	181a      	adds	r2, r3, r0
 80044dc:	d004      	beq.n	80044e8 <gpioCPUInit+0x30>
        return;
    }

    portDriver->driver = port;
 80044de:	5019      	str	r1, [r3, r0]
    portDriver->functions = &gpioCPUFunctions;
 80044e0:	4b03      	ldr	r3, [pc, #12]	; (80044f0 <gpioCPUInit+0x38>)
 80044e2:	6093      	str	r3, [r2, #8]
    portDriver->numPins = 16;
 80044e4:	2310      	movs	r3, #16
 80044e6:	6053      	str	r3, [r2, #4]
}
 80044e8:	bd10      	pop	{r4, pc}
 80044ea:	bf00      	nop
 80044ec:	20000928 	.word	0x20000928
 80044f0:	0800ca38 	.word	0x0800ca38

080044f4 <converterTune>:
#include "converter.h"
#include "shell.h"
#include "chprintf.h"

bool converterTune(ConverterManager* converter, ConverterTuneRequest* tuneRequest)
{
 80044f4:	e92d 41f0 	stmdb	sp!, {r4, r5, r6, r7, r8, lr}
    /* Iterate over all bands */
    for(uint8_t i=0; converter->bands[i].functions; i++) {
 80044f8:	f04f 0c14 	mov.w	ip, #20
{
 80044fc:	4604      	mov	r4, r0
 80044fe:	460d      	mov	r5, r1
    for(uint8_t i=0; converter->bands[i].functions; i++) {
 8004500:	6941      	ldr	r1, [r0, #20]
 8004502:	2000      	movs	r0, #0
 8004504:	b2c6      	uxtb	r6, r0
 8004506:	fb0c f806 	mul.w	r8, ip, r6
 800450a:	eb01 0208 	add.w	r2, r1, r8
 800450e:	6913      	ldr	r3, [r2, #16]
 8004510:	b1b3      	cbz	r3, 8004540 <converterTune+0x4c>
        if(_BV(i) & converter-> disabledBands) {
 8004512:	69e7      	ldr	r7, [r4, #28]
 8004514:	40f7      	lsrs	r7, r6
 8004516:	07fb      	lsls	r3, r7, #31
 8004518:	d41d      	bmi.n	8004556 <converterTune+0x62>
            continue;
        }

        uint32_t tmpFreq = tuneRequest->inputFrequencyKHz;

        if((tuneRequest->forceBand && tuneRequest->bandId == i) ||
 800451a:	7a2b      	ldrb	r3, [r5, #8]
 800451c:	b1a3      	cbz	r3, 8004548 <converterTune+0x54>
 800451e:	7a6b      	ldrb	r3, [r5, #9]
 8004520:	42b3      	cmp	r3, r6
 8004522:	d118      	bne.n	8004556 <converterTune+0x62>
                (!tuneRequest->forceBand &&
                 tmpFreq >= converter->bands[i].minFrequencyKHz &&
                 tmpFreq <= converter->bands[i].maxFrequencyKHz)) {


            if(converter->activeBand != 0xff && converter->activeBand != i) {
 8004524:	7e23      	ldrb	r3, [r4, #24]
 8004526:	2bff      	cmp	r3, #255	; 0xff
 8004528:	d117      	bne.n	800455a <converterTune+0x66>
                    converter->bands[converter->activeBand].functions->converterLeaveBand(converter,
                            &converter->bands[converter->activeBand]);
                }
            }

            converter->activeBand = i;
 800452a:	7626      	strb	r6, [r4, #24]
            tuneRequest->bandId = i;
 800452c:	726e      	strb	r6, [r5, #9]

            bool retVal = converter->bands[i].functions->converterTuneBand(converter, &converter->bands[i], tuneRequest);
 800452e:	6961      	ldr	r1, [r4, #20]
 8004530:	462a      	mov	r2, r5
 8004532:	4441      	add	r1, r8
 8004534:	690b      	ldr	r3, [r1, #16]
 8004536:	4620      	mov	r0, r4
 8004538:	681b      	ldr	r3, [r3, #0]
 800453a:	4798      	blx	r3
            if(retVal) {
 800453c:	4606      	mov	r6, r0
 800453e:	b9c0      	cbnz	r0, 8004572 <converterTune+0x7e>
    for(uint8_t i=0; converter->bands[i].functions; i++) {
 8004540:	2600      	movs	r6, #0
        }
    }


    return false;
}
 8004542:	4630      	mov	r0, r6
 8004544:	e8bd 81f0 	ldmia.w	sp!, {r4, r5, r6, r7, r8, pc}
        uint32_t tmpFreq = tuneRequest->inputFrequencyKHz;
 8004548:	682f      	ldr	r7, [r5, #0]
                (!tuneRequest->forceBand &&
 800454a:	6853      	ldr	r3, [r2, #4]
 800454c:	42bb      	cmp	r3, r7
 800454e:	d802      	bhi.n	8004556 <converterTune+0x62>
                 tmpFreq >= converter->bands[i].minFrequencyKHz &&
 8004550:	6893      	ldr	r3, [r2, #8]
 8004552:	42bb      	cmp	r3, r7
 8004554:	d2e6      	bcs.n	8004524 <converterTune+0x30>
    for(uint8_t i=0; converter->bands[i].functions; i++) {
 8004556:	3001      	adds	r0, #1
 8004558:	e7d4      	b.n	8004504 <converterTune+0x10>
            if(converter->activeBand != 0xff && converter->activeBand != i) {
 800455a:	42b3      	cmp	r3, r6
 800455c:	d0e5      	beq.n	800452a <converterTune+0x36>
                if(converter->bands[converter->activeBand].functions->converterLeaveBand) {
 800455e:	2214      	movs	r2, #20
 8004560:	fb02 1103 	mla	r1, r2, r3, r1
 8004564:	690b      	ldr	r3, [r1, #16]
 8004566:	685b      	ldr	r3, [r3, #4]
 8004568:	2b00      	cmp	r3, #0
 800456a:	d0de      	beq.n	800452a <converterTune+0x36>
                    converter->bands[converter->activeBand].functions->converterLeaveBand(converter,
 800456c:	4620      	mov	r0, r4
 800456e:	4798      	blx	r3
 8004570:	e7db      	b.n	800452a <converterTune+0x36>
                converter->currentTune = *tuneRequest;
 8004572:	cd0f      	ldmia	r5!, {r0, r1, r2, r3}
 8004574:	c40f      	stmia	r4!, {r0, r1, r2, r3}
 8004576:	682b      	ldr	r3, [r5, #0]
 8004578:	6023      	str	r3, [r4, #0]
 800457a:	e7e2      	b.n	8004542 <converterTune+0x4e>

0800457c <converterTuneBypass>:


#include "converter.h"

static bool converterTuneBypass(const ConverterManager* converter, const ConverterBand* band, ConverterTuneRequest* tuneRequest)
{
 800457c:	b510      	push	{r4, lr}
 800457e:	4614      	mov	r4, r2
    (void) band;

    converter->setConverterGpio(converter, 0);
 8004580:	6a03      	ldr	r3, [r0, #32]
 8004582:	2100      	movs	r1, #0
 8004584:	4798      	blx	r3

    tuneRequest->outputFrequencyKHz = tuneRequest->inputFrequencyKHz;
 8004586:	6823      	ldr	r3, [r4, #0]
    tuneRequest->spectrumInversion = false;

    return true;
}
 8004588:	2001      	movs	r0, #1
    tuneRequest->outputFrequencyKHz = tuneRequest->inputFrequencyKHz;
 800458a:	60e3      	str	r3, [r4, #12]
    tuneRequest->spectrumInversion = false;
 800458c:	2300      	movs	r3, #0
 800458e:	7423      	strb	r3, [r4, #16]
}
 8004590:	bd10      	pop	{r4, pc}

08004592 <converterTuneSW>:

#include "converter.h"


static bool converterTuneSW(const ConverterManager* converter, const ConverterBand* band, ConverterTuneRequest* tuneRequest)
{
 8004592:	b510      	push	{r4, lr}
 8004594:	4614      	mov	r4, r2
    (void) band;

    /* Switch on LO and Mixer */
    converter->setConverterGpio(converter, _BV(CONVERTER_IO_PIN_MIX_SW_EN) | _BV(CONVERTER_IO_PIN_MIX_SW_LO));
 8004596:	6a03      	ldr	r3, [r0, #32]
 8004598:	f44f 7180 	mov.w	r1, #256	; 0x100
 800459c:	4798      	blx	r3

    tuneRequest->outputFrequencyKHz = configCPU_CLOCK_HZ/1000 +tuneRequest->inputFrequencyKHz;
 800459e:	6823      	ldr	r3, [r4, #0]
    tuneRequest->spectrumInversion = false;

    return true;
}
 80045a0:	2001      	movs	r0, #1
    tuneRequest->outputFrequencyKHz = configCPU_CLOCK_HZ/1000 +tuneRequest->inputFrequencyKHz;
 80045a2:	f503 338c 	add.w	r3, r3, #71680	; 0x11800
 80045a6:	f503 73a0 	add.w	r3, r3, #320	; 0x140
 80045aa:	60e3      	str	r3, [r4, #12]
    tuneRequest->spectrumInversion = false;
 80045ac:	2300      	movs	r3, #0
 80045ae:	7423      	strb	r3, [r4, #16]
}
 80045b0:	bd10      	pop	{r4, pc}

080045b2 <converterLeaveSW>:

static bool converterLeaveSW(const ConverterManager* converter, const ConverterBand* band)
{
 80045b2:	b508      	push	{r3, lr}
    (void) converter;
    (void) band;

    /* Turn everything off */
    converter->setConverterGpio(converter, 0);
 80045b4:	2100      	movs	r1, #0
 80045b6:	6a03      	ldr	r3, [r0, #32]
 80045b8:	4798      	blx	r3

    return true;
}
 80045ba:	2001      	movs	r0, #1
 80045bc:	bd08      	pop	{r3, pc}

080045be <converterTuneSHF>:
 */

#include "converter.h"

static bool converterTuneSHF(const ConverterManager* converter, const ConverterBand* band, ConverterTuneRequest* tuneRequest)
{
 80045be:	b5f8      	push	{r3, r4, r5, r6, r7, lr}
    ConverterSHFConfig* config = (ConverterSHFConfig*)band->userData;
 80045c0:	68cd      	ldr	r5, [r1, #12]
{
 80045c2:	4616      	mov	r6, r2
    } else {
        ioOut |= _BV(CONVERTER_IO_PIN_ANT_HIGH);
    }*/

    if(config->useHighSideMixing) {
        loFreq = tuneRequest->inputFrequencyKHz + config->ifFrequencyKHz;
 80045c4:	6814      	ldr	r4, [r2, #0]
    if(config->useHighSideMixing) {
 80045c6:	782a      	ldrb	r2, [r5, #0]
{
 80045c8:	4607      	mov	r7, r0
        loFreq = tuneRequest->inputFrequencyKHz + config->ifFrequencyKHz;
 80045ca:	686b      	ldr	r3, [r5, #4]
    if(config->useHighSideMixing) {
 80045cc:	b1aa      	cbz	r2, 80045fa <converterTuneSHF+0x3c>
        loFreq = tuneRequest->inputFrequencyKHz + config->ifFrequencyKHz;
 80045ce:	441c      	add	r4, r3
        }
        loFreq = tuneRequest->inputFrequencyKHz - config->ifFrequencyKHz;
    }

    /* If tuning failed, try to use LO/2 and enable doubler */
    if(!config->loTune(loFreq, 2)) {
 80045d0:	2102      	movs	r1, #2
 80045d2:	4620      	mov	r0, r4
 80045d4:	68ab      	ldr	r3, [r5, #8]
 80045d6:	4798      	blx	r3
 80045d8:	b9a8      	cbnz	r0, 8004606 <converterTuneSHF+0x48>
        loFreq /= 2;
        ioOut |= _BV(CONVERTER_IO_PIN_MIX_X2);

        /* Try again, if it fails now it is fatal */
        if(!config->loTune(loFreq, 2)) {
 80045da:	2102      	movs	r1, #2
 80045dc:	68ab      	ldr	r3, [r5, #8]
 80045de:	0860      	lsrs	r0, r4, #1
 80045e0:	4798      	blx	r3
 80045e2:	b160      	cbz	r0, 80045fe <converterTuneSHF+0x40>
        ioOut |= _BV(CONVERTER_IO_PIN_MIX_X2);
 80045e4:	f44f 4140 	mov.w	r1, #49152	; 0xc000
            return false;
        }
    }

    converter->setConverterGpio(converter, ioOut);
 80045e8:	4638      	mov	r0, r7
 80045ea:	6a3b      	ldr	r3, [r7, #32]
 80045ec:	4798      	blx	r3

    tuneRequest->outputFrequencyKHz = config->ifFrequencyKHz;
 80045ee:	686b      	ldr	r3, [r5, #4]
    tuneRequest->spectrumInversion = config->useHighSideMixing;

    return true;
 80045f0:	2001      	movs	r0, #1
    tuneRequest->outputFrequencyKHz = config->ifFrequencyKHz;
 80045f2:	60f3      	str	r3, [r6, #12]
    tuneRequest->spectrumInversion = config->useHighSideMixing;
 80045f4:	782b      	ldrb	r3, [r5, #0]
 80045f6:	7433      	strb	r3, [r6, #16]
    return true;
 80045f8:	e002      	b.n	8004600 <converterTuneSHF+0x42>
        if(tuneRequest->inputFrequencyKHz < config->ifFrequencyKHz) {
 80045fa:	429c      	cmp	r4, r3
 80045fc:	d201      	bcs.n	8004602 <converterTuneSHF+0x44>
            return false;
 80045fe:	2000      	movs	r0, #0
}
 8004600:	bdf8      	pop	{r3, r4, r5, r6, r7, pc}
        loFreq = tuneRequest->inputFrequencyKHz - config->ifFrequencyKHz;
 8004602:	1ae4      	subs	r4, r4, r3
 8004604:	e7e4      	b.n	80045d0 <converterTuneSHF+0x12>
    uint32_t ioOut = _BV(CONVERTER_IO_PIN_MIX_EN);
 8004606:	f44f 4100 	mov.w	r1, #32768	; 0x8000
 800460a:	e7ed      	b.n	80045e8 <converterTuneSHF+0x2a>

0800460c <converterLeaveSHF>:

static bool converterLeaveSHF(const ConverterManager* converter, const ConverterBand* band)
{
 800460c:	b510      	push	{r4, lr}
 800460e:	4604      	mov	r4, r0
    ConverterSHFConfig* config = (ConverterSHFConfig*)band->userData;

    /* Turn everything off */
    config->loTune(0, -127);
 8004610:	68cb      	ldr	r3, [r1, #12]
 8004612:	2000      	movs	r0, #0
 8004614:	f06f 017e 	mvn.w	r1, #126	; 0x7e
 8004618:	689b      	ldr	r3, [r3, #8]
 800461a:	4798      	blx	r3
    converter->setConverterGpio(converter, 0);
 800461c:	4620      	mov	r0, r4
 800461e:	2100      	movs	r1, #0
 8004620:	6a23      	ldr	r3, [r4, #32]
 8004622:	4798      	blx	r3

    return true;
}
 8004624:	2001      	movs	r0, #1
 8004626:	bd10      	pop	{r4, pc}

08004628 <prvInsertBlockIntoFreeList>:
 8004628:	b510      	push	{r4, lr}
 800462a:	4b0f      	ldr	r3, [pc, #60]	; (8004668 <prvInsertBlockIntoFreeList+0x40>)
 800462c:	461a      	mov	r2, r3
 800462e:	681b      	ldr	r3, [r3, #0]
 8004630:	4283      	cmp	r3, r0
 8004632:	d3fb      	bcc.n	800462c <prvInsertBlockIntoFreeList+0x4>
 8004634:	6854      	ldr	r4, [r2, #4]
 8004636:	1911      	adds	r1, r2, r4
 8004638:	4288      	cmp	r0, r1
 800463a:	bf01      	itttt	eq
 800463c:	6841      	ldreq	r1, [r0, #4]
 800463e:	4610      	moveq	r0, r2
 8004640:	1909      	addeq	r1, r1, r4
 8004642:	6051      	streq	r1, [r2, #4]
 8004644:	6844      	ldr	r4, [r0, #4]
 8004646:	1901      	adds	r1, r0, r4
 8004648:	428b      	cmp	r3, r1
 800464a:	d107      	bne.n	800465c <prvInsertBlockIntoFreeList+0x34>
 800464c:	4907      	ldr	r1, [pc, #28]	; (800466c <prvInsertBlockIntoFreeList+0x44>)
 800464e:	6809      	ldr	r1, [r1, #0]
 8004650:	428b      	cmp	r3, r1
 8004652:	bf1f      	itttt	ne
 8004654:	6859      	ldrne	r1, [r3, #4]
 8004656:	681b      	ldrne	r3, [r3, #0]
 8004658:	1909      	addne	r1, r1, r4
 800465a:	6041      	strne	r1, [r0, #4]
 800465c:	4290      	cmp	r0, r2
 800465e:	6003      	str	r3, [r0, #0]
 8004660:	bf18      	it	ne
 8004662:	6010      	strne	r0, [r2, #0]
 8004664:	bd10      	pop	{r4, pc}
 8004666:	bf00      	nop
 8004668:	20001618 	.word	0x20001618
 800466c:	200011b0 	.word	0x200011b0

08004670 <vTaskSuspendAll>:
 8004670:	4a02      	ldr	r2, [pc, #8]	; (800467c <vTaskSuspendAll+0xc>)
 8004672:	6813      	ldr	r3, [r2, #0]
 8004674:	3301      	adds	r3, #1
 8004676:	6013      	str	r3, [r2, #0]
 8004678:	4770      	bx	lr
 800467a:	bf00      	nop
 800467c:	2000136c 	.word	0x2000136c

08004680 <prvGetExpectedIdleTime>:
 8004680:	4b09      	ldr	r3, [pc, #36]	; (80046a8 <prvGetExpectedIdleTime+0x28>)
 8004682:	4a0a      	ldr	r2, [pc, #40]	; (80046ac <prvGetExpectedIdleTime+0x2c>)
 8004684:	681b      	ldr	r3, [r3, #0]
 8004686:	6812      	ldr	r2, [r2, #0]
 8004688:	6ad0      	ldr	r0, [r2, #44]	; 0x2c
 800468a:	b958      	cbnz	r0, 80046a4 <prvGetExpectedIdleTime+0x24>
 800468c:	4a08      	ldr	r2, [pc, #32]	; (80046b0 <prvGetExpectedIdleTime+0x30>)
 800468e:	6812      	ldr	r2, [r2, #0]
 8004690:	2a01      	cmp	r2, #1
 8004692:	d808      	bhi.n	80046a6 <prvGetExpectedIdleTime+0x26>
 8004694:	2b01      	cmp	r3, #1
 8004696:	d806      	bhi.n	80046a6 <prvGetExpectedIdleTime+0x26>
 8004698:	4b06      	ldr	r3, [pc, #24]	; (80046b4 <prvGetExpectedIdleTime+0x34>)
 800469a:	6818      	ldr	r0, [r3, #0]
 800469c:	4b06      	ldr	r3, [pc, #24]	; (80046b8 <prvGetExpectedIdleTime+0x38>)
 800469e:	681b      	ldr	r3, [r3, #0]
 80046a0:	1ac0      	subs	r0, r0, r3
 80046a2:	4770      	bx	lr
 80046a4:	2000      	movs	r0, #0
 80046a6:	4770      	bx	lr
 80046a8:	20001374 	.word	0x20001374
 80046ac:	200011a8 	.word	0x200011a8
 80046b0:	200011b8 	.word	0x200011b8
 80046b4:	200015f8 	.word	0x200015f8
 80046b8:	20001648 	.word	0x20001648

080046bc <prvResetNextTaskUnblockTime>:
 80046bc:	4a06      	ldr	r2, [pc, #24]	; (80046d8 <prvResetNextTaskUnblockTime+0x1c>)
 80046be:	6813      	ldr	r3, [r2, #0]
 80046c0:	6819      	ldr	r1, [r3, #0]
 80046c2:	4b06      	ldr	r3, [pc, #24]	; (80046dc <prvResetNextTaskUnblockTime+0x20>)
 80046c4:	b919      	cbnz	r1, 80046ce <prvResetNextTaskUnblockTime+0x12>
 80046c6:	f04f 32ff 	mov.w	r2, #4294967295	; 0xffffffff
 80046ca:	601a      	str	r2, [r3, #0]
 80046cc:	4770      	bx	lr
 80046ce:	6812      	ldr	r2, [r2, #0]
 80046d0:	68d2      	ldr	r2, [r2, #12]
 80046d2:	68d2      	ldr	r2, [r2, #12]
 80046d4:	6852      	ldr	r2, [r2, #4]
 80046d6:	e7f8      	b.n	80046ca <prvResetNextTaskUnblockTime+0xe>
 80046d8:	200011ac 	.word	0x200011ac
 80046dc:	200015f8 	.word	0x200015f8

080046e0 <vPortSVCHandler>:
 80046e0:	4b0b      	ldr	r3, [pc, #44]	; (8004710 <pxCurrentTCBConst2>)
 80046e2:	6819      	ldr	r1, [r3, #0]
 80046e4:	6808      	ldr	r0, [r1, #0]
 80046e6:	c830      	ldmia	r0!, {r4, r5}
 80046e8:	e8b0 0ff0 	ldmia.w	r0!, {r4, r5, r6, r7, r8, r9, sl, fp}
 80046ec:	f380 8809 	msr	PSP, r0
 80046f0:	f3bf 8f6f 	isb	sy
 80046f4:	f04f 0000 	mov.w	r0, #0
 80046f8:	f380 8811 	msr	BASEPRI, r0
 80046fc:	f04e 0e0d 	orr.w	lr, lr, #13
 8004700:	4770      	bx	lr
 8004702:	bf00      	nop
 8004704:	f3af 8000 	nop.w
 8004708:	f3af 8000 	nop.w
 800470c:	f3af 8000 	nop.w

08004710 <pxCurrentTCBConst2>:
 8004710:	200011a8 	.word	0x200011a8

08004714 <prvPortStartFirstTask>:
 8004714:	4806      	ldr	r0, [pc, #24]	; (8004730 <prvPortStartFirstTask+0x1c>)
 8004716:	6800      	ldr	r0, [r0, #0]
 8004718:	6800      	ldr	r0, [r0, #0]
 800471a:	f380 8808 	msr	MSP, r0
 800471e:	b662      	cpsie	i
 8004720:	b661      	cpsie	f
 8004722:	f3bf 8f4f 	dsb	sy
 8004726:	f3bf 8f6f 	isb	sy
 800472a:	df00      	svc	0
 800472c:	bf00      	nop
 800472e:	0000      	.short	0x0000
 8004730:	e000ed08 	.word	0xe000ed08

08004734 <vPortEnterCritical>:
 8004734:	4a06      	ldr	r2, [pc, #24]	; (8004750 <vPortEnterCritical+0x1c>)
 8004736:	6813      	ldr	r3, [r2, #0]
 8004738:	b93b      	cbnz	r3, 800474a <vPortEnterCritical+0x16>
 800473a:	f04f 01bf 	mov.w	r1, #191	; 0xbf
 800473e:	f381 8811 	msr	BASEPRI, r1
 8004742:	f3bf 8f6f 	isb	sy
 8004746:	f3bf 8f4f 	dsb	sy
 800474a:	3301      	adds	r3, #1
 800474c:	6013      	str	r3, [r2, #0]
 800474e:	4770      	bx	lr
 8004750:	20001358 	.word	0x20001358

08004754 <vTaskEndScheduler>:
 8004754:	b508      	push	{r3, lr}
 8004756:	f7ff ffed 	bl	8004734 <vPortEnterCritical>
 800475a:	2200      	movs	r2, #0
 800475c:	4b02      	ldr	r3, [pc, #8]	; (8004768 <vTaskEndScheduler+0x14>)
 800475e:	601a      	str	r2, [r3, #0]
 8004760:	b672      	cpsid	i
 8004762:	b671      	cpsid	f
 8004764:	bd08      	pop	{r3, pc}
 8004766:	bf00      	nop
 8004768:	20001614 	.word	0x20001614

0800476c <ibqReleaseEmptyBufferS>:
   *
   * @param[in] ibqp      pointer to the @p input_buffers_queue_t object
   *
   * @sclass
   */
  void ibqReleaseEmptyBufferS(input_buffers_queue_t *ibqp) {
 800476c:	b510      	push	{r4, lr}
}
/*-----------------------------------------------------------*/

portFORCE_INLINE static BaseType_t xPortIsCriticalSection( void ){
uint32_t ulBasePri;
	__asm volatile( "mrs %0, basepri" : "=r"( ulBasePri ) );
 800476e:	f3ef 8311 	mrs	r3, BASEPRI
	
	return (ulBasePri > 0)? pdTRUE : pdFALSE;
 8004772:	b12b      	cbz	r3, 8004780 <ibqReleaseEmptyBufferS+0x14>
	__asm volatile( "mrs %0, ipsr" : "=r"( ulCurrentInterrupt ) );
 8004774:	f3ef 8305 	mrs	r3, IPSR
	if( ulCurrentInterrupt == 0 )
 8004778:	b12b      	cbz	r3, 8004786 <ibqReleaseEmptyBufferS+0x1a>

  osalDbgCheckClassS();
 800477a:	f7ff ffeb 	bl	8004754 <vTaskEndScheduler>
 800477e:	e7fe      	b.n	800477e <ibqReleaseEmptyBufferS+0x12>
 8004780:	f7ff ffe8 	bl	8004754 <vTaskEndScheduler>
 8004784:	e7fe      	b.n	8004784 <ibqReleaseEmptyBufferS+0x18>
  osalDbgAssert(!ibqIsEmptyI(ibqp), "buffers queue empty");
 8004786:	68c3      	ldr	r3, [r0, #12]
 8004788:	b913      	cbnz	r3, 8004790 <ibqReleaseEmptyBufferS+0x24>
 800478a:	f7ff ffe3 	bl	8004754 <vTaskEndScheduler>
 800478e:	e7fe      	b.n	800478e <ibqReleaseEmptyBufferS+0x22>

  /* Freeing a buffer slot in the queue.*/
  ibqp->bcounter--;
 8004790:	68c3      	ldr	r3, [r0, #12]
  ibqp->brdptr += ibqp->bsize;
 8004792:	69c2      	ldr	r2, [r0, #28]
  ibqp->bcounter--;
 8004794:	3b01      	subs	r3, #1
 8004796:	60c3      	str	r3, [r0, #12]
  ibqp->brdptr += ibqp->bsize;
 8004798:	6943      	ldr	r3, [r0, #20]
 800479a:	4413      	add	r3, r2
  if (ibqp->brdptr >= ibqp->btop) {
 800479c:	6982      	ldr	r2, [r0, #24]
  ibqp->brdptr += ibqp->bsize;
 800479e:	6143      	str	r3, [r0, #20]
  if (ibqp->brdptr >= ibqp->btop) {
 80047a0:	4293      	cmp	r3, r2
    ibqp->brdptr = ibqp->buffers;
 80047a2:	bf24      	itt	cs
 80047a4:	6a43      	ldrcs	r3, [r0, #36]	; 0x24
 80047a6:	6143      	strcs	r3, [r0, #20]
  }

  /* No "current" buffer.*/
  ibqp->ptr = NULL;
 80047a8:	2300      	movs	r3, #0
 80047aa:	6283      	str	r3, [r0, #40]	; 0x28

  /* Notifying the buffer release.*/
  if (ibqp->notify != NULL) {
 80047ac:	6b03      	ldr	r3, [r0, #48]	; 0x30
 80047ae:	b113      	cbz	r3, 80047b6 <ibqReleaseEmptyBufferS+0x4a>
    ibqp->notify(ibqp);
  }
}
 80047b0:	e8bd 4010 	ldmia.w	sp!, {r4, lr}
    ibqp->notify(ibqp);
 80047b4:	4718      	bx	r3
}
 80047b6:	bd10      	pop	{r4, pc}

080047b8 <obqGetFullBufferI>:
 * @retval NULL         if the queue is empty.
 *
 * @iclass
 */
uint8_t *obqGetFullBufferI(output_buffers_queue_t *obqp,
                           size_t *sizep) {
 80047b8:	b508      	push	{r3, lr}
 80047ba:	4603      	mov	r3, r0
	__asm volatile( "mrs %0, basepri" : "=r"( ulBasePri ) );
 80047bc:	f3ef 8211 	mrs	r2, BASEPRI
	return (ulBasePri > 0)? pdTRUE : pdFALSE;
 80047c0:	b15a      	cbz	r2, 80047da <obqGetFullBufferI+0x22>

  osalDbgCheckClassI();

  if (obqIsEmptyI(obqp)) {
 80047c2:	e9d0 2004 	ldrd	r2, r0, [r0, #16]
 80047c6:	4282      	cmp	r2, r0
 80047c8:	d101      	bne.n	80047ce <obqGetFullBufferI+0x16>
 80047ca:	68db      	ldr	r3, [r3, #12]
 80047cc:	b91b      	cbnz	r3, 80047d6 <obqGetFullBufferI+0x1e>
    return NULL;
  }

  /* Buffer size.*/
  *sizep = *((size_t *)obqp->brdptr);
 80047ce:	f850 3b04 	ldr.w	r3, [r0], #4
 80047d2:	600b      	str	r3, [r1, #0]

  return obqp->brdptr + sizeof (size_t);
}
 80047d4:	bd08      	pop	{r3, pc}
    return NULL;
 80047d6:	2000      	movs	r0, #0
 80047d8:	e7fc      	b.n	80047d4 <obqGetFullBufferI+0x1c>
  osalDbgCheckClassI();
 80047da:	f7ff ffbb 	bl	8004754 <vTaskEndScheduler>
 80047de:	e7fe      	b.n	80047de <obqGetFullBufferI+0x26>

080047e0 <obqPostFullBufferS>:
 * @param[in] obqp      pointer to the @p output_buffers_queue_t object
 * @param[in] size      used size of the buffer, cannot be zero
 *
 * @sclass
 */
void obqPostFullBufferS(output_buffers_queue_t *obqp, size_t size) {
 80047e0:	b510      	push	{r4, lr}
	__asm volatile( "mrs %0, basepri" : "=r"( ulBasePri ) );
 80047e2:	f3ef 8311 	mrs	r3, BASEPRI
	return (ulBasePri > 0)? pdTRUE : pdFALSE;
 80047e6:	b12b      	cbz	r3, 80047f4 <obqPostFullBufferS+0x14>
	__asm volatile( "mrs %0, ipsr" : "=r"( ulCurrentInterrupt ) );
 80047e8:	f3ef 8305 	mrs	r3, IPSR
	if( ulCurrentInterrupt == 0 )
 80047ec:	b12b      	cbz	r3, 80047fa <obqPostFullBufferS+0x1a>

  osalDbgCheckClassS();
 80047ee:	f7ff ffb1 	bl	8004754 <vTaskEndScheduler>
 80047f2:	e7fe      	b.n	80047f2 <obqPostFullBufferS+0x12>
 80047f4:	f7ff ffae 	bl	8004754 <vTaskEndScheduler>
 80047f8:	e7fe      	b.n	80047f8 <obqPostFullBufferS+0x18>
  osalDbgCheck((size > 0U) && (size <= (obqp->bsize - sizeof (size_t))));
 80047fa:	b119      	cbz	r1, 8004804 <obqPostFullBufferS+0x24>
 80047fc:	69c3      	ldr	r3, [r0, #28]
 80047fe:	3b04      	subs	r3, #4
 8004800:	4299      	cmp	r1, r3
 8004802:	d902      	bls.n	800480a <obqPostFullBufferS+0x2a>
 8004804:	f7ff ffa6 	bl	8004754 <vTaskEndScheduler>
 8004808:	e7fe      	b.n	8004808 <obqPostFullBufferS+0x28>
  osalDbgAssert(!obqIsFullI(obqp), "buffers queue full");
 800480a:	68c3      	ldr	r3, [r0, #12]
 800480c:	b913      	cbnz	r3, 8004814 <obqPostFullBufferS+0x34>
 800480e:	f7ff ffa1 	bl	8004754 <vTaskEndScheduler>
 8004812:	e7fe      	b.n	8004812 <obqPostFullBufferS+0x32>

  /* Writing size field in the buffer.*/
  *((size_t *)obqp->bwrptr) = size;
 8004814:	6903      	ldr	r3, [r0, #16]
 8004816:	6019      	str	r1, [r3, #0]

  /* Posting the buffer in the queue.*/
  obqp->bcounter--;
 8004818:	68c2      	ldr	r2, [r0, #12]
 800481a:	3a01      	subs	r2, #1
 800481c:	60c2      	str	r2, [r0, #12]
  obqp->bwrptr += obqp->bsize;
 800481e:	69c2      	ldr	r2, [r0, #28]
 8004820:	4413      	add	r3, r2
  if (obqp->bwrptr >= obqp->btop) {
 8004822:	6982      	ldr	r2, [r0, #24]
  obqp->bwrptr += obqp->bsize;
 8004824:	6103      	str	r3, [r0, #16]
  if (obqp->bwrptr >= obqp->btop) {
 8004826:	4293      	cmp	r3, r2
    obqp->bwrptr = obqp->buffers;
 8004828:	bf24      	itt	cs
 800482a:	6a43      	ldrcs	r3, [r0, #36]	; 0x24
 800482c:	6103      	strcs	r3, [r0, #16]
  }

  /* No "current" buffer.*/
  obqp->ptr = NULL;
 800482e:	2300      	movs	r3, #0
 8004830:	6283      	str	r3, [r0, #40]	; 0x28

  /* Notifying the buffer release.*/
  if (obqp->notify != NULL) {
 8004832:	6b03      	ldr	r3, [r0, #48]	; 0x30
 8004834:	b113      	cbz	r3, 800483c <obqPostFullBufferS+0x5c>
    obqp->notify(obqp);
  }
}
 8004836:	e8bd 4010 	ldmia.w	sp!, {r4, lr}
    obqp->notify(obqp);
 800483a:	4718      	bx	r3
}
 800483c:	bd10      	pop	{r4, pc}
	...

08004840 <osalOsRescheduleS.lto_priv.1>:
{
 8004840:	b508      	push	{r3, lr}
	__asm volatile( "mrs %0, basepri" : "=r"( ulBasePri ) );
 8004842:	f3ef 8311 	mrs	r3, BASEPRI
	return (ulBasePri > 0)? pdTRUE : pdFALSE;
 8004846:	b12b      	cbz	r3, 8004854 <osalOsRescheduleS.lto_priv.1+0x14>
	__asm volatile( "mrs %0, ipsr" : "=r"( ulCurrentInterrupt ) );
 8004848:	f3ef 8205 	mrs	r2, IPSR
	if( ulCurrentInterrupt == 0 )
 800484c:	b12a      	cbz	r2, 800485a <osalOsRescheduleS.lto_priv.1+0x1a>
    osalDbgCheckClassS();
 800484e:	f7ff ff81 	bl	8004754 <vTaskEndScheduler>
 8004852:	e7fe      	b.n	8004852 <osalOsRescheduleS.lto_priv.1+0x12>
 8004854:	f7ff ff7e 	bl	8004754 <vTaskEndScheduler>
 8004858:	e7fe      	b.n	8004858 <osalOsRescheduleS.lto_priv.1+0x18>
 800485a:	4b04      	ldr	r3, [pc, #16]	; (800486c <osalOsRescheduleS.lto_priv.1+0x2c>)
 800485c:	6819      	ldr	r1, [r3, #0]
 800485e:	601a      	str	r2, [r3, #0]
    if(uxYieldPending()) taskYIELD();
 8004860:	b119      	cbz	r1, 800486a <osalOsRescheduleS.lto_priv.1+0x2a>
}
 8004862:	e8bd 4008 	ldmia.w	sp!, {r3, lr}
 8004866:	f7ff ba8d 	b.w	8003d84 <Vector6C.part.0>
 800486a:	bd08      	pop	{r3, pc}
 800486c:	2000164c 	.word	0x2000164c

08004870 <usbStartReceiveI>:
 *                      the packet size because the excess is discarded.
 *
 * @iclass
 */
void usbStartReceiveI(USBDriver *usbp, usbep_t ep,
                      uint8_t *buf, size_t n) {
 8004870:	b5f8      	push	{r3, r4, r5, r6, r7, lr}
	__asm volatile( "mrs %0, basepri" : "=r"( ulBasePri ) );
 8004872:	f3ef 8411 	mrs	r4, BASEPRI
	return (ulBasePri > 0)? pdTRUE : pdFALSE;
 8004876:	b11c      	cbz	r4, 8004880 <usbStartReceiveI+0x10>
  USBOutEndpointState *osp;

  osalDbgCheckClassI();
  osalDbgCheck((usbp != NULL) && (ep <= (usbep_t)USB_MAX_ENDPOINTS));
 8004878:	b928      	cbnz	r0, 8004886 <usbStartReceiveI+0x16>
 800487a:	f7ff ff6b 	bl	8004754 <vTaskEndScheduler>
 800487e:	e7fe      	b.n	800487e <usbStartReceiveI+0xe>
  osalDbgCheckClassI();
 8004880:	f7ff ff68 	bl	8004754 <vTaskEndScheduler>
 8004884:	e7fe      	b.n	8004884 <usbStartReceiveI+0x14>
  osalDbgCheck((usbp != NULL) && (ep <= (usbep_t)USB_MAX_ENDPOINTS));
 8004886:	2907      	cmp	r1, #7
 8004888:	d8f7      	bhi.n	800487a <usbStartReceiveI+0xa>
  osalDbgAssert(!usbGetReceiveStatusI(usbp, ep), "already receiving");
 800488a:	2401      	movs	r4, #1
 800488c:	8946      	ldrh	r6, [r0, #10]
 800488e:	fa04 f501 	lsl.w	r5, r4, r1
 8004892:	b2af      	uxth	r7, r5
 8004894:	4035      	ands	r5, r6
 8004896:	d002      	beq.n	800489e <usbStartReceiveI+0x2e>
 8004898:	f7ff ff5c 	bl	8004754 <vTaskEndScheduler>
 800489c:	e7fe      	b.n	800489c <usbStartReceiveI+0x2c>

  /* Marking the endpoint as active.*/
  usbp->receiving |= (uint16_t)((unsigned)1U << (unsigned)ep);
 800489e:	433e      	orrs	r6, r7
 80048a0:	8146      	strh	r6, [r0, #10]

  /* Setting up the transfer.*/
  /*lint -save -e661 [18.1] pclint is confused by the check on ep.*/
  osp = usbp->epc[ep]->out_state;
 80048a2:	eb00 0081 	add.w	r0, r0, r1, lsl #2
 80048a6:	68c6      	ldr	r6, [r0, #12]
 80048a8:	69b0      	ldr	r0, [r6, #24]
  /*lint -restore*/
  osp->rxbuf  = buf;
  osp->rxsize = n;
  osp->rxcnt  = 0;
 80048aa:	e9c0 3500 	strd	r3, r5, [r0]
  osp->rxbuf  = buf;
 80048ae:	6082      	str	r2, [r0, #8]
 */
void usb_lld_start_out(USBDriver *usbp, usbep_t ep) {
  USBOutEndpointState *osp = usbp->epc[ep]->out_state;

  /* Transfer initialization.*/
  if (osp->rxsize == 0)         /* Special case for zero sized packets.*/
 80048b0:	b1b3      	cbz	r3, 80048e0 <usbStartReceiveI+0x70>
    osp->rxpkts = 1;
  else
    osp->rxpkts = (uint16_t)((osp->rxsize + usbp->epc[ep]->out_maxsize - 1) /
 80048b2:	8a72      	ldrh	r2, [r6, #18]
 80048b4:	3b01      	subs	r3, #1
 80048b6:	4413      	add	r3, r2
 80048b8:	fbb3 f3f2 	udiv	r3, r3, r2
 80048bc:	b29b      	uxth	r3, r3
                             usbp->epc[ep]->out_maxsize);

  EPR_SET_STAT_RX(ep, EPR_STAT_RX_VALID);
 80048be:	4a09      	ldr	r2, [pc, #36]	; (80048e4 <usbStartReceiveI+0x74>)
 80048c0:	8183      	strh	r3, [r0, #12]
 80048c2:	f852 3021 	ldr.w	r3, [r2, r1, lsl #2]
 80048c6:	f423 4390 	bic.w	r3, r3, #18432	; 0x4800
 80048ca:	f023 0370 	bic.w	r3, r3, #112	; 0x70
 80048ce:	f483 5340 	eor.w	r3, r3, #12288	; 0x3000
 80048d2:	f443 4300 	orr.w	r3, r3, #32768	; 0x8000
 80048d6:	f043 0380 	orr.w	r3, r3, #128	; 0x80
 80048da:	f842 3021 	str.w	r3, [r2, r1, lsl #2]
  osp->thread = NULL;
#endif

  /* Starting transfer.*/
  usb_lld_start_out(usbp, ep);
}
 80048de:	bdf8      	pop	{r3, r4, r5, r6, r7, pc}
    osp->rxpkts = 1;
 80048e0:	4623      	mov	r3, r4
 80048e2:	e7ec      	b.n	80048be <usbStartReceiveI+0x4e>
 80048e4:	40005c00 	.word	0x40005c00

080048e8 <usbStartTransmitI>:
 * @param[in] n         transaction size
 *
 * @iclass
 */
void usbStartTransmitI(USBDriver *usbp, usbep_t ep,
                       const uint8_t *buf, size_t n) {
 80048e8:	b570      	push	{r4, r5, r6, lr}
 80048ea:	460c      	mov	r4, r1
 80048ec:	4611      	mov	r1, r2
	__asm volatile( "mrs %0, basepri" : "=r"( ulBasePri ) );
 80048ee:	f3ef 8211 	mrs	r2, BASEPRI
	return (ulBasePri > 0)? pdTRUE : pdFALSE;
 80048f2:	b11a      	cbz	r2, 80048fc <usbStartTransmitI+0x14>
  USBInEndpointState *isp;

  osalDbgCheckClassI();
  osalDbgCheck((usbp != NULL) && (ep <= (usbep_t)USB_MAX_ENDPOINTS));
 80048f4:	b928      	cbnz	r0, 8004902 <usbStartTransmitI+0x1a>
 80048f6:	f7ff ff2d 	bl	8004754 <vTaskEndScheduler>
 80048fa:	e7fe      	b.n	80048fa <usbStartTransmitI+0x12>
  osalDbgCheckClassI();
 80048fc:	f7ff ff2a 	bl	8004754 <vTaskEndScheduler>
 8004900:	e7fe      	b.n	8004900 <usbStartTransmitI+0x18>
  osalDbgCheck((usbp != NULL) && (ep <= (usbep_t)USB_MAX_ENDPOINTS));
 8004902:	2c07      	cmp	r4, #7
 8004904:	d8f7      	bhi.n	80048f6 <usbStartTransmitI+0xe>
  osalDbgAssert(!usbGetTransmitStatusI(usbp, ep), "already transmitting");
 8004906:	2501      	movs	r5, #1
 8004908:	8906      	ldrh	r6, [r0, #8]
 800490a:	40a5      	lsls	r5, r4
 800490c:	b2aa      	uxth	r2, r5
 800490e:	4035      	ands	r5, r6
 8004910:	d002      	beq.n	8004918 <usbStartTransmitI+0x30>
 8004912:	f7ff ff1f 	bl	8004754 <vTaskEndScheduler>
 8004916:	e7fe      	b.n	8004916 <usbStartTransmitI+0x2e>

  /* Marking the endpoint as active.*/
  usbp->transmitting |= (uint16_t)((unsigned)1U << (unsigned)ep);
 8004918:	4316      	orrs	r6, r2
 800491a:	8106      	strh	r6, [r0, #8]

  /* Setting up the transfer.*/
  /*lint -save -e661 [18.1] pclint is confused by the check on ep.*/
  isp = usbp->epc[ep]->in_state;
 800491c:	eb00 0084 	add.w	r0, r0, r4, lsl #2
 8004920:	68c2      	ldr	r2, [r0, #12]
 8004922:	6950      	ldr	r0, [r2, #20]
  size_t n;
  USBInEndpointState *isp = usbp->epc[ep]->in_state;

  /* Transfer initialization.*/
  n = isp->txsize;
  if (n > (size_t)usbp->epc[ep]->in_maxsize)
 8004924:	8a12      	ldrh	r2, [r2, #16]
  /*lint -restore*/
  isp->txbuf  = buf;
  isp->txsize = n;
  isp->txcnt  = 0;
 8004926:	e9c0 3500 	strd	r3, r5, [r0]
 800492a:	429a      	cmp	r2, r3
 800492c:	bf28      	it	cs
 800492e:	461a      	movcs	r2, r3
  isp->txbuf  = buf;
 8004930:	6081      	str	r1, [r0, #8]
    n = (size_t)usbp->epc[ep]->in_maxsize;

  isp->txlast = n;
 8004932:	60c2      	str	r2, [r0, #12]
  usb_packet_write_from_buffer(ep, isp->txbuf, n);
 8004934:	4620      	mov	r0, r4
 8004936:	f7ff fc17 	bl	8004168 <usb_packet_write_from_buffer>

  EPR_SET_STAT_TX(ep, EPR_STAT_TX_VALID);
 800493a:	4a08      	ldr	r2, [pc, #32]	; (800495c <usbStartTransmitI+0x74>)
 800493c:	f852 3024 	ldr.w	r3, [r2, r4, lsl #2]
 8004940:	f423 43f0 	bic.w	r3, r3, #30720	; 0x7800
 8004944:	f023 0340 	bic.w	r3, r3, #64	; 0x40
 8004948:	f083 0330 	eor.w	r3, r3, #48	; 0x30
 800494c:	f443 4300 	orr.w	r3, r3, #32768	; 0x8000
 8004950:	f043 0380 	orr.w	r3, r3, #128	; 0x80
 8004954:	f842 3024 	str.w	r3, [r2, r4, lsl #2]
  isp->thread = NULL;
#endif

  /* Starting transfer.*/
  usb_lld_start_in(usbp, ep);
}
 8004958:	bd70      	pop	{r4, r5, r6, pc}
 800495a:	bf00      	nop
 800495c:	40005c00 	.word	0x40005c00

08004960 <obnotify>:
static void obnotify(io_buffers_queue_t *bqp) {
 8004960:	b513      	push	{r0, r1, r4, lr}
  SerialUSBDriver *sdup = bqGetLinkX(bqp);
 8004962:	6b44      	ldr	r4, [r0, #52]	; 0x34
  if ((usbGetDriverStateI(sdup->config->usbp) != USB_ACTIVE) ||
 8004964:	f8d4 3498 	ldr.w	r3, [r4, #1176]	; 0x498
 8004968:	681a      	ldr	r2, [r3, #0]
 800496a:	7811      	ldrb	r1, [r2, #0]
 800496c:	2904      	cmp	r1, #4
 800496e:	d116      	bne.n	800499e <obnotify+0x3e>
 8004970:	7d21      	ldrb	r1, [r4, #20]
 8004972:	2902      	cmp	r1, #2
 8004974:	d113      	bne.n	800499e <obnotify+0x3e>
  if (!usbGetTransmitStatusI(sdup->config->usbp, sdup->config->bulk_in)) {
 8004976:	7919      	ldrb	r1, [r3, #4]
 8004978:	2301      	movs	r3, #1
 800497a:	8912      	ldrh	r2, [r2, #8]
 800497c:	408b      	lsls	r3, r1
 800497e:	4213      	tst	r3, r2
 8004980:	d10d      	bne.n	800499e <obnotify+0x3e>
    uint8_t *buf = obqGetFullBufferI(&sdup->obqueue, &n);
 8004982:	a901      	add	r1, sp, #4
 8004984:	f104 0050 	add.w	r0, r4, #80	; 0x50
 8004988:	f7ff ff16 	bl	80047b8 <obqGetFullBufferI>
    if (buf != NULL) {
 800498c:	4602      	mov	r2, r0
 800498e:	b130      	cbz	r0, 800499e <obnotify+0x3e>
      usbStartTransmitI(sdup->config->usbp, sdup->config->bulk_in, buf, n);
 8004990:	f8d4 0498 	ldr.w	r0, [r4, #1176]	; 0x498
 8004994:	9b01      	ldr	r3, [sp, #4]
 8004996:	7901      	ldrb	r1, [r0, #4]
 8004998:	6800      	ldr	r0, [r0, #0]
 800499a:	f7ff ffa5 	bl	80048e8 <usbStartTransmitI>
}
 800499e:	b002      	add	sp, #8
 80049a0:	bd10      	pop	{r4, pc}
	...

080049a4 <dmaStreamRelease>:
 *
 * @param[in] dmastp    pointer to a stm32_dma_stream_t structure
 *
 * @special
 */
void dmaStreamRelease(const stm32_dma_stream_t *dmastp) {
 80049a4:	b570      	push	{r4, r5, r6, lr}

  osalDbgCheck(dmastp != NULL);
 80049a6:	b910      	cbnz	r0, 80049ae <dmaStreamRelease+0xa>
 80049a8:	f7ff fed4 	bl	8004754 <vTaskEndScheduler>
 80049ac:	e7fe      	b.n	80049ac <dmaStreamRelease+0x8>

  /* Check if the streams is not taken.*/
  osalDbgAssert((dma_streams_mask & (1 << dmastp->selfindex)) != 0U,
 80049ae:	2501      	movs	r5, #1
 80049b0:	4a15      	ldr	r2, [pc, #84]	; (8004a08 <dmaStreamRelease+0x64>)
 80049b2:	7c46      	ldrb	r6, [r0, #17]
 80049b4:	6813      	ldr	r3, [r2, #0]
 80049b6:	fa05 f106 	lsl.w	r1, r5, r6
 80049ba:	4219      	tst	r1, r3
 80049bc:	d102      	bne.n	80049c4 <dmaStreamRelease+0x20>
 80049be:	f7ff fec9 	bl	8004754 <vTaskEndScheduler>
 80049c2:	e7fe      	b.n	80049c2 <dmaStreamRelease+0x1e>
                "not allocated");

  /* Marks the stream as not allocated.*/
  dma_streams_mask &= ~(1U << dmastp->selfindex);
 80049c4:	ea23 0301 	bic.w	r3, r3, r1

  /* Disables the associated IRQ vector if it is no more in use.*/
  if ((dma_streams_mask & dmastp->cmask) == 0U) {
 80049c8:	6881      	ldr	r1, [r0, #8]
  dma_streams_mask &= ~(1U << dmastp->selfindex);
 80049ca:	6013      	str	r3, [r2, #0]
  if ((dma_streams_mask & dmastp->cmask) == 0U) {
 80049cc:	ea13 0401 	ands.w	r4, r3, r1
 80049d0:	d10b      	bne.n	80049ea <dmaStreamRelease+0x46>
    nvicDisableVector(dmastp->vector);
 80049d2:	7c82      	ldrb	r2, [r0, #18]
 *
 * @param[in] n         the interrupt number
 */
void nvicDisableVector(uint32_t n) {

  NVIC->ICER[n >> 5U] = 1U << (n & 0x1FU);
 80049d4:	f002 011f 	and.w	r1, r2, #31
 80049d8:	408d      	lsls	r5, r1
 80049da:	0950      	lsrs	r0, r2, #5
 80049dc:	490b      	ldr	r1, [pc, #44]	; (8004a0c <dmaStreamRelease+0x68>)
 80049de:	3020      	adds	r0, #32
 80049e0:	f841 5020 	str.w	r5, [r1, r0, lsl #2]
#if defined(__CORE_CM0_H_GENERIC)
  NVIC->IP[_IP_IDX(n)] = NVIC->IP[_IP_IDX(n)] & ~(0xFFU << _BIT_SHIFT(n));
#else
  NVIC->IP[n] = 0U;
 80049e4:	4411      	add	r1, r2
 80049e6:	f881 4300 	strb.w	r4, [r1, #768]	; 0x300
  }

  /* Removes the DMA handler.*/
  _stm32_dma_isr_redir[dmastp->selfindex].dma_func  = NULL;
 80049ea:	2100      	movs	r1, #0
 80049ec:	4a08      	ldr	r2, [pc, #32]	; (8004a10 <dmaStreamRelease+0x6c>)
  _stm32_dma_isr_redir[dmastp->selfindex].dma_param = NULL;

  /* Shutting down clocks that are no more required, if any.*/
  if ((dma_streams_mask & STM32_DMA1_STREAMS_MASK) == 0U) {
 80049ee:	065b      	lsls	r3, r3, #25
  _stm32_dma_isr_redir[dmastp->selfindex].dma_func  = NULL;
 80049f0:	f842 1036 	str.w	r1, [r2, r6, lsl #3]
  _stm32_dma_isr_redir[dmastp->selfindex].dma_param = NULL;
 80049f4:	eb02 02c6 	add.w	r2, r2, r6, lsl #3
 80049f8:	6051      	str	r1, [r2, #4]
    rccDisableDMA1(false);
 80049fa:	bf01      	itttt	eq
 80049fc:	4a05      	ldreq	r2, [pc, #20]	; (8004a14 <dmaStreamRelease+0x70>)
 80049fe:	6953      	ldreq	r3, [r2, #20]
 8004a00:	f023 0301 	biceq.w	r3, r3, #1
 8004a04:	6153      	streq	r3, [r2, #20]
#if STM32_DMA2_NUM_CHANNELS > 0
  if ((dma_streams_mask & STM32_DMA2_STREAMS_MASK) == 0U) {
    rccDisableDMA2(false);
  }
#endif
}
 8004a06:	bd70      	pop	{r4, r5, r6, pc}
 8004a08:	20001044 	.word	0x20001044
 8004a0c:	e000e100 	.word	0xe000e100
 8004a10:	20000fe8 	.word	0x20000fe8
 8004a14:	40021000 	.word	0x40021000

08004a18 <i2c_lld_serve_tx_end_irq>:
 *
 * @param[in] i2cp      pointer to the @p I2CDriver object
 *
 * @notapi
 */
static void i2c_lld_serve_tx_end_irq(I2CDriver *i2cp, uint32_t flags) {
 8004a18:	b508      	push	{r3, lr}
  I2C_TypeDef *dp = i2cp->i2c;

  /* DMA errors handling.*/
#if defined(STM32_I2C_DMA_ERROR_HOOK)
  if ((flags & (STM32_DMA_ISR_TEIF | STM32_DMA_ISR_DMEIF)) != 0) {
 8004a1a:	070b      	lsls	r3, r1, #28
 8004a1c:	d502      	bpl.n	8004a24 <i2c_lld_serve_tx_end_irq+0xc>
    STM32_I2C_DMA_ERROR_HOOK(i2cp);
 8004a1e:	f7ff fe99 	bl	8004754 <vTaskEndScheduler>
 8004a22:	e7fe      	b.n	8004a22 <i2c_lld_serve_tx_end_irq+0xa>
  }
#else
  (void)flags;
#endif

  dmaStreamDisable(i2cp->dmatx);
 8004a24:	e9d0 311d 	ldrd	r3, r1, [r0, #116]	; 0x74
 8004a28:	6858      	ldr	r0, [r3, #4]
 8004a2a:	6802      	ldr	r2, [r0, #0]
 8004a2c:	f022 020f 	bic.w	r2, r2, #15
 8004a30:	6002      	str	r2, [r0, #0]
 8004a32:	7c18      	ldrb	r0, [r3, #16]
 8004a34:	681a      	ldr	r2, [r3, #0]
 8004a36:	230e      	movs	r3, #14
 8004a38:	4083      	lsls	r3, r0
 8004a3a:	6053      	str	r3, [r2, #4]
  /* Enables interrupts to catch BTF event meaning transmission part complete.
     Interrupt handler will decide to generate STOP or to begin receiving part
     of R/W transaction itself.*/
  dp->CR2 |= I2C_CR2_ITEVTEN;
 8004a3c:	684b      	ldr	r3, [r1, #4]
 8004a3e:	f443 7300 	orr.w	r3, r3, #512	; 0x200
 8004a42:	604b      	str	r3, [r1, #4]
}
 8004a44:	bd08      	pop	{r3, pc}

08004a46 <spi_lld_serve_tx_interrupt>:
 * @brief   Shared end-of-tx service routine.
 *
 * @param[in] spip      pointer to the @p SPIDriver object
 * @param[in] flags     pre-shifted content of the ISR register
 */
static void spi_lld_serve_tx_interrupt(SPIDriver *spip, uint32_t flags) {
 8004a46:	b508      	push	{r3, lr}

  /* DMA errors handling.*/
#if defined(STM32_SPI_DMA_ERROR_HOOK)
  (void)spip;
  if ((flags & (STM32_DMA_ISR_TEIF | STM32_DMA_ISR_DMEIF)) != 0) {
 8004a48:	070b      	lsls	r3, r1, #28
 8004a4a:	d502      	bpl.n	8004a52 <spi_lld_serve_tx_interrupt+0xc>
    STM32_SPI_DMA_ERROR_HOOK(spip);
 8004a4c:	f7ff fe82 	bl	8004754 <vTaskEndScheduler>
 8004a50:	e7fe      	b.n	8004a50 <spi_lld_serve_tx_interrupt+0xa>
  }
#else
  (void)spip;
  (void)flags;
#endif
}
 8004a52:	bd08      	pop	{r3, pc}

08004a54 <usb_lld_init_endpoint>:
void usb_lld_init_endpoint(USBDriver *usbp, usbep_t ep) {
 8004a54:	b5f8      	push	{r3, r4, r5, r6, r7, lr}
  const USBEndpointConfig *epcp = usbp->epc[ep];
 8004a56:	eb00 0381 	add.w	r3, r0, r1, lsl #2
 8004a5a:	68de      	ldr	r6, [r3, #12]
  switch (epcp->ep_mode & USB_EP_MODE_TYPE) {
 8004a5c:	6833      	ldr	r3, [r6, #0]
 8004a5e:	f003 0303 	and.w	r3, r3, #3
 8004a62:	2b02      	cmp	r3, #2
 8004a64:	d006      	beq.n	8004a74 <usb_lld_init_endpoint+0x20>
 8004a66:	2b03      	cmp	r3, #3
 8004a68:	d022      	beq.n	8004ab0 <usb_lld_init_endpoint+0x5c>
 8004a6a:	2b01      	cmp	r3, #1
 8004a6c:	d123      	bne.n	8004ab6 <usb_lld_init_endpoint+0x62>
    osalDbgAssert(false, "isochronous support disabled");
 8004a6e:	f7ff fe71 	bl	8004754 <vTaskEndScheduler>
 8004a72:	e7fe      	b.n	8004a72 <usb_lld_init_endpoint+0x1e>
    epr = EPR_EP_TYPE_BULK;
 8004a74:	2200      	movs	r2, #0
  dp = USB_GET_DESCRIPTOR(ep);
 8004a76:	4b33      	ldr	r3, [pc, #204]	; (8004b44 <usb_lld_init_endpoint+0xf0>)
 8004a78:	ea4f 1c01 	mov.w	ip, r1, lsl #4
 8004a7c:	6d1c      	ldr	r4, [r3, #80]	; 0x50
  if (epcp->in_state != NULL) {
 8004a7e:	6973      	ldr	r3, [r6, #20]
  dp = USB_GET_DESCRIPTOR(ep);
 8004a80:	f104 4480 	add.w	r4, r4, #1073741824	; 0x40000000
 8004a84:	f504 44c0 	add.w	r4, r4, #24576	; 0x6000
 8004a88:	eb04 1501 	add.w	r5, r4, r1, lsl #4
  if (epcp->in_state != NULL) {
 8004a8c:	b1d3      	cbz	r3, 8004ac4 <usb_lld_init_endpoint+0x70>
    dp->TXCOUNT0 = 0;
 8004a8e:	2300      	movs	r3, #0
 8004a90:	606b      	str	r3, [r5, #4]
    dp->TXADDR0  = usb_pm_alloc(usbp, epcp->in_maxsize);
 8004a92:	8a33      	ldrh	r3, [r6, #16]
  next = usbp->pmnext;
 8004a94:	f8d0 7084 	ldr.w	r7, [r0, #132]	; 0x84
  usbp->pmnext += (size + 1) & ~1;
 8004a98:	3301      	adds	r3, #1
 8004a9a:	f023 0301 	bic.w	r3, r3, #1
 8004a9e:	443b      	add	r3, r7
  osalDbgAssert(usbp->pmnext <= STM32_USB_PMA_SIZE, "PMA overflow");
 8004aa0:	f5b3 7f00 	cmp.w	r3, #512	; 0x200
  usbp->pmnext += (size + 1) & ~1;
 8004aa4:	f8c0 3084 	str.w	r3, [r0, #132]	; 0x84
  osalDbgAssert(usbp->pmnext <= STM32_USB_PMA_SIZE, "PMA overflow");
 8004aa8:	d908      	bls.n	8004abc <usb_lld_init_endpoint+0x68>
 8004aaa:	f7ff fe53 	bl	8004754 <vTaskEndScheduler>
 8004aae:	e7fe      	b.n	8004aae <usb_lld_init_endpoint+0x5a>
  switch (epcp->ep_mode & USB_EP_MODE_TYPE) {
 8004ab0:	f44f 62c0 	mov.w	r2, #1536	; 0x600
 8004ab4:	e7df      	b.n	8004a76 <usb_lld_init_endpoint+0x22>
    epr = EPR_EP_TYPE_CONTROL;
 8004ab6:	f44f 7200 	mov.w	r2, #512	; 0x200
 8004aba:	e7dc      	b.n	8004a76 <usb_lld_init_endpoint+0x22>
    dp->TXADDR0  = usb_pm_alloc(usbp, epcp->in_maxsize);
 8004abc:	f84c 7004 	str.w	r7, [ip, r4]
    epr |= EPR_STAT_TX_NAK;
 8004ac0:	f042 0220 	orr.w	r2, r2, #32
  if (epcp->out_state != NULL) {
 8004ac4:	69b3      	ldr	r3, [r6, #24]
 8004ac6:	b32b      	cbz	r3, 8004b14 <usb_lld_init_endpoint+0xc0>
    if (epcp->out_maxsize > 62)
 8004ac8:	8a74      	ldrh	r4, [r6, #18]
 8004aca:	2c3e      	cmp	r4, #62	; 0x3e
      nblocks = (((((epcp->out_maxsize - 1) | 0x1f) + 1) / 32) << 10) |
 8004acc:	f104 33ff 	add.w	r3, r4, #4294967295	; 0xffffffff
    if (epcp->out_maxsize > 62)
 8004ad0:	d916      	bls.n	8004b00 <usb_lld_init_endpoint+0xac>
      nblocks = (((((epcp->out_maxsize - 1) | 0x1f) + 1) / 32) << 10) |
 8004ad2:	f043 031f 	orr.w	r3, r3, #31
 8004ad6:	4e1c      	ldr	r6, [pc, #112]	; (8004b48 <usb_lld_init_endpoint+0xf4>)
 8004ad8:	3301      	adds	r3, #1
 8004ada:	115b      	asrs	r3, r3, #5
 8004adc:	ea46 2383 	orr.w	r3, r6, r3, lsl #10
 8004ae0:	b29b      	uxth	r3, r3
    dp->RXCOUNT0 = nblocks;
 8004ae2:	60eb      	str	r3, [r5, #12]
  usbp->pmnext += (size + 1) & ~1;
 8004ae4:	3401      	adds	r4, #1
  next = usbp->pmnext;
 8004ae6:	f8d0 3084 	ldr.w	r3, [r0, #132]	; 0x84
  usbp->pmnext += (size + 1) & ~1;
 8004aea:	f024 0401 	bic.w	r4, r4, #1
 8004aee:	441c      	add	r4, r3
  osalDbgAssert(usbp->pmnext <= STM32_USB_PMA_SIZE, "PMA overflow");
 8004af0:	f5b4 7f00 	cmp.w	r4, #512	; 0x200
  usbp->pmnext += (size + 1) & ~1;
 8004af4:	f8c0 4084 	str.w	r4, [r0, #132]	; 0x84
  osalDbgAssert(usbp->pmnext <= STM32_USB_PMA_SIZE, "PMA overflow");
 8004af8:	d909      	bls.n	8004b0e <usb_lld_init_endpoint+0xba>
 8004afa:	f7ff fe2b 	bl	8004754 <vTaskEndScheduler>
 8004afe:	e7fe      	b.n	8004afe <usb_lld_init_endpoint+0xaa>
      nblocks = ((((epcp->out_maxsize - 1) | 1) + 1) / 2) << 10;
 8004b00:	f043 0301 	orr.w	r3, r3, #1
 8004b04:	3301      	adds	r3, #1
 8004b06:	025b      	lsls	r3, r3, #9
 8004b08:	f403 437c 	and.w	r3, r3, #64512	; 0xfc00
 8004b0c:	e7e9      	b.n	8004ae2 <usb_lld_init_endpoint+0x8e>
    dp->RXADDR0  = usb_pm_alloc(usbp, epcp->out_maxsize);
 8004b0e:	60ab      	str	r3, [r5, #8]
    epr |= EPR_STAT_RX_NAK;
 8004b10:	f442 5200 	orr.w	r2, r2, #8192	; 0x2000
  EPR_SET(ep, epr | ep);
 8004b14:	f248 0480 	movw	r4, #32896	; 0x8080
  EPR_TOGGLE(ep, epr);
 8004b18:	f647 0370 	movw	r3, #30832	; 0x7870
  EPR_SET(ep, epr | ep);
 8004b1c:	ea42 0001 	orr.w	r0, r2, r1
 8004b20:	f420 4078 	bic.w	r0, r0, #63488	; 0xf800
 8004b24:	0089      	lsls	r1, r1, #2
 8004b26:	f020 00f0 	bic.w	r0, r0, #240	; 0xf0
 8004b2a:	f101 4180 	add.w	r1, r1, #1073741824	; 0x40000000
 8004b2e:	f501 41b8 	add.w	r1, r1, #23552	; 0x5c00
 8004b32:	4320      	orrs	r0, r4
 8004b34:	6008      	str	r0, [r1, #0]
  EPR_TOGGLE(ep, epr);
 8004b36:	6808      	ldr	r0, [r1, #0]
 8004b38:	4013      	ands	r3, r2
 8004b3a:	4043      	eors	r3, r0
 8004b3c:	4323      	orrs	r3, r4
 8004b3e:	600b      	str	r3, [r1, #0]
}
 8004b40:	bdf8      	pop	{r3, r4, r5, r6, r7, pc}
 8004b42:	bf00      	nop
 8004b44:	40005c00 	.word	0x40005c00
 8004b48:	ffff8000 	.word	0xffff8000

08004b4c <prvTaskExitError>:
 8004b4c:	b508      	push	{r3, lr}
 8004b4e:	4b04      	ldr	r3, [pc, #16]	; (8004b60 <prvTaskExitError+0x14>)
 8004b50:	681b      	ldr	r3, [r3, #0]
 8004b52:	3301      	adds	r3, #1
 8004b54:	d000      	beq.n	8004b58 <prvTaskExitError+0xc>
 8004b56:	e7fe      	b.n	8004b56 <prvTaskExitError+0xa>
 8004b58:	f7ff fdec 	bl	8004734 <vPortEnterCritical>
 8004b5c:	e7fe      	b.n	8004b5c <prvTaskExitError+0x10>
 8004b5e:	bf00      	nop
 8004b60:	20001358 	.word	0x20001358

08004b64 <vPortExitCritical>:
 8004b64:	4a04      	ldr	r2, [pc, #16]	; (8004b78 <vPortExitCritical+0x14>)
 8004b66:	6813      	ldr	r3, [r2, #0]
 8004b68:	b903      	cbnz	r3, 8004b6c <vPortExitCritical+0x8>
 8004b6a:	e7fe      	b.n	8004b6a <vPortExitCritical+0x6>
 8004b6c:	3b01      	subs	r3, #1
 8004b6e:	6013      	str	r3, [r2, #0]
 8004b70:	b90b      	cbnz	r3, 8004b76 <vPortExitCritical+0x12>
 8004b72:	f383 8811 	msr	BASEPRI, r3
 8004b76:	4770      	bx	lr
 8004b78:	20001358 	.word	0x20001358

08004b7c <osalSysUnlock.lto_priv.0>:
static inline void osalSysUnlockFromISR(void)
{
    taskEXIT_CRITICAL_FROM_ISR(uxSavedInterruptStatus);
}

static inline void osalSysUnlock(void){
 8004b7c:	b508      	push	{r3, lr}
	__asm volatile( "mrs %0, basepri" : "=r"( ulBasePri ) );
 8004b7e:	f3ef 8311 	mrs	r3, BASEPRI
	return (ulBasePri > 0)? pdTRUE : pdFALSE;
 8004b82:	b12b      	cbz	r3, 8004b90 <osalSysUnlock.lto_priv.0+0x14>
	__asm volatile( "mrs %0, ipsr" : "=r"( ulCurrentInterrupt ) );
 8004b84:	f3ef 8205 	mrs	r2, IPSR
	if( ulCurrentInterrupt == 0 )
 8004b88:	b12a      	cbz	r2, 8004b96 <osalSysUnlock.lto_priv.0+0x1a>
    osalDbgCheckClassS();
 8004b8a:	f7ff fde3 	bl	8004754 <vTaskEndScheduler>
 8004b8e:	e7fe      	b.n	8004b8e <osalSysUnlock.lto_priv.0+0x12>
 8004b90:	f7ff fde0 	bl	8004754 <vTaskEndScheduler>
 8004b94:	e7fe      	b.n	8004b94 <osalSysUnlock.lto_priv.0+0x18>
 8004b96:	4b12      	ldr	r3, [pc, #72]	; (8004be0 <osalSysUnlock.lto_priv.0+0x64>)
 8004b98:	6819      	ldr	r1, [r3, #0]
 8004b9a:	601a      	str	r2, [r3, #0]
    if(uxYieldPending()) taskYIELD();
 8004b9c:	b1e1      	cbz	r1, 8004bd8 <osalSysUnlock.lto_priv.0+0x5c>
 8004b9e:	f04f 23e0 	mov.w	r3, #3758153728	; 0xe000e000
 8004ba2:	4a10      	ldr	r2, [pc, #64]	; (8004be4 <osalSysUnlock.lto_priv.0+0x68>)
 8004ba4:	f8d3 1d20 	ldr.w	r1, [r3, #3360]	; 0xd20
 8004ba8:	6011      	str	r1, [r2, #0]
 8004baa:	4a0f      	ldr	r2, [pc, #60]	; (8004be8 <osalSysUnlock.lto_priv.0+0x6c>)
 8004bac:	6812      	ldr	r2, [r2, #0]
 8004bae:	b14a      	cbz	r2, 8004bc4 <osalSysUnlock.lto_priv.0+0x48>
 8004bb0:	f8d3 2d20 	ldr.w	r2, [r3, #3360]	; 0xd20
 8004bb4:	f422 027f 	bic.w	r2, r2, #16711680	; 0xff0000
 8004bb8:	f8c3 2d20 	str.w	r2, [r3, #3360]	; 0xd20
 8004bbc:	f8d3 2d20 	ldr.w	r2, [r3, #3360]	; 0xd20
 8004bc0:	f8c3 2d20 	str.w	r2, [r3, #3360]	; 0xd20
 8004bc4:	f04f 23e0 	mov.w	r3, #3758153728	; 0xe000e000
 8004bc8:	f04f 5280 	mov.w	r2, #268435456	; 0x10000000
 8004bcc:	f8c3 2d04 	str.w	r2, [r3, #3332]	; 0xd04
 8004bd0:	f3bf 8f4f 	dsb	sy
 8004bd4:	f3bf 8f6f 	isb	sy
    osalOsRescheduleS();
    taskEXIT_CRITICAL();
}
 8004bd8:	e8bd 4008 	ldmia.w	sp!, {r3, lr}
    taskEXIT_CRITICAL();
 8004bdc:	f7ff bfc2 	b.w	8004b64 <vPortExitCritical>
 8004be0:	2000164c 	.word	0x2000164c
 8004be4:	2000134c 	.word	0x2000134c
 8004be8:	20001358 	.word	0x20001358

08004bec <xTaskCheckForTimeOut>:
 8004bec:	b5f8      	push	{r3, r4, r5, r6, r7, lr}
 8004bee:	460c      	mov	r4, r1
 8004bf0:	f7ff fda0 	bl	8004734 <vPortEnterCritical>
 8004bf4:	6823      	ldr	r3, [r4, #0]
 8004bf6:	4d0f      	ldr	r5, [pc, #60]	; (8004c34 <xTaskCheckForTimeOut+0x48>)
 8004bf8:	1c5a      	adds	r2, r3, #1
 8004bfa:	6829      	ldr	r1, [r5, #0]
 8004bfc:	d012      	beq.n	8004c24 <xTaskCheckForTimeOut+0x38>
 8004bfe:	4e0e      	ldr	r6, [pc, #56]	; (8004c38 <xTaskCheckForTimeOut+0x4c>)
 8004c00:	f8d0 c000 	ldr.w	ip, [r0]
 8004c04:	6837      	ldr	r7, [r6, #0]
 8004c06:	6842      	ldr	r2, [r0, #4]
 8004c08:	45bc      	cmp	ip, r7
 8004c0a:	d001      	beq.n	8004c10 <xTaskCheckForTimeOut+0x24>
 8004c0c:	428a      	cmp	r2, r1
 8004c0e:	d90f      	bls.n	8004c30 <xTaskCheckForTimeOut+0x44>
 8004c10:	1a8f      	subs	r7, r1, r2
 8004c12:	42bb      	cmp	r3, r7
 8004c14:	d90a      	bls.n	8004c2c <xTaskCheckForTimeOut+0x40>
 8004c16:	1a5b      	subs	r3, r3, r1
 8004c18:	4413      	add	r3, r2
 8004c1a:	6023      	str	r3, [r4, #0]
 8004c1c:	6833      	ldr	r3, [r6, #0]
 8004c1e:	6003      	str	r3, [r0, #0]
 8004c20:	682b      	ldr	r3, [r5, #0]
 8004c22:	6043      	str	r3, [r0, #4]
 8004c24:	2000      	movs	r0, #0
 8004c26:	f7ff ff9d 	bl	8004b64 <vPortExitCritical>
 8004c2a:	bdf8      	pop	{r3, r4, r5, r6, r7, pc}
 8004c2c:	2300      	movs	r3, #0
 8004c2e:	6023      	str	r3, [r4, #0]
 8004c30:	2001      	movs	r0, #1
 8004c32:	e7f8      	b.n	8004c26 <xTaskCheckForTimeOut+0x3a>
 8004c34:	20001648 	.word	0x20001648
 8004c38:	200015fc 	.word	0x200015fc

08004c3c <ulPortEnterCriticalFromISR>:
 8004c3c:	f3ef 8011 	mrs	r0, BASEPRI
 8004c40:	f04f 03bf 	mov.w	r3, #191	; 0xbf
 8004c44:	f383 8811 	msr	BASEPRI, r3
 8004c48:	f3bf 8f6f 	isb	sy
 8004c4c:	f3bf 8f4f 	dsb	sy
 8004c50:	4a02      	ldr	r2, [pc, #8]	; (8004c5c <ulPortEnterCriticalFromISR+0x20>)
 8004c52:	6813      	ldr	r3, [r2, #0]
 8004c54:	3301      	adds	r3, #1
 8004c56:	6013      	str	r3, [r2, #0]
 8004c58:	4770      	bx	lr
 8004c5a:	bf00      	nop
 8004c5c:	20001358 	.word	0x20001358

08004c60 <osalSysLockFromISR.lto_priv.0>:
{
 8004c60:	b508      	push	{r3, lr}
    uxSavedInterruptStatus = taskENTER_CRITICAL_FROM_ISR();
 8004c62:	f7ff ffeb 	bl	8004c3c <ulPortEnterCriticalFromISR>
 8004c66:	4b01      	ldr	r3, [pc, #4]	; (8004c6c <osalSysLockFromISR.lto_priv.0+0xc>)
 8004c68:	6018      	str	r0, [r3, #0]
}
 8004c6a:	bd08      	pop	{r3, pc}
 8004c6c:	20001368 	.word	0x20001368

08004c70 <vPortExitCriticalFromISR>:
 8004c70:	4a04      	ldr	r2, [pc, #16]	; (8004c84 <vPortExitCriticalFromISR+0x14>)
 8004c72:	6813      	ldr	r3, [r2, #0]
 8004c74:	b903      	cbnz	r3, 8004c78 <vPortExitCriticalFromISR+0x8>
 8004c76:	e7fe      	b.n	8004c76 <vPortExitCriticalFromISR+0x6>
 8004c78:	3b01      	subs	r3, #1
 8004c7a:	6013      	str	r3, [r2, #0]
 8004c7c:	f380 8811 	msr	BASEPRI, r0
 8004c80:	4770      	bx	lr
 8004c82:	bf00      	nop
 8004c84:	20001358 	.word	0x20001358

08004c88 <osalSysUnlockFromISR.lto_priv.0>:
    taskEXIT_CRITICAL_FROM_ISR(uxSavedInterruptStatus);
 8004c88:	4b01      	ldr	r3, [pc, #4]	; (8004c90 <osalSysUnlockFromISR.lto_priv.0+0x8>)
 8004c8a:	6818      	ldr	r0, [r3, #0]
 8004c8c:	f7ff bff0 	b.w	8004c70 <vPortExitCriticalFromISR>
 8004c90:	20001368 	.word	0x20001368

08004c94 <sof_handler>:
/*
 * Handles the USB driver global events.
 */
uint32_t sofCounter;
static void sof_handler(USBDriver *usbp)
{
 8004c94:	b513      	push	{r0, r1, r4, lr}
  if ((usbGetDriverStateI(sdup->config->usbp) != USB_ACTIVE) ||
 8004c96:	4c29      	ldr	r4, [pc, #164]	; (8004d3c <sof_handler+0xa8>)

    (void)usbp;

    osalSysLockFromISR();
 8004c98:	f7ff ffe2 	bl	8004c60 <osalSysLockFromISR.lto_priv.0>
 8004c9c:	f8d4 1498 	ldr.w	r1, [r4, #1176]	; 0x498
 8004ca0:	6808      	ldr	r0, [r1, #0]
 8004ca2:	7803      	ldrb	r3, [r0, #0]
 8004ca4:	2b04      	cmp	r3, #4
 8004ca6:	d139      	bne.n	8004d1c <sof_handler+0x88>
 8004ca8:	7d23      	ldrb	r3, [r4, #20]
 8004caa:	2b02      	cmp	r3, #2
 8004cac:	d136      	bne.n	8004d1c <sof_handler+0x88>
  if (usbGetTransmitStatusI(sdup->config->usbp, sdup->config->bulk_in)) {
 8004cae:	2301      	movs	r3, #1
 8004cb0:	790a      	ldrb	r2, [r1, #4]
 8004cb2:	4093      	lsls	r3, r2
 8004cb4:	8902      	ldrh	r2, [r0, #8]
 8004cb6:	4213      	tst	r3, r2
 8004cb8:	d130      	bne.n	8004d1c <sof_handler+0x88>
	__asm volatile( "mrs %0, basepri" : "=r"( ulBasePri ) );
 8004cba:	f3ef 8311 	mrs	r3, BASEPRI
	return (ulBasePri > 0)? pdTRUE : pdFALSE;
 8004cbe:	b31b      	cbz	r3, 8004d08 <sof_handler+0x74>

  osalDbgCheckClassI();

  /* If queue is empty and there is a buffer partially filled and
     it is not being written.*/
  if (obqIsEmptyI(obqp) && (obqp->ptr != NULL)) {
 8004cc0:	e9d4 3218 	ldrd	r3, r2, [r4, #96]	; 0x60
 8004cc4:	4293      	cmp	r3, r2
 8004cc6:	d132      	bne.n	8004d2e <sof_handler+0x9a>
 8004cc8:	6de2      	ldr	r2, [r4, #92]	; 0x5c
 8004cca:	2a00      	cmp	r2, #0
 8004ccc:	d02f      	beq.n	8004d2e <sof_handler+0x9a>
 8004cce:	6fa2      	ldr	r2, [r4, #120]	; 0x78
 8004cd0:	2a00      	cmp	r2, #0
 8004cd2:	d02c      	beq.n	8004d2e <sof_handler+0x9a>
    size_t size = (size_t)obqp->ptr - ((size_t)obqp->bwrptr + sizeof (size_t));
 8004cd4:	3a04      	subs	r2, #4

    if (size > 0U) {
 8004cd6:	1ad2      	subs	r2, r2, r3
 8004cd8:	d029      	beq.n	8004d2e <sof_handler+0x9a>

      /* Writing size field in the buffer.*/
      *((size_t *)obqp->bwrptr) = size;
 8004cda:	601a      	str	r2, [r3, #0]

      /* Posting the buffer in the queue.*/
      obqp->bcounter--;
 8004cdc:	6de2      	ldr	r2, [r4, #92]	; 0x5c
    uint8_t *buf = obqGetFullBufferI(&sdup->obqueue, &n);
 8004cde:	4818      	ldr	r0, [pc, #96]	; (8004d40 <sof_handler+0xac>)
 8004ce0:	3a01      	subs	r2, #1
 8004ce2:	65e2      	str	r2, [r4, #92]	; 0x5c
      obqp->bwrptr += obqp->bsize;
 8004ce4:	6ee2      	ldr	r2, [r4, #108]	; 0x6c
 8004ce6:	a901      	add	r1, sp, #4
 8004ce8:	4413      	add	r3, r2
      if (obqp->bwrptr >= obqp->btop) {
 8004cea:	6ea2      	ldr	r2, [r4, #104]	; 0x68
      obqp->bwrptr += obqp->bsize;
 8004cec:	6623      	str	r3, [r4, #96]	; 0x60
      if (obqp->bwrptr >= obqp->btop) {
 8004cee:	4293      	cmp	r3, r2
        obqp->bwrptr = obqp->buffers;
 8004cf0:	bf24      	itt	cs
 8004cf2:	6f63      	ldrcs	r3, [r4, #116]	; 0x74
 8004cf4:	6623      	strcs	r3, [r4, #96]	; 0x60
      }

      /* No "current" buffer.*/
      obqp->ptr = NULL;
 8004cf6:	2300      	movs	r3, #0
 8004cf8:	67a3      	str	r3, [r4, #120]	; 0x78
 8004cfa:	f7ff fd5d 	bl	80047b8 <obqGetFullBufferI>
    osalDbgAssert(buf != NULL, "queue is empty");
 8004cfe:	4602      	mov	r2, r0
 8004d00:	b928      	cbnz	r0, 8004d0e <sof_handler+0x7a>
 8004d02:	f7ff fd27 	bl	8004754 <vTaskEndScheduler>
 8004d06:	e7fe      	b.n	8004d06 <sof_handler+0x72>
  osalDbgCheckClassI();
 8004d08:	f7ff fd24 	bl	8004754 <vTaskEndScheduler>
 8004d0c:	e7fe      	b.n	8004d0c <sof_handler+0x78>
    usbStartTransmitI(sdup->config->usbp, sdup->config->bulk_in, buf, n);
 8004d0e:	f8d4 0498 	ldr.w	r0, [r4, #1176]	; 0x498
 8004d12:	9b01      	ldr	r3, [sp, #4]
 8004d14:	7901      	ldrb	r1, [r0, #4]
 8004d16:	6800      	ldr	r0, [r0, #0]
 8004d18:	f7ff fde6 	bl	80048e8 <usbStartTransmitI>
    sduSOFHookI(&SDU1);
    sofCounter++;
 8004d1c:	4a09      	ldr	r2, [pc, #36]	; (8004d44 <sof_handler+0xb0>)
 8004d1e:	6813      	ldr	r3, [r2, #0]
 8004d20:	3301      	adds	r3, #1
 8004d22:	6013      	str	r3, [r2, #0]
    osalSysUnlockFromISR();
}
 8004d24:	b002      	add	sp, #8
 8004d26:	e8bd 4010 	ldmia.w	sp!, {r4, lr}
    osalSysUnlockFromISR();
 8004d2a:	f7ff bfad 	b.w	8004c88 <osalSysUnlockFromISR.lto_priv.0>
    if(sdup->config->sofCallback) sdup->config->sofCallback(sdup->config->usbp, false);
 8004d2e:	688b      	ldr	r3, [r1, #8]
 8004d30:	2b00      	cmp	r3, #0
 8004d32:	d0f3      	beq.n	8004d1c <sof_handler+0x88>
 8004d34:	2100      	movs	r1, #0
 8004d36:	4798      	blx	r3
 8004d38:	e7f0      	b.n	8004d1c <sof_handler+0x88>
 8004d3a:	bf00      	nop
 8004d3c:	20000a44 	.word	0x20000a44
 8004d40:	20000a94 	.word	0x20000a94
 8004d44:	200012c8 	.word	0x200012c8

08004d48 <_usb_ep0setup>:
 * @notapi
 */
void _usb_ep0setup(USBDriver *usbp, usbep_t ep) {
  size_t max;

  usbp->ep0state = USB_EP0_WAITING_SETUP;
 8004d48:	2300      	movs	r3, #0
void _usb_ep0setup(USBDriver *usbp, usbep_t ep) {
 8004d4a:	b570      	push	{r4, r5, r6, lr}
 8004d4c:	4604      	mov	r4, r0
  usbp->ep0state = USB_EP0_WAITING_SETUP;
 8004d4e:	f880 3064 	strb.w	r3, [r0, #100]	; 0x64
  udp = USB_GET_DESCRIPTOR(ep);
 8004d52:	4bb1      	ldr	r3, [pc, #708]	; (8005018 <_usb_ep0setup+0x2d0>)
  usbReadSetup(usbp, ep, usbp->setup);
 8004d54:	f100 0274 	add.w	r2, r0, #116	; 0x74
 8004d58:	6d1b      	ldr	r3, [r3, #80]	; 0x50
 8004d5a:	f103 4380 	add.w	r3, r3, #1073741824	; 0x40000000
 8004d5e:	f503 43c0 	add.w	r3, r3, #24576	; 0x6000
 8004d62:	eb03 1301 	add.w	r3, r3, r1, lsl #4
  pmap = USB_ADDR2PTR(udp->RXADDR0);
 8004d66:	689b      	ldr	r3, [r3, #8]
 8004d68:	f103 5300 	add.w	r3, r3, #536870912	; 0x20000000
 8004d6c:	f503 5340 	add.w	r3, r3, #12288	; 0x3000
 8004d70:	005b      	lsls	r3, r3, #1
 8004d72:	f103 0110 	add.w	r1, r3, #16
 8004d76:	4618      	mov	r0, r3
    *(uint16_t *)buf = (uint16_t)*pmap++;
 8004d78:	3304      	adds	r3, #4
 8004d7a:	6800      	ldr	r0, [r0, #0]
  for (n = 0; n < 4; n++) {
 8004d7c:	428b      	cmp	r3, r1
    *(uint16_t *)buf = (uint16_t)*pmap++;
 8004d7e:	f822 0b02 	strh.w	r0, [r2], #2
  for (n = 0; n < 4; n++) {
 8004d82:	d1f8      	bne.n	8004d76 <_usb_ep0setup+0x2e>

  /* First verify if the application has an handler installed for this
     request.*/
  /*lint -save -e9007 [13.5] No side effects, it is intentional.*/
  if ((usbp->config->requests_hook_cb == NULL) ||
 8004d84:	6863      	ldr	r3, [r4, #4]
 8004d86:	689b      	ldr	r3, [r3, #8]
 8004d88:	bb1b      	cbnz	r3, 8004dd2 <_usb_ep0setup+0x8a>
      !(usbp->config->requests_hook_cb(usbp))) {
  /*lint -restore*/
    /* Invoking the default handler, if this fails then stalls the
       endpoint zero as error.*/
    /*lint -save -e9007 [13.5] No side effects, it is intentional.*/
    if (((usbp->setup[0] & USB_RTYPE_TYPE_MASK) != USB_RTYPE_TYPE_STD) ||
 8004d8a:	f894 3074 	ldrb.w	r3, [r4, #116]	; 0x74
 8004d8e:	f013 0560 	ands.w	r5, r3, #96	; 0x60
 8004d92:	d040      	beq.n	8004e16 <_usb_ep0setup+0xce>
 */
void usb_lld_stall_in(USBDriver *usbp, usbep_t ep) {

  (void)usbp;

  EPR_SET_STAT_TX(ep, EPR_STAT_TX_STALL);
 8004d94:	f248 0080 	movw	r0, #32896	; 0x8080
 8004d98:	499f      	ldr	r1, [pc, #636]	; (8005018 <_usb_ep0setup+0x2d0>)
 8004d9a:	680b      	ldr	r3, [r1, #0]
 8004d9c:	f423 43f0 	bic.w	r3, r3, #30720	; 0x7800
 8004da0:	f023 0340 	bic.w	r3, r3, #64	; 0x40
 8004da4:	f083 0210 	eor.w	r2, r3, #16
 8004da8:	4302      	orrs	r2, r0
 8004daa:	600a      	str	r2, [r1, #0]
  EPR_SET_STAT_RX(ep, EPR_STAT_RX_STALL);
 8004dac:	680b      	ldr	r3, [r1, #0]
 8004dae:	f423 4390 	bic.w	r3, r3, #18432	; 0x4800
 8004db2:	f023 0370 	bic.w	r3, r3, #112	; 0x70
 8004db6:	f483 5380 	eor.w	r3, r3, #4096	; 0x1000
 8004dba:	4303      	orrs	r3, r0
 8004dbc:	600b      	str	r3, [r1, #0]
      /* Error response, the state machine goes into an error state, the low
         level layer will have to reset it to USB_EP0_WAITING_SETUP after
         receiving a SETUP packet.*/
      usb_lld_stall_in(usbp, 0);
      usb_lld_stall_out(usbp, 0);
      _usb_isr_invoke_event_cb(usbp, USB_EVENT_STALLED);
 8004dbe:	6863      	ldr	r3, [r4, #4]
 8004dc0:	681b      	ldr	r3, [r3, #0]
 8004dc2:	b113      	cbz	r3, 8004dca <_usb_ep0setup+0x82>
 8004dc4:	2106      	movs	r1, #6
 8004dc6:	4620      	mov	r0, r4
 8004dc8:	4798      	blx	r3
      usbp->ep0state = USB_EP0_ERROR;
 8004dca:	2306      	movs	r3, #6
 8004dcc:	f884 3064 	strb.w	r3, [r4, #100]	; 0x64
#else
      usb_lld_end_setup(usbp, ep);
#endif
    }
  }
}
 8004dd0:	bd70      	pop	{r4, r5, r6, pc}
      !(usbp->config->requests_hook_cb(usbp))) {
 8004dd2:	4620      	mov	r0, r4
 8004dd4:	4798      	blx	r3
  if ((usbp->config->requests_hook_cb == NULL) ||
 8004dd6:	2800      	cmp	r0, #0
 8004dd8:	d0d7      	beq.n	8004d8a <_usb_ep0setup+0x42>
  max = (size_t)get_hword(&usbp->setup[6]);
 8004dda:	f8b4 307a 	ldrh.w	r3, [r4, #122]	; 0x7a
  if (usbp->ep0n > max) {
 8004dde:	6ee2      	ldr	r2, [r4, #108]	; 0x6c
 8004de0:	429a      	cmp	r2, r3
    usbp->ep0n = max;
 8004de2:	bf88      	it	hi
 8004de4:	66e3      	strhi	r3, [r4, #108]	; 0x6c
  if ((usbp->setup[0] & USB_RTYPE_DIR_MASK) == USB_RTYPE_DIR_DEV2HOST) {
 8004de6:	f994 3074 	ldrsb.w	r3, [r4, #116]	; 0x74
    if (usbp->ep0n != 0U) {
 8004dea:	6ee1      	ldr	r1, [r4, #108]	; 0x6c
  if ((usbp->setup[0] & USB_RTYPE_DIR_MASK) == USB_RTYPE_DIR_DEV2HOST) {
 8004dec:	2b00      	cmp	r3, #0
 8004dee:	f280 815a 	bge.w	80050a6 <_usb_ep0setup+0x35e>
    if (usbp->ep0n != 0U) {
 8004df2:	2900      	cmp	r1, #0
 8004df4:	f000 814b 	beq.w	800508e <_usb_ep0setup+0x346>
      usbp->ep0state = USB_EP0_TX;
 8004df8:	2301      	movs	r3, #1
 8004dfa:	f884 3064 	strb.w	r3, [r4, #100]	; 0x64
      osalSysLockFromISR();
 8004dfe:	f7ff ff2f 	bl	8004c60 <osalSysLockFromISR.lto_priv.0>
      usbStartTransmitI(usbp, 0, usbp->ep0next, usbp->ep0n);
 8004e02:	e9d4 231a 	ldrd	r2, r3, [r4, #104]	; 0x68
 8004e06:	2100      	movs	r1, #0
 8004e08:	4620      	mov	r0, r4
 8004e0a:	f7ff fd6d 	bl	80048e8 <usbStartTransmitI>
}
 8004e0e:	e8bd 4070 	ldmia.w	sp!, {r4, r5, r6, lr}
      osalSysUnlockFromISR();
 8004e12:	f7ff bf39 	b.w	8004c88 <osalSysUnlockFromISR.lto_priv.0>
           ((uint32_t)usbp->setup[1] << 8U))) {
 8004e16:	f894 2075 	ldrb.w	r2, [r4, #117]	; 0x75
  switch ((((uint32_t)usbp->setup[0] & (USB_RTYPE_RECIPIENT_MASK |
 8004e1a:	f003 037f 	and.w	r3, r3, #127	; 0x7f
                                        USB_RTYPE_TYPE_MASK)) |
 8004e1e:	ea43 2302 	orr.w	r3, r3, r2, lsl #8
  switch ((((uint32_t)usbp->setup[0] & (USB_RTYPE_RECIPIENT_MASK |
 8004e22:	f240 3202 	movw	r2, #770	; 0x302
 8004e26:	4293      	cmp	r3, r2
 8004e28:	f000 810d 	beq.w	8005046 <_usb_ep0setup+0x2fe>
 8004e2c:	d821      	bhi.n	8004e72 <_usb_ep0setup+0x12a>
 8004e2e:	f5b3 7f80 	cmp.w	r3, #256	; 0x100
 8004e32:	d048      	beq.n	8004ec6 <_usb_ep0setup+0x17e>
 8004e34:	d80d      	bhi.n	8004e52 <_usb_ep0setup+0x10a>
 8004e36:	2b01      	cmp	r3, #1
 8004e38:	d03f      	beq.n	8004eba <_usb_ep0setup+0x172>
 8004e3a:	2b02      	cmp	r3, #2
 8004e3c:	f000 80ad 	beq.w	8004f9a <_usb_ep0setup+0x252>
 8004e40:	2b00      	cmp	r3, #0
 8004e42:	d1a7      	bne.n	8004d94 <_usb_ep0setup+0x4c>
    usbSetupTransfer(usbp, (uint8_t *)&usbp->status, 2, NULL);
 8004e44:	f104 027c 	add.w	r2, r4, #124	; 0x7c
 8004e48:	66a2      	str	r2, [r4, #104]	; 0x68
 8004e4a:	2202      	movs	r2, #2
 8004e4c:	66e2      	str	r2, [r4, #108]	; 0x6c
    usbSetupTransfer(usbp, NULL, 0, set_address);
 8004e4e:	6723      	str	r3, [r4, #112]	; 0x70
    return true;
 8004e50:	e7c3      	b.n	8004dda <_usb_ep0setup+0x92>
  switch ((((uint32_t)usbp->setup[0] & (USB_RTYPE_RECIPIENT_MASK |
 8004e52:	f5b3 7f81 	cmp.w	r3, #258	; 0x102
 8004e56:	f000 80ba 	beq.w	8004fce <_usb_ep0setup+0x286>
 8004e5a:	f5b3 7f40 	cmp.w	r3, #768	; 0x300
 8004e5e:	d199      	bne.n	8004d94 <_usb_ep0setup+0x4c>
    if (usbp->setup[2] == USB_FEATURE_DEVICE_REMOTE_WAKEUP) {
 8004e60:	f894 3076 	ldrb.w	r3, [r4, #118]	; 0x76
 8004e64:	2b01      	cmp	r3, #1
 8004e66:	d195      	bne.n	8004d94 <_usb_ep0setup+0x4c>
      usbp->status |= 2U;
 8004e68:	f8b4 307c 	ldrh.w	r3, [r4, #124]	; 0x7c
 8004e6c:	f043 0302 	orr.w	r3, r3, #2
 8004e70:	e032      	b.n	8004ed8 <_usb_ep0setup+0x190>
  switch ((((uint32_t)usbp->setup[0] & (USB_RTYPE_RECIPIENT_MASK |
 8004e72:	f5b3 6f00 	cmp.w	r3, #2048	; 0x800
 8004e76:	d039      	beq.n	8004eec <_usb_ep0setup+0x1a4>
 8004e78:	d817      	bhi.n	8004eaa <_usb_ep0setup+0x162>
 8004e7a:	f5b3 6fa0 	cmp.w	r3, #1280	; 0x500
 8004e7e:	d031      	beq.n	8004ee4 <_usb_ep0setup+0x19c>
 8004e80:	f5b3 6fc0 	cmp.w	r3, #1536	; 0x600
 8004e84:	d186      	bne.n	8004d94 <_usb_ep0setup+0x4c>
    dp = usbp->config->get_descriptor_cb(usbp, usbp->setup[3],
 8004e86:	6863      	ldr	r3, [r4, #4]
 8004e88:	4620      	mov	r0, r4
 8004e8a:	685e      	ldr	r6, [r3, #4]
 8004e8c:	f894 2076 	ldrb.w	r2, [r4, #118]	; 0x76
 8004e90:	f8b4 3078 	ldrh.w	r3, [r4, #120]	; 0x78
 8004e94:	f894 1077 	ldrb.w	r1, [r4, #119]	; 0x77
 8004e98:	47b0      	blx	r6
    if (dp == NULL) {
 8004e9a:	2800      	cmp	r0, #0
 8004e9c:	f43f af7a 	beq.w	8004d94 <_usb_ep0setup+0x4c>
    usbSetupTransfer(usbp, (uint8_t *)dp->ud_string, dp->ud_size, NULL);
 8004ea0:	6843      	ldr	r3, [r0, #4]
 8004ea2:	66a3      	str	r3, [r4, #104]	; 0x68
 8004ea4:	6803      	ldr	r3, [r0, #0]
    usbSetupTransfer(usbp, &usbp->configuration, 1, NULL);
 8004ea6:	66e3      	str	r3, [r4, #108]	; 0x6c
 8004ea8:	e01a      	b.n	8004ee0 <_usb_ep0setup+0x198>
  switch ((((uint32_t)usbp->setup[0] & (USB_RTYPE_RECIPIENT_MASK |
 8004eaa:	f5b3 6f10 	cmp.w	r3, #2304	; 0x900
 8004eae:	d022      	beq.n	8004ef6 <_usb_ep0setup+0x1ae>
 8004eb0:	f640 4202 	movw	r2, #3074	; 0xc02
 8004eb4:	4293      	cmp	r3, r2
 8004eb6:	f47f af6d 	bne.w	8004d94 <_usb_ep0setup+0x4c>
    usbSetupTransfer(usbp, (uint8_t *)zero_status, 2, NULL);
 8004eba:	4b58      	ldr	r3, [pc, #352]	; (800501c <_usb_ep0setup+0x2d4>)
        usbSetupTransfer(usbp, (uint8_t *)halted_status, 2, NULL);
 8004ebc:	66a3      	str	r3, [r4, #104]	; 0x68
 8004ebe:	2302      	movs	r3, #2
 8004ec0:	66e3      	str	r3, [r4, #108]	; 0x6c
 8004ec2:	2300      	movs	r3, #0
 8004ec4:	e7c3      	b.n	8004e4e <_usb_ep0setup+0x106>
    if (usbp->setup[2] == USB_FEATURE_DEVICE_REMOTE_WAKEUP) {
 8004ec6:	f894 3076 	ldrb.w	r3, [r4, #118]	; 0x76
 8004eca:	2b01      	cmp	r3, #1
 8004ecc:	f47f af62 	bne.w	8004d94 <_usb_ep0setup+0x4c>
      usbp->status &= ~2U;
 8004ed0:	f8b4 307c 	ldrh.w	r3, [r4, #124]	; 0x7c
 8004ed4:	f023 0302 	bic.w	r3, r3, #2
      usbSetupTransfer(usbp, NULL, 0, NULL);
 8004ed8:	e9c4 551a 	strd	r5, r5, [r4, #104]	; 0x68
      usbp->status |= 2U;
 8004edc:	f8a4 307c 	strh.w	r3, [r4, #124]	; 0x7c
    usbSetupTransfer(usbp, &usbp->configuration, 1, NULL);
 8004ee0:	6725      	str	r5, [r4, #112]	; 0x70
    return true;
 8004ee2:	e77a      	b.n	8004dda <_usb_ep0setup+0x92>
    usbSetupTransfer(usbp, NULL, 0, set_address);
 8004ee4:	e9c4 551a 	strd	r5, r5, [r4, #104]	; 0x68
 8004ee8:	4b4d      	ldr	r3, [pc, #308]	; (8005020 <_usb_ep0setup+0x2d8>)
 8004eea:	e7b0      	b.n	8004e4e <_usb_ep0setup+0x106>
    usbSetupTransfer(usbp, &usbp->configuration, 1, NULL);
 8004eec:	f104 037f 	add.w	r3, r4, #127	; 0x7f
 8004ef0:	66a3      	str	r3, [r4, #104]	; 0x68
 8004ef2:	2301      	movs	r3, #1
 8004ef4:	e7d7      	b.n	8004ea6 <_usb_ep0setup+0x15e>
    if (usbp->configuration != usbp->setup[2]) {
 8004ef6:	f894 207f 	ldrb.w	r2, [r4, #127]	; 0x7f
 8004efa:	f894 3076 	ldrb.w	r3, [r4, #118]	; 0x76
 8004efe:	429a      	cmp	r2, r3
 8004f00:	d047      	beq.n	8004f92 <_usb_ep0setup+0x24a>
      if (usbp->state == USB_ACTIVE) {
 8004f02:	7823      	ldrb	r3, [r4, #0]
 8004f04:	2b04      	cmp	r3, #4
 8004f06:	d137      	bne.n	8004f78 <_usb_ep0setup+0x230>
        osalSysLockFromISR ();
 8004f08:	f7ff feaa 	bl	8004c60 <osalSysLockFromISR.lto_priv.0>
	__asm volatile( "mrs %0, basepri" : "=r"( ulBasePri ) );
 8004f0c:	f3ef 8311 	mrs	r3, BASEPRI
	return (ulBasePri > 0)? pdTRUE : pdFALSE;
 8004f10:	b913      	cbnz	r3, 8004f18 <_usb_ep0setup+0x1d0>
  osalDbgCheckClassI();
 8004f12:	f7ff fc1f 	bl	8004754 <vTaskEndScheduler>
 8004f16:	e7fe      	b.n	8004f16 <_usb_ep0setup+0x1ce>
  osalDbgAssert(usbp->state == USB_ACTIVE, "invalid state");
 8004f18:	7823      	ldrb	r3, [r4, #0]
 8004f1a:	2b04      	cmp	r3, #4
 8004f1c:	d002      	beq.n	8004f24 <_usb_ep0setup+0x1dc>
 8004f1e:	f7ff fc19 	bl	8004754 <vTaskEndScheduler>
 8004f22:	e7fe      	b.n	8004f22 <_usb_ep0setup+0x1da>
  usbp->transmitting &= 1U;
 8004f24:	68a3      	ldr	r3, [r4, #8]
  for (i = 1; i <= USB_ENDOPOINTS_NUMBER; i++) {
 8004f26:	2201      	movs	r2, #1
 8004f28:	f003 1301 	and.w	r3, r3, #65537	; 0x10001
 8004f2c:	60a3      	str	r3, [r4, #8]
    usbp->epc[i] = NULL;
 8004f2e:	2300      	movs	r3, #0
 8004f30:	e9c4 3304 	strd	r3, r3, [r4, #16]
 8004f34:	e9c4 3306 	strd	r3, r3, [r4, #24]
 8004f38:	e9c4 3308 	strd	r3, r3, [r4, #32]
 8004f3c:	62a3      	str	r3, [r4, #40]	; 0x28
  usbp->pmnext = 64;
 8004f3e:	2340      	movs	r3, #64	; 0x40
    EPR_TOGGLE(i, 0);
 8004f40:	f248 0080 	movw	r0, #32896	; 0x8080
  usbp->pmnext = 64;
 8004f44:	f8c4 3084 	str.w	r3, [r4, #132]	; 0x84
    EPR_TOGGLE(i, 0);
 8004f48:	0093      	lsls	r3, r2, #2
 8004f4a:	f103 4380 	add.w	r3, r3, #1073741824	; 0x40000000
 8004f4e:	f503 43b8 	add.w	r3, r3, #23552	; 0x5c00
 8004f52:	6819      	ldr	r1, [r3, #0]
  for (i = 1; i <= USB_ENDOPOINTS_NUMBER; i++) {
 8004f54:	3201      	adds	r2, #1
    EPR_TOGGLE(i, 0);
 8004f56:	4301      	orrs	r1, r0
  for (i = 1; i <= USB_ENDOPOINTS_NUMBER; i++) {
 8004f58:	2a08      	cmp	r2, #8
    EPR_TOGGLE(i, 0);
 8004f5a:	6019      	str	r1, [r3, #0]
    EPR_SET(i, 0);
 8004f5c:	6018      	str	r0, [r3, #0]
  for (i = 1; i <= USB_ENDOPOINTS_NUMBER; i++) {
 8004f5e:	d1f3      	bne.n	8004f48 <_usb_ep0setup+0x200>
        osalSysUnlockFromISR ();
 8004f60:	f7ff fe92 	bl	8004c88 <osalSysUnlockFromISR.lto_priv.0>
        usbp->configuration = 0U;
 8004f64:	2300      	movs	r3, #0
        usbp->state = USB_SELECTED;
 8004f66:	2103      	movs	r1, #3
        usbp->configuration = 0U;
 8004f68:	f884 307f 	strb.w	r3, [r4, #127]	; 0x7f
        _usb_isr_invoke_event_cb(usbp, USB_EVENT_UNCONFIGURED);
 8004f6c:	6863      	ldr	r3, [r4, #4]
        usbp->state = USB_SELECTED;
 8004f6e:	7021      	strb	r1, [r4, #0]
        _usb_isr_invoke_event_cb(usbp, USB_EVENT_UNCONFIGURED);
 8004f70:	681b      	ldr	r3, [r3, #0]
 8004f72:	b10b      	cbz	r3, 8004f78 <_usb_ep0setup+0x230>
 8004f74:	4620      	mov	r0, r4
 8004f76:	4798      	blx	r3
      if (usbp->setup[2] != 0U) {
 8004f78:	f894 3076 	ldrb.w	r3, [r4, #118]	; 0x76
 8004f7c:	b14b      	cbz	r3, 8004f92 <_usb_ep0setup+0x24a>
        usbp->configuration = usbp->setup[2];
 8004f7e:	f884 307f 	strb.w	r3, [r4, #127]	; 0x7f
        usbp->state = USB_ACTIVE;
 8004f82:	2304      	movs	r3, #4
 8004f84:	7023      	strb	r3, [r4, #0]
        _usb_isr_invoke_event_cb(usbp, USB_EVENT_CONFIGURED);
 8004f86:	6863      	ldr	r3, [r4, #4]
 8004f88:	681b      	ldr	r3, [r3, #0]
 8004f8a:	b113      	cbz	r3, 8004f92 <_usb_ep0setup+0x24a>
 8004f8c:	2102      	movs	r1, #2
 8004f8e:	4620      	mov	r0, r4
 8004f90:	4798      	blx	r3
    usbSetupTransfer(usbp, NULL, 0, NULL);
 8004f92:	2300      	movs	r3, #0
 8004f94:	e9c4 331a 	strd	r3, r3, [r4, #104]	; 0x68
 8004f98:	e759      	b.n	8004e4e <_usb_ep0setup+0x106>
    if ((usbp->setup[4] & 0x80U) != 0U) {
 8004f9a:	f894 3078 	ldrb.w	r3, [r4, #120]	; 0x78
  switch (STM32_USB->EPR[ep] & EPR_STAT_TX_MASK) {
 8004f9e:	f003 020f 	and.w	r2, r3, #15
 8004fa2:	f013 0f80 	tst.w	r3, #128	; 0x80
 8004fa6:	4b1c      	ldr	r3, [pc, #112]	; (8005018 <_usb_ep0setup+0x2d0>)
 8004fa8:	f853 3022 	ldr.w	r3, [r3, r2, lsl #2]
 8004fac:	d008      	beq.n	8004fc0 <_usb_ep0setup+0x278>
 8004fae:	f013 0330 	ands.w	r3, r3, #48	; 0x30
 8004fb2:	f43f aeef 	beq.w	8004d94 <_usb_ep0setup+0x4c>
 8004fb6:	2b10      	cmp	r3, #16
        usbSetupTransfer(usbp, (uint8_t *)active_status, 2, NULL);
 8004fb8:	bf14      	ite	ne
 8004fba:	4b1a      	ldrne	r3, [pc, #104]	; (8005024 <_usb_ep0setup+0x2dc>)
        usbSetupTransfer(usbp, (uint8_t *)halted_status, 2, NULL);
 8004fbc:	4b1a      	ldreq	r3, [pc, #104]	; (8005028 <_usb_ep0setup+0x2e0>)
 8004fbe:	e77d      	b.n	8004ebc <_usb_ep0setup+0x174>
  switch (STM32_USB->EPR[ep] & EPR_STAT_RX_MASK) {
 8004fc0:	f413 5340 	ands.w	r3, r3, #12288	; 0x3000
 8004fc4:	f43f aee6 	beq.w	8004d94 <_usb_ep0setup+0x4c>
 8004fc8:	f5b3 5f80 	cmp.w	r3, #4096	; 0x1000
 8004fcc:	e7f4      	b.n	8004fb8 <_usb_ep0setup+0x270>
    if (usbp->setup[2] != USB_FEATURE_ENDPOINT_HALT) {
 8004fce:	f894 3076 	ldrb.w	r3, [r4, #118]	; 0x76
 8004fd2:	2b00      	cmp	r3, #0
 8004fd4:	f47f aede 	bne.w	8004d94 <_usb_ep0setup+0x4c>
    if ((usbp->setup[4] & 0x0FU) != 0U) {
 8004fd8:	f894 2078 	ldrb.w	r2, [r4, #120]	; 0x78
 8004fdc:	f012 030f 	ands.w	r3, r2, #15
 8004fe0:	d0d7      	beq.n	8004f92 <_usb_ep0setup+0x24a>
      if ((usbp->setup[4] & 0x80U) != 0U) {
 8004fe2:	009b      	lsls	r3, r3, #2
 8004fe4:	f103 4380 	add.w	r3, r3, #1073741824	; 0x40000000
 8004fe8:	f012 0f80 	tst.w	r2, #128	; 0x80
 8004fec:	f503 43b8 	add.w	r3, r3, #23552	; 0x5c00

  (void)usbp;

  /* Makes sure to not put to NAK an endpoint that is already
     transferring.*/
  if ((STM32_USB->EPR[ep] & EPR_STAT_TX_MASK) != EPR_STAT_TX_VALID)
 8004ff0:	681a      	ldr	r2, [r3, #0]
 8004ff2:	d01b      	beq.n	800502c <_usb_ep0setup+0x2e4>
 8004ff4:	f002 0230 	and.w	r2, r2, #48	; 0x30
 8004ff8:	2a30      	cmp	r2, #48	; 0x30
 8004ffa:	d0ca      	beq.n	8004f92 <_usb_ep0setup+0x24a>
    EPR_SET_STAT_TX(ep, EPR_STAT_TX_NAK);
 8004ffc:	681a      	ldr	r2, [r3, #0]
 8004ffe:	f422 42f0 	bic.w	r2, r2, #30720	; 0x7800
 8005002:	f022 0240 	bic.w	r2, r2, #64	; 0x40
 8005006:	f082 0220 	eor.w	r2, r2, #32
 800500a:	f442 4200 	orr.w	r2, r2, #32768	; 0x8000
    EPR_SET_STAT_TX(ep, EPR_STAT_RX_NAK);
 800500e:	f042 0280 	orr.w	r2, r2, #128	; 0x80
 8005012:	601a      	str	r2, [r3, #0]
 8005014:	e7bd      	b.n	8004f92 <_usb_ep0setup+0x24a>
 8005016:	bf00      	nop
 8005018:	40005c00 	.word	0x40005c00
 800501c:	0800cd70 	.word	0x0800cd70
 8005020:	08003e0d 	.word	0x08003e0d
 8005024:	0800c8fc 	.word	0x0800c8fc
 8005028:	0800ca74 	.word	0x0800ca74
  if ((STM32_USB->EPR[ep] & EPR_STAT_RX_MASK) != EPR_STAT_RX_VALID)
 800502c:	f402 5240 	and.w	r2, r2, #12288	; 0x3000
 8005030:	f5b2 5f40 	cmp.w	r2, #12288	; 0x3000
 8005034:	d0ad      	beq.n	8004f92 <_usb_ep0setup+0x24a>
    EPR_SET_STAT_TX(ep, EPR_STAT_RX_NAK);
 8005036:	681a      	ldr	r2, [r3, #0]
 8005038:	f422 42f0 	bic.w	r2, r2, #30720	; 0x7800
 800503c:	f022 0240 	bic.w	r2, r2, #64	; 0x40
 8005040:	f442 4220 	orr.w	r2, r2, #40960	; 0xa000
 8005044:	e7e3      	b.n	800500e <_usb_ep0setup+0x2c6>
    if (usbp->setup[2] != USB_FEATURE_ENDPOINT_HALT) {
 8005046:	f894 3076 	ldrb.w	r3, [r4, #118]	; 0x76
 800504a:	2b00      	cmp	r3, #0
 800504c:	f47f aea2 	bne.w	8004d94 <_usb_ep0setup+0x4c>
    if ((usbp->setup[4] & 0x0FU) != 0U) {
 8005050:	f894 3078 	ldrb.w	r3, [r4, #120]	; 0x78
 8005054:	f013 010f 	ands.w	r1, r3, #15
 8005058:	d09b      	beq.n	8004f92 <_usb_ep0setup+0x24a>
      if ((usbp->setup[4] & 0x80U) != 0U) {
 800505a:	4a1b      	ldr	r2, [pc, #108]	; (80050c8 <_usb_ep0setup+0x380>)
 800505c:	f013 0f80 	tst.w	r3, #128	; 0x80
  EPR_SET_STAT_TX(ep, EPR_STAT_TX_STALL);
 8005060:	f852 3021 	ldr.w	r3, [r2, r1, lsl #2]
 8005064:	bf15      	itete	ne
 8005066:	f423 43f0 	bicne.w	r3, r3, #30720	; 0x7800
  EPR_SET_STAT_RX(ep, EPR_STAT_RX_STALL);
 800506a:	f423 4390 	biceq.w	r3, r3, #18432	; 0x4800
  EPR_SET_STAT_TX(ep, EPR_STAT_TX_STALL);
 800506e:	f023 0340 	bicne.w	r3, r3, #64	; 0x40
  EPR_SET_STAT_RX(ep, EPR_STAT_RX_STALL);
 8005072:	f023 0370 	biceq.w	r3, r3, #112	; 0x70
  EPR_SET_STAT_TX(ep, EPR_STAT_TX_STALL);
 8005076:	bf14      	ite	ne
 8005078:	f083 0310 	eorne.w	r3, r3, #16
  EPR_SET_STAT_RX(ep, EPR_STAT_RX_STALL);
 800507c:	f483 5380 	eoreq.w	r3, r3, #4096	; 0x1000
 8005080:	f443 4300 	orr.w	r3, r3, #32768	; 0x8000
 8005084:	f043 0380 	orr.w	r3, r3, #128	; 0x80
 8005088:	f842 3021 	str.w	r3, [r2, r1, lsl #2]
 800508c:	e781      	b.n	8004f92 <_usb_ep0setup+0x24a>
      usbp->ep0state = USB_EP0_WAITING_STS;
 800508e:	2303      	movs	r3, #3
 8005090:	f884 3064 	strb.w	r3, [r4, #100]	; 0x64
      osalSysLockFromISR();
 8005094:	f7ff fde4 	bl	8004c60 <osalSysLockFromISR.lto_priv.0>
      usbStartReceiveI(usbp, 0, NULL, 0);
 8005098:	460b      	mov	r3, r1
 800509a:	460a      	mov	r2, r1
      usbStartReceiveI(usbp, 0, usbp->ep0next, usbp->ep0n);
 800509c:	2100      	movs	r1, #0
 800509e:	4620      	mov	r0, r4
 80050a0:	f7ff fbe6 	bl	8004870 <usbStartReceiveI>
      osalSysUnlockFromISR();
 80050a4:	e6b3      	b.n	8004e0e <_usb_ep0setup+0xc6>
    if (usbp->ep0n != 0U) {
 80050a6:	b139      	cbz	r1, 80050b8 <_usb_ep0setup+0x370>
      usbp->ep0state = USB_EP0_RX;
 80050a8:	2304      	movs	r3, #4
 80050aa:	f884 3064 	strb.w	r3, [r4, #100]	; 0x64
      osalSysLockFromISR();
 80050ae:	f7ff fdd7 	bl	8004c60 <osalSysLockFromISR.lto_priv.0>
      usbStartReceiveI(usbp, 0, usbp->ep0next, usbp->ep0n);
 80050b2:	e9d4 231a 	ldrd	r2, r3, [r4, #104]	; 0x68
 80050b6:	e7f1      	b.n	800509c <_usb_ep0setup+0x354>
      usbp->ep0state = USB_EP0_SENDING_STS;
 80050b8:	2305      	movs	r3, #5
 80050ba:	f884 3064 	strb.w	r3, [r4, #100]	; 0x64
      osalSysLockFromISR();
 80050be:	f7ff fdcf 	bl	8004c60 <osalSysLockFromISR.lto_priv.0>
      usbStartTransmitI(usbp, 0, NULL, 0);
 80050c2:	460b      	mov	r3, r1
 80050c4:	460a      	mov	r2, r1
 80050c6:	e69e      	b.n	8004e06 <_usb_ep0setup+0xbe>
 80050c8:	40005c00 	.word	0x40005c00

080050cc <_usb_ep0in>:
 * @param[in] usbp      pointer to the @p USBDriver object
 * @param[in] ep        endpoint number, always zero
 *
 * @notapi
 */
void _usb_ep0in(USBDriver *usbp, usbep_t ep) {
 80050cc:	b510      	push	{r4, lr}
 80050ce:	f890 3064 	ldrb.w	r3, [r0, #100]	; 0x64
 80050d2:	4604      	mov	r4, r0
 80050d4:	2b06      	cmp	r3, #6
 80050d6:	d852      	bhi.n	800517e <_usb_ep0in+0xb2>
 80050d8:	e8df f003 	tbb	[pc, r3]
 80050dc:	311d0431 	.word	0x311d0431
 80050e0:	2c31      	.short	0x2c31
 80050e2:	34          	.byte	0x34
 80050e3:	00          	.byte	0x00
  case USB_EP0_TX:
    max = (size_t)get_hword(&usbp->setup[6]);
    /* If the transmitted size is less than the requested size and it is a
       multiple of the maximum packet size then a zero size packet must be
       transmitted.*/
    if ((usbp->ep0n < max) &&
 80050e4:	6ec3      	ldr	r3, [r0, #108]	; 0x6c
    max = (size_t)get_hword(&usbp->setup[6]);
 80050e6:	f8b0 207a 	ldrh.w	r2, [r0, #122]	; 0x7a
    if ((usbp->ep0n < max) &&
 80050ea:	4293      	cmp	r3, r2
 80050ec:	d213      	bcs.n	8005116 <_usb_ep0in+0x4a>
        ((usbp->ep0n % usbp->epc[0]->in_maxsize) == 0U)) {
 80050ee:	68c2      	ldr	r2, [r0, #12]
 80050f0:	8a11      	ldrh	r1, [r2, #16]
 80050f2:	fbb3 f2f1 	udiv	r2, r3, r1
 80050f6:	fb01 3112 	mls	r1, r1, r2, r3
    if ((usbp->ep0n < max) &&
 80050fa:	b961      	cbnz	r1, 8005116 <_usb_ep0in+0x4a>
      osalSysLockFromISR();
 80050fc:	f7ff fdb0 	bl	8004c60 <osalSysLockFromISR.lto_priv.0>
      usbStartTransmitI(usbp, 0, NULL, 0);
 8005100:	460b      	mov	r3, r1
 8005102:	460a      	mov	r2, r1
 8005104:	4620      	mov	r0, r4
 8005106:	f7ff fbef 	bl	80048e8 <usbStartTransmitI>
      osalSysUnlockFromISR();
 800510a:	f7ff fdbd 	bl	8004c88 <osalSysUnlockFromISR.lto_priv.0>
      usbp->ep0state = USB_EP0_WAITING_TX0;
 800510e:	2302      	movs	r3, #2
       level layer will have to reset it to USB_EP0_WAITING_SETUP after
       receiving a SETUP packet.*/
    usb_lld_stall_in(usbp, 0);
    usb_lld_stall_out(usbp, 0);
    _usb_isr_invoke_event_cb(usbp, USB_EVENT_STALLED);
    usbp->ep0state = USB_EP0_ERROR;
 8005110:	f884 3064 	strb.w	r3, [r4, #100]	; 0x64
    return;
  default:
    osalDbgAssert(false, "EP0 state machine invalid state");
  }
}
 8005114:	bd10      	pop	{r4, pc}
    usbp->ep0state = USB_EP0_WAITING_STS;
 8005116:	2303      	movs	r3, #3
 8005118:	f884 3064 	strb.w	r3, [r4, #100]	; 0x64
    osalSysLockFromISR();
 800511c:	f7ff fda0 	bl	8004c60 <osalSysLockFromISR.lto_priv.0>
    usbStartReceiveI(usbp, 0, NULL, 0);
 8005120:	2300      	movs	r3, #0
 8005122:	4620      	mov	r0, r4
 8005124:	461a      	mov	r2, r3
 8005126:	4619      	mov	r1, r3
 8005128:	f7ff fba2 	bl	8004870 <usbStartReceiveI>
}
 800512c:	e8bd 4010 	ldmia.w	sp!, {r4, lr}
    osalSysUnlockFromISR();
 8005130:	f7ff bdaa 	b.w	8004c88 <osalSysUnlockFromISR.lto_priv.0>
    if (usbp->ep0endcb != NULL) {
 8005134:	6f03      	ldr	r3, [r0, #112]	; 0x70
 8005136:	b103      	cbz	r3, 800513a <_usb_ep0in+0x6e>
      usbp->ep0endcb(usbp);
 8005138:	4798      	blx	r3
    usbp->ep0state = USB_EP0_WAITING_SETUP;
 800513a:	2300      	movs	r3, #0
 800513c:	e7e8      	b.n	8005110 <_usb_ep0in+0x44>
    osalDbgAssert(false, "EP0 state machine error");
 800513e:	f7ff fb09 	bl	8004754 <vTaskEndScheduler>
 8005142:	e7fe      	b.n	8005142 <_usb_ep0in+0x76>
  EPR_SET_STAT_TX(ep, EPR_STAT_TX_STALL);
 8005144:	f248 0080 	movw	r0, #32896	; 0x8080
 8005148:	490e      	ldr	r1, [pc, #56]	; (8005184 <_usb_ep0in+0xb8>)
 800514a:	680b      	ldr	r3, [r1, #0]
 800514c:	f423 43f0 	bic.w	r3, r3, #30720	; 0x7800
 8005150:	f023 0340 	bic.w	r3, r3, #64	; 0x40
 8005154:	f083 0210 	eor.w	r2, r3, #16
 8005158:	4302      	orrs	r2, r0
 800515a:	600a      	str	r2, [r1, #0]
  EPR_SET_STAT_RX(ep, EPR_STAT_RX_STALL);
 800515c:	680b      	ldr	r3, [r1, #0]
 800515e:	f423 4390 	bic.w	r3, r3, #18432	; 0x4800
 8005162:	f023 0370 	bic.w	r3, r3, #112	; 0x70
 8005166:	f483 5380 	eor.w	r3, r3, #4096	; 0x1000
 800516a:	4303      	orrs	r3, r0
 800516c:	600b      	str	r3, [r1, #0]
    _usb_isr_invoke_event_cb(usbp, USB_EVENT_STALLED);
 800516e:	6863      	ldr	r3, [r4, #4]
 8005170:	681b      	ldr	r3, [r3, #0]
 8005172:	b113      	cbz	r3, 800517a <_usb_ep0in+0xae>
 8005174:	2106      	movs	r1, #6
 8005176:	4620      	mov	r0, r4
 8005178:	4798      	blx	r3
    usbp->ep0state = USB_EP0_ERROR;
 800517a:	2306      	movs	r3, #6
 800517c:	e7c8      	b.n	8005110 <_usb_ep0in+0x44>
    osalDbgAssert(false, "EP0 state machine invalid state");
 800517e:	f7ff fae9 	bl	8004754 <vTaskEndScheduler>
 8005182:	e7fe      	b.n	8005182 <_usb_ep0in+0xb6>
 8005184:	40005c00 	.word	0x40005c00

08005188 <_usb_ep0out>:
 * @param[in] usbp      pointer to the @p USBDriver object
 * @param[in] ep        endpoint number, always zero
 *
 * @notapi
 */
void _usb_ep0out(USBDriver *usbp, usbep_t ep) {
 8005188:	b510      	push	{r4, lr}
 800518a:	f890 3064 	ldrb.w	r3, [r0, #100]	; 0x64
 800518e:	4604      	mov	r4, r0
 8005190:	2b06      	cmp	r3, #6
 8005192:	d83f      	bhi.n	8005214 <_usb_ep0out+0x8c>
 8005194:	e8df f003 	tbb	[pc, r3]
 8005198:	131e1e1e 	.word	0x131e1e1e
 800519c:	1e04      	.short	0x1e04
 800519e:	21          	.byte	0x21
 800519f:	00          	.byte	0x00

  (void)ep;
  switch (usbp->ep0state) {
  case USB_EP0_RX:
    /* Receive phase over, sending the zero sized status packet.*/
    usbp->ep0state = USB_EP0_SENDING_STS;
 80051a0:	2305      	movs	r3, #5
 80051a2:	f880 3064 	strb.w	r3, [r0, #100]	; 0x64
#if (USB_EP0_STATUS_STAGE == USB_EP0_STATUS_STAGE_SW)
    osalSysLockFromISR();
 80051a6:	f7ff fd5b 	bl	8004c60 <osalSysLockFromISR.lto_priv.0>
    usbStartTransmitI(usbp, 0, NULL, 0);
 80051aa:	2300      	movs	r3, #0
 80051ac:	4620      	mov	r0, r4
 80051ae:	461a      	mov	r2, r3
 80051b0:	4619      	mov	r1, r3
 80051b2:	f7ff fb99 	bl	80048e8 <usbStartTransmitI>
    usbp->ep0state = USB_EP0_ERROR;
    return;
  default:
    osalDbgAssert(false, "EP0 state machine invalid state");
  }
}
 80051b6:	e8bd 4010 	ldmia.w	sp!, {r4, lr}
    osalSysUnlockFromISR();
 80051ba:	f7ff bd65 	b.w	8004c88 <osalSysUnlockFromISR.lto_priv.0>
    if (usbGetReceiveTransactionSizeX(usbp, 0) != 0U) {
 80051be:	68c3      	ldr	r3, [r0, #12]
 80051c0:	699b      	ldr	r3, [r3, #24]
 80051c2:	685b      	ldr	r3, [r3, #4]
 80051c4:	b92b      	cbnz	r3, 80051d2 <_usb_ep0out+0x4a>
    if (usbp->ep0endcb != NULL) {
 80051c6:	6f03      	ldr	r3, [r0, #112]	; 0x70
 80051c8:	b103      	cbz	r3, 80051cc <_usb_ep0out+0x44>
      usbp->ep0endcb(usbp);
 80051ca:	4798      	blx	r3
    usbp->ep0state = USB_EP0_WAITING_SETUP;
 80051cc:	2300      	movs	r3, #0
    usbp->ep0state = USB_EP0_ERROR;
 80051ce:	f884 3064 	strb.w	r3, [r4, #100]	; 0x64
}
 80051d2:	bd10      	pop	{r4, pc}
    osalDbgAssert(false, "EP0 state machine error");
 80051d4:	f7ff fabe 	bl	8004754 <vTaskEndScheduler>
 80051d8:	e7fe      	b.n	80051d8 <_usb_ep0out+0x50>
  EPR_SET_STAT_TX(ep, EPR_STAT_TX_STALL);
 80051da:	f248 0080 	movw	r0, #32896	; 0x8080
 80051de:	490f      	ldr	r1, [pc, #60]	; (800521c <_usb_ep0out+0x94>)
 80051e0:	680b      	ldr	r3, [r1, #0]
 80051e2:	f423 43f0 	bic.w	r3, r3, #30720	; 0x7800
 80051e6:	f023 0340 	bic.w	r3, r3, #64	; 0x40
 80051ea:	f083 0210 	eor.w	r2, r3, #16
 80051ee:	4302      	orrs	r2, r0
 80051f0:	600a      	str	r2, [r1, #0]
  EPR_SET_STAT_RX(ep, EPR_STAT_RX_STALL);
 80051f2:	680b      	ldr	r3, [r1, #0]
 80051f4:	f423 4390 	bic.w	r3, r3, #18432	; 0x4800
 80051f8:	f023 0370 	bic.w	r3, r3, #112	; 0x70
 80051fc:	f483 5380 	eor.w	r3, r3, #4096	; 0x1000
 8005200:	4303      	orrs	r3, r0
 8005202:	600b      	str	r3, [r1, #0]
    _usb_isr_invoke_event_cb(usbp, USB_EVENT_STALLED);
 8005204:	6863      	ldr	r3, [r4, #4]
 8005206:	681b      	ldr	r3, [r3, #0]
 8005208:	b113      	cbz	r3, 8005210 <_usb_ep0out+0x88>
 800520a:	2106      	movs	r1, #6
 800520c:	4620      	mov	r0, r4
 800520e:	4798      	blx	r3
    usbp->ep0state = USB_EP0_ERROR;
 8005210:	2306      	movs	r3, #6
 8005212:	e7dc      	b.n	80051ce <_usb_ep0out+0x46>
    osalDbgAssert(false, "EP0 state machine invalid state");
 8005214:	f7ff fa9e 	bl	8004754 <vTaskEndScheduler>
 8005218:	e7fe      	b.n	8005218 <_usb_ep0out+0x90>
 800521a:	bf00      	nop
 800521c:	40005c00 	.word	0x40005c00

08005220 <sofNeededCallback>:
static void sofNeededCallback(USBDriver *usbp, bool enable)
{
    (void) usbp;
    static bool sofEnabled = true;

    if(!allowDisableSOF && !enable) return;
 8005220:	4b0c      	ldr	r3, [pc, #48]	; (8005254 <sofNeededCallback+0x34>)
{
 8005222:	b510      	push	{r4, lr}
    if(!allowDisableSOF && !enable) return;
 8005224:	781b      	ldrb	r3, [r3, #0]
 8005226:	b903      	cbnz	r3, 800522a <sofNeededCallback+0xa>
 8005228:	b199      	cbz	r1, 8005252 <sofNeededCallback+0x32>
    if(sofEnabled == enable) return;
 800522a:	4c0b      	ldr	r4, [pc, #44]	; (8005258 <sofNeededCallback+0x38>)
 800522c:	7823      	ldrb	r3, [r4, #0]
 800522e:	428b      	cmp	r3, r1
 8005230:	d00f      	beq.n	8005252 <sofNeededCallback+0x32>

    syssts_t basepri = osalSysGetStatusAndLockX();
 8005232:	f7ff fd03 	bl	8004c3c <ulPortEnterCriticalFromISR>

    if(enable) {
 8005236:	4b09      	ldr	r3, [pc, #36]	; (800525c <sofNeededCallback+0x3c>)
        STM32_USB->CNTR |= CNTR_SOFM;
 8005238:	6c1a      	ldr	r2, [r3, #64]	; 0x40
    if(enable) {
 800523a:	b139      	cbz	r1, 800524c <sofNeededCallback+0x2c>
        STM32_USB->CNTR |= CNTR_SOFM;
 800523c:	f442 7200 	orr.w	r2, r2, #512	; 0x200
    } else {
        STM32_USB->CNTR &=~ CNTR_SOFM;
 8005240:	641a      	str	r2, [r3, #64]	; 0x40
    }

    sofEnabled = enable;
 8005242:	7021      	strb	r1, [r4, #0]

    osalSysRestoreStatusX(basepri);
}
 8005244:	e8bd 4010 	ldmia.w	sp!, {r4, lr}
    osalSysRestoreStatusX(basepri);
 8005248:	f7ff bd12 	b.w	8004c70 <vPortExitCriticalFromISR>
        STM32_USB->CNTR &=~ CNTR_SOFM;
 800524c:	f422 7200 	bic.w	r2, r2, #512	; 0x200
 8005250:	e7f6      	b.n	8005240 <sofNeededCallback+0x20>
}
 8005252:	bd10      	pop	{r4, pc}
 8005254:	20000800 	.word	0x20000800
 8005258:	20000911 	.word	0x20000911
 800525c:	40005c00 	.word	0x40005c00

08005260 <gpioCPUGetPinMode>:
{
 8005260:	b538      	push	{r3, r4, r5, lr}
 8005262:	4604      	mov	r4, r0
    syssts_t sts = osalSysGetStatusAndLockX();
 8005264:	f7ff fcea 	bl	8004c3c <ulPortEnterCriticalFromISR>
    cr = (uint64_t)(((ioportid_t)driver->driver)->CRH) << 32;
 8005268:	6823      	ldr	r3, [r4, #0]
    uint8_t config = (cr >> (4*pin)) & 0xF;
 800526a:	0089      	lsls	r1, r1, #2
    cr = (uint64_t)(((ioportid_t)driver->driver)->CRH) << 32;
 800526c:	685d      	ldr	r5, [r3, #4]
    cr |= ((ioportid_t)driver->driver)->CRL;
 800526e:	681c      	ldr	r4, [r3, #0]
    osalSysRestoreStatusX(sts);
 8005270:	f7ff fcfe 	bl	8004c70 <vPortExitCriticalFromISR>
    uint8_t config = (cr >> (4*pin)) & 0xF;
 8005274:	f1c1 0220 	rsb	r2, r1, #32
 8005278:	f1a1 0320 	sub.w	r3, r1, #32
 800527c:	fa05 f202 	lsl.w	r2, r5, r2
 8005280:	fa24 f101 	lsr.w	r1, r4, r1
 8005284:	fa25 f303 	lsr.w	r3, r5, r3
 8005288:	4311      	orrs	r1, r2
 800528a:	4319      	orrs	r1, r3
}
 800528c:	4b02      	ldr	r3, [pc, #8]	; (8005298 <gpioCPUGetPinMode+0x38>)
    return cfgToMode[config];
 800528e:	f001 010f 	and.w	r1, r1, #15
}
 8005292:	5c58      	ldrb	r0, [r3, r1]
 8005294:	bd38      	pop	{r3, r4, r5, pc}
 8005296:	bf00      	nop
 8005298:	0800c918 	.word	0x0800c918
 800529c:	00000000 	.word	0x00000000

080052a0 <xPortPendSVHandler>:
 80052a0:	4b18      	ldr	r3, [pc, #96]	; (8005304 <pxCurrentTCBConst+0x4>)
 80052a2:	681b      	ldr	r3, [r3, #0]
 80052a4:	4818      	ldr	r0, [pc, #96]	; (8005308 <pxCurrentTCBConst+0x8>)
 80052a6:	461a      	mov	r2, r3
 80052a8:	6002      	str	r2, [r0, #0]
 80052aa:	f3ef 8009 	mrs	r0, PSP
 80052ae:	f3bf 8f6f 	isb	sy
 80052b2:	4b13      	ldr	r3, [pc, #76]	; (8005300 <pxCurrentTCBConst>)
 80052b4:	681a      	ldr	r2, [r3, #0]
 80052b6:	e920 0ff0 	stmdb	r0!, {r4, r5, r6, r7, r8, r9, sl, fp}
 80052ba:	4c14      	ldr	r4, [pc, #80]	; (800530c <pxCurrentTCBConst+0xc>)
 80052bc:	6824      	ldr	r4, [r4, #0]
 80052be:	f3ef 8111 	mrs	r1, BASEPRI
 80052c2:	e920 0012 	stmdb	r0!, {r1, r4}
 80052c6:	6010      	str	r0, [r2, #0]
 80052c8:	e92d 4008 	stmdb	sp!, {r3, lr}
 80052cc:	f04f 00bf 	mov.w	r0, #191	; 0xbf
 80052d0:	f380 8811 	msr	BASEPRI, r0
 80052d4:	f006 f9be 	bl	800b654 <vTaskSwitchContext>
 80052d8:	e8bd 4008 	ldmia.w	sp!, {r3, lr}
 80052dc:	6819      	ldr	r1, [r3, #0]
 80052de:	6808      	ldr	r0, [r1, #0]
 80052e0:	c812      	ldmia	r0!, {r1, r4}
 80052e2:	f381 8811 	msr	BASEPRI, r1
 80052e6:	4909      	ldr	r1, [pc, #36]	; (800530c <pxCurrentTCBConst+0xc>)
 80052e8:	600c      	str	r4, [r1, #0]
 80052ea:	e8b0 0ff0 	ldmia.w	r0!, {r4, r5, r6, r7, r8, r9, sl, fp}
 80052ee:	f380 8809 	msr	PSP, r0
 80052f2:	f3bf 8f6f 	isb	sy
 80052f6:	4770      	bx	lr
 80052f8:	f3af 8000 	nop.w
 80052fc:	f3af 8000 	nop.w

08005300 <pxCurrentTCBConst>:
 8005300:	200011a8 	.word	0x200011a8
 8005304:	2000134c 	.word	0x2000134c
 8005308:	e000ed20 	.word	0xe000ed20
 800530c:	20001358 	.word	0x20001358

08005310 <vPortValidateInterruptPriority>:
 8005310:	f3ef 8305 	mrs	r3, IPSR
 8005314:	2b0f      	cmp	r3, #15
 8005316:	d906      	bls.n	8005326 <vPortValidateInterruptPriority+0x16>
 8005318:	4a09      	ldr	r2, [pc, #36]	; (8005340 <vPortValidateInterruptPriority+0x30>)
 800531a:	5c9b      	ldrb	r3, [r3, r2]
 800531c:	4a09      	ldr	r2, [pc, #36]	; (8005344 <vPortValidateInterruptPriority+0x34>)
 800531e:	7812      	ldrb	r2, [r2, #0]
 8005320:	429a      	cmp	r2, r3
 8005322:	d900      	bls.n	8005326 <vPortValidateInterruptPriority+0x16>
 8005324:	e7fe      	b.n	8005324 <vPortValidateInterruptPriority+0x14>
 8005326:	f04f 23e0 	mov.w	r3, #3758153728	; 0xe000e000
 800532a:	4a07      	ldr	r2, [pc, #28]	; (8005348 <vPortValidateInterruptPriority+0x38>)
 800532c:	f8d3 3d0c 	ldr.w	r3, [r3, #3340]	; 0xd0c
 8005330:	6812      	ldr	r2, [r2, #0]
 8005332:	f403 63e0 	and.w	r3, r3, #1792	; 0x700
 8005336:	4293      	cmp	r3, r2
 8005338:	d900      	bls.n	800533c <vPortValidateInterruptPriority+0x2c>
 800533a:	e7fe      	b.n	800533a <vPortValidateInterruptPriority+0x2a>
 800533c:	4770      	bx	lr
 800533e:	bf00      	nop
 8005340:	e000e3f0 	.word	0xe000e3f0
 8005344:	20001340 	.word	0x20001340
 8005348:	20001344 	.word	0x20001344

0800534c <vPortBusyDelay>:
 800534c:	2300      	movs	r3, #0
 800534e:	08c0      	lsrs	r0, r0, #3

08005350 <loop7043>:
 8005350:	4283      	cmp	r3, r0
 8005352:	d001      	beq.n	8005358 <done7043>
 8005354:	3301      	adds	r3, #1
 8005356:	e7fb      	b.n	8005350 <loop7043>

08005358 <done7043>:
 8005358:	4770      	bx	lr

0800535a <vListInsertEnd>:
 800535a:	6843      	ldr	r3, [r0, #4]
 800535c:	689a      	ldr	r2, [r3, #8]
 800535e:	604b      	str	r3, [r1, #4]
 8005360:	608a      	str	r2, [r1, #8]
 8005362:	689a      	ldr	r2, [r3, #8]
 8005364:	6051      	str	r1, [r2, #4]
 8005366:	6099      	str	r1, [r3, #8]
 8005368:	6803      	ldr	r3, [r0, #0]
 800536a:	6108      	str	r0, [r1, #16]
 800536c:	3301      	adds	r3, #1
 800536e:	6003      	str	r3, [r0, #0]
 8005370:	4770      	bx	lr
	...

08005374 <prvAddNewTaskToReadyList>:
 8005374:	b5f8      	push	{r3, r4, r5, r6, r7, lr}
 8005376:	f7ff f9dd 	bl	8004734 <vPortEnterCritical>
 800537a:	4a49      	ldr	r2, [pc, #292]	; (80054a0 <prvAddNewTaskToReadyList+0x12c>)
 800537c:	4f49      	ldr	r7, [pc, #292]	; (80054a4 <prvAddNewTaskToReadyList+0x130>)
 800537e:	6813      	ldr	r3, [r2, #0]
 8005380:	4604      	mov	r4, r0
 8005382:	3301      	adds	r3, #1
 8005384:	6013      	str	r3, [r2, #0]
 8005386:	683b      	ldr	r3, [r7, #0]
 8005388:	4847      	ldr	r0, [pc, #284]	; (80054a8 <prvAddNewTaskToReadyList+0x134>)
 800538a:	2b00      	cmp	r3, #0
 800538c:	d17d      	bne.n	800548a <prvAddNewTaskToReadyList+0x116>
 800538e:	603c      	str	r4, [r7, #0]
 8005390:	6812      	ldr	r2, [r2, #0]
 8005392:	2a01      	cmp	r2, #1
 8005394:	d13f      	bne.n	8005416 <prvAddNewTaskToReadyList+0xa2>
 8005396:	4602      	mov	r2, r0
 8005398:	f04f 36ff 	mov.w	r6, #4294967295	; 0xffffffff
 800539c:	f04f 0c14 	mov.w	ip, #20
 80053a0:	461d      	mov	r5, r3
 80053a2:	f102 0108 	add.w	r1, r2, #8
 80053a6:	e9c2 1601 	strd	r1, r6, [r2, #4]
 80053aa:	e9c2 1103 	strd	r1, r1, [r2, #12]
 80053ae:	fb0c f103 	mul.w	r1, ip, r3
 80053b2:	3301      	adds	r3, #1
 80053b4:	2b05      	cmp	r3, #5
 80053b6:	5045      	str	r5, [r0, r1]
 80053b8:	f102 0214 	add.w	r2, r2, #20
 80053bc:	d1f1      	bne.n	80053a2 <prvAddNewTaskToReadyList+0x2e>
 80053be:	4a3b      	ldr	r2, [pc, #236]	; (80054ac <prvAddNewTaskToReadyList+0x138>)
 80053c0:	f102 0308 	add.w	r3, r2, #8
 80053c4:	e9c2 3601 	strd	r3, r6, [r2, #4]
 80053c8:	e9c2 3303 	strd	r3, r3, [r2, #12]
 80053cc:	4b38      	ldr	r3, [pc, #224]	; (80054b0 <prvAddNewTaskToReadyList+0x13c>)
 80053ce:	6015      	str	r5, [r2, #0]
 80053d0:	f103 0108 	add.w	r1, r3, #8
 80053d4:	e9c3 1601 	strd	r1, r6, [r3, #4]
 80053d8:	e9c3 1103 	strd	r1, r1, [r3, #12]
 80053dc:	4935      	ldr	r1, [pc, #212]	; (80054b4 <prvAddNewTaskToReadyList+0x140>)
 80053de:	601d      	str	r5, [r3, #0]
 80053e0:	f101 0c08 	add.w	ip, r1, #8
 80053e4:	600d      	str	r5, [r1, #0]
 80053e6:	e9c1 c601 	strd	ip, r6, [r1, #4]
 80053ea:	e9c1 cc03 	strd	ip, ip, [r1, #12]
 80053ee:	4932      	ldr	r1, [pc, #200]	; (80054b8 <prvAddNewTaskToReadyList+0x144>)
 80053f0:	f101 0c08 	add.w	ip, r1, #8
 80053f4:	600d      	str	r5, [r1, #0]
 80053f6:	e9c1 c601 	strd	ip, r6, [r1, #4]
 80053fa:	e9c1 cc03 	strd	ip, ip, [r1, #12]
 80053fe:	492f      	ldr	r1, [pc, #188]	; (80054bc <prvAddNewTaskToReadyList+0x148>)
 8005400:	f101 0c08 	add.w	ip, r1, #8
 8005404:	600d      	str	r5, [r1, #0]
 8005406:	e9c1 c601 	strd	ip, r6, [r1, #4]
 800540a:	e9c1 cc03 	strd	ip, ip, [r1, #12]
 800540e:	492c      	ldr	r1, [pc, #176]	; (80054c0 <prvAddNewTaskToReadyList+0x14c>)
 8005410:	600a      	str	r2, [r1, #0]
 8005412:	4a2c      	ldr	r2, [pc, #176]	; (80054c4 <prvAddNewTaskToReadyList+0x150>)
 8005414:	6013      	str	r3, [r2, #0]
 8005416:	4a2c      	ldr	r2, [pc, #176]	; (80054c8 <prvAddNewTaskToReadyList+0x154>)
 8005418:	492c      	ldr	r1, [pc, #176]	; (80054cc <prvAddNewTaskToReadyList+0x158>)
 800541a:	6813      	ldr	r3, [r2, #0]
 800541c:	680d      	ldr	r5, [r1, #0]
 800541e:	3301      	adds	r3, #1
 8005420:	6013      	str	r3, [r2, #0]
 8005422:	6463      	str	r3, [r4, #68]	; 0x44
 8005424:	2301      	movs	r3, #1
 8005426:	6ae2      	ldr	r2, [r4, #44]	; 0x2c
 8005428:	4093      	lsls	r3, r2
 800542a:	432b      	orrs	r3, r5
 800542c:	600b      	str	r3, [r1, #0]
 800542e:	2314      	movs	r3, #20
 8005430:	1d21      	adds	r1, r4, #4
 8005432:	fb03 0002 	mla	r0, r3, r2, r0
 8005436:	f7ff ff90 	bl	800535a <vListInsertEnd>
 800543a:	f7ff fb93 	bl	8004b64 <vPortExitCritical>
 800543e:	4b24      	ldr	r3, [pc, #144]	; (80054d0 <prvAddNewTaskToReadyList+0x15c>)
 8005440:	681b      	ldr	r3, [r3, #0]
 8005442:	b30b      	cbz	r3, 8005488 <prvAddNewTaskToReadyList+0x114>
 8005444:	683b      	ldr	r3, [r7, #0]
 8005446:	6ada      	ldr	r2, [r3, #44]	; 0x2c
 8005448:	6ae3      	ldr	r3, [r4, #44]	; 0x2c
 800544a:	429a      	cmp	r2, r3
 800544c:	d21c      	bcs.n	8005488 <prvAddNewTaskToReadyList+0x114>
 800544e:	f04f 23e0 	mov.w	r3, #3758153728	; 0xe000e000
 8005452:	4a20      	ldr	r2, [pc, #128]	; (80054d4 <prvAddNewTaskToReadyList+0x160>)
 8005454:	f8d3 1d20 	ldr.w	r1, [r3, #3360]	; 0xd20
 8005458:	6011      	str	r1, [r2, #0]
 800545a:	4a1f      	ldr	r2, [pc, #124]	; (80054d8 <prvAddNewTaskToReadyList+0x164>)
 800545c:	6812      	ldr	r2, [r2, #0]
 800545e:	b14a      	cbz	r2, 8005474 <prvAddNewTaskToReadyList+0x100>
 8005460:	f8d3 2d20 	ldr.w	r2, [r3, #3360]	; 0xd20
 8005464:	f422 027f 	bic.w	r2, r2, #16711680	; 0xff0000
 8005468:	f8c3 2d20 	str.w	r2, [r3, #3360]	; 0xd20
 800546c:	f8d3 2d20 	ldr.w	r2, [r3, #3360]	; 0xd20
 8005470:	f8c3 2d20 	str.w	r2, [r3, #3360]	; 0xd20
 8005474:	f04f 23e0 	mov.w	r3, #3758153728	; 0xe000e000
 8005478:	f04f 5280 	mov.w	r2, #268435456	; 0x10000000
 800547c:	f8c3 2d04 	str.w	r2, [r3, #3332]	; 0xd04
 8005480:	f3bf 8f4f 	dsb	sy
 8005484:	f3bf 8f6f 	isb	sy
 8005488:	bdf8      	pop	{r3, r4, r5, r6, r7, pc}
 800548a:	4b11      	ldr	r3, [pc, #68]	; (80054d0 <prvAddNewTaskToReadyList+0x15c>)
 800548c:	681b      	ldr	r3, [r3, #0]
 800548e:	2b00      	cmp	r3, #0
 8005490:	d1c1      	bne.n	8005416 <prvAddNewTaskToReadyList+0xa2>
 8005492:	683b      	ldr	r3, [r7, #0]
 8005494:	6ada      	ldr	r2, [r3, #44]	; 0x2c
 8005496:	6ae3      	ldr	r3, [r4, #44]	; 0x2c
 8005498:	429a      	cmp	r2, r3
 800549a:	bf98      	it	ls
 800549c:	603c      	strls	r4, [r7, #0]
 800549e:	e7ba      	b.n	8005416 <prvAddNewTaskToReadyList+0xa2>
 80054a0:	2000135c 	.word	0x2000135c
 80054a4:	200011a8 	.word	0x200011a8
 80054a8:	200011b8 	.word	0x200011b8
 80054ac:	2000137c 	.word	0x2000137c
 80054b0:	20001390 	.word	0x20001390
 80054b4:	20001600 	.word	0x20001600
 80054b8:	20001634 	.word	0x20001634
 80054bc:	20001620 	.word	0x20001620
 80054c0:	200011ac 	.word	0x200011ac
 80054c4:	200011b4 	.word	0x200011b4
 80054c8:	20001370 	.word	0x20001370
 80054cc:	20001374 	.word	0x20001374
 80054d0:	20001614 	.word	0x20001614
 80054d4:	2000134c 	.word	0x2000134c
 80054d8:	20001358 	.word	0x20001358

080054dc <vListInsert>:
 80054dc:	b530      	push	{r4, r5, lr}
 80054de:	680c      	ldr	r4, [r1, #0]
 80054e0:	1c63      	adds	r3, r4, #1
 80054e2:	d10a      	bne.n	80054fa <vListInsert+0x1e>
 80054e4:	6903      	ldr	r3, [r0, #16]
 80054e6:	685a      	ldr	r2, [r3, #4]
 80054e8:	604a      	str	r2, [r1, #4]
 80054ea:	6091      	str	r1, [r2, #8]
 80054ec:	608b      	str	r3, [r1, #8]
 80054ee:	6059      	str	r1, [r3, #4]
 80054f0:	6803      	ldr	r3, [r0, #0]
 80054f2:	6108      	str	r0, [r1, #16]
 80054f4:	3301      	adds	r3, #1
 80054f6:	6003      	str	r3, [r0, #0]
 80054f8:	bd30      	pop	{r4, r5, pc}
 80054fa:	f100 0208 	add.w	r2, r0, #8
 80054fe:	4613      	mov	r3, r2
 8005500:	6852      	ldr	r2, [r2, #4]
 8005502:	6815      	ldr	r5, [r2, #0]
 8005504:	42a5      	cmp	r5, r4
 8005506:	d9fa      	bls.n	80054fe <vListInsert+0x22>
 8005508:	e7ed      	b.n	80054e6 <vListInsert+0xa>

0800550a <uxListRemove>:
 800550a:	6903      	ldr	r3, [r0, #16]
 800550c:	e9d0 1201 	ldrd	r1, r2, [r0, #4]
 8005510:	608a      	str	r2, [r1, #8]
 8005512:	6051      	str	r1, [r2, #4]
 8005514:	6859      	ldr	r1, [r3, #4]
 8005516:	4281      	cmp	r1, r0
 8005518:	bf08      	it	eq
 800551a:	605a      	streq	r2, [r3, #4]
 800551c:	2200      	movs	r2, #0
 800551e:	6102      	str	r2, [r0, #16]
 8005520:	681a      	ldr	r2, [r3, #0]
 8005522:	3a01      	subs	r2, #1
 8005524:	601a      	str	r2, [r3, #0]
 8005526:	6818      	ldr	r0, [r3, #0]
 8005528:	4770      	bx	lr
	...

0800552c <monitorKick>:
    xTaskCreate(taskPeriodicMon, "Monitor", stackSize, NULL, 1, &monThreadHandle );
}

void monitorKick(MonitorEntry* entry, bool active)
{
    if(entry->active == active) {
 800552c:	7c03      	ldrb	r3, [r0, #16]
{
 800552e:	b570      	push	{r4, r5, r6, lr}
    if(entry->active == active) {
 8005530:	428b      	cmp	r3, r1
 8005532:	d04f      	beq.n	80055d4 <monitorKick+0xa8>
        return;
    }

    entry->active = active;

    if(monThreadHandle && active) {
 8005534:	4b28      	ldr	r3, [pc, #160]	; (80055d8 <monitorKick+0xac>)
    entry->active = active;
 8005536:	7401      	strb	r1, [r0, #16]
    if(monThreadHandle && active) {
 8005538:	681c      	ldr	r4, [r3, #0]
 800553a:	2c00      	cmp	r4, #0
 800553c:	d04a      	beq.n	80055d4 <monitorKick+0xa8>
 800553e:	2900      	cmp	r1, #0
 8005540:	d048      	beq.n	80055d4 <monitorKick+0xa8>
 8005542:	f7ff f8f7 	bl	8004734 <vPortEnterCritical>
 8005546:	2202      	movs	r2, #2
 8005548:	f894 3064 	ldrb.w	r3, [r4, #100]	; 0x64
 800554c:	f884 2064 	strb.w	r2, [r4, #100]	; 0x64
 8005550:	2201      	movs	r2, #1
 8005552:	4293      	cmp	r3, r2
 8005554:	b2dd      	uxtb	r5, r3
 8005556:	6622      	str	r2, [r4, #96]	; 0x60
 8005558:	d138      	bne.n	80055cc <monitorKick+0xa0>
 800555a:	1d26      	adds	r6, r4, #4
 800555c:	4630      	mov	r0, r6
 800555e:	f7ff ffd4 	bl	800550a <uxListRemove>
 8005562:	2014      	movs	r0, #20
 8005564:	4a1d      	ldr	r2, [pc, #116]	; (80055dc <monitorKick+0xb0>)
 8005566:	6ae3      	ldr	r3, [r4, #44]	; 0x2c
 8005568:	6811      	ldr	r1, [r2, #0]
 800556a:	409d      	lsls	r5, r3
 800556c:	430d      	orrs	r5, r1
 800556e:	6015      	str	r5, [r2, #0]
 8005570:	4a1b      	ldr	r2, [pc, #108]	; (80055e0 <monitorKick+0xb4>)
 8005572:	4631      	mov	r1, r6
 8005574:	fb00 2003 	mla	r0, r0, r3, r2
 8005578:	f7ff feef 	bl	800535a <vListInsertEnd>
 800557c:	6aa3      	ldr	r3, [r4, #40]	; 0x28
 800557e:	b103      	cbz	r3, 8005582 <monitorKick+0x56>
 8005580:	e7fe      	b.n	8005580 <monitorKick+0x54>
 8005582:	f7ff f89b 	bl	80046bc <prvResetNextTaskUnblockTime>
 8005586:	4b17      	ldr	r3, [pc, #92]	; (80055e4 <monitorKick+0xb8>)
 8005588:	6ae2      	ldr	r2, [r4, #44]	; 0x2c
 800558a:	681b      	ldr	r3, [r3, #0]
 800558c:	6adb      	ldr	r3, [r3, #44]	; 0x2c
 800558e:	429a      	cmp	r2, r3
 8005590:	d91c      	bls.n	80055cc <monitorKick+0xa0>
 8005592:	f04f 23e0 	mov.w	r3, #3758153728	; 0xe000e000
 8005596:	4a14      	ldr	r2, [pc, #80]	; (80055e8 <monitorKick+0xbc>)
 8005598:	f8d3 1d20 	ldr.w	r1, [r3, #3360]	; 0xd20
 800559c:	6011      	str	r1, [r2, #0]
 800559e:	4a13      	ldr	r2, [pc, #76]	; (80055ec <monitorKick+0xc0>)
 80055a0:	6812      	ldr	r2, [r2, #0]
 80055a2:	b14a      	cbz	r2, 80055b8 <monitorKick+0x8c>
 80055a4:	f8d3 2d20 	ldr.w	r2, [r3, #3360]	; 0xd20
 80055a8:	f422 027f 	bic.w	r2, r2, #16711680	; 0xff0000
 80055ac:	f8c3 2d20 	str.w	r2, [r3, #3360]	; 0xd20
 80055b0:	f8d3 2d20 	ldr.w	r2, [r3, #3360]	; 0xd20
 80055b4:	f8c3 2d20 	str.w	r2, [r3, #3360]	; 0xd20
 80055b8:	f04f 23e0 	mov.w	r3, #3758153728	; 0xe000e000
 80055bc:	f04f 5280 	mov.w	r2, #268435456	; 0x10000000
 80055c0:	f8c3 2d04 	str.w	r2, [r3, #3332]	; 0xd04
 80055c4:	f3bf 8f4f 	dsb	sy
 80055c8:	f3bf 8f6f 	isb	sy
        xTaskNotify(monThreadHandle, 1, eSetValueWithOverwrite);
    }
}
 80055cc:	e8bd 4070 	ldmia.w	sp!, {r4, r5, r6, lr}
 80055d0:	f7ff bac8 	b.w	8004b64 <vPortExitCritical>
 80055d4:	bd70      	pop	{r4, r5, r6, pc}
 80055d6:	bf00      	nop
 80055d8:	200011a4 	.word	0x200011a4
 80055dc:	20001374 	.word	0x20001374
 80055e0:	200011b8 	.word	0x200011b8
 80055e4:	200011a8 	.word	0x200011a8
 80055e8:	2000134c 	.word	0x2000134c
 80055ec:	20001358 	.word	0x20001358

080055f0 <xTaskIncrementTick>:
 80055f0:	e92d 4ff8 	stmdb	sp!, {r3, r4, r5, r6, r7, r8, r9, sl, fp, lr}
 80055f4:	4b38      	ldr	r3, [pc, #224]	; (80056d8 <xTaskIncrementTick+0xe8>)
 80055f6:	681b      	ldr	r3, [r3, #0]
 80055f8:	2b00      	cmp	r3, #0
 80055fa:	d166      	bne.n	80056ca <xTaskIncrementTick+0xda>
 80055fc:	4b37      	ldr	r3, [pc, #220]	; (80056dc <xTaskIncrementTick+0xec>)
 80055fe:	681d      	ldr	r5, [r3, #0]
 8005600:	3501      	adds	r5, #1
 8005602:	601d      	str	r5, [r3, #0]
 8005604:	b97d      	cbnz	r5, 8005626 <xTaskIncrementTick+0x36>
 8005606:	4b36      	ldr	r3, [pc, #216]	; (80056e0 <xTaskIncrementTick+0xf0>)
 8005608:	681a      	ldr	r2, [r3, #0]
 800560a:	6812      	ldr	r2, [r2, #0]
 800560c:	b102      	cbz	r2, 8005610 <xTaskIncrementTick+0x20>
 800560e:	e7fe      	b.n	800560e <xTaskIncrementTick+0x1e>
 8005610:	4a34      	ldr	r2, [pc, #208]	; (80056e4 <xTaskIncrementTick+0xf4>)
 8005612:	6819      	ldr	r1, [r3, #0]
 8005614:	6810      	ldr	r0, [r2, #0]
 8005616:	6018      	str	r0, [r3, #0]
 8005618:	6011      	str	r1, [r2, #0]
 800561a:	4a33      	ldr	r2, [pc, #204]	; (80056e8 <xTaskIncrementTick+0xf8>)
 800561c:	6813      	ldr	r3, [r2, #0]
 800561e:	3301      	adds	r3, #1
 8005620:	6013      	str	r3, [r2, #0]
 8005622:	f7ff f84b 	bl	80046bc <prvResetNextTaskUnblockTime>
 8005626:	4e31      	ldr	r6, [pc, #196]	; (80056ec <xTaskIncrementTick+0xfc>)
 8005628:	2400      	movs	r4, #0
 800562a:	6833      	ldr	r3, [r6, #0]
 800562c:	4f30      	ldr	r7, [pc, #192]	; (80056f0 <xTaskIncrementTick+0x100>)
 800562e:	42ab      	cmp	r3, r5
 8005630:	d910      	bls.n	8005654 <xTaskIncrementTick+0x64>
 8005632:	2214      	movs	r2, #20
 8005634:	4b2f      	ldr	r3, [pc, #188]	; (80056f4 <xTaskIncrementTick+0x104>)
 8005636:	681b      	ldr	r3, [r3, #0]
 8005638:	6adb      	ldr	r3, [r3, #44]	; 0x2c
 800563a:	4353      	muls	r3, r2
 800563c:	58fb      	ldr	r3, [r7, r3]
 800563e:	2b02      	cmp	r3, #2
 8005640:	bf28      	it	cs
 8005642:	2401      	movcs	r4, #1
 8005644:	4b2c      	ldr	r3, [pc, #176]	; (80056f8 <xTaskIncrementTick+0x108>)
 8005646:	681b      	ldr	r3, [r3, #0]
 8005648:	2b00      	cmp	r3, #0
 800564a:	bf0c      	ite	eq
 800564c:	4620      	moveq	r0, r4
 800564e:	2001      	movne	r0, #1
 8005650:	e8bd 8ff8 	ldmia.w	sp!, {r3, r4, r5, r6, r7, r8, r9, sl, fp, pc}
 8005654:	f8df a088 	ldr.w	sl, [pc, #136]	; 80056e0 <xTaskIncrementTick+0xf0>
 8005658:	f8df 90a0 	ldr.w	r9, [pc, #160]	; 80056fc <xTaskIncrementTick+0x10c>
 800565c:	f8da 3000 	ldr.w	r3, [sl]
 8005660:	681b      	ldr	r3, [r3, #0]
 8005662:	b91b      	cbnz	r3, 800566c <xTaskIncrementTick+0x7c>
 8005664:	f04f 33ff 	mov.w	r3, #4294967295	; 0xffffffff
 8005668:	6033      	str	r3, [r6, #0]
 800566a:	e7e2      	b.n	8005632 <xTaskIncrementTick+0x42>
 800566c:	f8da 3000 	ldr.w	r3, [sl]
 8005670:	68db      	ldr	r3, [r3, #12]
 8005672:	f8d3 b00c 	ldr.w	fp, [r3, #12]
 8005676:	f8db 2004 	ldr.w	r2, [fp, #4]
 800567a:	4295      	cmp	r5, r2
 800567c:	d201      	bcs.n	8005682 <xTaskIncrementTick+0x92>
 800567e:	6032      	str	r2, [r6, #0]
 8005680:	e7d7      	b.n	8005632 <xTaskIncrementTick+0x42>
 8005682:	f10b 0804 	add.w	r8, fp, #4
 8005686:	4640      	mov	r0, r8
 8005688:	f7ff ff3f 	bl	800550a <uxListRemove>
 800568c:	f8db 2028 	ldr.w	r2, [fp, #40]	; 0x28
 8005690:	b11a      	cbz	r2, 800569a <xTaskIncrementTick+0xaa>
 8005692:	f10b 0018 	add.w	r0, fp, #24
 8005696:	f7ff ff38 	bl	800550a <uxListRemove>
 800569a:	2201      	movs	r2, #1
 800569c:	f8db 002c 	ldr.w	r0, [fp, #44]	; 0x2c
 80056a0:	f8d9 3000 	ldr.w	r3, [r9]
 80056a4:	4082      	lsls	r2, r0
 80056a6:	431a      	orrs	r2, r3
 80056a8:	f8c9 2000 	str.w	r2, [r9]
 80056ac:	2214      	movs	r2, #20
 80056ae:	4641      	mov	r1, r8
 80056b0:	fb02 7000 	mla	r0, r2, r0, r7
 80056b4:	f7ff fe51 	bl	800535a <vListInsertEnd>
 80056b8:	4b0e      	ldr	r3, [pc, #56]	; (80056f4 <xTaskIncrementTick+0x104>)
 80056ba:	f8db 202c 	ldr.w	r2, [fp, #44]	; 0x2c
 80056be:	6819      	ldr	r1, [r3, #0]
 80056c0:	6acb      	ldr	r3, [r1, #44]	; 0x2c
 80056c2:	429a      	cmp	r2, r3
 80056c4:	bf28      	it	cs
 80056c6:	2401      	movcs	r4, #1
 80056c8:	e7c8      	b.n	800565c <xTaskIncrementTick+0x6c>
 80056ca:	4a0d      	ldr	r2, [pc, #52]	; (8005700 <xTaskIncrementTick+0x110>)
 80056cc:	2400      	movs	r4, #0
 80056ce:	6813      	ldr	r3, [r2, #0]
 80056d0:	3301      	adds	r3, #1
 80056d2:	6013      	str	r3, [r2, #0]
 80056d4:	e7b6      	b.n	8005644 <xTaskIncrementTick+0x54>
 80056d6:	bf00      	nop
 80056d8:	2000136c 	.word	0x2000136c
 80056dc:	20001648 	.word	0x20001648
 80056e0:	200011ac 	.word	0x200011ac
 80056e4:	200011b4 	.word	0x200011b4
 80056e8:	200015fc 	.word	0x200015fc
 80056ec:	200015f8 	.word	0x200015f8
 80056f0:	200011b8 	.word	0x200011b8
 80056f4:	200011a8 	.word	0x200011a8
 80056f8:	2000164c 	.word	0x2000164c
 80056fc:	20001374 	.word	0x20001374
 8005700:	20001364 	.word	0x20001364

08005704 <xTaskResumeAll>:
 8005704:	4837      	ldr	r0, [pc, #220]	; (80057e4 <xTaskResumeAll+0xe0>)
 8005706:	e92d 43f8 	stmdb	sp!, {r3, r4, r5, r6, r7, r8, r9, lr}
 800570a:	6803      	ldr	r3, [r0, #0]
 800570c:	b903      	cbnz	r3, 8005710 <xTaskResumeAll+0xc>
 800570e:	e7fe      	b.n	800570e <xTaskResumeAll+0xa>
 8005710:	f7ff f810 	bl	8004734 <vPortEnterCritical>
 8005714:	6803      	ldr	r3, [r0, #0]
 8005716:	3b01      	subs	r3, #1
 8005718:	6003      	str	r3, [r0, #0]
 800571a:	6804      	ldr	r4, [r0, #0]
 800571c:	b124      	cbz	r4, 8005728 <xTaskResumeAll+0x24>
 800571e:	2000      	movs	r0, #0
 8005720:	f7ff fa20 	bl	8004b64 <vPortExitCritical>
 8005724:	e8bd 83f8 	ldmia.w	sp!, {r3, r4, r5, r6, r7, r8, r9, pc}
 8005728:	4b2f      	ldr	r3, [pc, #188]	; (80057e8 <xTaskResumeAll+0xe4>)
 800572a:	681b      	ldr	r3, [r3, #0]
 800572c:	2b00      	cmp	r3, #0
 800572e:	d0f6      	beq.n	800571e <xTaskResumeAll+0x1a>
 8005730:	4d2e      	ldr	r5, [pc, #184]	; (80057ec <xTaskResumeAll+0xe8>)
 8005732:	4e2f      	ldr	r6, [pc, #188]	; (80057f0 <xTaskResumeAll+0xec>)
 8005734:	f8df 80bc 	ldr.w	r8, [pc, #188]	; 80057f4 <xTaskResumeAll+0xf0>
 8005738:	e01f      	b.n	800577a <xTaskResumeAll+0x76>
 800573a:	68eb      	ldr	r3, [r5, #12]
 800573c:	2701      	movs	r7, #1
 800573e:	68dc      	ldr	r4, [r3, #12]
 8005740:	f104 0904 	add.w	r9, r4, #4
 8005744:	f104 0018 	add.w	r0, r4, #24
 8005748:	f7ff fedf 	bl	800550a <uxListRemove>
 800574c:	4648      	mov	r0, r9
 800574e:	f7ff fedc 	bl	800550a <uxListRemove>
 8005752:	2014      	movs	r0, #20
 8005754:	6ae2      	ldr	r2, [r4, #44]	; 0x2c
 8005756:	6831      	ldr	r1, [r6, #0]
 8005758:	fa07 f302 	lsl.w	r3, r7, r2
 800575c:	430b      	orrs	r3, r1
 800575e:	fb00 8002 	mla	r0, r0, r2, r8
 8005762:	4649      	mov	r1, r9
 8005764:	6033      	str	r3, [r6, #0]
 8005766:	f7ff fdf8 	bl	800535a <vListInsertEnd>
 800576a:	4b23      	ldr	r3, [pc, #140]	; (80057f8 <xTaskResumeAll+0xf4>)
 800576c:	6ae2      	ldr	r2, [r4, #44]	; 0x2c
 800576e:	681b      	ldr	r3, [r3, #0]
 8005770:	6adb      	ldr	r3, [r3, #44]	; 0x2c
 8005772:	429a      	cmp	r2, r3
 8005774:	d301      	bcc.n	800577a <xTaskResumeAll+0x76>
 8005776:	4b21      	ldr	r3, [pc, #132]	; (80057fc <xTaskResumeAll+0xf8>)
 8005778:	601f      	str	r7, [r3, #0]
 800577a:	682b      	ldr	r3, [r5, #0]
 800577c:	2b00      	cmp	r3, #0
 800577e:	d1dc      	bne.n	800573a <xTaskResumeAll+0x36>
 8005780:	b10c      	cbz	r4, 8005786 <xTaskResumeAll+0x82>
 8005782:	f7fe ff9b 	bl	80046bc <prvResetNextTaskUnblockTime>
 8005786:	4d1e      	ldr	r5, [pc, #120]	; (8005800 <xTaskResumeAll+0xfc>)
 8005788:	682c      	ldr	r4, [r5, #0]
 800578a:	b144      	cbz	r4, 800579e <xTaskResumeAll+0x9a>
 800578c:	2701      	movs	r7, #1
 800578e:	4e1b      	ldr	r6, [pc, #108]	; (80057fc <xTaskResumeAll+0xf8>)
 8005790:	f7ff ff2e 	bl	80055f0 <xTaskIncrementTick>
 8005794:	b100      	cbz	r0, 8005798 <xTaskResumeAll+0x94>
 8005796:	6037      	str	r7, [r6, #0]
 8005798:	3c01      	subs	r4, #1
 800579a:	d1f9      	bne.n	8005790 <xTaskResumeAll+0x8c>
 800579c:	602c      	str	r4, [r5, #0]
 800579e:	4b17      	ldr	r3, [pc, #92]	; (80057fc <xTaskResumeAll+0xf8>)
 80057a0:	681b      	ldr	r3, [r3, #0]
 80057a2:	2b00      	cmp	r3, #0
 80057a4:	d0bb      	beq.n	800571e <xTaskResumeAll+0x1a>
 80057a6:	f04f 23e0 	mov.w	r3, #3758153728	; 0xe000e000
 80057aa:	4a16      	ldr	r2, [pc, #88]	; (8005804 <xTaskResumeAll+0x100>)
 80057ac:	f8d3 1d20 	ldr.w	r1, [r3, #3360]	; 0xd20
 80057b0:	6011      	str	r1, [r2, #0]
 80057b2:	4a15      	ldr	r2, [pc, #84]	; (8005808 <xTaskResumeAll+0x104>)
 80057b4:	6812      	ldr	r2, [r2, #0]
 80057b6:	b14a      	cbz	r2, 80057cc <xTaskResumeAll+0xc8>
 80057b8:	f8d3 2d20 	ldr.w	r2, [r3, #3360]	; 0xd20
 80057bc:	f422 027f 	bic.w	r2, r2, #16711680	; 0xff0000
 80057c0:	f8c3 2d20 	str.w	r2, [r3, #3360]	; 0xd20
 80057c4:	f8d3 2d20 	ldr.w	r2, [r3, #3360]	; 0xd20
 80057c8:	f8c3 2d20 	str.w	r2, [r3, #3360]	; 0xd20
 80057cc:	f04f 23e0 	mov.w	r3, #3758153728	; 0xe000e000
 80057d0:	f04f 5280 	mov.w	r2, #268435456	; 0x10000000
 80057d4:	f8c3 2d04 	str.w	r2, [r3, #3332]	; 0xd04
 80057d8:	f3bf 8f4f 	dsb	sy
 80057dc:	f3bf 8f6f 	isb	sy
 80057e0:	2001      	movs	r0, #1
 80057e2:	e79d      	b.n	8005720 <xTaskResumeAll+0x1c>
 80057e4:	2000136c 	.word	0x2000136c
 80057e8:	2000135c 	.word	0x2000135c
 80057ec:	20001600 	.word	0x20001600
 80057f0:	20001374 	.word	0x20001374
 80057f4:	200011b8 	.word	0x200011b8
 80057f8:	200011a8 	.word	0x200011a8
 80057fc:	2000164c 	.word	0x2000164c
 8005800:	20001364 	.word	0x20001364
 8005804:	2000134c 	.word	0x2000134c
 8005808:	20001358 	.word	0x20001358

0800580c <pvPortMalloc>:
 800580c:	4938      	ldr	r1, [pc, #224]	; (80058f0 <pvPortMalloc+0xe4>)
 800580e:	e92d 41f0 	stmdb	sp!, {r4, r5, r6, r7, r8, lr}
 8005812:	f7fe ff2d 	bl	8004670 <vTaskSuspendAll>
 8005816:	680b      	ldr	r3, [r1, #0]
 8005818:	4604      	mov	r4, r0
 800581a:	4d36      	ldr	r5, [pc, #216]	; (80058f4 <pvPortMalloc+0xe8>)
 800581c:	b9f3      	cbnz	r3, 800585c <pvPortMalloc+0x50>
 800581e:	2000      	movs	r0, #0
 8005820:	4b35      	ldr	r3, [pc, #212]	; (80058f8 <pvPortMalloc+0xec>)
 8005822:	4a36      	ldr	r2, [pc, #216]	; (80058fc <pvPortMalloc+0xf0>)
 8005824:	f1a3 0708 	sub.w	r7, r3, #8
 8005828:	1ad2      	subs	r2, r2, r3
 800582a:	075e      	lsls	r6, r3, #29
 800582c:	bf18      	it	ne
 800582e:	3307      	addne	r3, #7
 8005830:	4e33      	ldr	r6, [pc, #204]	; (8005900 <pvPortMalloc+0xf4>)
 8005832:	443a      	add	r2, r7
 8005834:	bf18      	it	ne
 8005836:	f023 0307 	bicne.w	r3, r3, #7
 800583a:	f022 0207 	bic.w	r2, r2, #7
 800583e:	6033      	str	r3, [r6, #0]
 8005840:	6070      	str	r0, [r6, #4]
 8005842:	e9c2 0000 	strd	r0, r0, [r2]
 8005846:	1ad0      	subs	r0, r2, r3
 8005848:	e9c3 2000 	strd	r2, r0, [r3]
 800584c:	4b2d      	ldr	r3, [pc, #180]	; (8005904 <pvPortMalloc+0xf8>)
 800584e:	600a      	str	r2, [r1, #0]
 8005850:	6018      	str	r0, [r3, #0]
 8005852:	4b2d      	ldr	r3, [pc, #180]	; (8005908 <pvPortMalloc+0xfc>)
 8005854:	6018      	str	r0, [r3, #0]
 8005856:	f04f 4300 	mov.w	r3, #2147483648	; 0x80000000
 800585a:	602b      	str	r3, [r5, #0]
 800585c:	682f      	ldr	r7, [r5, #0]
 800585e:	4227      	tst	r7, r4
 8005860:	d140      	bne.n	80058e4 <pvPortMalloc+0xd8>
 8005862:	2c00      	cmp	r4, #0
 8005864:	d039      	beq.n	80058da <pvPortMalloc+0xce>
 8005866:	f104 0308 	add.w	r3, r4, #8
 800586a:	0760      	lsls	r0, r4, #29
 800586c:	bf1c      	itt	ne
 800586e:	f023 0307 	bicne.w	r3, r3, #7
 8005872:	3308      	addne	r3, #8
 8005874:	2b00      	cmp	r3, #0
 8005876:	d035      	beq.n	80058e4 <pvPortMalloc+0xd8>
 8005878:	f8df 808c 	ldr.w	r8, [pc, #140]	; 8005908 <pvPortMalloc+0xfc>
 800587c:	f8d8 6000 	ldr.w	r6, [r8]
 8005880:	429e      	cmp	r6, r3
 8005882:	d32f      	bcc.n	80058e4 <pvPortMalloc+0xd8>
 8005884:	4a1e      	ldr	r2, [pc, #120]	; (8005900 <pvPortMalloc+0xf4>)
 8005886:	6815      	ldr	r5, [r2, #0]
 8005888:	6868      	ldr	r0, [r5, #4]
 800588a:	4298      	cmp	r0, r3
 800588c:	d201      	bcs.n	8005892 <pvPortMalloc+0x86>
 800588e:	682c      	ldr	r4, [r5, #0]
 8005890:	b974      	cbnz	r4, 80058b0 <pvPortMalloc+0xa4>
 8005892:	6809      	ldr	r1, [r1, #0]
 8005894:	42a9      	cmp	r1, r5
 8005896:	d025      	beq.n	80058e4 <pvPortMalloc+0xd8>
 8005898:	6829      	ldr	r1, [r5, #0]
 800589a:	6814      	ldr	r4, [r2, #0]
 800589c:	6011      	str	r1, [r2, #0]
 800589e:	1ac2      	subs	r2, r0, r3
 80058a0:	2a10      	cmp	r2, #16
 80058a2:	f104 0408 	add.w	r4, r4, #8
 80058a6:	d90a      	bls.n	80058be <pvPortMalloc+0xb2>
 80058a8:	18e8      	adds	r0, r5, r3
 80058aa:	0741      	lsls	r1, r0, #29
 80058ac:	d003      	beq.n	80058b6 <pvPortMalloc+0xaa>
 80058ae:	e7fe      	b.n	80058ae <pvPortMalloc+0xa2>
 80058b0:	462a      	mov	r2, r5
 80058b2:	4625      	mov	r5, r4
 80058b4:	e7e8      	b.n	8005888 <pvPortMalloc+0x7c>
 80058b6:	6042      	str	r2, [r0, #4]
 80058b8:	606b      	str	r3, [r5, #4]
 80058ba:	f7fe feb5 	bl	8004628 <prvInsertBlockIntoFreeList>
 80058be:	2300      	movs	r3, #0
 80058c0:	4910      	ldr	r1, [pc, #64]	; (8005904 <pvPortMalloc+0xf8>)
 80058c2:	686a      	ldr	r2, [r5, #4]
 80058c4:	6808      	ldr	r0, [r1, #0]
 80058c6:	1ab6      	subs	r6, r6, r2
 80058c8:	4286      	cmp	r6, r0
 80058ca:	ea47 0702 	orr.w	r7, r7, r2
 80058ce:	f8c8 6000 	str.w	r6, [r8]
 80058d2:	bf38      	it	cc
 80058d4:	600e      	strcc	r6, [r1, #0]
 80058d6:	606f      	str	r7, [r5, #4]
 80058d8:	602b      	str	r3, [r5, #0]
 80058da:	f7ff ff13 	bl	8005704 <xTaskResumeAll>
 80058de:	0763      	lsls	r3, r4, #29
 80058e0:	d002      	beq.n	80058e8 <pvPortMalloc+0xdc>
 80058e2:	e7fe      	b.n	80058e2 <pvPortMalloc+0xd6>
 80058e4:	2400      	movs	r4, #0
 80058e6:	e7f8      	b.n	80058da <pvPortMalloc+0xce>
 80058e8:	4620      	mov	r0, r4
 80058ea:	e8bd 81f0 	ldmia.w	sp!, {r4, r5, r6, r7, r8, pc}
 80058ee:	bf00      	nop
 80058f0:	200011b0 	.word	0x200011b0
 80058f4:	20001378 	.word	0x20001378
 80058f8:	20001650 	.word	0x20001650
 80058fc:	20005000 	.word	0x20005000
 8005900:	20001618 	.word	0x20001618
 8005904:	200015f4 	.word	0x200015f4
 8005908:	200013a4 	.word	0x200013a4

0800590c <vPortFree>:
 800590c:	b508      	push	{r3, lr}
 800590e:	b1e8      	cbz	r0, 800594c <vPortFree+0x40>
 8005910:	4a0f      	ldr	r2, [pc, #60]	; (8005950 <vPortFree+0x44>)
 8005912:	f850 3c04 	ldr.w	r3, [r0, #-4]
 8005916:	6812      	ldr	r2, [r2, #0]
 8005918:	4213      	tst	r3, r2
 800591a:	d100      	bne.n	800591e <vPortFree+0x12>
 800591c:	e7fe      	b.n	800591c <vPortFree+0x10>
 800591e:	f850 1c08 	ldr.w	r1, [r0, #-8]
 8005922:	b101      	cbz	r1, 8005926 <vPortFree+0x1a>
 8005924:	e7fe      	b.n	8005924 <vPortFree+0x18>
 8005926:	ea23 0302 	bic.w	r3, r3, r2
 800592a:	f840 3c04 	str.w	r3, [r0, #-4]
 800592e:	f7fe fe9f 	bl	8004670 <vTaskSuspendAll>
 8005932:	4a08      	ldr	r2, [pc, #32]	; (8005954 <vPortFree+0x48>)
 8005934:	f850 3c04 	ldr.w	r3, [r0, #-4]
 8005938:	6811      	ldr	r1, [r2, #0]
 800593a:	3808      	subs	r0, #8
 800593c:	440b      	add	r3, r1
 800593e:	6013      	str	r3, [r2, #0]
 8005940:	f7fe fe72 	bl	8004628 <prvInsertBlockIntoFreeList>
 8005944:	e8bd 4008 	ldmia.w	sp!, {r3, lr}
 8005948:	f7ff bedc 	b.w	8005704 <xTaskResumeAll>
 800594c:	bd08      	pop	{r3, pc}
 800594e:	bf00      	nop
 8005950:	20001378 	.word	0x20001378
 8005954:	200013a4 	.word	0x200013a4

08005958 <prvDeleteTCB>:
 8005958:	b510      	push	{r4, lr}
 800595a:	f890 3065 	ldrb.w	r3, [r0, #101]	; 0x65
 800595e:	4604      	mov	r4, r0
 8005960:	b93b      	cbnz	r3, 8005972 <prvDeleteTCB+0x1a>
 8005962:	6b00      	ldr	r0, [r0, #48]	; 0x30
 8005964:	f7ff ffd2 	bl	800590c <vPortFree>
 8005968:	4620      	mov	r0, r4
 800596a:	e8bd 4010 	ldmia.w	sp!, {r4, lr}
 800596e:	f7ff bfcd 	b.w	800590c <vPortFree>
 8005972:	2b01      	cmp	r3, #1
 8005974:	d0f9      	beq.n	800596a <prvDeleteTCB+0x12>
 8005976:	2b02      	cmp	r3, #2
 8005978:	d000      	beq.n	800597c <prvDeleteTCB+0x24>
 800597a:	e7fe      	b.n	800597a <prvDeleteTCB+0x22>
 800597c:	bd10      	pop	{r4, pc}
	...

08005980 <prvListTasksWithinSingleList>:
 8005980:	e92d 4ff7 	stmdb	sp!, {r0, r1, r2, r4, r5, r6, r7, r8, r9, sl, fp, lr}
 8005984:	f8d1 a000 	ldr.w	sl, [r1]
 8005988:	4604      	mov	r4, r0
 800598a:	460d      	mov	r5, r1
 800598c:	4617      	mov	r7, r2
 800598e:	f1ba 0f00 	cmp.w	sl, #0
 8005992:	d040      	beq.n	8005a16 <prvListTasksWithinSingleList+0x96>
 8005994:	f04f 0a00 	mov.w	sl, #0
 8005998:	684b      	ldr	r3, [r1, #4]
 800599a:	f101 0808 	add.w	r8, r1, #8
 800599e:	685b      	ldr	r3, [r3, #4]
 80059a0:	f8df 909c 	ldr.w	r9, [pc, #156]	; 8005a40 <prvListTasksWithinSingleList+0xc0>
 80059a4:	4543      	cmp	r3, r8
 80059a6:	604b      	str	r3, [r1, #4]
 80059a8:	bf04      	itt	eq
 80059aa:	68cb      	ldreq	r3, [r1, #12]
 80059ac:	604b      	streq	r3, [r1, #4]
 80059ae:	684b      	ldr	r3, [r1, #4]
 80059b0:	68db      	ldr	r3, [r3, #12]
 80059b2:	9301      	str	r3, [sp, #4]
 80059b4:	686a      	ldr	r2, [r5, #4]
 80059b6:	6852      	ldr	r2, [r2, #4]
 80059b8:	4590      	cmp	r8, r2
 80059ba:	606a      	str	r2, [r5, #4]
 80059bc:	bf04      	itt	eq
 80059be:	f8d8 2004 	ldreq.w	r2, [r8, #4]
 80059c2:	606a      	streq	r2, [r5, #4]
 80059c4:	686a      	ldr	r2, [r5, #4]
 80059c6:	f8d2 b00c 	ldr.w	fp, [r2, #12]
 80059ca:	f1bb 0f00 	cmp.w	fp, #0
 80059ce:	d126      	bne.n	8005a1e <prvListTasksWithinSingleList+0x9e>
 80059d0:	f8d9 6000 	ldr.w	r6, [r9]
 80059d4:	2300      	movs	r3, #0
 80059d6:	f106 0034 	add.w	r0, r6, #52	; 0x34
 80059da:	6060      	str	r0, [r4, #4]
 80059dc:	6af0      	ldr	r0, [r6, #44]	; 0x2c
 80059de:	6026      	str	r6, [r4, #0]
 80059e0:	6120      	str	r0, [r4, #16]
 80059e2:	6b30      	ldr	r0, [r6, #48]	; 0x30
 80059e4:	61e0      	str	r0, [r4, #28]
 80059e6:	6c70      	ldr	r0, [r6, #68]	; 0x44
 80059e8:	60a0      	str	r0, [r4, #8]
 80059ea:	6cf0      	ldr	r0, [r6, #76]	; 0x4c
 80059ec:	61a3      	str	r3, [r4, #24]
 80059ee:	6160      	str	r0, [r4, #20]
 80059f0:	f8d9 0000 	ldr.w	r0, [r9]
 80059f4:	4286      	cmp	r6, r0
 80059f6:	d114      	bne.n	8005a22 <prvListTasksWithinSingleList+0xa2>
 80059f8:	7323      	strb	r3, [r4, #12]
 80059fa:	2000      	movs	r0, #0
 80059fc:	6b33      	ldr	r3, [r6, #48]	; 0x30
 80059fe:	5c1e      	ldrb	r6, [r3, r0]
 8005a00:	2ea5      	cmp	r6, #165	; 0xa5
 8005a02:	d01b      	beq.n	8005a3c <prvListTasksWithinSingleList+0xbc>
 8005a04:	9b01      	ldr	r3, [sp, #4]
 8005a06:	0880      	lsrs	r0, r0, #2
 8005a08:	455b      	cmp	r3, fp
 8005a0a:	8420      	strh	r0, [r4, #32]
 8005a0c:	f10a 0a01 	add.w	sl, sl, #1
 8005a10:	f104 0424 	add.w	r4, r4, #36	; 0x24
 8005a14:	d1ce      	bne.n	80059b4 <prvListTasksWithinSingleList+0x34>
 8005a16:	4650      	mov	r0, sl
 8005a18:	b003      	add	sp, #12
 8005a1a:	e8bd 8ff0 	ldmia.w	sp!, {r4, r5, r6, r7, r8, r9, sl, fp, pc}
 8005a1e:	465e      	mov	r6, fp
 8005a20:	e7d8      	b.n	80059d4 <prvListTasksWithinSingleList+0x54>
 8005a22:	2f03      	cmp	r7, #3
 8005a24:	7327      	strb	r7, [r4, #12]
 8005a26:	d1e8      	bne.n	80059fa <prvListTasksWithinSingleList+0x7a>
 8005a28:	f7fe fe22 	bl	8004670 <vTaskSuspendAll>
 8005a2c:	6ab0      	ldr	r0, [r6, #40]	; 0x28
 8005a2e:	b110      	cbz	r0, 8005a36 <prvListTasksWithinSingleList+0xb6>
 8005a30:	f04f 0302 	mov.w	r3, #2
 8005a34:	7323      	strb	r3, [r4, #12]
 8005a36:	f7ff fe65 	bl	8005704 <xTaskResumeAll>
 8005a3a:	e7de      	b.n	80059fa <prvListTasksWithinSingleList+0x7a>
 8005a3c:	3001      	adds	r0, #1
 8005a3e:	e7de      	b.n	80059fe <prvListTasksWithinSingleList+0x7e>
 8005a40:	200011a8 	.word	0x200011a8

08005a44 <xPortSysTickHandler>:
 8005a44:	b508      	push	{r3, lr}
 8005a46:	f7fe fe75 	bl	8004734 <vPortEnterCritical>
 8005a4a:	f7ff fdd1 	bl	80055f0 <xTaskIncrementTick>
 8005a4e:	b148      	cbz	r0, 8005a64 <xPortSysTickHandler+0x20>
 8005a50:	f04f 23e0 	mov.w	r3, #3758153728	; 0xe000e000
 8005a54:	4a05      	ldr	r2, [pc, #20]	; (8005a6c <xPortSysTickHandler+0x28>)
 8005a56:	f8d3 1d20 	ldr.w	r1, [r3, #3360]	; 0xd20
 8005a5a:	6011      	str	r1, [r2, #0]
 8005a5c:	f04f 5280 	mov.w	r2, #268435456	; 0x10000000
 8005a60:	f8c3 2d04 	str.w	r2, [r3, #3332]	; 0xd04
 8005a64:	e8bd 4008 	ldmia.w	sp!, {r3, lr}
 8005a68:	f7ff b87c 	b.w	8004b64 <vPortExitCritical>
 8005a6c:	2000134c 	.word	0x2000134c

08005a70 <xTaskRemoveFromEventList>:
 8005a70:	b538      	push	{r3, r4, r5, lr}
 8005a72:	68c3      	ldr	r3, [r0, #12]
 8005a74:	68dc      	ldr	r4, [r3, #12]
 8005a76:	b904      	cbnz	r4, 8005a7a <xTaskRemoveFromEventList+0xa>
 8005a78:	e7fe      	b.n	8005a78 <xTaskRemoveFromEventList+0x8>
 8005a7a:	f104 0518 	add.w	r5, r4, #24
 8005a7e:	4628      	mov	r0, r5
 8005a80:	f7ff fd43 	bl	800550a <uxListRemove>
 8005a84:	4b12      	ldr	r3, [pc, #72]	; (8005ad0 <xTaskRemoveFromEventList+0x60>)
 8005a86:	681b      	ldr	r3, [r3, #0]
 8005a88:	b9f3      	cbnz	r3, 8005ac8 <xTaskRemoveFromEventList+0x58>
 8005a8a:	1d25      	adds	r5, r4, #4
 8005a8c:	4628      	mov	r0, r5
 8005a8e:	f7ff fd3c 	bl	800550a <uxListRemove>
 8005a92:	2301      	movs	r3, #1
 8005a94:	490f      	ldr	r1, [pc, #60]	; (8005ad4 <xTaskRemoveFromEventList+0x64>)
 8005a96:	6ae2      	ldr	r2, [r4, #44]	; 0x2c
 8005a98:	6808      	ldr	r0, [r1, #0]
 8005a9a:	4093      	lsls	r3, r2
 8005a9c:	4303      	orrs	r3, r0
 8005a9e:	2014      	movs	r0, #20
 8005aa0:	600b      	str	r3, [r1, #0]
 8005aa2:	4629      	mov	r1, r5
 8005aa4:	4b0c      	ldr	r3, [pc, #48]	; (8005ad8 <xTaskRemoveFromEventList+0x68>)
 8005aa6:	fb00 3002 	mla	r0, r0, r2, r3
 8005aaa:	f7ff fc56 	bl	800535a <vListInsertEnd>
 8005aae:	4b0b      	ldr	r3, [pc, #44]	; (8005adc <xTaskRemoveFromEventList+0x6c>)
 8005ab0:	6ae2      	ldr	r2, [r4, #44]	; 0x2c
 8005ab2:	681b      	ldr	r3, [r3, #0]
 8005ab4:	6adb      	ldr	r3, [r3, #44]	; 0x2c
 8005ab6:	429a      	cmp	r2, r3
 8005ab8:	bf85      	ittet	hi
 8005aba:	2001      	movhi	r0, #1
 8005abc:	4b08      	ldrhi	r3, [pc, #32]	; (8005ae0 <xTaskRemoveFromEventList+0x70>)
 8005abe:	2000      	movls	r0, #0
 8005ac0:	6018      	strhi	r0, [r3, #0]
 8005ac2:	f7fe fdfb 	bl	80046bc <prvResetNextTaskUnblockTime>
 8005ac6:	bd38      	pop	{r3, r4, r5, pc}
 8005ac8:	4629      	mov	r1, r5
 8005aca:	4806      	ldr	r0, [pc, #24]	; (8005ae4 <xTaskRemoveFromEventList+0x74>)
 8005acc:	e7ed      	b.n	8005aaa <xTaskRemoveFromEventList+0x3a>
 8005ace:	bf00      	nop
 8005ad0:	2000136c 	.word	0x2000136c
 8005ad4:	20001374 	.word	0x20001374
 8005ad8:	200011b8 	.word	0x200011b8
 8005adc:	200011a8 	.word	0x200011a8
 8005ae0:	2000164c 	.word	0x2000164c
 8005ae4:	20001600 	.word	0x20001600

08005ae8 <prvUnlockQueue>:
 8005ae8:	e92d 41f0 	stmdb	sp!, {r4, r5, r6, r7, r8, lr}
 8005aec:	4604      	mov	r4, r0
 8005aee:	f04f 0801 	mov.w	r8, #1
 8005af2:	f7fe fe1f 	bl	8004734 <vPortEnterCritical>
 8005af6:	f890 5045 	ldrb.w	r5, [r0, #69]	; 0x45
 8005afa:	4f1b      	ldr	r7, [pc, #108]	; (8005b68 <prvUnlockQueue+0x80>)
 8005afc:	b26d      	sxtb	r5, r5
 8005afe:	f100 0624 	add.w	r6, r0, #36	; 0x24
 8005b02:	2d00      	cmp	r5, #0
 8005b04:	dc17      	bgt.n	8005b36 <prvUnlockQueue+0x4e>
 8005b06:	23ff      	movs	r3, #255	; 0xff
 8005b08:	f04f 0801 	mov.w	r8, #1
 8005b0c:	f884 3045 	strb.w	r3, [r4, #69]	; 0x45
 8005b10:	f7ff f828 	bl	8004b64 <vPortExitCritical>
 8005b14:	f7fe fe0e 	bl	8004734 <vPortEnterCritical>
 8005b18:	f894 5044 	ldrb.w	r5, [r4, #68]	; 0x44
 8005b1c:	4f12      	ldr	r7, [pc, #72]	; (8005b68 <prvUnlockQueue+0x80>)
 8005b1e:	b26d      	sxtb	r5, r5
 8005b20:	f104 0610 	add.w	r6, r4, #16
 8005b24:	2d00      	cmp	r5, #0
 8005b26:	dc12      	bgt.n	8005b4e <prvUnlockQueue+0x66>
 8005b28:	23ff      	movs	r3, #255	; 0xff
 8005b2a:	f884 3044 	strb.w	r3, [r4, #68]	; 0x44
 8005b2e:	e8bd 41f0 	ldmia.w	sp!, {r4, r5, r6, r7, r8, lr}
 8005b32:	f7ff b817 	b.w	8004b64 <vPortExitCritical>
 8005b36:	6a63      	ldr	r3, [r4, #36]	; 0x24
 8005b38:	2b00      	cmp	r3, #0
 8005b3a:	d0e4      	beq.n	8005b06 <prvUnlockQueue+0x1e>
 8005b3c:	4630      	mov	r0, r6
 8005b3e:	f7ff ff97 	bl	8005a70 <xTaskRemoveFromEventList>
 8005b42:	b108      	cbz	r0, 8005b48 <prvUnlockQueue+0x60>
 8005b44:	f8c7 8000 	str.w	r8, [r7]
 8005b48:	3d01      	subs	r5, #1
 8005b4a:	b26d      	sxtb	r5, r5
 8005b4c:	e7d9      	b.n	8005b02 <prvUnlockQueue+0x1a>
 8005b4e:	6923      	ldr	r3, [r4, #16]
 8005b50:	2b00      	cmp	r3, #0
 8005b52:	d0e9      	beq.n	8005b28 <prvUnlockQueue+0x40>
 8005b54:	4630      	mov	r0, r6
 8005b56:	f7ff ff8b 	bl	8005a70 <xTaskRemoveFromEventList>
 8005b5a:	b108      	cbz	r0, 8005b60 <prvUnlockQueue+0x78>
 8005b5c:	f8c7 8000 	str.w	r8, [r7]
 8005b60:	3d01      	subs	r5, #1
 8005b62:	b26d      	sxtb	r5, r5
 8005b64:	e7de      	b.n	8005b24 <prvUnlockQueue+0x3c>
 8005b66:	bf00      	nop
 8005b68:	2000164c 	.word	0x2000164c

08005b6c <prvAddCurrentTaskToDelayedList>:
 8005b6c:	b5f8      	push	{r3, r4, r5, r6, r7, lr}
 8005b6e:	4b1a      	ldr	r3, [pc, #104]	; (8005bd8 <prvAddCurrentTaskToDelayedList+0x6c>)
 8005b70:	4d1a      	ldr	r5, [pc, #104]	; (8005bdc <prvAddCurrentTaskToDelayedList+0x70>)
 8005b72:	4606      	mov	r6, r0
 8005b74:	681c      	ldr	r4, [r3, #0]
 8005b76:	6828      	ldr	r0, [r5, #0]
 8005b78:	460f      	mov	r7, r1
 8005b7a:	3004      	adds	r0, #4
 8005b7c:	f7ff fcc5 	bl	800550a <uxListRemove>
 8005b80:	b940      	cbnz	r0, 8005b94 <prvAddCurrentTaskToDelayedList+0x28>
 8005b82:	682a      	ldr	r2, [r5, #0]
 8005b84:	4916      	ldr	r1, [pc, #88]	; (8005be0 <prvAddCurrentTaskToDelayedList+0x74>)
 8005b86:	6ad0      	ldr	r0, [r2, #44]	; 0x2c
 8005b88:	2201      	movs	r2, #1
 8005b8a:	680b      	ldr	r3, [r1, #0]
 8005b8c:	4082      	lsls	r2, r0
 8005b8e:	ea23 0302 	bic.w	r3, r3, r2
 8005b92:	600b      	str	r3, [r1, #0]
 8005b94:	1c73      	adds	r3, r6, #1
 8005b96:	d107      	bne.n	8005ba8 <prvAddCurrentTaskToDelayedList+0x3c>
 8005b98:	b137      	cbz	r7, 8005ba8 <prvAddCurrentTaskToDelayedList+0x3c>
 8005b9a:	6829      	ldr	r1, [r5, #0]
 8005b9c:	4811      	ldr	r0, [pc, #68]	; (8005be4 <prvAddCurrentTaskToDelayedList+0x78>)
 8005b9e:	3104      	adds	r1, #4
 8005ba0:	e8bd 40f8 	ldmia.w	sp!, {r3, r4, r5, r6, r7, lr}
 8005ba4:	f7ff bbd9 	b.w	800535a <vListInsertEnd>
 8005ba8:	682b      	ldr	r3, [r5, #0]
 8005baa:	19a4      	adds	r4, r4, r6
 8005bac:	605c      	str	r4, [r3, #4]
 8005bae:	d307      	bcc.n	8005bc0 <prvAddCurrentTaskToDelayedList+0x54>
 8005bb0:	4b0d      	ldr	r3, [pc, #52]	; (8005be8 <prvAddCurrentTaskToDelayedList+0x7c>)
 8005bb2:	6818      	ldr	r0, [r3, #0]
 8005bb4:	6829      	ldr	r1, [r5, #0]
 8005bb6:	e8bd 40f8 	ldmia.w	sp!, {r3, r4, r5, r6, r7, lr}
 8005bba:	3104      	adds	r1, #4
 8005bbc:	f7ff bc8e 	b.w	80054dc <vListInsert>
 8005bc0:	4b0a      	ldr	r3, [pc, #40]	; (8005bec <prvAddCurrentTaskToDelayedList+0x80>)
 8005bc2:	6818      	ldr	r0, [r3, #0]
 8005bc4:	6829      	ldr	r1, [r5, #0]
 8005bc6:	3104      	adds	r1, #4
 8005bc8:	f7ff fc88 	bl	80054dc <vListInsert>
 8005bcc:	4b08      	ldr	r3, [pc, #32]	; (8005bf0 <prvAddCurrentTaskToDelayedList+0x84>)
 8005bce:	681a      	ldr	r2, [r3, #0]
 8005bd0:	42a2      	cmp	r2, r4
 8005bd2:	bf88      	it	hi
 8005bd4:	601c      	strhi	r4, [r3, #0]
 8005bd6:	bdf8      	pop	{r3, r4, r5, r6, r7, pc}
 8005bd8:	20001648 	.word	0x20001648
 8005bdc:	200011a8 	.word	0x200011a8
 8005be0:	20001374 	.word	0x20001374
 8005be4:	20001620 	.word	0x20001620
 8005be8:	200011b4 	.word	0x200011b4
 8005bec:	200011ac 	.word	0x200011ac
 8005bf0:	200015f8 	.word	0x200015f8

08005bf4 <xQueueSemaphoreTake>:
 8005bf4:	e92d 47ff 	stmdb	sp!, {r0, r1, r2, r3, r4, r5, r6, r7, r8, r9, sl, lr}
 8005bf8:	4604      	mov	r4, r0
 8005bfa:	9101      	str	r1, [sp, #4]
 8005bfc:	b900      	cbnz	r0, 8005c00 <xQueueSemaphoreTake+0xc>
 8005bfe:	e7fe      	b.n	8005bfe <xQueueSemaphoreTake+0xa>
 8005c00:	6c05      	ldr	r5, [r0, #64]	; 0x40
 8005c02:	b105      	cbz	r5, 8005c06 <xQueueSemaphoreTake+0x12>
 8005c04:	e7fe      	b.n	8005c04 <xQueueSemaphoreTake+0x10>
 8005c06:	4628      	mov	r0, r5
 8005c08:	4f98      	ldr	r7, [pc, #608]	; (8005e6c <xQueueSemaphoreTake+0x278>)
 8005c0a:	4e99      	ldr	r6, [pc, #612]	; (8005e70 <xQueueSemaphoreTake+0x27c>)
 8005c0c:	e073      	b.n	8005cf6 <xQueueSemaphoreTake+0x102>
 8005c0e:	9b01      	ldr	r3, [sp, #4]
 8005c10:	b91b      	cbnz	r3, 8005c1a <xQueueSemaphoreTake+0x26>
 8005c12:	2d00      	cmp	r5, #0
 8005c14:	f000 8162 	beq.w	8005edc <xQueueSemaphoreTake+0x2e8>
 8005c18:	e7fe      	b.n	8005c18 <xQueueSemaphoreTake+0x24>
 8005c1a:	b920      	cbnz	r0, 8005c26 <xQueueSemaphoreTake+0x32>
 8005c1c:	683b      	ldr	r3, [r7, #0]
 8005c1e:	9302      	str	r3, [sp, #8]
 8005c20:	4b94      	ldr	r3, [pc, #592]	; (8005e74 <xQueueSemaphoreTake+0x280>)
 8005c22:	681b      	ldr	r3, [r3, #0]
 8005c24:	9303      	str	r3, [sp, #12]
 8005c26:	f7fe ff9d 	bl	8004b64 <vPortExitCritical>
 8005c2a:	f7fe fd21 	bl	8004670 <vTaskSuspendAll>
 8005c2e:	f7fe fd81 	bl	8004734 <vPortEnterCritical>
 8005c32:	f894 3044 	ldrb.w	r3, [r4, #68]	; 0x44
 8005c36:	a901      	add	r1, sp, #4
 8005c38:	2bff      	cmp	r3, #255	; 0xff
 8005c3a:	bf04      	itt	eq
 8005c3c:	2300      	moveq	r3, #0
 8005c3e:	f884 3044 	strbeq.w	r3, [r4, #68]	; 0x44
 8005c42:	f894 3045 	ldrb.w	r3, [r4, #69]	; 0x45
 8005c46:	a802      	add	r0, sp, #8
 8005c48:	2bff      	cmp	r3, #255	; 0xff
 8005c4a:	bf04      	itt	eq
 8005c4c:	2300      	moveq	r3, #0
 8005c4e:	f884 3045 	strbeq.w	r3, [r4, #69]	; 0x45
 8005c52:	f7fe ff87 	bl	8004b64 <vPortExitCritical>
 8005c56:	f7fe ffc9 	bl	8004bec <xTaskCheckForTimeOut>
 8005c5a:	2800      	cmp	r0, #0
 8005c5c:	f040 80da 	bne.w	8005e14 <xQueueSemaphoreTake+0x220>
 8005c60:	f7fe fd68 	bl	8004734 <vPortEnterCritical>
 8005c64:	6ba3      	ldr	r3, [r4, #56]	; 0x38
 8005c66:	2b00      	cmp	r3, #0
 8005c68:	d13d      	bne.n	8005ce6 <xQueueSemaphoreTake+0xf2>
 8005c6a:	f7fe ff7b 	bl	8004b64 <vPortExitCritical>
 8005c6e:	6823      	ldr	r3, [r4, #0]
 8005c70:	f8df 8204 	ldr.w	r8, [pc, #516]	; 8005e78 <xQueueSemaphoreTake+0x284>
 8005c74:	2b00      	cmp	r3, #0
 8005c76:	f040 8083 	bne.w	8005d80 <xQueueSemaphoreTake+0x18c>
 8005c7a:	f7fe fd5b 	bl	8004734 <vPortEnterCritical>
 8005c7e:	6865      	ldr	r5, [r4, #4]
 8005c80:	2d00      	cmp	r5, #0
 8005c82:	d07a      	beq.n	8005d7a <xQueueSemaphoreTake+0x186>
 8005c84:	f8d8 2000 	ldr.w	r2, [r8]
 8005c88:	6aeb      	ldr	r3, [r5, #44]	; 0x2c
 8005c8a:	6ad2      	ldr	r2, [r2, #44]	; 0x2c
 8005c8c:	4293      	cmp	r3, r2
 8005c8e:	f080 80b8 	bcs.w	8005e02 <xQueueSemaphoreTake+0x20e>
 8005c92:	f04f 0914 	mov.w	r9, #20
 8005c96:	69aa      	ldr	r2, [r5, #24]
 8005c98:	fb09 6303 	mla	r3, r9, r3, r6
 8005c9c:	2a00      	cmp	r2, #0
 8005c9e:	bfa1      	itttt	ge
 8005ca0:	f8d8 2000 	ldrge.w	r2, [r8]
 8005ca4:	6ad2      	ldrge	r2, [r2, #44]	; 0x2c
 8005ca6:	f1c2 0205 	rsbge	r2, r2, #5
 8005caa:	61aa      	strge	r2, [r5, #24]
 8005cac:	696a      	ldr	r2, [r5, #20]
 8005cae:	429a      	cmp	r2, r3
 8005cb0:	d15e      	bne.n	8005d70 <xQueueSemaphoreTake+0x17c>
 8005cb2:	f105 0a04 	add.w	sl, r5, #4
 8005cb6:	4650      	mov	r0, sl
 8005cb8:	f7ff fc27 	bl	800550a <uxListRemove>
 8005cbc:	4b6f      	ldr	r3, [pc, #444]	; (8005e7c <xQueueSemaphoreTake+0x288>)
 8005cbe:	2800      	cmp	r0, #0
 8005cc0:	f000 8090 	beq.w	8005de4 <xQueueSemaphoreTake+0x1f0>
 8005cc4:	f8d8 2000 	ldr.w	r2, [r8]
 8005cc8:	6818      	ldr	r0, [r3, #0]
 8005cca:	6ad2      	ldr	r2, [r2, #44]	; 0x2c
 8005ccc:	62ea      	str	r2, [r5, #44]	; 0x2c
 8005cce:	2501      	movs	r5, #1
 8005cd0:	fa05 f102 	lsl.w	r1, r5, r2
 8005cd4:	4301      	orrs	r1, r0
 8005cd6:	2014      	movs	r0, #20
 8005cd8:	6019      	str	r1, [r3, #0]
 8005cda:	fb00 6002 	mla	r0, r0, r2, r6
 8005cde:	4651      	mov	r1, sl
 8005ce0:	f7ff fb3b 	bl	800535a <vListInsertEnd>
 8005ce4:	e048      	b.n	8005d78 <xQueueSemaphoreTake+0x184>
 8005ce6:	4620      	mov	r0, r4
 8005ce8:	f7fe ff3c 	bl	8004b64 <vPortExitCritical>
 8005cec:	f7ff fefc 	bl	8005ae8 <prvUnlockQueue>
 8005cf0:	f7ff fd08 	bl	8005704 <xTaskResumeAll>
 8005cf4:	2001      	movs	r0, #1
 8005cf6:	f7fe fd1d 	bl	8004734 <vPortEnterCritical>
 8005cfa:	6ba3      	ldr	r3, [r4, #56]	; 0x38
 8005cfc:	2b00      	cmp	r3, #0
 8005cfe:	d086      	beq.n	8005c0e <xQueueSemaphoreTake+0x1a>
 8005d00:	3b01      	subs	r3, #1
 8005d02:	63a3      	str	r3, [r4, #56]	; 0x38
 8005d04:	6823      	ldr	r3, [r4, #0]
 8005d06:	b943      	cbnz	r3, 8005d1a <xQueueSemaphoreTake+0x126>
 8005d08:	4b5b      	ldr	r3, [pc, #364]	; (8005e78 <xQueueSemaphoreTake+0x284>)
 8005d0a:	681a      	ldr	r2, [r3, #0]
 8005d0c:	b11a      	cbz	r2, 8005d16 <xQueueSemaphoreTake+0x122>
 8005d0e:	6819      	ldr	r1, [r3, #0]
 8005d10:	6d0a      	ldr	r2, [r1, #80]	; 0x50
 8005d12:	3201      	adds	r2, #1
 8005d14:	650a      	str	r2, [r1, #80]	; 0x50
 8005d16:	681b      	ldr	r3, [r3, #0]
 8005d18:	6063      	str	r3, [r4, #4]
 8005d1a:	6923      	ldr	r3, [r4, #16]
 8005d1c:	b30b      	cbz	r3, 8005d62 <xQueueSemaphoreTake+0x16e>
 8005d1e:	f104 0010 	add.w	r0, r4, #16
 8005d22:	f7ff fea5 	bl	8005a70 <xTaskRemoveFromEventList>
 8005d26:	b1e0      	cbz	r0, 8005d62 <xQueueSemaphoreTake+0x16e>
 8005d28:	f04f 23e0 	mov.w	r3, #3758153728	; 0xe000e000
 8005d2c:	4a54      	ldr	r2, [pc, #336]	; (8005e80 <xQueueSemaphoreTake+0x28c>)
 8005d2e:	f8d3 1d20 	ldr.w	r1, [r3, #3360]	; 0xd20
 8005d32:	6011      	str	r1, [r2, #0]
 8005d34:	4a53      	ldr	r2, [pc, #332]	; (8005e84 <xQueueSemaphoreTake+0x290>)
 8005d36:	6812      	ldr	r2, [r2, #0]
 8005d38:	b14a      	cbz	r2, 8005d4e <xQueueSemaphoreTake+0x15a>
 8005d3a:	f8d3 2d20 	ldr.w	r2, [r3, #3360]	; 0xd20
 8005d3e:	f422 027f 	bic.w	r2, r2, #16711680	; 0xff0000
 8005d42:	f8c3 2d20 	str.w	r2, [r3, #3360]	; 0xd20
 8005d46:	f8d3 2d20 	ldr.w	r2, [r3, #3360]	; 0xd20
 8005d4a:	f8c3 2d20 	str.w	r2, [r3, #3360]	; 0xd20
 8005d4e:	f04f 23e0 	mov.w	r3, #3758153728	; 0xe000e000
 8005d52:	f04f 5280 	mov.w	r2, #268435456	; 0x10000000
 8005d56:	f8c3 2d04 	str.w	r2, [r3, #3332]	; 0xd04
 8005d5a:	f3bf 8f4f 	dsb	sy
 8005d5e:	f3bf 8f6f 	isb	sy
 8005d62:	f7fe feff 	bl	8004b64 <vPortExitCritical>
 8005d66:	2501      	movs	r5, #1
 8005d68:	4628      	mov	r0, r5
 8005d6a:	b004      	add	sp, #16
 8005d6c:	e8bd 87f0 	ldmia.w	sp!, {r4, r5, r6, r7, r8, r9, sl, pc}
 8005d70:	f8d8 3000 	ldr.w	r3, [r8]
 8005d74:	6adb      	ldr	r3, [r3, #44]	; 0x2c
 8005d76:	62eb      	str	r3, [r5, #44]	; 0x2c
 8005d78:	2001      	movs	r0, #1
 8005d7a:	f7fe fef3 	bl	8004b64 <vPortExitCritical>
 8005d7e:	4605      	mov	r5, r0
 8005d80:	f8d8 1000 	ldr.w	r1, [r8]
 8005d84:	f8dd 9004 	ldr.w	r9, [sp, #4]
 8005d88:	3118      	adds	r1, #24
 8005d8a:	f104 0024 	add.w	r0, r4, #36	; 0x24
 8005d8e:	f7ff fba5 	bl	80054dc <vListInsert>
 8005d92:	2101      	movs	r1, #1
 8005d94:	4648      	mov	r0, r9
 8005d96:	f7ff fee9 	bl	8005b6c <prvAddCurrentTaskToDelayedList>
 8005d9a:	4620      	mov	r0, r4
 8005d9c:	f7ff fea4 	bl	8005ae8 <prvUnlockQueue>
 8005da0:	f7ff fcb0 	bl	8005704 <xTaskResumeAll>
 8005da4:	2800      	cmp	r0, #0
 8005da6:	d1a5      	bne.n	8005cf4 <xQueueSemaphoreTake+0x100>
 8005da8:	f04f 23e0 	mov.w	r3, #3758153728	; 0xe000e000
 8005dac:	4a34      	ldr	r2, [pc, #208]	; (8005e80 <xQueueSemaphoreTake+0x28c>)
 8005dae:	f8d3 1d20 	ldr.w	r1, [r3, #3360]	; 0xd20
 8005db2:	6011      	str	r1, [r2, #0]
 8005db4:	4a33      	ldr	r2, [pc, #204]	; (8005e84 <xQueueSemaphoreTake+0x290>)
 8005db6:	6812      	ldr	r2, [r2, #0]
 8005db8:	b14a      	cbz	r2, 8005dce <xQueueSemaphoreTake+0x1da>
 8005dba:	f8d3 2d20 	ldr.w	r2, [r3, #3360]	; 0xd20
 8005dbe:	f422 027f 	bic.w	r2, r2, #16711680	; 0xff0000
 8005dc2:	f8c3 2d20 	str.w	r2, [r3, #3360]	; 0xd20
 8005dc6:	f8d3 2d20 	ldr.w	r2, [r3, #3360]	; 0xd20
 8005dca:	f8c3 2d20 	str.w	r2, [r3, #3360]	; 0xd20
 8005dce:	f04f 23e0 	mov.w	r3, #3758153728	; 0xe000e000
 8005dd2:	f04f 5280 	mov.w	r2, #268435456	; 0x10000000
 8005dd6:	f8c3 2d04 	str.w	r2, [r3, #3332]	; 0xd04
 8005dda:	f3bf 8f4f 	dsb	sy
 8005dde:	f3bf 8f6f 	isb	sy
 8005de2:	e787      	b.n	8005cf4 <xQueueSemaphoreTake+0x100>
 8005de4:	6ae8      	ldr	r0, [r5, #44]	; 0x2c
 8005de6:	fb09 f900 	mul.w	r9, r9, r0
 8005dea:	f856 2009 	ldr.w	r2, [r6, r9]
 8005dee:	2a00      	cmp	r2, #0
 8005df0:	f47f af68 	bne.w	8005cc4 <xQueueSemaphoreTake+0xd0>
 8005df4:	2101      	movs	r1, #1
 8005df6:	681a      	ldr	r2, [r3, #0]
 8005df8:	4081      	lsls	r1, r0
 8005dfa:	ea22 0201 	bic.w	r2, r2, r1
 8005dfe:	601a      	str	r2, [r3, #0]
 8005e00:	e760      	b.n	8005cc4 <xQueueSemaphoreTake+0xd0>
 8005e02:	f8d8 3000 	ldr.w	r3, [r8]
 8005e06:	6ce8      	ldr	r0, [r5, #76]	; 0x4c
 8005e08:	6adb      	ldr	r3, [r3, #44]	; 0x2c
 8005e0a:	4298      	cmp	r0, r3
 8005e0c:	bf2c      	ite	cs
 8005e0e:	2000      	movcs	r0, #0
 8005e10:	2001      	movcc	r0, #1
 8005e12:	e7b2      	b.n	8005d7a <xQueueSemaphoreTake+0x186>
 8005e14:	4620      	mov	r0, r4
 8005e16:	f7ff fe67 	bl	8005ae8 <prvUnlockQueue>
 8005e1a:	f7ff fc73 	bl	8005704 <xTaskResumeAll>
 8005e1e:	f7fe fc89 	bl	8004734 <vPortEnterCritical>
 8005e22:	6ba3      	ldr	r3, [r4, #56]	; 0x38
 8005e24:	b113      	cbz	r3, 8005e2c <xQueueSemaphoreTake+0x238>
 8005e26:	f7fe fe9d 	bl	8004b64 <vPortExitCritical>
 8005e2a:	e763      	b.n	8005cf4 <xQueueSemaphoreTake+0x100>
 8005e2c:	f7fe fe9a 	bl	8004b64 <vPortExitCritical>
 8005e30:	2d00      	cmp	r5, #0
 8005e32:	d099      	beq.n	8005d68 <xQueueSemaphoreTake+0x174>
 8005e34:	f7fe fc7e 	bl	8004734 <vPortEnterCritical>
 8005e38:	6a63      	ldr	r3, [r4, #36]	; 0x24
 8005e3a:	b11b      	cbz	r3, 8005e44 <xQueueSemaphoreTake+0x250>
 8005e3c:	6b23      	ldr	r3, [r4, #48]	; 0x30
 8005e3e:	681b      	ldr	r3, [r3, #0]
 8005e40:	f1c3 0305 	rsb	r3, r3, #5
 8005e44:	6864      	ldr	r4, [r4, #4]
 8005e46:	2c00      	cmp	r4, #0
 8005e48:	d048      	beq.n	8005edc <xQueueSemaphoreTake+0x2e8>
 8005e4a:	6d21      	ldr	r1, [r4, #80]	; 0x50
 8005e4c:	b901      	cbnz	r1, 8005e50 <xQueueSemaphoreTake+0x25c>
 8005e4e:	e7fe      	b.n	8005e4e <xQueueSemaphoreTake+0x25a>
 8005e50:	6ce2      	ldr	r2, [r4, #76]	; 0x4c
 8005e52:	4293      	cmp	r3, r2
 8005e54:	bf38      	it	cc
 8005e56:	4613      	movcc	r3, r2
 8005e58:	6ae2      	ldr	r2, [r4, #44]	; 0x2c
 8005e5a:	4293      	cmp	r3, r2
 8005e5c:	d03e      	beq.n	8005edc <xQueueSemaphoreTake+0x2e8>
 8005e5e:	2901      	cmp	r1, #1
 8005e60:	d13c      	bne.n	8005edc <xQueueSemaphoreTake+0x2e8>
 8005e62:	4905      	ldr	r1, [pc, #20]	; (8005e78 <xQueueSemaphoreTake+0x284>)
 8005e64:	6809      	ldr	r1, [r1, #0]
 8005e66:	428c      	cmp	r4, r1
 8005e68:	d10e      	bne.n	8005e88 <xQueueSemaphoreTake+0x294>
 8005e6a:	e7fe      	b.n	8005e6a <xQueueSemaphoreTake+0x276>
 8005e6c:	200015fc 	.word	0x200015fc
 8005e70:	200011b8 	.word	0x200011b8
 8005e74:	20001648 	.word	0x20001648
 8005e78:	200011a8 	.word	0x200011a8
 8005e7c:	20001374 	.word	0x20001374
 8005e80:	2000134c 	.word	0x2000134c
 8005e84:	20001358 	.word	0x20001358
 8005e88:	2614      	movs	r6, #20
 8005e8a:	69a1      	ldr	r1, [r4, #24]
 8005e8c:	4f15      	ldr	r7, [pc, #84]	; (8005ee4 <xQueueSemaphoreTake+0x2f0>)
 8005e8e:	2900      	cmp	r1, #0
 8005e90:	fb06 7202 	mla	r2, r6, r2, r7
 8005e94:	62e3      	str	r3, [r4, #44]	; 0x2c
 8005e96:	bfa4      	itt	ge
 8005e98:	f1c3 0305 	rsbge	r3, r3, #5
 8005e9c:	61a3      	strge	r3, [r4, #24]
 8005e9e:	6963      	ldr	r3, [r4, #20]
 8005ea0:	4293      	cmp	r3, r2
 8005ea2:	d11b      	bne.n	8005edc <xQueueSemaphoreTake+0x2e8>
 8005ea4:	f104 0804 	add.w	r8, r4, #4
 8005ea8:	4640      	mov	r0, r8
 8005eaa:	f7ff fb2e 	bl	800550a <uxListRemove>
 8005eae:	4d0e      	ldr	r5, [pc, #56]	; (8005ee8 <xQueueSemaphoreTake+0x2f4>)
 8005eb0:	6ae2      	ldr	r2, [r4, #44]	; 0x2c
 8005eb2:	b940      	cbnz	r0, 8005ec6 <xQueueSemaphoreTake+0x2d2>
 8005eb4:	4356      	muls	r6, r2
 8005eb6:	59bb      	ldr	r3, [r7, r6]
 8005eb8:	b92b      	cbnz	r3, 8005ec6 <xQueueSemaphoreTake+0x2d2>
 8005eba:	2101      	movs	r1, #1
 8005ebc:	682b      	ldr	r3, [r5, #0]
 8005ebe:	4091      	lsls	r1, r2
 8005ec0:	ea23 0301 	bic.w	r3, r3, r1
 8005ec4:	602b      	str	r3, [r5, #0]
 8005ec6:	2301      	movs	r3, #1
 8005ec8:	2014      	movs	r0, #20
 8005eca:	6829      	ldr	r1, [r5, #0]
 8005ecc:	4093      	lsls	r3, r2
 8005ece:	430b      	orrs	r3, r1
 8005ed0:	fb00 7002 	mla	r0, r0, r2, r7
 8005ed4:	4641      	mov	r1, r8
 8005ed6:	602b      	str	r3, [r5, #0]
 8005ed8:	f7ff fa3f 	bl	800535a <vListInsertEnd>
 8005edc:	f7fe fe42 	bl	8004b64 <vPortExitCritical>
 8005ee0:	2500      	movs	r5, #0
 8005ee2:	e741      	b.n	8005d68 <xQueueSemaphoreTake+0x174>
 8005ee4:	200011b8 	.word	0x200011b8
 8005ee8:	20001374 	.word	0x20001374

08005eec <i2cAcquireBus>:
 *
 * @param[in] i2cp      pointer to the @p I2CDriver object
 *
 * @api
 */
void i2cAcquireBus(I2CDriver *i2cp) {
 8005eec:	b508      	push	{r3, lr}

  osalDbgCheck(i2cp != NULL);
 8005eee:	b910      	cbnz	r0, 8005ef6 <i2cAcquireBus+0xa>
 8005ef0:	f7fe fc30 	bl	8004754 <vTaskEndScheduler>
 8005ef4:	e7fe      	b.n	8005ef4 <i2cAcquireBus+0x8>
}

static inline void osalMutexLock(mutex_t* mutex)
{
    osalDbgCheck(mutex != NULL);
    xSemaphoreTake(mutex->handle, portMAX_DELAY);
 8005ef6:	f04f 31ff 	mov.w	r1, #4294967295	; 0xffffffff

  osalMutexLock(&i2cp->mutex);
}
 8005efa:	e8bd 4008 	ldmia.w	sp!, {r3, lr}
 8005efe:	68c0      	ldr	r0, [r0, #12]
 8005f00:	f7ff be78 	b.w	8005bf4 <xQueueSemaphoreTake>

08005f04 <vTaskDelay>:
 8005f04:	b508      	push	{r3, lr}
 8005f06:	b998      	cbnz	r0, 8005f30 <vTaskDelay+0x2c>
 8005f08:	f04f 23e0 	mov.w	r3, #3758153728	; 0xe000e000
 8005f0c:	4a14      	ldr	r2, [pc, #80]	; (8005f60 <vTaskDelay+0x5c>)
 8005f0e:	f8d3 1d20 	ldr.w	r1, [r3, #3360]	; 0xd20
 8005f12:	6011      	str	r1, [r2, #0]
 8005f14:	4a13      	ldr	r2, [pc, #76]	; (8005f64 <vTaskDelay+0x60>)
 8005f16:	6812      	ldr	r2, [r2, #0]
 8005f18:	b9ba      	cbnz	r2, 8005f4a <vTaskDelay+0x46>
 8005f1a:	f04f 23e0 	mov.w	r3, #3758153728	; 0xe000e000
 8005f1e:	f04f 5280 	mov.w	r2, #268435456	; 0x10000000
 8005f22:	f8c3 2d04 	str.w	r2, [r3, #3332]	; 0xd04
 8005f26:	f3bf 8f4f 	dsb	sy
 8005f2a:	f3bf 8f6f 	isb	sy
 8005f2e:	e00b      	b.n	8005f48 <vTaskDelay+0x44>
 8005f30:	4b0d      	ldr	r3, [pc, #52]	; (8005f68 <vTaskDelay+0x64>)
 8005f32:	6819      	ldr	r1, [r3, #0]
 8005f34:	b101      	cbz	r1, 8005f38 <vTaskDelay+0x34>
 8005f36:	e7fe      	b.n	8005f36 <vTaskDelay+0x32>
 8005f38:	f7fe fb9a 	bl	8004670 <vTaskSuspendAll>
 8005f3c:	f7ff fe16 	bl	8005b6c <prvAddCurrentTaskToDelayedList>
 8005f40:	f7ff fbe0 	bl	8005704 <xTaskResumeAll>
 8005f44:	2800      	cmp	r0, #0
 8005f46:	d0df      	beq.n	8005f08 <vTaskDelay+0x4>
 8005f48:	bd08      	pop	{r3, pc}
 8005f4a:	f8d3 2d20 	ldr.w	r2, [r3, #3360]	; 0xd20
 8005f4e:	f422 027f 	bic.w	r2, r2, #16711680	; 0xff0000
 8005f52:	f8c3 2d20 	str.w	r2, [r3, #3360]	; 0xd20
 8005f56:	f8d3 2d20 	ldr.w	r2, [r3, #3360]	; 0xd20
 8005f5a:	f8c3 2d20 	str.w	r2, [r3, #3360]	; 0xd20
 8005f5e:	e7dc      	b.n	8005f1a <vTaskDelay+0x16>
 8005f60:	2000134c 	.word	0x2000134c
 8005f64:	20001358 	.word	0x20001358
 8005f68:	2000136c 	.word	0x2000136c

08005f6c <packetQueueReadByte.constprop.0>:

#include "packetqueue.h"

static uint8_t packetQueueReadByte(PacketQueue_t* queue)
{
    uint8_t retVal = queue->buffer[queue->readPtr];
 8005f6c:	4b05      	ldr	r3, [pc, #20]	; (8005f84 <packetQueueReadByte.constprop.0+0x18>)
 8005f6e:	689a      	ldr	r2, [r3, #8]
 8005f70:	6819      	ldr	r1, [r3, #0]
 8005f72:	5c88      	ldrb	r0, [r1, r2]

    queue->readPtr++;
    if(queue->readPtr >= queue->bufferSize) {
 8005f74:	6859      	ldr	r1, [r3, #4]
    queue->readPtr++;
 8005f76:	3201      	adds	r2, #1
    if(queue->readPtr >= queue->bufferSize) {
 8005f78:	428a      	cmp	r2, r1
    queue->readPtr++;
 8005f7a:	609a      	str	r2, [r3, #8]
        queue->readPtr = 0;
 8005f7c:	bf24      	itt	cs
 8005f7e:	2200      	movcs	r2, #0
 8005f80:	609a      	strcs	r2, [r3, #8]
    }

    return retVal;
}
 8005f82:	4770      	bx	lr
 8005f84:	20001310 	.word	0x20001310

08005f88 <packetQueueWriteByte.constprop.0>:

static void packetQueueWriteByte(PacketQueue_t* queue, uint8_t byte)
 8005f88:	b570      	push	{r4, r5, r6, lr}
{
    if(queue->pktCount && queue->writePtr == queue->readPtr) {
 8005f8a:	4c15      	ldr	r4, [pc, #84]	; (8005fe0 <packetQueueWriteByte.constprop.0+0x58>)
static void packetQueueWriteByte(PacketQueue_t* queue, uint8_t byte)
 8005f8c:	4605      	mov	r5, r0
    if(queue->pktCount && queue->writePtr == queue->readPtr) {
 8005f8e:	8aa3      	ldrh	r3, [r4, #20]
 8005f90:	b1cb      	cbz	r3, 8005fc6 <packetQueueWriteByte.constprop.0+0x3e>
 8005f92:	68a2      	ldr	r2, [r4, #8]
 8005f94:	6923      	ldr	r3, [r4, #16]
 8005f96:	429a      	cmp	r2, r3
 8005f98:	d115      	bne.n	8005fc6 <packetQueueWriteByte.constprop.0+0x3e>
        /* We are about to overwrite a packet, so discard it */
        uint16_t dropPktLen = (packetQueueReadByte(queue) << 8) |
 8005f9a:	f7ff ffe7 	bl	8005f6c <packetQueueReadByte.constprop.0>
 8005f9e:	4606      	mov	r6, r0
                              (packetQueueReadByte(queue));
 8005fa0:	f7ff ffe4 	bl	8005f6c <packetQueueReadByte.constprop.0>
        uint16_t dropPktLen = (packetQueueReadByte(queue) << 8) |
 8005fa4:	ea40 2306 	orr.w	r3, r0, r6, lsl #8
        queue->readPtr += dropPktLen;
 8005fa8:	68a0      	ldr	r0, [r4, #8]
        if(queue->readPtr >= queue->bufferSize) {
 8005faa:	6862      	ldr	r2, [r4, #4]
        queue->readPtr += dropPktLen;
 8005fac:	b29b      	uxth	r3, r3
 8005fae:	4403      	add	r3, r0
        if(queue->readPtr >= queue->bufferSize) {
 8005fb0:	4293      	cmp	r3, r2
        queue->readPtr += dropPktLen;
 8005fb2:	60a3      	str	r3, [r4, #8]
            queue->readPtr -= queue->bufferSize;
 8005fb4:	bf24      	itt	cs
 8005fb6:	1a9b      	subcs	r3, r3, r2
 8005fb8:	60a3      	strcs	r3, [r4, #8]
        }
        queue->pktCount--;
 8005fba:	8aa3      	ldrh	r3, [r4, #20]
 8005fbc:	3b01      	subs	r3, #1
 8005fbe:	82a3      	strh	r3, [r4, #20]
        queue->numDropped++;
 8005fc0:	6a23      	ldr	r3, [r4, #32]
 8005fc2:	3301      	adds	r3, #1
 8005fc4:	6223      	str	r3, [r4, #32]
    }

    queue->buffer[queue->writePtr] = byte;
 8005fc6:	6923      	ldr	r3, [r4, #16]
 8005fc8:	6822      	ldr	r2, [r4, #0]
 8005fca:	54d5      	strb	r5, [r2, r3]

    queue->writePtr++;
 8005fcc:	6923      	ldr	r3, [r4, #16]
    if(queue->writePtr >= queue->bufferSize) {
 8005fce:	6862      	ldr	r2, [r4, #4]
    queue->writePtr++;
 8005fd0:	3301      	adds	r3, #1
    if(queue->writePtr >= queue->bufferSize) {
 8005fd2:	4293      	cmp	r3, r2
    queue->writePtr++;
 8005fd4:	6123      	str	r3, [r4, #16]
        queue->writePtr = 0;
 8005fd6:	bf24      	itt	cs
 8005fd8:	2300      	movcs	r3, #0
 8005fda:	6123      	strcs	r3, [r4, #16]
    }
}
 8005fdc:	bd70      	pop	{r4, r5, r6, pc}
 8005fde:	bf00      	nop
 8005fe0:	20001310 	.word	0x20001310

08005fe4 <packetQueuePutBytes.constprop.0>:
    packetQueueWriteByte(queue, 0x00);
    packetQueueWriteByte(queue, 0x00);
    queue->pktLen = 0;
}

void packetQueuePutBytes(PacketQueue_t* queue, const uint8_t* payload, uint16_t size)
 8005fe4:	b570      	push	{r4, r5, r6, lr}
 8005fe6:	4606      	mov	r6, r0
 8005fe8:	460c      	mov	r4, r1
{
    for(uint32_t i=0; i<size; i++) {
 8005fea:	2500      	movs	r5, #0
 8005fec:	42a5      	cmp	r5, r4
 8005fee:	d304      	bcc.n	8005ffa <packetQueuePutBytes.constprop.0+0x16>
        packetQueueWriteByte(queue, payload[i]);
    }

    queue->pktLen += size;
 8005ff0:	4b04      	ldr	r3, [pc, #16]	; (8006004 <packetQueuePutBytes.constprop.0+0x20>)
 8005ff2:	6999      	ldr	r1, [r3, #24]
 8005ff4:	4421      	add	r1, r4
 8005ff6:	6199      	str	r1, [r3, #24]
}
 8005ff8:	bd70      	pop	{r4, r5, r6, pc}
        packetQueueWriteByte(queue, payload[i]);
 8005ffa:	5d70      	ldrb	r0, [r6, r5]
 8005ffc:	f7ff ffc4 	bl	8005f88 <packetQueueWriteByte.constprop.0>
    for(uint32_t i=0; i<size; i++) {
 8006000:	3501      	adds	r5, #1
 8006002:	e7f3      	b.n	8005fec <packetQueuePutBytes.constprop.0+0x8>
 8006004:	20001310 	.word	0x20001310

08006008 <syslogWrite>:
    packetQueueReset(&syslogQueue);
    xSemaphoreGive(syslogSemaphore);
}

static size_t syslogWrite(void *instance, const uint8_t *bp, size_t n)
{
 8006008:	b510      	push	{r4, lr}
 800600a:	4614      	mov	r4, r2
 800600c:	4608      	mov	r0, r1
    (void)instance;

    packetQueuePutBytes(&syslogQueue, bp, n);
 800600e:	b291      	uxth	r1, r2
 8006010:	f7ff ffe8 	bl	8005fe4 <packetQueuePutBytes.constprop.0>

    return n;
}
 8006014:	4620      	mov	r0, r4
 8006016:	bd10      	pop	{r4, pc}

08006018 <syslogPut>:

static msg_t syslogPut(void *instance, uint8_t b)
{
 8006018:	b507      	push	{r0, r1, r2, lr}
 800601a:	f88d 1007 	strb.w	r1, [sp, #7]
    (void)instance;

    packetQueuePutBytes(&syslogQueue, &b, 1);
 800601e:	f10d 0007 	add.w	r0, sp, #7
 8006022:	2101      	movs	r1, #1
 8006024:	f7ff ffde 	bl	8005fe4 <packetQueuePutBytes.constprop.0>

    return MSG_OK;
}
 8006028:	2000      	movs	r0, #0
 800602a:	b003      	add	sp, #12
 800602c:	f85d fb04 	ldr.w	pc, [sp], #4

08006030 <packetQueueEndWritePacket.constprop.0>:

void packetQueueEndWritePacket(PacketQueue_t* queue)
{
    /* Did we write more bytes than the ENTIRE queue? */
    if(queue->pktLen >= queue->bufferSize-2) {
 8006030:	4b13      	ldr	r3, [pc, #76]	; (8006080 <packetQueueEndWritePacket.constprop.0+0x50>)
 8006032:	685a      	ldr	r2, [r3, #4]
 8006034:	6999      	ldr	r1, [r3, #24]
 8006036:	3a02      	subs	r2, #2
 8006038:	4291      	cmp	r1, r2
 800603a:	d309      	bcc.n	8006050 <packetQueueEndWritePacket.constprop.0+0x20>
        queue->numDropped+=queue->pktCount+1;
 800603c:	6a1a      	ldr	r2, [r3, #32]
 800603e:	8a99      	ldrh	r1, [r3, #20]
 8006040:	3201      	adds	r2, #1
 8006042:	440a      	add	r2, r1
 8006044:	621a      	str	r2, [r3, #32]
        queue->pktCount = 0;
 8006046:	2200      	movs	r2, #0
 8006048:	829a      	strh	r2, [r3, #20]
        queue->readPtr = 0;
 800604a:	609a      	str	r2, [r3, #8]
        queue->writePtr = 0;
 800604c:	611a      	str	r2, [r3, #16]
 800604e:	4770      	bx	lr
        return;
    }

    /* Packet too long? */
    if(queue->pktLen > 0xffff) {
 8006050:	f5b1 3f80 	cmp.w	r1, #65536	; 0x10000
        queue->writePtr = queue->lenHeaderStart;
 8006054:	69da      	ldr	r2, [r3, #28]
    if(queue->pktLen > 0xffff) {
 8006056:	d304      	bcc.n	8006062 <packetQueueEndWritePacket.constprop.0+0x32>
        queue->writePtr = queue->lenHeaderStart;
 8006058:	611a      	str	r2, [r3, #16]
        queue->numDropped++;
 800605a:	6a1a      	ldr	r2, [r3, #32]
 800605c:	3201      	adds	r2, #1
 800605e:	621a      	str	r2, [r3, #32]
 8006060:	4770      	bx	lr
        return;
    }

    uint32_t hdrIndex = queue->lenHeaderStart;
    queue->buffer[hdrIndex] = queue->pktLen >> 8;
 8006062:	6818      	ldr	r0, [r3, #0]
 8006064:	0a09      	lsrs	r1, r1, #8
 8006066:	5481      	strb	r1, [r0, r2]
    hdrIndex++;
    if(hdrIndex >= queue->bufferSize) {
 8006068:	6859      	ldr	r1, [r3, #4]
    hdrIndex++;
 800606a:	3201      	adds	r2, #1
        hdrIndex = 0;
 800606c:	428a      	cmp	r2, r1
 800606e:	bf28      	it	cs
 8006070:	2200      	movcs	r2, #0
    }
    queue->buffer[hdrIndex] = queue->pktLen & 0xff;
 8006072:	6998      	ldr	r0, [r3, #24]
 8006074:	6819      	ldr	r1, [r3, #0]
 8006076:	5488      	strb	r0, [r1, r2]
    queue->pktCount++;
 8006078:	8a9a      	ldrh	r2, [r3, #20]
 800607a:	3201      	adds	r2, #1
 800607c:	829a      	strh	r2, [r3, #20]
}
 800607e:	4770      	bx	lr
 8006080:	20001310 	.word	0x20001310

08006084 <vTaskDelete.constprop.0>:
 8006084:	b5f8      	push	{r3, r4, r5, r6, r7, lr}
 8006086:	4d2f      	ldr	r5, [pc, #188]	; (8006144 <vTaskDelete.constprop.0+0xc0>)
 8006088:	f7fe fb54 	bl	8004734 <vPortEnterCritical>
 800608c:	682c      	ldr	r4, [r5, #0]
 800608e:	1d26      	adds	r6, r4, #4
 8006090:	4630      	mov	r0, r6
 8006092:	f7ff fa3a 	bl	800550a <uxListRemove>
 8006096:	b960      	cbnz	r0, 80060b2 <vTaskDelete.constprop.0+0x2e>
 8006098:	2014      	movs	r0, #20
 800609a:	6ae7      	ldr	r7, [r4, #44]	; 0x2c
 800609c:	4b2a      	ldr	r3, [pc, #168]	; (8006148 <vTaskDelete.constprop.0+0xc4>)
 800609e:	4378      	muls	r0, r7
 80060a0:	581b      	ldr	r3, [r3, r0]
 80060a2:	b933      	cbnz	r3, 80060b2 <vTaskDelete.constprop.0+0x2e>
 80060a4:	2201      	movs	r2, #1
 80060a6:	4929      	ldr	r1, [pc, #164]	; (800614c <vTaskDelete.constprop.0+0xc8>)
 80060a8:	40ba      	lsls	r2, r7
 80060aa:	680b      	ldr	r3, [r1, #0]
 80060ac:	ea23 0302 	bic.w	r3, r3, r2
 80060b0:	600b      	str	r3, [r1, #0]
 80060b2:	6aa3      	ldr	r3, [r4, #40]	; 0x28
 80060b4:	b11b      	cbz	r3, 80060be <vTaskDelete.constprop.0+0x3a>
 80060b6:	f104 0018 	add.w	r0, r4, #24
 80060ba:	f7ff fa26 	bl	800550a <uxListRemove>
 80060be:	4a24      	ldr	r2, [pc, #144]	; (8006150 <vTaskDelete.constprop.0+0xcc>)
 80060c0:	6813      	ldr	r3, [r2, #0]
 80060c2:	3301      	adds	r3, #1
 80060c4:	6013      	str	r3, [r2, #0]
 80060c6:	682b      	ldr	r3, [r5, #0]
 80060c8:	429c      	cmp	r4, r3
 80060ca:	d113      	bne.n	80060f4 <vTaskDelete.constprop.0+0x70>
 80060cc:	4631      	mov	r1, r6
 80060ce:	4821      	ldr	r0, [pc, #132]	; (8006154 <vTaskDelete.constprop.0+0xd0>)
 80060d0:	f7ff f943 	bl	800535a <vListInsertEnd>
 80060d4:	4a20      	ldr	r2, [pc, #128]	; (8006158 <vTaskDelete.constprop.0+0xd4>)
 80060d6:	6813      	ldr	r3, [r2, #0]
 80060d8:	3301      	adds	r3, #1
 80060da:	6013      	str	r3, [r2, #0]
 80060dc:	f7fe fd42 	bl	8004b64 <vPortExitCritical>
 80060e0:	4b1e      	ldr	r3, [pc, #120]	; (800615c <vTaskDelete.constprop.0+0xd8>)
 80060e2:	681b      	ldr	r3, [r3, #0]
 80060e4:	b36b      	cbz	r3, 8006142 <vTaskDelete.constprop.0+0xbe>
 80060e6:	682b      	ldr	r3, [r5, #0]
 80060e8:	429c      	cmp	r4, r3
 80060ea:	d12a      	bne.n	8006142 <vTaskDelete.constprop.0+0xbe>
 80060ec:	4b1c      	ldr	r3, [pc, #112]	; (8006160 <vTaskDelete.constprop.0+0xdc>)
 80060ee:	681b      	ldr	r3, [r3, #0]
 80060f0:	b153      	cbz	r3, 8006108 <vTaskDelete.constprop.0+0x84>
 80060f2:	e7fe      	b.n	80060f2 <vTaskDelete.constprop.0+0x6e>
 80060f4:	4a1b      	ldr	r2, [pc, #108]	; (8006164 <vTaskDelete.constprop.0+0xe0>)
 80060f6:	4620      	mov	r0, r4
 80060f8:	6813      	ldr	r3, [r2, #0]
 80060fa:	3b01      	subs	r3, #1
 80060fc:	6013      	str	r3, [r2, #0]
 80060fe:	f7ff fc2b 	bl	8005958 <prvDeleteTCB>
 8006102:	f7fe fadb 	bl	80046bc <prvResetNextTaskUnblockTime>
 8006106:	e7e9      	b.n	80060dc <vTaskDelete.constprop.0+0x58>
 8006108:	f04f 23e0 	mov.w	r3, #3758153728	; 0xe000e000
 800610c:	4a16      	ldr	r2, [pc, #88]	; (8006168 <vTaskDelete.constprop.0+0xe4>)
 800610e:	f8d3 1d20 	ldr.w	r1, [r3, #3360]	; 0xd20
 8006112:	6011      	str	r1, [r2, #0]
 8006114:	4a15      	ldr	r2, [pc, #84]	; (800616c <vTaskDelete.constprop.0+0xe8>)
 8006116:	6812      	ldr	r2, [r2, #0]
 8006118:	b14a      	cbz	r2, 800612e <vTaskDelete.constprop.0+0xaa>
 800611a:	f8d3 2d20 	ldr.w	r2, [r3, #3360]	; 0xd20
 800611e:	f422 027f 	bic.w	r2, r2, #16711680	; 0xff0000
 8006122:	f8c3 2d20 	str.w	r2, [r3, #3360]	; 0xd20
 8006126:	f8d3 2d20 	ldr.w	r2, [r3, #3360]	; 0xd20
 800612a:	f8c3 2d20 	str.w	r2, [r3, #3360]	; 0xd20
 800612e:	f04f 23e0 	mov.w	r3, #3758153728	; 0xe000e000
 8006132:	f04f 5280 	mov.w	r2, #268435456	; 0x10000000
 8006136:	f8c3 2d04 	str.w	r2, [r3, #3332]	; 0xd04
 800613a:	f3bf 8f4f 	dsb	sy
 800613e:	f3bf 8f6f 	isb	sy
 8006142:	bdf8      	pop	{r3, r4, r5, r6, r7, pc}
 8006144:	200011a8 	.word	0x200011a8
 8006148:	200011b8 	.word	0x200011b8
 800614c:	20001374 	.word	0x20001374
 8006150:	20001370 	.word	0x20001370
 8006154:	20001634 	.word	0x20001634
 8006158:	20001360 	.word	0x20001360
 800615c:	20001614 	.word	0x20001614
 8006160:	2000136c 	.word	0x2000136c
 8006164:	2000135c 	.word	0x2000135c
 8006168:	2000134c 	.word	0x2000134c
 800616c:	20001358 	.word	0x20001358

08006170 <runInThreadBody>:
{
 8006170:	b508      	push	{r3, lr}
    func();
 8006172:	4780      	blx	r0
}
 8006174:	e8bd 4008 	ldmia.w	sp!, {r3, lr}
    vTaskDelete(NULL);
 8006178:	f7ff bf84 	b.w	8006084 <vTaskDelete.constprop.0>

0800617c <_usb_reset.constprop.0>:
void _usb_reset(USBDriver *usbp) {
 800617c:	b570      	push	{r4, r5, r6, lr}
  usbp->status        = 0;
 800617e:	2500      	movs	r5, #0
  usbp->state         = USB_READY;
 8006180:	2302      	movs	r3, #2
 8006182:	4c16      	ldr	r4, [pc, #88]	; (80061dc <_usb_reset.constprop.0+0x60>)
    usbp->epc[i] = NULL;
 8006184:	2220      	movs	r2, #32
 8006186:	4629      	mov	r1, r5
 8006188:	f104 000c 	add.w	r0, r4, #12
  usbp->state         = USB_READY;
 800618c:	7023      	strb	r3, [r4, #0]
  usbp->status        = 0;
 800618e:	67e5      	str	r5, [r4, #124]	; 0x7c
  usbp->transmitting  = 0;
 8006190:	60a5      	str	r5, [r4, #8]
    usbp->epc[i] = NULL;
 8006192:	f005 fb47 	bl	800b824 <memset>
  STM32_USB->DADDR  = DADDR_EF;
 8006196:	2280      	movs	r2, #128	; 0x80
  STM32_USB->BTABLE = BTABLE_ADDR;
 8006198:	4b11      	ldr	r3, [pc, #68]	; (80061e0 <_usb_reset.constprop.0+0x64>)
  usbp->ep0state = USB_EP0_WAITING_SETUP;
 800619a:	f884 5064 	strb.w	r5, [r4, #100]	; 0x64
 800619e:	651d      	str	r5, [r3, #80]	; 0x50
  STM32_USB->ISTR   = 0;
 80061a0:	645d      	str	r5, [r3, #68]	; 0x44
  STM32_USB->DADDR  = DADDR_EF;
 80061a2:	64da      	str	r2, [r3, #76]	; 0x4c
  if (usbp->config->sof_cb != NULL)
 80061a4:	6862      	ldr	r2, [r4, #4]
  usb_lld_init_endpoint(usbp, 0);
 80061a6:	4629      	mov	r1, r5
  if (usbp->config->sof_cb != NULL)
 80061a8:	68d2      	ldr	r2, [r2, #12]
  usb_lld_init_endpoint(usbp, 0);
 80061aa:	4620      	mov	r0, r4
    cntr |= CNTR_SOFM;
 80061ac:	42aa      	cmp	r2, r5
 80061ae:	bf0c      	ite	eq
 80061b0:	f44f 421c 	moveq.w	r2, #39936	; 0x9c00
 80061b4:	f44f 421e 	movne.w	r2, #40448	; 0x9e00
  STM32_USB->CNTR = cntr;
 80061b8:	641a      	str	r2, [r3, #64]	; 0x40
  usbp->pmnext = 64;
 80061ba:	2340      	movs	r3, #64	; 0x40
 80061bc:	f8c4 3084 	str.w	r3, [r4, #132]	; 0x84
  usbp->epc[0] = &ep0config;
 80061c0:	4b08      	ldr	r3, [pc, #32]	; (80061e4 <_usb_reset.constprop.0+0x68>)
 80061c2:	60e3      	str	r3, [r4, #12]
  usb_lld_init_endpoint(usbp, 0);
 80061c4:	f7fe fc46 	bl	8004a54 <usb_lld_init_endpoint>
  _usb_isr_invoke_event_cb(usbp, USB_EVENT_RESET);
 80061c8:	6863      	ldr	r3, [r4, #4]
 80061ca:	681b      	ldr	r3, [r3, #0]
 80061cc:	b123      	cbz	r3, 80061d8 <_usb_reset.constprop.0+0x5c>
 80061ce:	4629      	mov	r1, r5
 80061d0:	4620      	mov	r0, r4
}
 80061d2:	e8bd 4070 	ldmia.w	sp!, {r4, r5, r6, lr}
  _usb_isr_invoke_event_cb(usbp, USB_EVENT_RESET);
 80061d6:	4718      	bx	r3
}
 80061d8:	bd70      	pop	{r4, r5, r6, pc}
 80061da:	bf00      	nop
 80061dc:	20000f54 	.word	0x20000f54
 80061e0:	40005c00 	.word	0x40005c00
 80061e4:	0800c9cc 	.word	0x0800c9cc

080061e8 <Vector90>:
OSAL_IRQ_HANDLER(STM32_USB1_LP_HANDLER) {
 80061e8:	e92d 4ff8 	stmdb	sp!, {r3, r4, r5, r6, r7, r8, r9, sl, fp, lr}
  istr = STM32_USB->ISTR;
 80061ec:	4d92      	ldr	r5, [pc, #584]	; (8006438 <Vector90+0x250>)
 80061ee:	6c6c      	ldr	r4, [r5, #68]	; 0x44
  if (istr & ISTR_RESET) {
 80061f0:	0566      	lsls	r6, r4, #21
 80061f2:	d504      	bpl.n	80061fe <Vector90+0x16>
    STM32_USB->ISTR = ~ISTR_RESET;
 80061f4:	f46f 6380 	mvn.w	r3, #1024	; 0x400
 80061f8:	646b      	str	r3, [r5, #68]	; 0x44
    _usb_reset(usbp);
 80061fa:	f7ff ffbf 	bl	800617c <_usb_reset.constprop.0>
  if (istr & ISTR_SUSP) {
 80061fe:	0520      	lsls	r0, r4, #20
 8006200:	d511      	bpl.n	8006226 <Vector90+0x3e>
    STM32_USB->CNTR |= CNTR_FSUSP;
 8006202:	6c2b      	ldr	r3, [r5, #64]	; 0x40
  usbp->saved_state = usbp->state;
 8006204:	488d      	ldr	r0, [pc, #564]	; (800643c <Vector90+0x254>)
 8006206:	f043 0308 	orr.w	r3, r3, #8
 800620a:	642b      	str	r3, [r5, #64]	; 0x40
    STM32_USB->ISTR = ~ISTR_SUSP;
 800620c:	f46f 6300 	mvn.w	r3, #2048	; 0x800
 8006210:	646b      	str	r3, [r5, #68]	; 0x44
 8006212:	7803      	ldrb	r3, [r0, #0]
 8006214:	f880 3080 	strb.w	r3, [r0, #128]	; 0x80
  usbp->state       = USB_SUSPENDED;
 8006218:	2305      	movs	r3, #5
 800621a:	7003      	strb	r3, [r0, #0]
  _usb_isr_invoke_event_cb(usbp, USB_EVENT_SUSPEND);
 800621c:	6843      	ldr	r3, [r0, #4]
 800621e:	681b      	ldr	r3, [r3, #0]
 8006220:	b10b      	cbz	r3, 8006226 <Vector90+0x3e>
 8006222:	2104      	movs	r1, #4
 8006224:	4798      	blx	r3
  if (istr & ISTR_WKUP) {
 8006226:	04e1      	lsls	r1, r4, #19
 8006228:	d514      	bpl.n	8006254 <Vector90+0x6c>
    uint32_t fnr = STM32_USB->FNR;
 800622a:	4b83      	ldr	r3, [pc, #524]	; (8006438 <Vector90+0x250>)
 800622c:	6c9a      	ldr	r2, [r3, #72]	; 0x48
    if (!(fnr & FNR_RXDP)) {
 800622e:	0412      	lsls	r2, r2, #16
 8006230:	d40c      	bmi.n	800624c <Vector90+0x64>
      STM32_USB->CNTR &= ~CNTR_FSUSP;
 8006232:	6c1a      	ldr	r2, [r3, #64]	; 0x40
  usbp->state = usbp->saved_state;
 8006234:	4881      	ldr	r0, [pc, #516]	; (800643c <Vector90+0x254>)
 8006236:	f022 0208 	bic.w	r2, r2, #8
 800623a:	641a      	str	r2, [r3, #64]	; 0x40
 800623c:	f890 3080 	ldrb.w	r3, [r0, #128]	; 0x80
 8006240:	7003      	strb	r3, [r0, #0]
  _usb_isr_invoke_event_cb(usbp, USB_EVENT_WAKEUP);
 8006242:	6843      	ldr	r3, [r0, #4]
 8006244:	681b      	ldr	r3, [r3, #0]
 8006246:	b10b      	cbz	r3, 800624c <Vector90+0x64>
 8006248:	2105      	movs	r1, #5
 800624a:	4798      	blx	r3
    STM32_USB->ISTR = ~ISTR_WKUP;
 800624c:	f46f 5280 	mvn.w	r2, #4096	; 0x1000
 8006250:	4b79      	ldr	r3, [pc, #484]	; (8006438 <Vector90+0x250>)
 8006252:	645a      	str	r2, [r3, #68]	; 0x44
  if (istr & ISTR_SOF) {
 8006254:	05a3      	lsls	r3, r4, #22
 8006256:	d508      	bpl.n	800626a <Vector90+0x82>
    _usb_isr_invoke_sof_cb(usbp);
 8006258:	4878      	ldr	r0, [pc, #480]	; (800643c <Vector90+0x254>)
 800625a:	6843      	ldr	r3, [r0, #4]
 800625c:	68db      	ldr	r3, [r3, #12]
 800625e:	b103      	cbz	r3, 8006262 <Vector90+0x7a>
 8006260:	4798      	blx	r3
    STM32_USB->ISTR = ~ISTR_SOF;
 8006262:	f46f 7200 	mvn.w	r2, #512	; 0x200
 8006266:	4b74      	ldr	r3, [pc, #464]	; (8006438 <Vector90+0x250>)
 8006268:	645a      	str	r2, [r3, #68]	; 0x44
  const USBEndpointConfig *epcp = usbp->epc[ep];
 800626a:	4e74      	ldr	r6, [pc, #464]	; (800643c <Vector90+0x254>)
    EPR_CLEAR_CTR_TX(ep);
 800626c:	4d74      	ldr	r5, [pc, #464]	; (8006440 <Vector90+0x258>)
  while (istr & ISTR_CTR) {
 800626e:	f414 4100 	ands.w	r1, r4, #32768	; 0x8000
 8006272:	d122      	bne.n	80062ba <Vector90+0xd2>
 8006274:	4b73      	ldr	r3, [pc, #460]	; (8006444 <Vector90+0x25c>)
 8006276:	681a      	ldr	r2, [r3, #0]
 8006278:	6019      	str	r1, [r3, #0]
  OSAL_IRQ_EPILOGUE();
 800627a:	b1e2      	cbz	r2, 80062b6 <Vector90+0xce>
 800627c:	f04f 23e0 	mov.w	r3, #3758153728	; 0xe000e000
 8006280:	4a71      	ldr	r2, [pc, #452]	; (8006448 <Vector90+0x260>)
 8006282:	f8d3 1d20 	ldr.w	r1, [r3, #3360]	; 0xd20
 8006286:	6011      	str	r1, [r2, #0]
 8006288:	4a70      	ldr	r2, [pc, #448]	; (800644c <Vector90+0x264>)
 800628a:	6812      	ldr	r2, [r2, #0]
 800628c:	b14a      	cbz	r2, 80062a2 <Vector90+0xba>
 800628e:	f8d3 2d20 	ldr.w	r2, [r3, #3360]	; 0xd20
 8006292:	f422 027f 	bic.w	r2, r2, #16711680	; 0xff0000
 8006296:	f8c3 2d20 	str.w	r2, [r3, #3360]	; 0xd20
 800629a:	f8d3 2d20 	ldr.w	r2, [r3, #3360]	; 0xd20
 800629e:	f8c3 2d20 	str.w	r2, [r3, #3360]	; 0xd20
 80062a2:	f04f 23e0 	mov.w	r3, #3758153728	; 0xe000e000
 80062a6:	f04f 5280 	mov.w	r2, #268435456	; 0x10000000
 80062aa:	f8c3 2d04 	str.w	r2, [r3, #3332]	; 0xd04
 80062ae:	f3bf 8f4f 	dsb	sy
 80062b2:	f3bf 8f6f 	isb	sy
}
 80062b6:	e8bd 8ff8 	ldmia.w	sp!, {r3, r4, r5, r6, r7, r8, r9, sl, fp, pc}
    usb_serve_endpoints(usbp, istr & ISTR_EP_ID_MASK);
 80062ba:	f004 040f 	and.w	r4, r4, #15
static void usb_serve_endpoints(USBDriver *usbp, uint32_t ep) {
 80062be:	00a7      	lsls	r7, r4, #2
 80062c0:	f107 4780 	add.w	r7, r7, #1073741824	; 0x40000000
 80062c4:	f507 47b8 	add.w	r7, r7, #23552	; 0x5c00
  uint32_t epr = STM32_USB->EPR[ep];
 80062c8:	f8d7 a000 	ldr.w	sl, [r7]
  const USBEndpointConfig *epcp = usbp->epc[ep];
 80062cc:	f104 0902 	add.w	r9, r4, #2
 80062d0:	eb06 0389 	add.w	r3, r6, r9, lsl #2
  if (epr & EPR_CTR_TX) {
 80062d4:	f01a 0f80 	tst.w	sl, #128	; 0x80
  const USBEndpointConfig *epcp = usbp->epc[ep];
 80062d8:	f8d3 8004 	ldr.w	r8, [r3, #4]
  if (epr & EPR_CTR_TX) {
 80062dc:	d025      	beq.n	800632a <Vector90+0x142>
    EPR_CLEAR_CTR_TX(ep);
 80062de:	683a      	ldr	r2, [r7, #0]
    USBInEndpointState *isp = epcp->in_state;
 80062e0:	f8d8 3014 	ldr.w	r3, [r8, #20]
    EPR_CLEAR_CTR_TX(ep);
 80062e4:	402a      	ands	r2, r5
 80062e6:	f442 4200 	orr.w	r2, r2, #32768	; 0x8000
 80062ea:	603a      	str	r2, [r7, #0]
    isp->txcnt += isp->txlast;
 80062ec:	68d9      	ldr	r1, [r3, #12]
 80062ee:	685a      	ldr	r2, [r3, #4]
    n = isp->txsize - isp->txcnt;
 80062f0:	6818      	ldr	r0, [r3, #0]
    isp->txcnt += isp->txlast;
 80062f2:	440a      	add	r2, r1
    if (n > 0) {
 80062f4:	1a80      	subs	r0, r0, r2
    isp->txcnt += isp->txlast;
 80062f6:	605a      	str	r2, [r3, #4]
    if (n > 0) {
 80062f8:	d02c      	beq.n	8006354 <Vector90+0x16c>
      if (n > epcp->in_maxsize)
 80062fa:	f8b8 2010 	ldrh.w	r2, [r8, #16]
 80062fe:	4282      	cmp	r2, r0
 8006300:	bf28      	it	cs
 8006302:	4602      	movcs	r2, r0
      isp->txbuf += isp->txlast;
 8006304:	6898      	ldr	r0, [r3, #8]
 8006306:	4401      	add	r1, r0
      isp->txlast = n;
 8006308:	e9c3 1202 	strd	r1, r2, [r3, #8]
      usb_packet_write_from_buffer(ep, isp->txbuf, n);
 800630c:	4620      	mov	r0, r4
 800630e:	f7fd ff2b 	bl	8004168 <usb_packet_write_from_buffer>
      EPR_SET_STAT_TX(ep, EPR_STAT_TX_VALID);
 8006312:	683b      	ldr	r3, [r7, #0]
 8006314:	f423 43f0 	bic.w	r3, r3, #30720	; 0x7800
 8006318:	f023 0340 	bic.w	r3, r3, #64	; 0x40
 800631c:	f083 0330 	eor.w	r3, r3, #48	; 0x30
 8006320:	f443 4300 	orr.w	r3, r3, #32768	; 0x8000
 8006324:	f043 0380 	orr.w	r3, r3, #128	; 0x80
 8006328:	603b      	str	r3, [r7, #0]
  if (epr & EPR_CTR_RX) {
 800632a:	f41a 4f00 	tst.w	sl, #32768	; 0x8000
 800632e:	d06a      	beq.n	8006406 <Vector90+0x21e>
    EPR_CLEAR_CTR_RX(ep);
 8006330:	683b      	ldr	r3, [r7, #0]
    if (epr & EPR_SETUP) {
 8006332:	f41a 6f00 	tst.w	sl, #2048	; 0x800
    EPR_CLEAR_CTR_RX(ep);
 8006336:	ea03 0305 	and.w	r3, r3, r5
 800633a:	f043 0380 	orr.w	r3, r3, #128	; 0x80
 800633e:	603b      	str	r3, [r7, #0]
      usb_packet_write_from_buffer(ep, isp->txbuf, n);
 8006340:	b2e1      	uxtb	r1, r4
    if (epr & EPR_SETUP) {
 8006342:	d016      	beq.n	8006372 <Vector90+0x18a>
      _usb_isr_invoke_setup_cb(usbp, ep);
 8006344:	eb06 0989 	add.w	r9, r6, r9, lsl #2
 8006348:	f8d9 3004 	ldr.w	r3, [r9, #4]
 800634c:	685b      	ldr	r3, [r3, #4]
        _usb_isr_invoke_out_cb(usbp, ep);
 800634e:	4630      	mov	r0, r6
 8006350:	4798      	blx	r3
 8006352:	e058      	b.n	8006406 <Vector90+0x21e>
      _usb_isr_invoke_in_cb(usbp, ep);
 8006354:	2301      	movs	r3, #1
 8006356:	fa03 f204 	lsl.w	r2, r3, r4
 800635a:	8933      	ldrh	r3, [r6, #8]
 800635c:	ea23 0302 	bic.w	r3, r3, r2
 8006360:	8133      	strh	r3, [r6, #8]
 8006362:	f8d8 3008 	ldr.w	r3, [r8, #8]
 8006366:	2b00      	cmp	r3, #0
 8006368:	d0df      	beq.n	800632a <Vector90+0x142>
 800636a:	4621      	mov	r1, r4
 800636c:	4630      	mov	r0, r6
 800636e:	4798      	blx	r3
 8006370:	e7db      	b.n	800632a <Vector90+0x142>
      USBOutEndpointState *osp = epcp->out_state;
 8006372:	f8d8 2018 	ldr.w	r2, [r8, #24]
  stm32_usb_descriptor_t *udp = USB_GET_DESCRIPTOR(ep);
 8006376:	4b30      	ldr	r3, [pc, #192]	; (8006438 <Vector90+0x250>)
      n = usb_packet_read_to_buffer(ep, osp->rxbuf);
 8006378:	f8d2 c008 	ldr.w	ip, [r2, #8]
  stm32_usb_descriptor_t *udp = USB_GET_DESCRIPTOR(ep);
 800637c:	6d1b      	ldr	r3, [r3, #80]	; 0x50
 800637e:	46e1      	mov	r9, ip
 8006380:	f103 4380 	add.w	r3, r3, #1073741824	; 0x40000000
 8006384:	f503 43c0 	add.w	r3, r3, #24576	; 0x6000
 8006388:	eb03 1004 	add.w	r0, r3, r4, lsl #4
  stm32_usb_pma_t *pmap = USB_ADDR2PTR(udp->RXADDR0);
 800638c:	6883      	ldr	r3, [r0, #8]
  n = (size_t)udp->RXCOUNT0 & RXCOUNT_COUNT_MASK;
 800638e:	f8d0 e00c 	ldr.w	lr, [r0, #12]
  stm32_usb_pma_t *pmap = USB_ADDR2PTR(udp->RXADDR0);
 8006392:	f103 5300 	add.w	r3, r3, #536870912	; 0x20000000
  n = (size_t)udp->RXCOUNT0 & RXCOUNT_COUNT_MASK;
 8006396:	f3ce 0009 	ubfx	r0, lr, #0, #10
 800639a:	f3ce 0e48 	ubfx	lr, lr, #1, #9
  stm32_usb_pma_t *pmap = USB_ADDR2PTR(udp->RXADDR0);
 800639e:	f503 5340 	add.w	r3, r3, #12288	; 0x3000
  while (i >= 2) {
 80063a2:	ea4f 0a8e 	mov.w	sl, lr, lsl #2
 80063a6:	eb0a 0a43 	add.w	sl, sl, r3, lsl #1
  stm32_usb_pma_t *pmap = USB_ADDR2PTR(udp->RXADDR0);
 80063aa:	005b      	lsls	r3, r3, #1
  while (i >= 2) {
 80063ac:	4553      	cmp	r3, sl
 80063ae:	f109 0902 	add.w	r9, r9, #2
 80063b2:	d12b      	bne.n	800640c <Vector90+0x224>
  if (i >= 1) {
 80063b4:	f06f 0901 	mvn.w	r9, #1
 80063b8:	fb09 090e 	mla	r9, r9, lr, r0
 80063bc:	f1b9 0f00 	cmp.w	r9, #0
 80063c0:	d002      	beq.n	80063c8 <Vector90+0x1e0>
    *buf = (uint8_t)*pmap;
 80063c2:	681b      	ldr	r3, [r3, #0]
 80063c4:	f80c 301e 	strb.w	r3, [ip, lr, lsl #1]
      osp->rxbuf += n;
 80063c8:	6893      	ldr	r3, [r2, #8]
 80063ca:	4403      	add	r3, r0
 80063cc:	6093      	str	r3, [r2, #8]
      osp->rxcnt  += n;
 80063ce:	6853      	ldr	r3, [r2, #4]
 80063d0:	4403      	add	r3, r0
 80063d2:	6053      	str	r3, [r2, #4]
      osp->rxsize -= n;
 80063d4:	6813      	ldr	r3, [r2, #0]
 80063d6:	1a1b      	subs	r3, r3, r0
 80063d8:	6013      	str	r3, [r2, #0]
      osp->rxpkts -= 1;
 80063da:	8993      	ldrh	r3, [r2, #12]
 80063dc:	3b01      	subs	r3, #1
 80063de:	b29b      	uxth	r3, r3
 80063e0:	8193      	strh	r3, [r2, #12]
      if ((n < epcp->out_maxsize) || (osp->rxpkts == 0)) {
 80063e2:	f8b8 2012 	ldrh.w	r2, [r8, #18]
 80063e6:	4282      	cmp	r2, r0
 80063e8:	d800      	bhi.n	80063ec <Vector90+0x204>
 80063ea:	b9c3      	cbnz	r3, 800641e <Vector90+0x236>
        _usb_isr_invoke_out_cb(usbp, ep);
 80063ec:	2301      	movs	r3, #1
 80063ee:	fa03 f204 	lsl.w	r2, r3, r4
 80063f2:	8973      	ldrh	r3, [r6, #10]
 80063f4:	eb06 0484 	add.w	r4, r6, r4, lsl #2
 80063f8:	ea23 0302 	bic.w	r3, r3, r2
 80063fc:	8173      	strh	r3, [r6, #10]
 80063fe:	68e3      	ldr	r3, [r4, #12]
 8006400:	68db      	ldr	r3, [r3, #12]
 8006402:	2b00      	cmp	r3, #0
 8006404:	d1a3      	bne.n	800634e <Vector90+0x166>
    istr = STM32_USB->ISTR;
 8006406:	4b0c      	ldr	r3, [pc, #48]	; (8006438 <Vector90+0x250>)
 8006408:	6c5c      	ldr	r4, [r3, #68]	; 0x44
 800640a:	e730      	b.n	800626e <Vector90+0x86>
    uint32_t w = *pmap++;
 800640c:	f853 bb04 	ldr.w	fp, [r3], #4
    *buf++ = (uint8_t)w;
 8006410:	f809 bc02 	strb.w	fp, [r9, #-2]
    *buf++ = (uint8_t)(w >> 8);
 8006414:	ea4f 2b1b 	mov.w	fp, fp, lsr #8
 8006418:	f809 bc01 	strb.w	fp, [r9, #-1]
    i -= 2;
 800641c:	e7c6      	b.n	80063ac <Vector90+0x1c4>
        EPR_SET_STAT_RX(ep, EPR_STAT_RX_VALID);
 800641e:	683b      	ldr	r3, [r7, #0]
 8006420:	f423 4390 	bic.w	r3, r3, #18432	; 0x4800
 8006424:	f023 0370 	bic.w	r3, r3, #112	; 0x70
 8006428:	f483 5340 	eor.w	r3, r3, #12288	; 0x3000
 800642c:	f443 4300 	orr.w	r3, r3, #32768	; 0x8000
 8006430:	f043 0380 	orr.w	r3, r3, #128	; 0x80
 8006434:	603b      	str	r3, [r7, #0]
 8006436:	e7e6      	b.n	8006406 <Vector90+0x21e>
 8006438:	40005c00 	.word	0x40005c00
 800643c:	20000f54 	.word	0x20000f54
 8006440:	ffff070f 	.word	0xffff070f
 8006444:	2000164c 	.word	0x2000164c
 8006448:	2000134c 	.word	0x2000134c
 800644c:	20001358 	.word	0x20001358

08006450 <dmaStreamAllocate.constprop.0>:
bool dmaStreamAllocate(const stm32_dma_stream_t *dmastp,
 8006450:	b5f8      	push	{r3, r4, r5, r6, r7, lr}
  osalDbgCheck(dmastp != NULL);
 8006452:	b910      	cbnz	r0, 800645a <dmaStreamAllocate.constprop.0+0xa>
 8006454:	f7fe f97e 	bl	8004754 <vTaskEndScheduler>
 8006458:	e7fe      	b.n	8006458 <dmaStreamAllocate.constprop.0+0x8>
  if ((dma_streams_mask & (1U << dmastp->selfindex)) != 0U)
 800645a:	2301      	movs	r3, #1
 800645c:	4e1f      	ldr	r6, [pc, #124]	; (80064dc <dmaStreamAllocate.constprop.0+0x8c>)
 800645e:	7c47      	ldrb	r7, [r0, #17]
 8006460:	6835      	ldr	r5, [r6, #0]
 8006462:	fa03 f407 	lsl.w	r4, r3, r7
 8006466:	422c      	tst	r4, r5
 8006468:	d135      	bne.n	80064d6 <dmaStreamAllocate.constprop.0+0x86>
  _stm32_dma_isr_redir[dmastp->selfindex].dma_func  = func;
 800646a:	4b1d      	ldr	r3, [pc, #116]	; (80064e0 <dmaStreamAllocate.constprop.0+0x90>)
 800646c:	f843 1037 	str.w	r1, [r3, r7, lsl #3]
  _stm32_dma_isr_redir[dmastp->selfindex].dma_param = param;
 8006470:	eb03 03c7 	add.w	r3, r3, r7, lsl #3
 8006474:	605a      	str	r2, [r3, #4]
  if ((dma_streams_mask & STM32_DMA1_STREAMS_MASK) == 0U) {
 8006476:	066b      	lsls	r3, r5, #25
    rccEnableDMA1(false);
 8006478:	bf08      	it	eq
 800647a:	4a1a      	ldreq	r2, [pc, #104]	; (80064e4 <dmaStreamAllocate.constprop.0+0x94>)
  dmaStreamDisable(dmastp);
 800647c:	6801      	ldr	r1, [r0, #0]
    rccEnableDMA1(false);
 800647e:	bf02      	ittt	eq
 8006480:	6953      	ldreq	r3, [r2, #20]
 8006482:	f043 0301 	orreq.w	r3, r3, #1
 8006486:	6153      	streq	r3, [r2, #20]
  dmaStreamDisable(dmastp);
 8006488:	6843      	ldr	r3, [r0, #4]
 800648a:	681a      	ldr	r2, [r3, #0]
 800648c:	f022 020f 	bic.w	r2, r2, #15
 8006490:	601a      	str	r2, [r3, #0]
 8006492:	220e      	movs	r2, #14
 8006494:	7c07      	ldrb	r7, [r0, #16]
 8006496:	40ba      	lsls	r2, r7
 8006498:	604a      	str	r2, [r1, #4]
  dmastp->channel->CCR = STM32_DMA_CCR_RESET_VALUE;
 800649a:	2200      	movs	r2, #0
 800649c:	601a      	str	r2, [r3, #0]
  if (((dma_streams_mask & dmastp->cmask) == 0U) &&
 800649e:	6883      	ldr	r3, [r0, #8]
 80064a0:	421d      	tst	r5, r3
 80064a2:	d114      	bne.n	80064ce <dmaStreamAllocate.constprop.0+0x7e>
  NVIC->IP[n] = NVIC_PRIORITY_MASK(prio);
 80064a4:	21c0      	movs	r1, #192	; 0xc0
    nvicEnableVector(dmastp->vector, priority);
 80064a6:	7c83      	ldrb	r3, [r0, #18]
 80064a8:	f103 4260 	add.w	r2, r3, #3758096384	; 0xe0000000
 80064ac:	f502 4261 	add.w	r2, r2, #57600	; 0xe100
 80064b0:	f882 1300 	strb.w	r1, [r2, #768]	; 0x300
  NVIC->ICPR[n >> 5U] = 1U << (n & 0x1FU);
 80064b4:	2201      	movs	r2, #1
 80064b6:	f003 011f 	and.w	r1, r3, #31
 80064ba:	095b      	lsrs	r3, r3, #5
 80064bc:	009b      	lsls	r3, r3, #2
 80064be:	f103 4360 	add.w	r3, r3, #3758096384	; 0xe0000000
 80064c2:	408a      	lsls	r2, r1
 80064c4:	f503 4361 	add.w	r3, r3, #57600	; 0xe100
 80064c8:	f8c3 2180 	str.w	r2, [r3, #384]	; 0x180
  NVIC->ISER[n >> 5U] = 1U << (n & 0x1FU);
 80064cc:	601a      	str	r2, [r3, #0]
  return false;
 80064ce:	2000      	movs	r0, #0
  dma_streams_mask |= (1U << dmastp->selfindex);
 80064d0:	432c      	orrs	r4, r5
 80064d2:	6034      	str	r4, [r6, #0]
}
 80064d4:	bdf8      	pop	{r3, r4, r5, r6, r7, pc}
    return true;
 80064d6:	4618      	mov	r0, r3
 80064d8:	e7fc      	b.n	80064d4 <dmaStreamAllocate.constprop.0+0x84>
 80064da:	bf00      	nop
 80064dc:	20001044 	.word	0x20001044
 80064e0:	20000fe8 	.word	0x20000fe8
 80064e4:	40021000 	.word	0x40021000

080064e8 <xTaskNotifyWait.constprop.0>:
 80064e8:	b570      	push	{r4, r5, r6, lr}
 80064ea:	4c27      	ldr	r4, [pc, #156]	; (8006588 <xTaskNotifyWait.constprop.0+0xa0>)
 80064ec:	4606      	mov	r6, r0
 80064ee:	460d      	mov	r5, r1
 80064f0:	4610      	mov	r0, r2
 80064f2:	f7fe f91f 	bl	8004734 <vPortEnterCritical>
 80064f6:	6823      	ldr	r3, [r4, #0]
 80064f8:	f893 3064 	ldrb.w	r3, [r3, #100]	; 0x64
 80064fc:	2b02      	cmp	r3, #2
 80064fe:	d028      	beq.n	8006552 <xTaskNotifyWait.constprop.0+0x6a>
 8006500:	2101      	movs	r1, #1
 8006502:	6822      	ldr	r2, [r4, #0]
 8006504:	6e13      	ldr	r3, [r2, #96]	; 0x60
 8006506:	ea23 0306 	bic.w	r3, r3, r6
 800650a:	6613      	str	r3, [r2, #96]	; 0x60
 800650c:	6823      	ldr	r3, [r4, #0]
 800650e:	f883 1064 	strb.w	r1, [r3, #100]	; 0x64
 8006512:	b1f0      	cbz	r0, 8006552 <xTaskNotifyWait.constprop.0+0x6a>
 8006514:	f7ff fb2a 	bl	8005b6c <prvAddCurrentTaskToDelayedList>
 8006518:	f04f 23e0 	mov.w	r3, #3758153728	; 0xe000e000
 800651c:	4a1b      	ldr	r2, [pc, #108]	; (800658c <xTaskNotifyWait.constprop.0+0xa4>)
 800651e:	f8d3 1d20 	ldr.w	r1, [r3, #3360]	; 0xd20
 8006522:	6011      	str	r1, [r2, #0]
 8006524:	4a1a      	ldr	r2, [pc, #104]	; (8006590 <xTaskNotifyWait.constprop.0+0xa8>)
 8006526:	6812      	ldr	r2, [r2, #0]
 8006528:	b14a      	cbz	r2, 800653e <xTaskNotifyWait.constprop.0+0x56>
 800652a:	f8d3 2d20 	ldr.w	r2, [r3, #3360]	; 0xd20
 800652e:	f422 027f 	bic.w	r2, r2, #16711680	; 0xff0000
 8006532:	f8c3 2d20 	str.w	r2, [r3, #3360]	; 0xd20
 8006536:	f8d3 2d20 	ldr.w	r2, [r3, #3360]	; 0xd20
 800653a:	f8c3 2d20 	str.w	r2, [r3, #3360]	; 0xd20
 800653e:	f04f 23e0 	mov.w	r3, #3758153728	; 0xe000e000
 8006542:	f04f 5280 	mov.w	r2, #268435456	; 0x10000000
 8006546:	f8c3 2d04 	str.w	r2, [r3, #3332]	; 0xd04
 800654a:	f3bf 8f4f 	dsb	sy
 800654e:	f3bf 8f6f 	isb	sy
 8006552:	f7fe fb07 	bl	8004b64 <vPortExitCritical>
 8006556:	f7fe f8ed 	bl	8004734 <vPortEnterCritical>
 800655a:	6823      	ldr	r3, [r4, #0]
 800655c:	2000      	movs	r0, #0
 800655e:	6e1b      	ldr	r3, [r3, #96]	; 0x60
 8006560:	602b      	str	r3, [r5, #0]
 8006562:	6823      	ldr	r3, [r4, #0]
 8006564:	f893 3064 	ldrb.w	r3, [r3, #100]	; 0x64
 8006568:	2b02      	cmp	r3, #2
 800656a:	bf04      	itt	eq
 800656c:	6823      	ldreq	r3, [r4, #0]
 800656e:	6e1a      	ldreq	r2, [r3, #96]	; 0x60
 8006570:	f04f 0200 	mov.w	r2, #0
 8006574:	bf08      	it	eq
 8006576:	6618      	streq	r0, [r3, #96]	; 0x60
 8006578:	6823      	ldr	r3, [r4, #0]
 800657a:	bf08      	it	eq
 800657c:	2001      	moveq	r0, #1
 800657e:	f883 2064 	strb.w	r2, [r3, #100]	; 0x64
 8006582:	f7fe faef 	bl	8004b64 <vPortExitCritical>
 8006586:	bd70      	pop	{r4, r5, r6, pc}
 8006588:	200011a8 	.word	0x200011a8
 800658c:	2000134c 	.word	0x2000134c
 8006590:	20001358 	.word	0x20001358

08006594 <taskPeriodicMon>:
{
 8006594:	b507      	push	{r0, r1, r2, lr}
        MonitorEntry* entry = monThreadFirst;
 8006596:	4e0d      	ldr	r6, [pc, #52]	; (80065cc <taskPeriodicMon+0x38>)
        bool workToCome = false;
 8006598:	2500      	movs	r5, #0
        MonitorEntry* entry = monThreadFirst;
 800659a:	6834      	ldr	r4, [r6, #0]
        while(entry) {
 800659c:	b95c      	cbnz	r4, 80065b6 <taskPeriodicMon+0x22>
        if(!workToCome) {
 800659e:	b92d      	cbnz	r5, 80065ac <taskPeriodicMon+0x18>
            xTaskNotifyWait(0, ULONG_MAX, (uint32_t*)&ulInterruptStatus, portMAX_DELAY);
 80065a0:	f04f 32ff 	mov.w	r2, #4294967295	; 0xffffffff
 80065a4:	4628      	mov	r0, r5
 80065a6:	a901      	add	r1, sp, #4
 80065a8:	f7ff ff9e 	bl	80064e8 <xTaskNotifyWait.constprop.0>
        osalThreadSleepSeconds(10);
 80065ac:	f242 7010 	movw	r0, #10000	; 0x2710
 80065b0:	f7ff fca8 	bl	8005f04 <vTaskDelay>
    for(;;) {
 80065b4:	e7f0      	b.n	8006598 <taskPeriodicMon+0x4>
            if(entry->active) {
 80065b6:	7c23      	ldrb	r3, [r4, #16]
 80065b8:	b12b      	cbz	r3, 80065c6 <taskPeriodicMon+0x32>
                if(entry->callback) {
 80065ba:	6823      	ldr	r3, [r4, #0]
 80065bc:	b11b      	cbz	r3, 80065c6 <taskPeriodicMon+0x32>
                    entry->active = entry->callback(entry->param);
 80065be:	6860      	ldr	r0, [r4, #4]
 80065c0:	4798      	blx	r3
 80065c2:	7420      	strb	r0, [r4, #16]
                    workToCome |= entry->active;
 80065c4:	4305      	orrs	r5, r0
            entry = entry->next;
 80065c6:	68a4      	ldr	r4, [r4, #8]
 80065c8:	e7e8      	b.n	800659c <taskPeriodicMon+0x8>
 80065ca:	bf00      	nop
 80065cc:	200011a0 	.word	0x200011a0

080065d0 <osalThreadSuspendTimeoutS>:
 80065d0:	b513      	push	{r0, r1, r4, lr}
 80065d2:	4604      	mov	r4, r0
 80065d4:	4608      	mov	r0, r1
 80065d6:	f3ef 8311 	mrs	r3, BASEPRI
 80065da:	b12b      	cbz	r3, 80065e8 <osalThreadSuspendTimeoutS+0x18>
 80065dc:	f3ef 8305 	mrs	r3, IPSR
 80065e0:	b12b      	cbz	r3, 80065ee <osalThreadSuspendTimeoutS+0x1e>
 80065e2:	f7fe f8b7 	bl	8004754 <vTaskEndScheduler>
 80065e6:	e7fe      	b.n	80065e6 <osalThreadSuspendTimeoutS+0x16>
 80065e8:	f7fe f8b4 	bl	8004754 <vTaskEndScheduler>
 80065ec:	e7fe      	b.n	80065ec <osalThreadSuspendTimeoutS+0x1c>
 80065ee:	b181      	cbz	r1, 8006612 <osalThreadSuspendTimeoutS+0x42>
 80065f0:	b134      	cbz	r4, 8006600 <osalThreadSuspendTimeoutS+0x30>
 80065f2:	f7fe f89f 	bl	8004734 <vPortEnterCritical>
 80065f6:	4b0a      	ldr	r3, [pc, #40]	; (8006620 <osalThreadSuspendTimeoutS+0x50>)
 80065f8:	6819      	ldr	r1, [r3, #0]
 80065fa:	f7fe fab3 	bl	8004b64 <vPortExitCritical>
 80065fe:	6021      	str	r1, [r4, #0]
 8006600:	4602      	mov	r2, r0
 8006602:	a901      	add	r1, sp, #4
 8006604:	f04f 30ff 	mov.w	r0, #4294967295	; 0xffffffff
 8006608:	f7ff ff6e 	bl	80064e8 <xTaskNotifyWait.constprop.0>
 800660c:	b920      	cbnz	r0, 8006618 <osalThreadSuspendTimeoutS+0x48>
 800660e:	b104      	cbz	r4, 8006612 <osalThreadSuspendTimeoutS+0x42>
 8006610:	6020      	str	r0, [r4, #0]
 8006612:	f04f 30ff 	mov.w	r0, #4294967295	; 0xffffffff
 8006616:	e000      	b.n	800661a <osalThreadSuspendTimeoutS+0x4a>
 8006618:	9801      	ldr	r0, [sp, #4]
 800661a:	b002      	add	sp, #8
 800661c:	bd10      	pop	{r4, pc}
 800661e:	bf00      	nop
 8006620:	200011a8 	.word	0x200011a8

08006624 <spiReceive.part.0>:
 * @param[in] n         number of words to receive
 * @param[out] rxbuf    the pointer to the receive buffer
 *
 * @api
 */
void spiReceive(SPIDriver *spip, size_t n, void *rxbuf) {
 8006624:	b570      	push	{r4, r5, r6, lr}
 8006626:	460d      	mov	r5, r1
 8006628:	4616      	mov	r6, r2

  osalDbgCheck((spip != NULL) && (n > 0U) && (rxbuf != NULL));

  osalSysLock();
 800662a:	f7fe f883 	bl	8004734 <vPortEnterCritical>
  osalDbgAssert(spip->state == SPI_READY, "not ready");
 800662e:	7803      	ldrb	r3, [r0, #0]
 8006630:	2b02      	cmp	r3, #2
 8006632:	d002      	beq.n	800663a <spiReceive.part.0+0x16>
 8006634:	f7fe f88e 	bl	8004754 <vTaskEndScheduler>
 8006638:	e7fe      	b.n	8006638 <spiReceive.part.0+0x14>
  osalDbgAssert(spip->config->end_cb == NULL, "has callback");
 800663a:	6843      	ldr	r3, [r0, #4]
 800663c:	681b      	ldr	r3, [r3, #0]
 800663e:	b113      	cbz	r3, 8006646 <spiReceive.part.0+0x22>
 8006640:	f7fe f888 	bl	8004754 <vTaskEndScheduler>
 8006644:	e7fe      	b.n	8006644 <spiReceive.part.0+0x20>
  spiStartReceiveI(spip, n, rxbuf);
 8006646:	2303      	movs	r3, #3
 8006648:	7003      	strb	r3, [r0, #0]
 */
void spi_lld_receive(SPIDriver *spip, size_t n, void *rxbuf) {

  osalDbgAssert(n < 65536, "unsupported DMA transfer size");

  dmaStreamSetMemory0(spip->dmarx, rxbuf);
 800664a:	6e43      	ldr	r3, [r0, #100]	; 0x64
  dmaStreamSetTransactionSize(spip->dmarx, n);
  dmaStreamSetMode(spip->dmarx, spip->rxdmamode | STM32_DMA_CR_MINC);

  dmaStreamSetMemory0(spip->dmatx, &dummytx);
 800664c:	4a0f      	ldr	r2, [pc, #60]	; (800668c <spiReceive.part.0+0x68>)
  dmaStreamSetMemory0(spip->dmarx, rxbuf);
 800664e:	685c      	ldr	r4, [r3, #4]
  dmaStreamSetMode(spip->dmarx, spip->rxdmamode | STM32_DMA_CR_MINC);
 8006650:	6ec3      	ldr	r3, [r0, #108]	; 0x6c
  dmaStreamSetMemory0(spip->dmarx, rxbuf);
 8006652:	60e6      	str	r6, [r4, #12]
  dmaStreamSetMode(spip->dmarx, spip->rxdmamode | STM32_DMA_CR_MINC);
 8006654:	f043 0380 	orr.w	r3, r3, #128	; 0x80
  dmaStreamSetTransactionSize(spip->dmarx, n);
 8006658:	6065      	str	r5, [r4, #4]
  dmaStreamSetMode(spip->dmarx, spip->rxdmamode | STM32_DMA_CR_MINC);
 800665a:	6023      	str	r3, [r4, #0]
  dmaStreamSetMemory0(spip->dmatx, &dummytx);
 800665c:	6e83      	ldr	r3, [r0, #104]	; 0x68
 800665e:	f04f 31ff 	mov.w	r1, #4294967295	; 0xffffffff
 8006662:	685b      	ldr	r3, [r3, #4]
 8006664:	3008      	adds	r0, #8
 8006666:	60da      	str	r2, [r3, #12]
  dmaStreamSetTransactionSize(spip->dmatx, n);
  dmaStreamSetMode(spip->dmatx, spip->txdmamode);
 8006668:	6e82      	ldr	r2, [r0, #104]	; 0x68
  dmaStreamSetTransactionSize(spip->dmatx, n);
 800666a:	605d      	str	r5, [r3, #4]
  dmaStreamSetMode(spip->dmatx, spip->txdmamode);
 800666c:	601a      	str	r2, [r3, #0]

  dmaStreamEnable(spip->dmarx);
 800666e:	6822      	ldr	r2, [r4, #0]
 8006670:	f042 0201 	orr.w	r2, r2, #1
 8006674:	6022      	str	r2, [r4, #0]
  dmaStreamEnable(spip->dmatx);
 8006676:	681a      	ldr	r2, [r3, #0]
 8006678:	f042 0201 	orr.w	r2, r2, #1
 800667c:	601a      	str	r2, [r3, #0]
 800667e:	f7ff ffa7 	bl	80065d0 <osalThreadSuspendTimeoutS>
  (void) osalThreadSuspendS(&spip->thread);
  osalSysUnlock();
}
 8006682:	e8bd 4070 	ldmia.w	sp!, {r4, r5, r6, lr}
  osalSysUnlock();
 8006686:	f7fe ba79 	b.w	8004b7c <osalSysUnlock.lto_priv.0>
 800668a:	bf00      	nop
 800668c:	0800c9c8 	.word	0x0800c9c8

08006690 <osalThreadEnqueueTimeoutS>:
 8006690:	b570      	push	{r4, r5, r6, lr}
 8006692:	4605      	mov	r5, r0
 8006694:	4608      	mov	r0, r1
 8006696:	2900      	cmp	r1, #0
 8006698:	d03f      	beq.n	800671a <osalThreadEnqueueTimeoutS+0x8a>
 800669a:	b915      	cbnz	r5, 80066a2 <osalThreadEnqueueTimeoutS+0x12>
 800669c:	f7fe f85a 	bl	8004754 <vTaskEndScheduler>
 80066a0:	e7fe      	b.n	80066a0 <osalThreadEnqueueTimeoutS+0x10>
 80066a2:	f3ef 8311 	mrs	r3, BASEPRI
 80066a6:	2b00      	cmp	r3, #0
 80066a8:	d034      	beq.n	8006714 <osalThreadEnqueueTimeoutS+0x84>
 80066aa:	f3ef 8305 	mrs	r3, IPSR
 80066ae:	b113      	cbz	r3, 80066b6 <osalThreadEnqueueTimeoutS+0x26>
 80066b0:	f7fe f850 	bl	8004754 <vTaskEndScheduler>
 80066b4:	e7fe      	b.n	80066b4 <osalThreadEnqueueTimeoutS+0x24>
 80066b6:	4e1a      	ldr	r6, [pc, #104]	; (8006720 <osalThreadEnqueueTimeoutS+0x90>)
 80066b8:	f7fe f83c 	bl	8004734 <vPortEnterCritical>
 80066bc:	6834      	ldr	r4, [r6, #0]
 80066be:	f7fe fa51 	bl	8004b64 <vPortExitCritical>
 80066c2:	682b      	ldr	r3, [r5, #0]
 80066c4:	b9e4      	cbnz	r4, 8006700 <osalThreadEnqueueTimeoutS+0x70>
 80066c6:	6832      	ldr	r2, [r6, #0]
 80066c8:	6553      	str	r3, [r2, #84]	; 0x54
 80066ca:	b9dc      	cbnz	r4, 8006704 <osalThreadEnqueueTimeoutS+0x74>
 80066cc:	6832      	ldr	r2, [r6, #0]
 80066ce:	2100      	movs	r1, #0
 80066d0:	6591      	str	r1, [r2, #88]	; 0x58
 80066d2:	b103      	cbz	r3, 80066d6 <osalThreadEnqueueTimeoutS+0x46>
 80066d4:	659c      	str	r4, [r3, #88]	; 0x58
 80066d6:	686b      	ldr	r3, [r5, #4]
 80066d8:	602c      	str	r4, [r5, #0]
 80066da:	b903      	cbnz	r3, 80066de <osalThreadEnqueueTimeoutS+0x4e>
 80066dc:	606c      	str	r4, [r5, #4]
 80066de:	4601      	mov	r1, r0
 80066e0:	2000      	movs	r0, #0
 80066e2:	f7ff ff75 	bl	80065d0 <osalThreadSuspendTimeoutS>
 80066e6:	1c43      	adds	r3, r0, #1
 80066e8:	d109      	bne.n	80066fe <osalThreadEnqueueTimeoutS+0x6e>
 80066ea:	b96c      	cbnz	r4, 8006708 <osalThreadEnqueueTimeoutS+0x78>
 80066ec:	6833      	ldr	r3, [r6, #0]
 80066ee:	6d5b      	ldr	r3, [r3, #84]	; 0x54
 80066f0:	b904      	cbnz	r4, 80066f4 <osalThreadEnqueueTimeoutS+0x64>
 80066f2:	6834      	ldr	r4, [r6, #0]
 80066f4:	6da2      	ldr	r2, [r4, #88]	; 0x58
 80066f6:	b14b      	cbz	r3, 800670c <osalThreadEnqueueTimeoutS+0x7c>
 80066f8:	659a      	str	r2, [r3, #88]	; 0x58
 80066fa:	b14a      	cbz	r2, 8006710 <osalThreadEnqueueTimeoutS+0x80>
 80066fc:	6553      	str	r3, [r2, #84]	; 0x54
 80066fe:	bd70      	pop	{r4, r5, r6, pc}
 8006700:	4622      	mov	r2, r4
 8006702:	e7e1      	b.n	80066c8 <osalThreadEnqueueTimeoutS+0x38>
 8006704:	4622      	mov	r2, r4
 8006706:	e7e2      	b.n	80066ce <osalThreadEnqueueTimeoutS+0x3e>
 8006708:	4623      	mov	r3, r4
 800670a:	e7f0      	b.n	80066ee <osalThreadEnqueueTimeoutS+0x5e>
 800670c:	606a      	str	r2, [r5, #4]
 800670e:	e7f4      	b.n	80066fa <osalThreadEnqueueTimeoutS+0x6a>
 8006710:	602b      	str	r3, [r5, #0]
 8006712:	e7f4      	b.n	80066fe <osalThreadEnqueueTimeoutS+0x6e>
 8006714:	f7fe f81e 	bl	8004754 <vTaskEndScheduler>
 8006718:	e7fe      	b.n	8006718 <osalThreadEnqueueTimeoutS+0x88>
 800671a:	f04f 30ff 	mov.w	r0, #4294967295	; 0xffffffff
 800671e:	e7ee      	b.n	80066fe <osalThreadEnqueueTimeoutS+0x6e>
 8006720:	200011a8 	.word	0x200011a8

08006724 <ibqGetFullBufferTimeoutS>:
                                 systime_t timeout) {
 8006724:	b538      	push	{r3, r4, r5, lr}
 8006726:	4604      	mov	r4, r0
 8006728:	460d      	mov	r5, r1
	__asm volatile( "mrs %0, basepri" : "=r"( ulBasePri ) );
 800672a:	f3ef 8311 	mrs	r3, BASEPRI
	return (ulBasePri > 0)? pdTRUE : pdFALSE;
 800672e:	b12b      	cbz	r3, 800673c <ibqGetFullBufferTimeoutS+0x18>
	__asm volatile( "mrs %0, ipsr" : "=r"( ulCurrentInterrupt ) );
 8006730:	f3ef 8305 	mrs	r3, IPSR
	if( ulCurrentInterrupt == 0 )
 8006734:	b16b      	cbz	r3, 8006752 <ibqGetFullBufferTimeoutS+0x2e>
  osalDbgCheckClassS();
 8006736:	f7fe f80d 	bl	8004754 <vTaskEndScheduler>
 800673a:	e7fe      	b.n	800673a <ibqGetFullBufferTimeoutS+0x16>
 800673c:	f7fe f80a 	bl	8004754 <vTaskEndScheduler>
 8006740:	e7fe      	b.n	8006740 <ibqGetFullBufferTimeoutS+0x1c>
    if (ibqp->suspended) {
 8006742:	7a23      	ldrb	r3, [r4, #8]
 8006744:	b9ab      	cbnz	r3, 8006772 <ibqGetFullBufferTimeoutS+0x4e>
    msg_t msg = osalThreadEnqueueTimeoutS(&ibqp->waiting, timeout);
 8006746:	4629      	mov	r1, r5
 8006748:	4620      	mov	r0, r4
 800674a:	f7ff ffa1 	bl	8006690 <osalThreadEnqueueTimeoutS>
    if (msg < MSG_OK) {
 800674e:	2800      	cmp	r0, #0
 8006750:	db0e      	blt.n	8006770 <ibqGetFullBufferTimeoutS+0x4c>
  while (ibqIsEmptyI(ibqp)) {
 8006752:	68e3      	ldr	r3, [r4, #12]
 8006754:	2b00      	cmp	r3, #0
 8006756:	d0f4      	beq.n	8006742 <ibqGetFullBufferTimeoutS+0x1e>
  osalDbgAssert(!ibqIsEmptyI(ibqp), "still empty");
 8006758:	68e3      	ldr	r3, [r4, #12]
 800675a:	b913      	cbnz	r3, 8006762 <ibqGetFullBufferTimeoutS+0x3e>
 800675c:	f7fd fffa 	bl	8004754 <vTaskEndScheduler>
 8006760:	e7fe      	b.n	8006760 <ibqGetFullBufferTimeoutS+0x3c>
  return MSG_OK;
 8006762:	2000      	movs	r0, #0
  ibqp->ptr = ibqp->brdptr + sizeof (size_t);
 8006764:	6962      	ldr	r2, [r4, #20]
 8006766:	1d13      	adds	r3, r2, #4
  ibqp->top = ibqp->ptr + *((size_t *)ibqp->brdptr);
 8006768:	6812      	ldr	r2, [r2, #0]
  ibqp->ptr = ibqp->brdptr + sizeof (size_t);
 800676a:	62a3      	str	r3, [r4, #40]	; 0x28
  ibqp->top = ibqp->ptr + *((size_t *)ibqp->brdptr);
 800676c:	4413      	add	r3, r2
 800676e:	62e3      	str	r3, [r4, #44]	; 0x2c
}
 8006770:	bd38      	pop	{r3, r4, r5, pc}
      return MSG_RESET;
 8006772:	f06f 0001 	mvn.w	r0, #1
 8006776:	e7fb      	b.n	8006770 <ibqGetFullBufferTimeoutS+0x4c>

08006778 <ibqGetTimeout>:
msg_t ibqGetTimeout(input_buffers_queue_t *ibqp, systime_t timeout) {
 8006778:	b538      	push	{r3, r4, r5, lr}
 800677a:	460d      	mov	r5, r1
  osalSysLock();
 800677c:	f7fd ffda 	bl	8004734 <vPortEnterCritical>
  if (ibqp->ptr == NULL) {
 8006780:	6a83      	ldr	r3, [r0, #40]	; 0x28
msg_t ibqGetTimeout(input_buffers_queue_t *ibqp, systime_t timeout) {
 8006782:	4604      	mov	r4, r0
  if (ibqp->ptr == NULL) {
 8006784:	b943      	cbnz	r3, 8006798 <ibqGetTimeout+0x20>
    msg = ibqGetFullBufferTimeoutS(ibqp, timeout);
 8006786:	4629      	mov	r1, r5
 8006788:	f7ff ffcc 	bl	8006724 <ibqGetFullBufferTimeoutS>
    if (msg != MSG_OK) {
 800678c:	4605      	mov	r5, r0
 800678e:	b118      	cbz	r0, 8006798 <ibqGetTimeout+0x20>
  osalSysUnlock();
 8006790:	f7fe f9f4 	bl	8004b7c <osalSysUnlock.lto_priv.0>
}
 8006794:	4628      	mov	r0, r5
 8006796:	bd38      	pop	{r3, r4, r5, pc}
  msg = (msg_t)*ibqp->ptr;
 8006798:	6aa3      	ldr	r3, [r4, #40]	; 0x28
  if (ibqp->ptr >= ibqp->top) {
 800679a:	6ae2      	ldr	r2, [r4, #44]	; 0x2c
  msg = (msg_t)*ibqp->ptr;
 800679c:	f813 5b01 	ldrb.w	r5, [r3], #1
  if (ibqp->ptr >= ibqp->top) {
 80067a0:	4293      	cmp	r3, r2
  ibqp->ptr++;
 80067a2:	62a3      	str	r3, [r4, #40]	; 0x28
  if (ibqp->ptr >= ibqp->top) {
 80067a4:	d3f4      	bcc.n	8006790 <ibqGetTimeout+0x18>
    ibqReleaseEmptyBufferS(ibqp);
 80067a6:	4620      	mov	r0, r4
 80067a8:	f7fd ffe0 	bl	800476c <ibqReleaseEmptyBufferS>
 80067ac:	e7f0      	b.n	8006790 <ibqGetTimeout+0x18>

080067ae <_get.lto_priv.1>:
  return ibqGetTimeout(&((SerialUSBDriver *)ip)->ibqueue, TIME_INFINITE);
 80067ae:	f04f 31ff 	mov.w	r1, #4294967295	; 0xffffffff
 80067b2:	3018      	adds	r0, #24
 80067b4:	f7ff bfe0 	b.w	8006778 <ibqGetTimeout>

080067b8 <_gett.lto_priv.1>:
  return ibqGetTimeout(&((SerialUSBDriver *)ip)->ibqueue, timeout);
 80067b8:	3018      	adds	r0, #24
 80067ba:	f7ff bfdd 	b.w	8006778 <ibqGetTimeout>

080067be <obqGetEmptyBufferTimeoutS>:
                                systime_t timeout) {
 80067be:	b538      	push	{r3, r4, r5, lr}
 80067c0:	4604      	mov	r4, r0
 80067c2:	460d      	mov	r5, r1
	__asm volatile( "mrs %0, basepri" : "=r"( ulBasePri ) );
 80067c4:	f3ef 8311 	mrs	r3, BASEPRI
	return (ulBasePri > 0)? pdTRUE : pdFALSE;
 80067c8:	b12b      	cbz	r3, 80067d6 <obqGetEmptyBufferTimeoutS+0x18>
	__asm volatile( "mrs %0, ipsr" : "=r"( ulCurrentInterrupt ) );
 80067ca:	f3ef 8305 	mrs	r3, IPSR
	if( ulCurrentInterrupt == 0 )
 80067ce:	b16b      	cbz	r3, 80067ec <obqGetEmptyBufferTimeoutS+0x2e>
  osalDbgCheckClassS();
 80067d0:	f7fd ffc0 	bl	8004754 <vTaskEndScheduler>
 80067d4:	e7fe      	b.n	80067d4 <obqGetEmptyBufferTimeoutS+0x16>
 80067d6:	f7fd ffbd 	bl	8004754 <vTaskEndScheduler>
 80067da:	e7fe      	b.n	80067da <obqGetEmptyBufferTimeoutS+0x1c>
    if (obqp->suspended) {
 80067dc:	7a23      	ldrb	r3, [r4, #8]
 80067de:	b9ab      	cbnz	r3, 800680c <obqGetEmptyBufferTimeoutS+0x4e>
    msg_t msg = osalThreadEnqueueTimeoutS(&obqp->waiting, timeout);
 80067e0:	4629      	mov	r1, r5
 80067e2:	4620      	mov	r0, r4
 80067e4:	f7ff ff54 	bl	8006690 <osalThreadEnqueueTimeoutS>
    if (msg < MSG_OK) {
 80067e8:	2800      	cmp	r0, #0
 80067ea:	db0e      	blt.n	800680a <obqGetEmptyBufferTimeoutS+0x4c>
  while (obqIsFullI(obqp)) {
 80067ec:	68e3      	ldr	r3, [r4, #12]
 80067ee:	2b00      	cmp	r3, #0
 80067f0:	d0f4      	beq.n	80067dc <obqGetEmptyBufferTimeoutS+0x1e>
  osalDbgAssert(!obqIsFullI(obqp), "still full");
 80067f2:	68e3      	ldr	r3, [r4, #12]
 80067f4:	b913      	cbnz	r3, 80067fc <obqGetEmptyBufferTimeoutS+0x3e>
 80067f6:	f7fd ffad 	bl	8004754 <vTaskEndScheduler>
 80067fa:	e7fe      	b.n	80067fa <obqGetEmptyBufferTimeoutS+0x3c>
  return MSG_OK;
 80067fc:	2000      	movs	r0, #0
  obqp->ptr = obqp->bwrptr + sizeof (size_t);
 80067fe:	6923      	ldr	r3, [r4, #16]
 8006800:	1d1a      	adds	r2, r3, #4
 8006802:	62a2      	str	r2, [r4, #40]	; 0x28
  obqp->top = obqp->bwrptr + obqp->bsize;
 8006804:	69e2      	ldr	r2, [r4, #28]
 8006806:	4413      	add	r3, r2
 8006808:	62e3      	str	r3, [r4, #44]	; 0x2c
}
 800680a:	bd38      	pop	{r3, r4, r5, pc}
      return MSG_RESET;
 800680c:	f06f 0001 	mvn.w	r0, #1
 8006810:	e7fb      	b.n	800680a <obqGetEmptyBufferTimeoutS+0x4c>

08006812 <obqPutTimeout>:
                    systime_t timeout) {
 8006812:	b570      	push	{r4, r5, r6, lr}
 8006814:	460d      	mov	r5, r1
 8006816:	4616      	mov	r6, r2
  osalSysLock();
 8006818:	f7fd ff8c 	bl	8004734 <vPortEnterCritical>
  if (obqp->ptr == NULL) {
 800681c:	6a83      	ldr	r3, [r0, #40]	; 0x28
                    systime_t timeout) {
 800681e:	4604      	mov	r4, r0
  if (obqp->ptr == NULL) {
 8006820:	b933      	cbnz	r3, 8006830 <obqPutTimeout+0x1e>
    msg = obqGetEmptyBufferTimeoutS(obqp, timeout);
 8006822:	4631      	mov	r1, r6
 8006824:	f7ff ffcb 	bl	80067be <obqGetEmptyBufferTimeoutS>
    if (msg != MSG_OK) {
 8006828:	b110      	cbz	r0, 8006830 <obqPutTimeout+0x1e>
      osalSysUnlock();
 800682a:	f7fe f9a7 	bl	8004b7c <osalSysUnlock.lto_priv.0>
}
 800682e:	bd70      	pop	{r4, r5, r6, pc}
  *obqp->ptr = b;
 8006830:	6aa3      	ldr	r3, [r4, #40]	; 0x28
 8006832:	701d      	strb	r5, [r3, #0]
  obqp->ptr++;
 8006834:	6aa3      	ldr	r3, [r4, #40]	; 0x28
  if (obqp->ptr >= obqp->top) {
 8006836:	6ae2      	ldr	r2, [r4, #44]	; 0x2c
  obqp->ptr++;
 8006838:	3301      	adds	r3, #1
  if (obqp->ptr >= obqp->top) {
 800683a:	4293      	cmp	r3, r2
  obqp->ptr++;
 800683c:	62a3      	str	r3, [r4, #40]	; 0x28
  if (obqp->ptr >= obqp->top) {
 800683e:	d304      	bcc.n	800684a <obqPutTimeout+0x38>
    obqPostFullBufferS(obqp, obqp->bsize - sizeof (size_t));
 8006840:	69e1      	ldr	r1, [r4, #28]
 8006842:	4620      	mov	r0, r4
 8006844:	3904      	subs	r1, #4
 8006846:	f7fd ffcb 	bl	80047e0 <obqPostFullBufferS>
  osalSysUnlock();
 800684a:	f7fe f997 	bl	8004b7c <osalSysUnlock.lto_priv.0>
  return MSG_OK;
 800684e:	2000      	movs	r0, #0
 8006850:	e7ed      	b.n	800682e <obqPutTimeout+0x1c>

08006852 <_put.lto_priv.1>:
  if(sdup->config->sofCallback) sdup->config->sofCallback(sdup->config->usbp, true);
 8006852:	f8d0 2498 	ldr.w	r2, [r0, #1176]	; 0x498
static msg_t _put(void *ip, uint8_t b) {
 8006856:	b538      	push	{r3, r4, r5, lr}
  if(sdup->config->sofCallback) sdup->config->sofCallback(sdup->config->usbp, true);
 8006858:	6893      	ldr	r3, [r2, #8]
static msg_t _put(void *ip, uint8_t b) {
 800685a:	4604      	mov	r4, r0
 800685c:	460d      	mov	r5, r1
  if(sdup->config->sofCallback) sdup->config->sofCallback(sdup->config->usbp, true);
 800685e:	b113      	cbz	r3, 8006866 <_put.lto_priv.1+0x14>
 8006860:	2101      	movs	r1, #1
 8006862:	6810      	ldr	r0, [r2, #0]
 8006864:	4798      	blx	r3
  return obqPutTimeout(&((SerialUSBDriver *)ip)->obqueue, b, TIME_INFINITE);
 8006866:	4629      	mov	r1, r5
 8006868:	f104 0050 	add.w	r0, r4, #80	; 0x50
 800686c:	f04f 32ff 	mov.w	r2, #4294967295	; 0xffffffff
}
 8006870:	e8bd 4038 	ldmia.w	sp!, {r3, r4, r5, lr}
  return obqPutTimeout(&((SerialUSBDriver *)ip)->obqueue, b, TIME_INFINITE);
 8006874:	f7ff bfcd 	b.w	8006812 <obqPutTimeout>

08006878 <_putt.lto_priv.1>:
static msg_t _putt(void *ip, uint8_t b, systime_t timeout) {
 8006878:	b570      	push	{r4, r5, r6, lr}
 800687a:	4616      	mov	r6, r2
  if(sdup->config->sofCallback) sdup->config->sofCallback(sdup->config->usbp, true);
 800687c:	f8d0 2498 	ldr.w	r2, [r0, #1176]	; 0x498
static msg_t _putt(void *ip, uint8_t b, systime_t timeout) {
 8006880:	4604      	mov	r4, r0
  if(sdup->config->sofCallback) sdup->config->sofCallback(sdup->config->usbp, true);
 8006882:	6893      	ldr	r3, [r2, #8]
static msg_t _putt(void *ip, uint8_t b, systime_t timeout) {
 8006884:	460d      	mov	r5, r1
  if(sdup->config->sofCallback) sdup->config->sofCallback(sdup->config->usbp, true);
 8006886:	b113      	cbz	r3, 800688e <_putt.lto_priv.1+0x16>
 8006888:	2101      	movs	r1, #1
 800688a:	6810      	ldr	r0, [r2, #0]
 800688c:	4798      	blx	r3
  return obqPutTimeout(&((SerialUSBDriver *)ip)->obqueue, b, timeout);
 800688e:	4632      	mov	r2, r6
 8006890:	4629      	mov	r1, r5
 8006892:	f104 0050 	add.w	r0, r4, #80	; 0x50
}
 8006896:	e8bd 4070 	ldmia.w	sp!, {r4, r5, r6, lr}
  return obqPutTimeout(&((SerialUSBDriver *)ip)->obqueue, b, timeout);
 800689a:	f7ff bfba 	b.w	8006812 <obqPutTimeout>

0800689e <iqGetTimeout>:
 * @retval MSG_TIMEOUT  if the specified time expired.
 * @retval MSG_RESET    if the queue has been reset.
 *
 * @api
 */
msg_t iqGetTimeout(input_queue_t *iqp, systime_t timeout) {
 800689e:	b538      	push	{r3, r4, r5, lr}
 80068a0:	4604      	mov	r4, r0
 80068a2:	460d      	mov	r5, r1
  uint8_t b;

  osalSysLock();
 80068a4:	f7fd ff46 	bl	8004734 <vPortEnterCritical>

  /* Waiting until there is a character available or a timeout occurs.*/
  while (iqIsEmptyI(iqp)) {
 80068a8:	68a3      	ldr	r3, [r4, #8]
 80068aa:	b19b      	cbz	r3, 80068d4 <iqGetTimeout+0x36>
      return msg;
    }
  }

  /* Getting the character from the queue.*/
  iqp->q_counter--;
 80068ac:	68a3      	ldr	r3, [r4, #8]
  b = *iqp->q_rdptr++;
 80068ae:	69a2      	ldr	r2, [r4, #24]
  iqp->q_counter--;
 80068b0:	3b01      	subs	r3, #1
 80068b2:	60a3      	str	r3, [r4, #8]
  b = *iqp->q_rdptr++;
 80068b4:	1c53      	adds	r3, r2, #1
 80068b6:	61a3      	str	r3, [r4, #24]
 80068b8:	7815      	ldrb	r5, [r2, #0]
  if (iqp->q_rdptr >= iqp->q_top) {
 80068ba:	6922      	ldr	r2, [r4, #16]
 80068bc:	4293      	cmp	r3, r2
    iqp->q_rdptr = iqp->q_buffer;
 80068be:	bf24      	itt	cs
 80068c0:	68e3      	ldrcs	r3, [r4, #12]
 80068c2:	61a3      	strcs	r3, [r4, #24]
  }

  /* Inform the low side that the queue has at least one slot available.*/
  if (iqp->q_notify != NULL) {
 80068c4:	69e3      	ldr	r3, [r4, #28]
 80068c6:	b10b      	cbz	r3, 80068cc <iqGetTimeout+0x2e>
    iqp->q_notify(iqp);
 80068c8:	4620      	mov	r0, r4
 80068ca:	4798      	blx	r3
  }

  osalSysUnlock();
 80068cc:	f7fe f956 	bl	8004b7c <osalSysUnlock.lto_priv.0>

  return (msg_t)b;
 80068d0:	4628      	mov	r0, r5
 80068d2:	e007      	b.n	80068e4 <iqGetTimeout+0x46>
    msg_t msg = osalThreadEnqueueTimeoutS(&iqp->q_waiting, timeout);
 80068d4:	4629      	mov	r1, r5
 80068d6:	4620      	mov	r0, r4
 80068d8:	f7ff feda 	bl	8006690 <osalThreadEnqueueTimeoutS>
    if (msg < MSG_OK) {
 80068dc:	2800      	cmp	r0, #0
 80068de:	dae3      	bge.n	80068a8 <iqGetTimeout+0xa>
      osalSysUnlock();
 80068e0:	f7fe f94c 	bl	8004b7c <osalSysUnlock.lto_priv.0>
}
 80068e4:	bd38      	pop	{r3, r4, r5, pc}

080068e6 <_get.lto_priv.0>:
  return oqPutTimeout(&((SerialDriver *)ip)->oqueue, b, TIME_INFINITE);
}

static msg_t _get(void *ip) {

  return iqGetTimeout(&((SerialDriver *)ip)->iqueue, TIME_INFINITE);
 80068e6:	f04f 31ff 	mov.w	r1, #4294967295	; 0xffffffff
 80068ea:	3018      	adds	r0, #24
 80068ec:	f7ff bfd7 	b.w	800689e <iqGetTimeout>

080068f0 <_gett.lto_priv.0>:
  return oqPutTimeout(&((SerialDriver *)ip)->oqueue, b, timeout);
}

static msg_t _gett(void *ip, systime_t timeout) {

  return iqGetTimeout(&((SerialDriver *)ip)->iqueue, timeout);
 80068f0:	3018      	adds	r0, #24
 80068f2:	f7ff bfd4 	b.w	800689e <iqGetTimeout>
	...

080068f8 <iqReadTimeout>:
 * @return              The number of bytes effectively transferred.
 *
 * @api
 */
size_t iqReadTimeout(input_queue_t *iqp, uint8_t *bp,
                     size_t n, systime_t timeout) {
 80068f8:	e92d 4ff7 	stmdb	sp!, {r0, r1, r2, r4, r5, r6, r7, r8, r9, sl, fp, lr}
 80068fc:	4604      	mov	r4, r0
 80068fe:	460d      	mov	r5, r1
 8006900:	461f      	mov	r7, r3
  systime_t deadline;
  qnotify_t nfy = iqp->q_notify;
  size_t r = 0;

  osalDbgCheck(n > 0U);
 8006902:	4616      	mov	r6, r2
 8006904:	b912      	cbnz	r2, 800690c <iqReadTimeout+0x14>
 8006906:	f7fd ff25 	bl	8004754 <vTaskEndScheduler>
 800690a:	e7fe      	b.n	800690a <iqReadTimeout+0x12>
  size_t r = 0;
 800690c:	f04f 0800 	mov.w	r8, #0
 8006910:	f8df a088 	ldr.w	sl, [pc, #136]	; 800699c <iqReadTimeout+0xa4>
  qnotify_t nfy = iqp->q_notify;
 8006914:	f8d0 901c 	ldr.w	r9, [r0, #28]

  osalSysLock();
 8006918:	f7fd ff0c 	bl	8004734 <vPortEnterCritical>
 800691c:	f7fe fcf8 	bl	8005310 <vPortValidateInterruptPriority>
 8006920:	f8da 3000 	ldr.w	r3, [sl]
    while (iqIsEmptyI(iqp)) {
      msg_t msg;

      /* TIME_INFINITE and TIME_IMMEDIATE are handled differently, no
         deadline.*/
      if ((timeout == TIME_INFINITE) || (timeout == TIME_IMMEDIATE)) {
 8006924:	f107 3bff 	add.w	fp, r7, #4294967295	; 0xffffffff
  deadline = osalOsGetSystemTimeX() + timeout;
 8006928:	18fb      	adds	r3, r7, r3
 800692a:	9301      	str	r3, [sp, #4]
    while (iqIsEmptyI(iqp)) {
 800692c:	68a3      	ldr	r3, [r4, #8]
 800692e:	b1e3      	cbz	r3, 800696a <iqReadTimeout+0x72>
        return r;
      }
    }

    /* Getting the character from the queue.*/
    iqp->q_counter--;
 8006930:	68a3      	ldr	r3, [r4, #8]
 8006932:	3b01      	subs	r3, #1
 8006934:	60a3      	str	r3, [r4, #8]
    *bp++ = *iqp->q_rdptr++;
 8006936:	69a3      	ldr	r3, [r4, #24]
 8006938:	1c5a      	adds	r2, r3, #1
 800693a:	61a2      	str	r2, [r4, #24]
 800693c:	781b      	ldrb	r3, [r3, #0]
 800693e:	f805 3b01 	strb.w	r3, [r5], #1
    if (iqp->q_rdptr >= iqp->q_top) {
 8006942:	6923      	ldr	r3, [r4, #16]
 8006944:	69a2      	ldr	r2, [r4, #24]
 8006946:	429a      	cmp	r2, r3
      iqp->q_rdptr = iqp->q_buffer;
 8006948:	bf24      	itt	cs
 800694a:	68e3      	ldrcs	r3, [r4, #12]
 800694c:	61a3      	strcs	r3, [r4, #24]
    }

    /* Inform the low side that the queue has at least one slot available.*/
    if (nfy != NULL) {
 800694e:	f1b9 0f00 	cmp.w	r9, #0
 8006952:	d001      	beq.n	8006958 <iqReadTimeout+0x60>
      nfy(iqp);
 8006954:	4620      	mov	r0, r4
 8006956:	47c8      	blx	r9
    }

    /* Giving a preemption chance in a controlled point.*/
    osalSysUnlock();
 8006958:	f7fe f910 	bl	8004b7c <osalSysUnlock.lto_priv.0>

    r++;
    if (--n == 0U) {
 800695c:	3e01      	subs	r6, #1
    r++;
 800695e:	f108 0801 	add.w	r8, r8, #1
    if (--n == 0U) {
 8006962:	d016      	beq.n	8006992 <iqReadTimeout+0x9a>
      return r;
    }

    osalSysLock();
 8006964:	f7fd fee6 	bl	8004734 <vPortEnterCritical>
  while (true) {
 8006968:	e7e0      	b.n	800692c <iqReadTimeout+0x34>
      if ((timeout == TIME_INFINITE) || (timeout == TIME_IMMEDIATE)) {
 800696a:	f11b 0f03 	cmn.w	fp, #3
 800696e:	d906      	bls.n	800697e <iqReadTimeout+0x86>
        msg = osalThreadEnqueueTimeoutS(&iqp->q_waiting, timeout);
 8006970:	4639      	mov	r1, r7
        msg = osalThreadEnqueueTimeoutS(&iqp->q_waiting, next_timeout);
 8006972:	4620      	mov	r0, r4
 8006974:	f7ff fe8c 	bl	8006690 <osalThreadEnqueueTimeoutS>
      if (msg != MSG_OK) {
 8006978:	2800      	cmp	r0, #0
 800697a:	d0d7      	beq.n	800692c <iqReadTimeout+0x34>
 800697c:	e007      	b.n	800698e <iqReadTimeout+0x96>
 800697e:	f7fe fcc7 	bl	8005310 <vPortValidateInterruptPriority>
 8006982:	f8da 1000 	ldr.w	r1, [sl]
        systime_t next_timeout = deadline - osalOsGetSystemTimeX();
 8006986:	9b01      	ldr	r3, [sp, #4]
 8006988:	1a59      	subs	r1, r3, r1
        if (next_timeout > timeout) {
 800698a:	428f      	cmp	r7, r1
 800698c:	d2f1      	bcs.n	8006972 <iqReadTimeout+0x7a>
        osalSysUnlock();
 800698e:	f7fe f8f5 	bl	8004b7c <osalSysUnlock.lto_priv.0>
  }
}
 8006992:	4640      	mov	r0, r8
 8006994:	b003      	add	sp, #12
 8006996:	e8bd 8ff0 	ldmia.w	sp!, {r4, r5, r6, r7, r8, r9, sl, fp, pc}
 800699a:	bf00      	nop
 800699c:	20001648 	.word	0x20001648

080069a0 <_read.lto_priv.0>:
  return iqReadTimeout(&((SerialDriver *)ip)->iqueue, bp,
 80069a0:	f04f 33ff 	mov.w	r3, #4294967295	; 0xffffffff
 80069a4:	3018      	adds	r0, #24
 80069a6:	f7ff bfa7 	b.w	80068f8 <iqReadTimeout>

080069aa <_readt.lto_priv.0>:
  return oqWriteTimeout(&((SerialDriver *)ip)->oqueue, bp, n, timeout);
}

static size_t _readt(void *ip, uint8_t *bp, size_t n, systime_t timeout) {

  return iqReadTimeout(&((SerialDriver *)ip)->iqueue, bp, n, timeout);
 80069aa:	3018      	adds	r0, #24
 80069ac:	f7ff bfa4 	b.w	80068f8 <iqReadTimeout>

080069b0 <oqPutTimeout>:
 * @retval MSG_TIMEOUT  if the specified time expired.
 * @retval MSG_RESET    if the queue has been reset.
 *
 * @api
 */
msg_t oqPutTimeout(output_queue_t *oqp, uint8_t b, systime_t timeout) {
 80069b0:	b570      	push	{r4, r5, r6, lr}
 80069b2:	4604      	mov	r4, r0
 80069b4:	460d      	mov	r5, r1
 80069b6:	4616      	mov	r6, r2

  osalSysLock();
 80069b8:	f7fd febc 	bl	8004734 <vPortEnterCritical>

  /* Waiting until there is a slot available or a timeout occurs.*/
  while (oqIsFullI(oqp)) {
 80069bc:	68a3      	ldr	r3, [r4, #8]
 80069be:	b1a3      	cbz	r3, 80069ea <oqPutTimeout+0x3a>
      return msg;
    }
  }

  /* Putting the character into the queue.*/
  oqp->q_counter--;
 80069c0:	68a3      	ldr	r3, [r4, #8]
 80069c2:	3b01      	subs	r3, #1
 80069c4:	60a3      	str	r3, [r4, #8]
  *oqp->q_wrptr++ = b;
 80069c6:	6963      	ldr	r3, [r4, #20]
 80069c8:	1c5a      	adds	r2, r3, #1
 80069ca:	6162      	str	r2, [r4, #20]
 80069cc:	701d      	strb	r5, [r3, #0]
  if (oqp->q_wrptr >= oqp->q_top) {
 80069ce:	e9d4 3204 	ldrd	r3, r2, [r4, #16]
 80069d2:	429a      	cmp	r2, r3
    oqp->q_wrptr = oqp->q_buffer;
 80069d4:	bf24      	itt	cs
 80069d6:	68e3      	ldrcs	r3, [r4, #12]
 80069d8:	6163      	strcs	r3, [r4, #20]
  }

  /* Inform the low side that the queue has at least one character available.*/
  if (oqp->q_notify != NULL) {
 80069da:	69e3      	ldr	r3, [r4, #28]
 80069dc:	b10b      	cbz	r3, 80069e2 <oqPutTimeout+0x32>
    oqp->q_notify(oqp);
 80069de:	4620      	mov	r0, r4
 80069e0:	4798      	blx	r3
  }

  osalSysUnlock();
 80069e2:	f7fe f8cb 	bl	8004b7c <osalSysUnlock.lto_priv.0>
 80069e6:	2000      	movs	r0, #0
 80069e8:	e007      	b.n	80069fa <oqPutTimeout+0x4a>
    msg_t msg = osalThreadEnqueueTimeoutS(&oqp->q_waiting, timeout);
 80069ea:	4631      	mov	r1, r6
 80069ec:	4620      	mov	r0, r4
 80069ee:	f7ff fe4f 	bl	8006690 <osalThreadEnqueueTimeoutS>
    if (msg < MSG_OK) {
 80069f2:	2800      	cmp	r0, #0
 80069f4:	dae2      	bge.n	80069bc <oqPutTimeout+0xc>
      osalSysUnlock();
 80069f6:	f7fe f8c1 	bl	8004b7c <osalSysUnlock.lto_priv.0>

  return MSG_OK;
}
 80069fa:	bd70      	pop	{r4, r5, r6, pc}

080069fc <_put.lto_priv.0>:
  return oqPutTimeout(&((SerialDriver *)ip)->oqueue, b, TIME_INFINITE);
 80069fc:	f04f 32ff 	mov.w	r2, #4294967295	; 0xffffffff
 8006a00:	303c      	adds	r0, #60	; 0x3c
 8006a02:	f7ff bfd5 	b.w	80069b0 <oqPutTimeout>

08006a06 <_putt.lto_priv.0>:
  return oqPutTimeout(&((SerialDriver *)ip)->oqueue, b, timeout);
 8006a06:	303c      	adds	r0, #60	; 0x3c
 8006a08:	f7ff bfd2 	b.w	80069b0 <oqPutTimeout>

08006a0c <oqWriteTimeout>:
 * @return              The number of bytes effectively transferred.
 *
 * @api
 */
size_t oqWriteTimeout(output_queue_t *oqp, const uint8_t *bp,
                      size_t n, systime_t timeout) {
 8006a0c:	e92d 4ff7 	stmdb	sp!, {r0, r1, r2, r4, r5, r6, r7, r8, r9, sl, fp, lr}
 8006a10:	4604      	mov	r4, r0
 8006a12:	460d      	mov	r5, r1
 8006a14:	461f      	mov	r7, r3
  systime_t deadline;
  qnotify_t nfy = oqp->q_notify;
  size_t w = 0;

  osalDbgCheck(n > 0U);
 8006a16:	4616      	mov	r6, r2
 8006a18:	b912      	cbnz	r2, 8006a20 <oqWriteTimeout+0x14>
 8006a1a:	f7fd fe9b 	bl	8004754 <vTaskEndScheduler>
 8006a1e:	e7fe      	b.n	8006a1e <oqWriteTimeout+0x12>
  size_t w = 0;
 8006a20:	f04f 0800 	mov.w	r8, #0
 8006a24:	f8df a088 	ldr.w	sl, [pc, #136]	; 8006ab0 <oqWriteTimeout+0xa4>
  qnotify_t nfy = oqp->q_notify;
 8006a28:	f8d0 901c 	ldr.w	r9, [r0, #28]

  osalSysLock();
 8006a2c:	f7fd fe82 	bl	8004734 <vPortEnterCritical>
 8006a30:	f7fe fc6e 	bl	8005310 <vPortValidateInterruptPriority>
 8006a34:	f8da 3000 	ldr.w	r3, [sl]
    msg_t msg;

    while (oqIsFullI(oqp)) {
      /* TIME_INFINITE and TIME_IMMEDIATE are handled differently, no
         deadline.*/
      if ((timeout == TIME_INFINITE) || (timeout == TIME_IMMEDIATE)) {
 8006a38:	f107 3bff 	add.w	fp, r7, #4294967295	; 0xffffffff
  deadline = osalOsGetSystemTimeX() + timeout;
 8006a3c:	18fb      	adds	r3, r7, r3
 8006a3e:	9301      	str	r3, [sp, #4]
    while (oqIsFullI(oqp)) {
 8006a40:	68a3      	ldr	r3, [r4, #8]
 8006a42:	b1e3      	cbz	r3, 8006a7e <oqWriteTimeout+0x72>
        return w;
      }
    }

    /* Putting the character into the queue.*/
    oqp->q_counter--;
 8006a44:	68a3      	ldr	r3, [r4, #8]
 8006a46:	3b01      	subs	r3, #1
 8006a48:	60a3      	str	r3, [r4, #8]
    *oqp->q_wrptr++ = *bp++;
 8006a4a:	6963      	ldr	r3, [r4, #20]
 8006a4c:	1c5a      	adds	r2, r3, #1
 8006a4e:	6162      	str	r2, [r4, #20]
 8006a50:	f815 2b01 	ldrb.w	r2, [r5], #1
 8006a54:	701a      	strb	r2, [r3, #0]
    if (oqp->q_wrptr >= oqp->q_top) {
 8006a56:	e9d4 3204 	ldrd	r3, r2, [r4, #16]
 8006a5a:	429a      	cmp	r2, r3
      oqp->q_wrptr = oqp->q_buffer;
 8006a5c:	bf24      	itt	cs
 8006a5e:	68e3      	ldrcs	r3, [r4, #12]
 8006a60:	6163      	strcs	r3, [r4, #20]
    }

    /* Inform the low side that the queue has at least one character available.*/
    if (nfy != NULL) {
 8006a62:	f1b9 0f00 	cmp.w	r9, #0
 8006a66:	d001      	beq.n	8006a6c <oqWriteTimeout+0x60>
      nfy(oqp);
 8006a68:	4620      	mov	r0, r4
 8006a6a:	47c8      	blx	r9
    }

    /* Giving a preemption chance in a controlled point.*/
    osalSysUnlock();
 8006a6c:	f7fe f886 	bl	8004b7c <osalSysUnlock.lto_priv.0>

    w++;
    if (--n == 0U) {
 8006a70:	3e01      	subs	r6, #1
    w++;
 8006a72:	f108 0801 	add.w	r8, r8, #1
    if (--n == 0U) {
 8006a76:	d016      	beq.n	8006aa6 <oqWriteTimeout+0x9a>
      return w;
    }

    osalSysLock();
 8006a78:	f7fd fe5c 	bl	8004734 <vPortEnterCritical>
  while (true) {
 8006a7c:	e7e0      	b.n	8006a40 <oqWriteTimeout+0x34>
      if ((timeout == TIME_INFINITE) || (timeout == TIME_IMMEDIATE)) {
 8006a7e:	f11b 0f03 	cmn.w	fp, #3
 8006a82:	d906      	bls.n	8006a92 <oqWriteTimeout+0x86>
        msg = osalThreadEnqueueTimeoutS(&oqp->q_waiting, timeout);
 8006a84:	4639      	mov	r1, r7
        msg = osalThreadEnqueueTimeoutS(&oqp->q_waiting, next_timeout);
 8006a86:	4620      	mov	r0, r4
 8006a88:	f7ff fe02 	bl	8006690 <osalThreadEnqueueTimeoutS>
      if (msg != MSG_OK) {
 8006a8c:	2800      	cmp	r0, #0
 8006a8e:	d0d7      	beq.n	8006a40 <oqWriteTimeout+0x34>
 8006a90:	e007      	b.n	8006aa2 <oqWriteTimeout+0x96>
 8006a92:	f7fe fc3d 	bl	8005310 <vPortValidateInterruptPriority>
 8006a96:	f8da 1000 	ldr.w	r1, [sl]
        systime_t next_timeout = deadline - osalOsGetSystemTimeX();
 8006a9a:	9b01      	ldr	r3, [sp, #4]
 8006a9c:	1a59      	subs	r1, r3, r1
        if (next_timeout > timeout) {
 8006a9e:	428f      	cmp	r7, r1
 8006aa0:	d2f1      	bcs.n	8006a86 <oqWriteTimeout+0x7a>
        osalSysUnlock();
 8006aa2:	f7fe f86b 	bl	8004b7c <osalSysUnlock.lto_priv.0>
  }
}
 8006aa6:	4640      	mov	r0, r8
 8006aa8:	b003      	add	sp, #12
 8006aaa:	e8bd 8ff0 	ldmia.w	sp!, {r4, r5, r6, r7, r8, r9, sl, fp, pc}
 8006aae:	bf00      	nop
 8006ab0:	20001648 	.word	0x20001648

08006ab4 <_write.lto_priv.0>:
  return oqWriteTimeout(&((SerialDriver *)ip)->oqueue, bp,
 8006ab4:	f04f 33ff 	mov.w	r3, #4294967295	; 0xffffffff
 8006ab8:	303c      	adds	r0, #60	; 0x3c
 8006aba:	f7ff bfa7 	b.w	8006a0c <oqWriteTimeout>

08006abe <_writet.lto_priv.0>:
  return oqWriteTimeout(&((SerialDriver *)ip)->oqueue, bp, n, timeout);
 8006abe:	303c      	adds	r0, #60	; 0x3c
 8006ac0:	f7ff bfa4 	b.w	8006a0c <oqWriteTimeout>

08006ac4 <long_to_string_with_divisor.constprop.0>:
#include "memstreams.h"

#define MAX_FILLER 11
#define FLOAT_PRECISION 9

static char *long_to_string_with_divisor(char *p,
 8006ac4:	b5f0      	push	{r4, r5, r6, r7, lr}
    ll = num;
  } else {
    ll = divisor;
  }

  q = p + MAX_FILLER;
 8006ac6:	f100 040b 	add.w	r4, r0, #11
 8006aca:	4623      	mov	r3, r4
  do {
    i = (int)(l % radix);
 8006acc:	460d      	mov	r5, r1
 8006ace:	fbb1 f1f2 	udiv	r1, r1, r2
 8006ad2:	fb02 5711 	mls	r7, r2, r1, r5
    i += '0';
 8006ad6:	f107 0630 	add.w	r6, r7, #48	; 0x30
    if (i > '9')
 8006ada:	2e39      	cmp	r6, #57	; 0x39
      i += 'A' - '0' - 10;
 8006adc:	bfc8      	it	gt
 8006ade:	f107 0637 	addgt.w	r6, r7, #55	; 0x37
    *--q = i;
    l /= radix;
  } while ((ll /= radix) != 0);
 8006ae2:	4295      	cmp	r5, r2
    *--q = i;
 8006ae4:	f803 6d01 	strb.w	r6, [r3, #-1]!
  } while ((ll /= radix) != 0);
 8006ae8:	d2f0      	bcs.n	8006acc <long_to_string_with_divisor.constprop.0+0x8>
 8006aea:	1e42      	subs	r2, r0, #1

  i = (int)(p + MAX_FILLER - q);
 8006aec:	1ae1      	subs	r1, r4, r3
  do
    *p++ = *q++;
 8006aee:	f813 5b01 	ldrb.w	r5, [r3], #1
  while (--i);
 8006af2:	429c      	cmp	r4, r3
    *p++ = *q++;
 8006af4:	f802 5f01 	strb.w	r5, [r2, #1]!
  while (--i);
 8006af8:	d1f9      	bne.n	8006aee <long_to_string_with_divisor.constprop.0+0x2a>

  return p;
}
 8006afa:	4408      	add	r0, r1
 8006afc:	bdf0      	pop	{r4, r5, r6, r7, pc}
	...

08006b00 <chvprintf>:
 * @return              The number of bytes that would have been
 *                      written to @p chp if no stream error occurs
 *
 * @api
 */
int chvprintf(BaseSequentialStream *chp, const char *fmt, va_list ap) {
 8006b00:	e92d 4ff0 	stmdb	sp!, {r4, r5, r6, r7, r8, r9, sl, fp, lr}
 8006b04:	460b      	mov	r3, r1
 8006b06:	4680      	mov	r8, r0
 8006b08:	4614      	mov	r4, r2
  char *p, *s, c, filler;
  int i, precision, width;
  int n = 0;
 8006b0a:	f04f 0900 	mov.w	r9, #0
int chvprintf(BaseSequentialStream *chp, const char *fmt, va_list ap) {
 8006b0e:	b087      	sub	sp, #28
#else
  char tmpbuf[MAX_FILLER + 1];
#endif

  while (true) {
    c = *fmt++;
 8006b10:	461f      	mov	r7, r3
 8006b12:	f817 1b01 	ldrb.w	r1, [r7], #1
    if (c == 0)
 8006b16:	2900      	cmp	r1, #0
 8006b18:	f000 8152 	beq.w	8006dc0 <chvprintf+0x2c0>
      return n;
    if (c != '%') {
 8006b1c:	2925      	cmp	r1, #37	; 0x25
 8006b1e:	d007      	beq.n	8006b30 <chvprintf+0x30>
      streamPut(chp, (uint8_t)c);
 8006b20:	f8d8 3000 	ldr.w	r3, [r8]
 8006b24:	4640      	mov	r0, r8
 8006b26:	689b      	ldr	r3, [r3, #8]
 8006b28:	4798      	blx	r3
      n++;
 8006b2a:	f109 0901 	add.w	r9, r9, #1
      continue;
 8006b2e:	e112      	b.n	8006d56 <chvprintf+0x256>
    }
    p = tmpbuf;
    s = tmpbuf;
    left_align = FALSE;
    if (*fmt == '-') {
 8006b30:	785a      	ldrb	r2, [r3, #1]
    filler = ' ';
    if (*fmt == '0') {
      fmt++;
      filler = '0';
    }
    width = 0;
 8006b32:	f04f 0b00 	mov.w	fp, #0
    if (*fmt == '-') {
 8006b36:	2a2d      	cmp	r2, #45	; 0x2d
      fmt++;
 8006b38:	bf08      	it	eq
 8006b3a:	1c9f      	addeq	r7, r3, #2
    if (*fmt == '0') {
 8006b3c:	f897 a000 	ldrb.w	sl, [r7]
      left_align = TRUE;
 8006b40:	bf0c      	ite	eq
 8006b42:	2301      	moveq	r3, #1
    left_align = FALSE;
 8006b44:	2300      	movne	r3, #0
    if (*fmt == '0') {
 8006b46:	f1ba 0f30 	cmp.w	sl, #48	; 0x30
    filler = ' ';
 8006b4a:	bf18      	it	ne
 8006b4c:	f04f 0a20 	movne.w	sl, #32
    left_align = FALSE;
 8006b50:	9301      	str	r3, [sp, #4]
      fmt++;
 8006b52:	bf08      	it	eq
 8006b54:	3701      	addeq	r7, #1
    while (TRUE) {
      c = *fmt++;
 8006b56:	f817 2b01 	ldrb.w	r2, [r7], #1
      if (c >= '0' && c <= '9')
 8006b5a:	f1a2 0130 	sub.w	r1, r2, #48	; 0x30
 8006b5e:	b2c9      	uxtb	r1, r1
 8006b60:	2909      	cmp	r1, #9
 8006b62:	d904      	bls.n	8006b6e <chvprintf+0x6e>
        c -= '0';
      else if (c == '*')
 8006b64:	2a2a      	cmp	r2, #42	; 0x2a
 8006b66:	d106      	bne.n	8006b76 <chvprintf+0x76>
        c = va_arg(ap, int);
 8006b68:	f854 1b04 	ldr.w	r1, [r4], #4
 8006b6c:	b2c9      	uxtb	r1, r1
      else
        break;
      width = width * 10 + c;
 8006b6e:	230a      	movs	r3, #10
 8006b70:	fb03 1b0b 	mla	fp, r3, fp, r1
    while (TRUE) {
 8006b74:	e7ef      	b.n	8006b56 <chvprintf+0x56>
    }
    precision = 0;
    if (c == '.') {
 8006b76:	2a2e      	cmp	r2, #46	; 0x2e
    precision = 0;
 8006b78:	f04f 0100 	mov.w	r1, #0
    if (c == '.') {
 8006b7c:	d10f      	bne.n	8006b9e <chvprintf+0x9e>
      while (TRUE) {
        c = *fmt++;
 8006b7e:	f817 2b01 	ldrb.w	r2, [r7], #1
        if (c >= '0' && c <= '9')
 8006b82:	f1a2 0030 	sub.w	r0, r2, #48	; 0x30
 8006b86:	b2c0      	uxtb	r0, r0
 8006b88:	2809      	cmp	r0, #9
 8006b8a:	d904      	bls.n	8006b96 <chvprintf+0x96>
          c -= '0';
        else if (c == '*')
 8006b8c:	2a2a      	cmp	r2, #42	; 0x2a
 8006b8e:	d106      	bne.n	8006b9e <chvprintf+0x9e>
          c = va_arg(ap, int);
 8006b90:	f854 0b04 	ldr.w	r0, [r4], #4
 8006b94:	b2c0      	uxtb	r0, r0
        else
          break;
        precision *= 10;
        precision += c;
 8006b96:	230a      	movs	r3, #10
 8006b98:	fb03 0101 	mla	r1, r3, r1, r0
      while (TRUE) {
 8006b9c:	e7ef      	b.n	8006b7e <chvprintf+0x7e>
      }
    }
    /* Long modifier.*/
    if (c == 'l' || c == 'L') {
 8006b9e:	f002 00df 	and.w	r0, r2, #223	; 0xdf
 8006ba2:	284c      	cmp	r0, #76	; 0x4c
 8006ba4:	d115      	bne.n	8006bd2 <chvprintf+0xd2>
      is_long = TRUE;
      if (*fmt)
 8006ba6:	7838      	ldrb	r0, [r7, #0]
 8006ba8:	b108      	cbz	r0, 8006bae <chvprintf+0xae>
        c = *fmt++;
 8006baa:	4602      	mov	r2, r0
 8006bac:	3701      	adds	r7, #1
    }
    else
      is_long = (c >= 'A') && (c <= 'Z');

    /* Command decoding.*/
    switch (c) {
 8006bae:	2a64      	cmp	r2, #100	; 0x64
 8006bb0:	d06f      	beq.n	8006c92 <chvprintf+0x192>
 8006bb2:	f200 80e3 	bhi.w	8006d7c <chvprintf+0x27c>
 8006bb6:	2a58      	cmp	r2, #88	; 0x58
 8006bb8:	f000 80d9 	beq.w	8006d6e <chvprintf+0x26e>
 8006bbc:	d821      	bhi.n	8006c02 <chvprintf+0x102>
 8006bbe:	2a4f      	cmp	r2, #79	; 0x4f
 8006bc0:	f000 80b5 	beq.w	8006d2e <chvprintf+0x22e>
 8006bc4:	f200 80d5 	bhi.w	8006d72 <chvprintf+0x272>
 8006bc8:	2a44      	cmp	r2, #68	; 0x44
 8006bca:	d062      	beq.n	8006c92 <chvprintf+0x192>
 8006bcc:	2a49      	cmp	r2, #73	; 0x49
 8006bce:	d060      	beq.n	8006c92 <chvprintf+0x192>
 8006bd0:	e010      	b.n	8006bf4 <chvprintf+0xf4>
      is_long = (c >= 'A') && (c <= 'Z');
 8006bd2:	f1a2 0041 	sub.w	r0, r2, #65	; 0x41
    switch (c) {
 8006bd6:	2a64      	cmp	r2, #100	; 0x64
      is_long = (c >= 'A') && (c <= 'Z');
 8006bd8:	b2c0      	uxtb	r0, r0
    switch (c) {
 8006bda:	d056      	beq.n	8006c8a <chvprintf+0x18a>
 8006bdc:	d81e      	bhi.n	8006c1c <chvprintf+0x11c>
 8006bde:	2a55      	cmp	r2, #85	; 0x55
 8006be0:	f000 8096 	beq.w	8006d10 <chvprintf+0x210>
 8006be4:	d80a      	bhi.n	8006bfc <chvprintf+0xfc>
 8006be6:	2a49      	cmp	r2, #73	; 0x49
 8006be8:	d04f      	beq.n	8006c8a <chvprintf+0x18a>
 8006bea:	2a4f      	cmp	r2, #79	; 0x4f
 8006bec:	f000 809b 	beq.w	8006d26 <chvprintf+0x226>
 8006bf0:	2a44      	cmp	r2, #68	; 0x44
 8006bf2:	d04a      	beq.n	8006c8a <chvprintf+0x18a>
      else
        l = va_arg(ap, unsigned int);
      p = ch_ltoa(p, l, c);
      break;
    default:
      *p++ = c;
 8006bf4:	4626      	mov	r6, r4
 8006bf6:	f88d 200c 	strb.w	r2, [sp, #12]
      break;
 8006bfa:	e00b      	b.n	8006c14 <chvprintf+0x114>
    switch (c) {
 8006bfc:	2a58      	cmp	r2, #88	; 0x58
 8006bfe:	f000 8094 	beq.w	8006d2a <chvprintf+0x22a>
 8006c02:	2a63      	cmp	r2, #99	; 0x63
 8006c04:	d1f6      	bne.n	8006bf4 <chvprintf+0xf4>
      *p++ = va_arg(ap, int);
 8006c06:	4626      	mov	r6, r4
      filler = ' ';
 8006c08:	f04f 0a20 	mov.w	sl, #32
      *p++ = va_arg(ap, int);
 8006c0c:	f856 2b04 	ldr.w	r2, [r6], #4
 8006c10:	f88d 200c 	strb.w	r2, [sp, #12]
    s = tmpbuf;
 8006c14:	ac03      	add	r4, sp, #12
      *p++ = c;
 8006c16:	f10d 000d 	add.w	r0, sp, #13
 8006c1a:	e04c      	b.n	8006cb6 <chvprintf+0x1b6>
    switch (c) {
 8006c1c:	2a69      	cmp	r2, #105	; 0x69
 8006c1e:	d034      	beq.n	8006c8a <chvprintf+0x18a>
 8006c20:	f1a2 056f 	sub.w	r5, r2, #111	; 0x6f
 8006c24:	b2ee      	uxtb	r6, r5
 8006c26:	2e09      	cmp	r6, #9
 8006c28:	d8e4      	bhi.n	8006bf4 <chvprintf+0xf4>
 8006c2a:	2d09      	cmp	r5, #9
 8006c2c:	d8e2      	bhi.n	8006bf4 <chvprintf+0xf4>
 8006c2e:	a301      	add	r3, pc, #4	; (adr r3, 8006c34 <chvprintf+0x134>)
 8006c30:	f853 f025 	ldr.w	pc, [r3, r5, lsl #2]
 8006c34:	08006d27 	.word	0x08006d27
 8006c38:	08006bf5 	.word	0x08006bf5
 8006c3c:	08006bf5 	.word	0x08006bf5
 8006c40:	08006bf5 	.word	0x08006bf5
 8006c44:	08006c5d 	.word	0x08006c5d
 8006c48:	08006bf5 	.word	0x08006bf5
 8006c4c:	08006d11 	.word	0x08006d11
 8006c50:	08006bf5 	.word	0x08006bf5
 8006c54:	08006bf5 	.word	0x08006bf5
 8006c58:	08006d2b 	.word	0x08006d2b
      if ((s = va_arg(ap, char *)) == 0)
 8006c5c:	4626      	mov	r6, r4
        s = "(null)";
 8006c5e:	4b5a      	ldr	r3, [pc, #360]	; (8006dc8 <chvprintf+0x2c8>)
      if ((s = va_arg(ap, char *)) == 0)
 8006c60:	f856 4b04 	ldr.w	r4, [r6], #4
        precision = 32767;
 8006c64:	f647 72ff 	movw	r2, #32767	; 0x7fff
        s = "(null)";
 8006c68:	2c00      	cmp	r4, #0
 8006c6a:	bf08      	it	eq
 8006c6c:	461c      	moveq	r4, r3
        precision = 32767;
 8006c6e:	2900      	cmp	r1, #0
 8006c70:	bf08      	it	eq
 8006c72:	4611      	moveq	r1, r2
 8006c74:	4620      	mov	r0, r4
 8006c76:	4421      	add	r1, r4
      for (p = s; *p && (--precision >= 0); p++)
 8006c78:	7802      	ldrb	r2, [r0, #0]
 8006c7a:	b10a      	cbz	r2, 8006c80 <chvprintf+0x180>
 8006c7c:	4288      	cmp	r0, r1
 8006c7e:	d102      	bne.n	8006c86 <chvprintf+0x186>
      filler = ' ';
 8006c80:	f04f 0a20 	mov.w	sl, #32
 8006c84:	e017      	b.n	8006cb6 <chvprintf+0x1b6>
      for (p = s; *p && (--precision >= 0); p++)
 8006c86:	3001      	adds	r0, #1
 8006c88:	e7f6      	b.n	8006c78 <chvprintf+0x178>
      if (is_long)
 8006c8a:	2819      	cmp	r0, #25
        l = va_arg(ap, int);
 8006c8c:	f104 0604 	add.w	r6, r4, #4
      if (is_long)
 8006c90:	d83c      	bhi.n	8006d0c <chvprintf+0x20c>
        l = va_arg(ap, long);
 8006c92:	4626      	mov	r6, r4
 8006c94:	f856 1b04 	ldr.w	r1, [r6], #4
      if (l < 0) {
 8006c98:	2900      	cmp	r1, #0
        *p++ = '-';
 8006c9a:	bfbc      	itt	lt
 8006c9c:	222d      	movlt	r2, #45	; 0x2d
 8006c9e:	f88d 200c 	strblt.w	r2, [sp, #12]
  return long_to_string_with_divisor(p, num, radix, 0);
 8006ca2:	f04f 020a 	mov.w	r2, #10
        l = -l;
 8006ca6:	bfba      	itte	lt
 8006ca8:	4249      	neglt	r1, r1
        *p++ = '-';
 8006caa:	f10d 000d 	addlt.w	r0, sp, #13
    p = tmpbuf;
 8006cae:	a803      	addge	r0, sp, #12
  return long_to_string_with_divisor(p, num, radix, 0);
 8006cb0:	f7ff ff08 	bl	8006ac4 <long_to_string_with_divisor.constprop.0>
    s = tmpbuf;
 8006cb4:	ac03      	add	r4, sp, #12
    }
    i = (int)(p - s);
 8006cb6:	1b05      	subs	r5, r0, r4
    if ((width -= i) < 0)
      width = 0;
    if (left_align == FALSE)
 8006cb8:	9901      	ldr	r1, [sp, #4]
    if ((width -= i) < 0)
 8006cba:	ebab 0305 	sub.w	r3, fp, r5
 8006cbe:	ea23 72e3 	bic.w	r2, r3, r3, asr #31
    if (left_align == FALSE)
 8006cc2:	2900      	cmp	r1, #0
 8006cc4:	d149      	bne.n	8006d5a <chvprintf+0x25a>
      width = -width;
    if (width < 0) {
 8006cc6:	2b00      	cmp	r3, #0
      width = -width;
 8006cc8:	f1c2 0b00 	rsb	fp, r2, #0
    if (width < 0) {
 8006ccc:	dd1c      	ble.n	8006d08 <chvprintf+0x208>
      if (*s == '-' && filler == '0') {
 8006cce:	7821      	ldrb	r1, [r4, #0]
 8006cd0:	292d      	cmp	r1, #45	; 0x2d
 8006cd2:	d10d      	bne.n	8006cf0 <chvprintf+0x1f0>
 8006cd4:	f1ba 0f30 	cmp.w	sl, #48	; 0x30
 8006cd8:	d10a      	bne.n	8006cf0 <chvprintf+0x1f0>
        streamPut(chp, (uint8_t)*s++);
 8006cda:	f8d8 3000 	ldr.w	r3, [r8]
 8006cde:	4640      	mov	r0, r8
 8006ce0:	689b      	ldr	r3, [r3, #8]
 8006ce2:	9201      	str	r2, [sp, #4]
 8006ce4:	4798      	blx	r3
 8006ce6:	9a01      	ldr	r2, [sp, #4]
        n++;
        i--;
 8006ce8:	3d01      	subs	r5, #1
      n++;
 8006cea:	f109 0901 	add.w	r9, r9, #1
        streamPut(chp, (uint8_t)*s++);
 8006cee:	3401      	adds	r4, #1
      }
      do {
        streamPut(chp, (uint8_t)filler);
 8006cf0:	f8d8 3000 	ldr.w	r3, [r8]
 8006cf4:	4651      	mov	r1, sl
 8006cf6:	4640      	mov	r0, r8
 8006cf8:	689b      	ldr	r3, [r3, #8]
 8006cfa:	9201      	str	r2, [sp, #4]
 8006cfc:	4798      	blx	r3
        n++;
      } while (++width != 0);
 8006cfe:	f11b 0b01 	adds.w	fp, fp, #1
 8006d02:	9a01      	ldr	r2, [sp, #4]
 8006d04:	d1f4      	bne.n	8006cf0 <chvprintf+0x1f0>
 8006d06:	4491      	add	r9, r2
    if (left_align == FALSE)
 8006d08:	462b      	mov	r3, r5
 8006d0a:	e01b      	b.n	8006d44 <chvprintf+0x244>
        l = va_arg(ap, int);
 8006d0c:	6821      	ldr	r1, [r4, #0]
 8006d0e:	e7c3      	b.n	8006c98 <chvprintf+0x198>
      c = 10;
 8006d10:	220a      	movs	r2, #10
        l = va_arg(ap, unsigned int);
 8006d12:	4626      	mov	r6, r4
      if (is_long)
 8006d14:	2819      	cmp	r0, #25
        l = va_arg(ap, unsigned int);
 8006d16:	f856 1b04 	ldr.w	r1, [r6], #4
      if (is_long)
 8006d1a:	d802      	bhi.n	8006d22 <chvprintf+0x222>
        l = va_arg(ap, unsigned long);
 8006d1c:	4626      	mov	r6, r4
 8006d1e:	f856 1b04 	ldr.w	r1, [r6], #4
  return long_to_string_with_divisor(p, num, radix, 0);
 8006d22:	a803      	add	r0, sp, #12
 8006d24:	e7c4      	b.n	8006cb0 <chvprintf+0x1b0>
      c = 8;
 8006d26:	2208      	movs	r2, #8
 8006d28:	e7f3      	b.n	8006d12 <chvprintf+0x212>
    switch (c) {
 8006d2a:	2210      	movs	r2, #16
 8006d2c:	e7f1      	b.n	8006d12 <chvprintf+0x212>
 8006d2e:	2208      	movs	r2, #8
 8006d30:	e7f4      	b.n	8006d1c <chvprintf+0x21c>
    }
    while (--i >= 0) {
      streamPut(chp, (uint8_t)*s++);
 8006d32:	f8d8 2000 	ldr.w	r2, [r8]
 8006d36:	4640      	mov	r0, r8
 8006d38:	6892      	ldr	r2, [r2, #8]
 8006d3a:	f814 1b01 	ldrb.w	r1, [r4], #1
 8006d3e:	9301      	str	r3, [sp, #4]
 8006d40:	4790      	blx	r2
      n++;
 8006d42:	9b01      	ldr	r3, [sp, #4]
    while (--i >= 0) {
 8006d44:	3b01      	subs	r3, #1
 8006d46:	d5f4      	bpl.n	8006d32 <chvprintf+0x232>
 8006d48:	2d00      	cmp	r5, #0
 8006d4a:	bfa8      	it	ge
 8006d4c:	44a9      	addge	r9, r5
 8006d4e:	465c      	mov	r4, fp
    }

    while (width) {
 8006d50:	b92c      	cbnz	r4, 8006d5e <chvprintf+0x25e>
 8006d52:	4634      	mov	r4, r6
 8006d54:	44d9      	add	r9, fp
 8006d56:	463b      	mov	r3, r7
 8006d58:	e6da      	b.n	8006b10 <chvprintf+0x10>
    if (left_align == FALSE)
 8006d5a:	4693      	mov	fp, r2
 8006d5c:	e7d4      	b.n	8006d08 <chvprintf+0x208>
      streamPut(chp, (uint8_t)filler);
 8006d5e:	f8d8 3000 	ldr.w	r3, [r8]
 8006d62:	4651      	mov	r1, sl
 8006d64:	4640      	mov	r0, r8
 8006d66:	689b      	ldr	r3, [r3, #8]
 8006d68:	4798      	blx	r3
      n++;
      width--;
 8006d6a:	3c01      	subs	r4, #1
 8006d6c:	e7f0      	b.n	8006d50 <chvprintf+0x250>
    switch (c) {
 8006d6e:	2210      	movs	r2, #16
 8006d70:	e7d4      	b.n	8006d1c <chvprintf+0x21c>
 8006d72:	2a55      	cmp	r2, #85	; 0x55
 8006d74:	f47f af3e 	bne.w	8006bf4 <chvprintf+0xf4>
      c = 10;
 8006d78:	220a      	movs	r2, #10
      if (is_long)
 8006d7a:	e7cf      	b.n	8006d1c <chvprintf+0x21c>
    switch (c) {
 8006d7c:	2a69      	cmp	r2, #105	; 0x69
 8006d7e:	d088      	beq.n	8006c92 <chvprintf+0x192>
 8006d80:	f1a2 006f 	sub.w	r0, r2, #111	; 0x6f
 8006d84:	b2c5      	uxtb	r5, r0
 8006d86:	2d09      	cmp	r5, #9
 8006d88:	f63f af34 	bhi.w	8006bf4 <chvprintf+0xf4>
 8006d8c:	2809      	cmp	r0, #9
 8006d8e:	f63f af31 	bhi.w	8006bf4 <chvprintf+0xf4>
 8006d92:	a301      	add	r3, pc, #4	; (adr r3, 8006d98 <chvprintf+0x298>)
 8006d94:	f853 f020 	ldr.w	pc, [r3, r0, lsl #2]
 8006d98:	08006d2f 	.word	0x08006d2f
 8006d9c:	08006bf5 	.word	0x08006bf5
 8006da0:	08006bf5 	.word	0x08006bf5
 8006da4:	08006bf5 	.word	0x08006bf5
 8006da8:	08006c5d 	.word	0x08006c5d
 8006dac:	08006bf5 	.word	0x08006bf5
 8006db0:	08006d79 	.word	0x08006d79
 8006db4:	08006bf5 	.word	0x08006bf5
 8006db8:	08006bf5 	.word	0x08006bf5
 8006dbc:	08006d6f 	.word	0x08006d6f
    }
  }
}
 8006dc0:	4648      	mov	r0, r9
 8006dc2:	b007      	add	sp, #28
 8006dc4:	e8bd 8ff0 	ldmia.w	sp!, {r4, r5, r6, r7, r8, r9, sl, fp, pc}
 8006dc8:	0800bada 	.word	0x0800bada

08006dcc <xTaskGenericNotifyFromISR.constprop.0.isra.0>:
 8006dcc:	b5f8      	push	{r3, r4, r5, r6, r7, lr}
 8006dce:	4604      	mov	r4, r0
 8006dd0:	b900      	cbnz	r0, 8006dd4 <xTaskGenericNotifyFromISR.constprop.0.isra.0+0x8>
 8006dd2:	e7fe      	b.n	8006dd2 <xTaskGenericNotifyFromISR.constprop.0.isra.0+0x6>
 8006dd4:	f7fe fa9c 	bl	8005310 <vPortValidateInterruptPriority>
 8006dd8:	f7fd ff30 	bl	8004c3c <ulPortEnterCriticalFromISR>
 8006ddc:	2202      	movs	r2, #2
 8006dde:	f894 3064 	ldrb.w	r3, [r4, #100]	; 0x64
 8006de2:	4606      	mov	r6, r0
 8006de4:	2b01      	cmp	r3, #1
 8006de6:	f884 2064 	strb.w	r2, [r4, #100]	; 0x64
 8006dea:	b2dd      	uxtb	r5, r3
 8006dec:	6621      	str	r1, [r4, #96]	; 0x60
 8006dee:	d11f      	bne.n	8006e30 <xTaskGenericNotifyFromISR.constprop.0.isra.0+0x64>
 8006df0:	6aa3      	ldr	r3, [r4, #40]	; 0x28
 8006df2:	b103      	cbz	r3, 8006df6 <xTaskGenericNotifyFromISR.constprop.0.isra.0+0x2a>
 8006df4:	e7fe      	b.n	8006df4 <xTaskGenericNotifyFromISR.constprop.0.isra.0+0x28>
 8006df6:	4b13      	ldr	r3, [pc, #76]	; (8006e44 <xTaskGenericNotifyFromISR.constprop.0.isra.0+0x78>)
 8006df8:	681b      	ldr	r3, [r3, #0]
 8006dfa:	b9f3      	cbnz	r3, 8006e3a <xTaskGenericNotifyFromISR.constprop.0.isra.0+0x6e>
 8006dfc:	1d27      	adds	r7, r4, #4
 8006dfe:	4638      	mov	r0, r7
 8006e00:	f7fe fb83 	bl	800550a <uxListRemove>
 8006e04:	4a10      	ldr	r2, [pc, #64]	; (8006e48 <xTaskGenericNotifyFromISR.constprop.0.isra.0+0x7c>)
 8006e06:	2014      	movs	r0, #20
 8006e08:	6ae3      	ldr	r3, [r4, #44]	; 0x2c
 8006e0a:	6811      	ldr	r1, [r2, #0]
 8006e0c:	409d      	lsls	r5, r3
 8006e0e:	430d      	orrs	r5, r1
 8006e10:	4639      	mov	r1, r7
 8006e12:	6015      	str	r5, [r2, #0]
 8006e14:	4a0d      	ldr	r2, [pc, #52]	; (8006e4c <xTaskGenericNotifyFromISR.constprop.0.isra.0+0x80>)
 8006e16:	fb00 2003 	mla	r0, r0, r3, r2
 8006e1a:	f7fe fa9e 	bl	800535a <vListInsertEnd>
 8006e1e:	4b0c      	ldr	r3, [pc, #48]	; (8006e50 <xTaskGenericNotifyFromISR.constprop.0.isra.0+0x84>)
 8006e20:	6ae2      	ldr	r2, [r4, #44]	; 0x2c
 8006e22:	681b      	ldr	r3, [r3, #0]
 8006e24:	6adb      	ldr	r3, [r3, #44]	; 0x2c
 8006e26:	429a      	cmp	r2, r3
 8006e28:	bf82      	ittt	hi
 8006e2a:	2201      	movhi	r2, #1
 8006e2c:	4b09      	ldrhi	r3, [pc, #36]	; (8006e54 <xTaskGenericNotifyFromISR.constprop.0.isra.0+0x88>)
 8006e2e:	601a      	strhi	r2, [r3, #0]
 8006e30:	4630      	mov	r0, r6
 8006e32:	e8bd 40f8 	ldmia.w	sp!, {r3, r4, r5, r6, r7, lr}
 8006e36:	f7fd bf1b 	b.w	8004c70 <vPortExitCriticalFromISR>
 8006e3a:	4807      	ldr	r0, [pc, #28]	; (8006e58 <xTaskGenericNotifyFromISR.constprop.0.isra.0+0x8c>)
 8006e3c:	f104 0118 	add.w	r1, r4, #24
 8006e40:	e7eb      	b.n	8006e1a <xTaskGenericNotifyFromISR.constprop.0.isra.0+0x4e>
 8006e42:	bf00      	nop
 8006e44:	2000136c 	.word	0x2000136c
 8006e48:	20001374 	.word	0x20001374
 8006e4c:	200011b8 	.word	0x200011b8
 8006e50:	200011a8 	.word	0x200011a8
 8006e54:	2000164c 	.word	0x2000164c
 8006e58:	20001600 	.word	0x20001600

08006e5c <osalThreadResumeI.part.0.lto_priv.0>:
{
    osalDbgCheck(mutex != NULL);
    xSemaphoreGive(mutex->handle);
}

static inline void osalThreadResumeI(thread_reference_t* thread_reference, msg_t msg)
 8006e5c:	b510      	push	{r4, lr}
 8006e5e:	4604      	mov	r4, r0
{
    osalDbgCheckClassI();
    if(*thread_reference) {
 8006e60:	6800      	ldr	r0, [r0, #0]
 8006e62:	b118      	cbz	r0, 8006e6c <osalThreadResumeI.part.0.lto_priv.0+0x10>
        xTaskNotifyFromISR( *thread_reference, msg, eSetValueWithOverwrite, NULL );
 8006e64:	f7ff ffb2 	bl	8006dcc <xTaskGenericNotifyFromISR.constprop.0.isra.0>
        *thread_reference = NULL;
 8006e68:	2300      	movs	r3, #0
 8006e6a:	6023      	str	r3, [r4, #0]
    }
}
 8006e6c:	bd10      	pop	{r4, pc}

08006e6e <osalThreadDequeueI>:
 8006e6e:	4603      	mov	r3, r0
 8006e70:	b507      	push	{r0, r1, r2, lr}
 8006e72:	6840      	ldr	r0, [r0, #4]
 8006e74:	b160      	cbz	r0, 8006e90 <osalThreadDequeueI+0x22>
 8006e76:	6d82      	ldr	r2, [r0, #88]	; 0x58
 8006e78:	9001      	str	r0, [sp, #4]
 8006e7a:	b162      	cbz	r2, 8006e96 <osalThreadDequeueI+0x28>
 8006e7c:	2000      	movs	r0, #0
 8006e7e:	6550      	str	r0, [r2, #84]	; 0x54
 8006e80:	605a      	str	r2, [r3, #4]
 8006e82:	f3ef 8311 	mrs	r3, BASEPRI
 8006e86:	b143      	cbz	r3, 8006e9a <osalThreadDequeueI+0x2c>
 8006e88:	a801      	add	r0, sp, #4
 8006e8a:	f7ff ffe7 	bl	8006e5c <osalThreadResumeI.part.0.lto_priv.0>
 8006e8e:	2001      	movs	r0, #1
 8006e90:	b003      	add	sp, #12
 8006e92:	f85d fb04 	ldr.w	pc, [sp], #4
 8006e96:	601a      	str	r2, [r3, #0]
 8006e98:	e7f2      	b.n	8006e80 <osalThreadDequeueI+0x12>
 8006e9a:	f7fd fc5b 	bl	8004754 <vTaskEndScheduler>
 8006e9e:	e7fe      	b.n	8006e9e <osalThreadDequeueI+0x30>

08006ea0 <osalThreadDequeueNextI.constprop.0>:
 8006ea0:	b508      	push	{r3, lr}
 8006ea2:	b910      	cbnz	r0, 8006eaa <osalThreadDequeueNextI.constprop.0+0xa>
 8006ea4:	f7fd fc56 	bl	8004754 <vTaskEndScheduler>
 8006ea8:	e7fe      	b.n	8006ea8 <osalThreadDequeueNextI.constprop.0+0x8>
 8006eaa:	f3ef 8311 	mrs	r3, BASEPRI
 8006eae:	b123      	cbz	r3, 8006eba <osalThreadDequeueNextI.constprop.0+0x1a>
 8006eb0:	e8bd 4008 	ldmia.w	sp!, {r3, lr}
 8006eb4:	2100      	movs	r1, #0
 8006eb6:	f7ff bfda 	b.w	8006e6e <osalThreadDequeueI>
 8006eba:	f7fd fc4b 	bl	8004754 <vTaskEndScheduler>
 8006ebe:	e7fe      	b.n	8006ebe <osalThreadDequeueNextI.constprop.0+0x1e>

08006ec0 <osalThreadDequeueAllI.constprop.0>:
 8006ec0:	b510      	push	{r4, lr}
 8006ec2:	4604      	mov	r4, r0
 8006ec4:	b910      	cbnz	r0, 8006ecc <osalThreadDequeueAllI.constprop.0+0xc>
 8006ec6:	f7fd fc45 	bl	8004754 <vTaskEndScheduler>
 8006eca:	e7fe      	b.n	8006eca <osalThreadDequeueAllI.constprop.0+0xa>
 8006ecc:	f3ef 8311 	mrs	r3, BASEPRI
 8006ed0:	b913      	cbnz	r3, 8006ed8 <osalThreadDequeueAllI.constprop.0+0x18>
 8006ed2:	f7fd fc3f 	bl	8004754 <vTaskEndScheduler>
 8006ed6:	e7fe      	b.n	8006ed6 <osalThreadDequeueAllI.constprop.0+0x16>
 8006ed8:	f06f 0101 	mvn.w	r1, #1
 8006edc:	4620      	mov	r0, r4
 8006ede:	f7ff ffc6 	bl	8006e6e <osalThreadDequeueI>
 8006ee2:	2800      	cmp	r0, #0
 8006ee4:	d1f8      	bne.n	8006ed8 <osalThreadDequeueAllI.constprop.0+0x18>
 8006ee6:	bd10      	pop	{r4, pc}

08006ee8 <osalEventBroadcastFlagsI>:
 8006ee8:	b570      	push	{r4, r5, r6, lr}
 8006eea:	4604      	mov	r4, r0
 8006eec:	b910      	cbnz	r0, 8006ef4 <osalEventBroadcastFlagsI+0xc>
 8006eee:	f7fd fc31 	bl	8004754 <vTaskEndScheduler>
 8006ef2:	e7fe      	b.n	8006ef2 <osalEventBroadcastFlagsI+0xa>
 8006ef4:	f3ef 8311 	mrs	r3, BASEPRI
 8006ef8:	b34b      	cbz	r3, 8006f4e <osalEventBroadcastFlagsI+0x66>
 8006efa:	6846      	ldr	r6, [r0, #4]
 8006efc:	68c3      	ldr	r3, [r0, #12]
 8006efe:	430e      	orrs	r6, r1
 8006f00:	6046      	str	r6, [r0, #4]
 8006f02:	b10b      	cbz	r3, 8006f08 <osalEventBroadcastFlagsI+0x20>
 8006f04:	4631      	mov	r1, r6
 8006f06:	4798      	blx	r3
 8006f08:	6825      	ldr	r5, [r4, #0]
 8006f0a:	b965      	cbnz	r5, 8006f26 <osalEventBroadcastFlagsI+0x3e>
 8006f0c:	6863      	ldr	r3, [r4, #4]
 8006f0e:	b30b      	cbz	r3, 8006f54 <osalEventBroadcastFlagsI+0x6c>
 8006f10:	f3ef 8311 	mrs	r3, BASEPRI
 8006f14:	b1c3      	cbz	r3, 8006f48 <osalEventBroadcastFlagsI+0x60>
 8006f16:	f104 0008 	add.w	r0, r4, #8
 8006f1a:	f06f 0102 	mvn.w	r1, #2
 8006f1e:	e8bd 4070 	ldmia.w	sp!, {r4, r5, r6, lr}
 8006f22:	f7ff bf9b 	b.w	8006e5c <osalThreadResumeI.part.0.lto_priv.0>
 8006f26:	692b      	ldr	r3, [r5, #16]
 8006f28:	421e      	tst	r6, r3
 8006f2a:	d006      	beq.n	8006f3a <osalEventBroadcastFlagsI+0x52>
 8006f2c:	696b      	ldr	r3, [r5, #20]
 8006f2e:	69a9      	ldr	r1, [r5, #24]
 8006f30:	4333      	orrs	r3, r6
 8006f32:	68e8      	ldr	r0, [r5, #12]
 8006f34:	616b      	str	r3, [r5, #20]
 8006f36:	f7ff ffd7 	bl	8006ee8 <osalEventBroadcastFlagsI>
 8006f3a:	692a      	ldr	r2, [r5, #16]
 8006f3c:	6863      	ldr	r3, [r4, #4]
 8006f3e:	682d      	ldr	r5, [r5, #0]
 8006f40:	ea23 0302 	bic.w	r3, r3, r2
 8006f44:	6063      	str	r3, [r4, #4]
 8006f46:	e7e0      	b.n	8006f0a <osalEventBroadcastFlagsI+0x22>
 8006f48:	f7fd fc04 	bl	8004754 <vTaskEndScheduler>
 8006f4c:	e7fe      	b.n	8006f4c <osalEventBroadcastFlagsI+0x64>
 8006f4e:	f7fd fc01 	bl	8004754 <vTaskEndScheduler>
 8006f52:	e7fe      	b.n	8006f52 <osalEventBroadcastFlagsI+0x6a>
 8006f54:	bd70      	pop	{r4, r5, r6, pc}

08006f56 <sduDataTransmitted>:
  SerialUSBDriver *sdup = usbp->in_params[ep - 1U];
 8006f56:	eb00 0381 	add.w	r3, r0, r1, lsl #2
void sduDataTransmitted(USBDriver *usbp, usbep_t ep) {
 8006f5a:	e92d 41f3 	stmdb	sp!, {r0, r1, r4, r5, r6, r7, r8, lr}
  SerialUSBDriver *sdup = usbp->in_params[ep - 1U];
 8006f5e:	6a9c      	ldr	r4, [r3, #40]	; 0x28
void sduDataTransmitted(USBDriver *usbp, usbep_t ep) {
 8006f60:	4605      	mov	r5, r0
 8006f62:	460e      	mov	r6, r1
  if (sdup == NULL) {
 8006f64:	b394      	cbz	r4, 8006fcc <sduDataTransmitted+0x76>
  osalSysLockFromISR();
 8006f66:	f7fd fe7b 	bl	8004c60 <osalSysLockFromISR.lto_priv.0>
  chnAddFlagsI(sdup, CHN_OUTPUT_EMPTY);
 8006f6a:	2108      	movs	r1, #8
 8006f6c:	1d20      	adds	r0, r4, #4
 8006f6e:	eb05 0786 	add.w	r7, r5, r6, lsl #2
 8006f72:	f7ff ffb9 	bl	8006ee8 <osalEventBroadcastFlagsI>
  if (usbp->epc[ep]->in_state->txsize > 0U) {
 8006f76:	68fb      	ldr	r3, [r7, #12]
    obqReleaseEmptyBufferI(&sdup->obqueue);
 8006f78:	f104 0850 	add.w	r8, r4, #80	; 0x50
  if (usbp->epc[ep]->in_state->txsize > 0U) {
 8006f7c:	695b      	ldr	r3, [r3, #20]
 8006f7e:	681b      	ldr	r3, [r3, #0]
 8006f80:	b1bb      	cbz	r3, 8006fb2 <sduDataTransmitted+0x5c>
	__asm volatile( "mrs %0, basepri" : "=r"( ulBasePri ) );
 8006f82:	f3ef 8311 	mrs	r3, BASEPRI
	return (ulBasePri > 0)? pdTRUE : pdFALSE;
 8006f86:	b33b      	cbz	r3, 8006fd8 <sduDataTransmitted+0x82>
  osalDbgAssert(!obqIsEmptyI(obqp), "buffers queue empty");
 8006f88:	e9d4 2318 	ldrd	r2, r3, [r4, #96]	; 0x60
 8006f8c:	429a      	cmp	r2, r3
 8006f8e:	d104      	bne.n	8006f9a <sduDataTransmitted+0x44>
 8006f90:	6de2      	ldr	r2, [r4, #92]	; 0x5c
 8006f92:	b112      	cbz	r2, 8006f9a <sduDataTransmitted+0x44>
 8006f94:	f7fd fbde 	bl	8004754 <vTaskEndScheduler>
 8006f98:	e7fe      	b.n	8006f98 <sduDataTransmitted+0x42>
  obqp->bcounter++;
 8006f9a:	6de2      	ldr	r2, [r4, #92]	; 0x5c
 8006f9c:	3201      	adds	r2, #1
 8006f9e:	65e2      	str	r2, [r4, #92]	; 0x5c
  obqp->brdptr += obqp->bsize;
 8006fa0:	6ee2      	ldr	r2, [r4, #108]	; 0x6c
 8006fa2:	4413      	add	r3, r2
  if (obqp->brdptr >= obqp->btop) {
 8006fa4:	6ea2      	ldr	r2, [r4, #104]	; 0x68
  obqp->brdptr += obqp->bsize;
 8006fa6:	6663      	str	r3, [r4, #100]	; 0x64
  if (obqp->brdptr >= obqp->btop) {
 8006fa8:	4293      	cmp	r3, r2
 8006faa:	d212      	bcs.n	8006fd2 <sduDataTransmitted+0x7c>
  osalThreadDequeueNextI(&obqp->waiting, MSG_OK);
 8006fac:	4640      	mov	r0, r8
 8006fae:	f7ff ff77 	bl	8006ea0 <osalThreadDequeueNextI.constprop.0>
  buf = obqGetFullBufferI(&sdup->obqueue, &n);
 8006fb2:	4640      	mov	r0, r8
 8006fb4:	a901      	add	r1, sp, #4
 8006fb6:	f7fd fbff 	bl	80047b8 <obqGetFullBufferI>
  if (buf != NULL) {
 8006fba:	4602      	mov	r2, r0
 8006fbc:	b178      	cbz	r0, 8006fde <sduDataTransmitted+0x88>
    usbStartTransmitI(usbp, ep, buf, n);
 8006fbe:	9b01      	ldr	r3, [sp, #4]
    usbStartTransmitI(usbp, ep, usbp->setup, 0);
 8006fc0:	4631      	mov	r1, r6
 8006fc2:	4628      	mov	r0, r5
 8006fc4:	f7fd fc90 	bl	80048e8 <usbStartTransmitI>
  osalSysUnlockFromISR();
 8006fc8:	f7fd fe5e 	bl	8004c88 <osalSysUnlockFromISR.lto_priv.0>
}
 8006fcc:	b002      	add	sp, #8
 8006fce:	e8bd 81f0 	ldmia.w	sp!, {r4, r5, r6, r7, r8, pc}
    obqp->brdptr = obqp->buffers;
 8006fd2:	6f63      	ldr	r3, [r4, #116]	; 0x74
 8006fd4:	6663      	str	r3, [r4, #100]	; 0x64
 8006fd6:	e7e9      	b.n	8006fac <sduDataTransmitted+0x56>
  osalDbgCheckClassI();
 8006fd8:	f7fd fbbc 	bl	8004754 <vTaskEndScheduler>
 8006fdc:	e7fe      	b.n	8006fdc <sduDataTransmitted+0x86>
  else if ((usbp->epc[ep]->in_state->txsize > 0U) &&
 8006fde:	68fb      	ldr	r3, [r7, #12]
 8006fe0:	695a      	ldr	r2, [r3, #20]
 8006fe2:	6812      	ldr	r2, [r2, #0]
 8006fe4:	b132      	cbz	r2, 8006ff4 <sduDataTransmitted+0x9e>
            ((size_t)usbp->epc[ep]->in_maxsize - 1U)) == 0U)) {
 8006fe6:	8a1b      	ldrh	r3, [r3, #16]
 8006fe8:	3b01      	subs	r3, #1
  else if ((usbp->epc[ep]->in_state->txsize > 0U) &&
 8006fea:	4013      	ands	r3, r2
 8006fec:	d102      	bne.n	8006ff4 <sduDataTransmitted+0x9e>
    usbStartTransmitI(usbp, ep, usbp->setup, 0);
 8006fee:	f105 0274 	add.w	r2, r5, #116	; 0x74
 8006ff2:	e7e5      	b.n	8006fc0 <sduDataTransmitted+0x6a>
    if(sdup->config->sofCallback) sdup->config->sofCallback(sdup->config->usbp, true);
 8006ff4:	f8d4 2498 	ldr.w	r2, [r4, #1176]	; 0x498
 8006ff8:	6893      	ldr	r3, [r2, #8]
 8006ffa:	2b00      	cmp	r3, #0
 8006ffc:	d0e4      	beq.n	8006fc8 <sduDataTransmitted+0x72>
 8006ffe:	2101      	movs	r1, #1
 8007000:	6810      	ldr	r0, [r2, #0]
 8007002:	4798      	blx	r3
 8007004:	e7e0      	b.n	8006fc8 <sduDataTransmitted+0x72>

08007006 <osalThreadResumeI.lto_priv.0>:
{
 8007006:	b508      	push	{r3, lr}
	__asm volatile( "mrs %0, basepri" : "=r"( ulBasePri ) );
 8007008:	f3ef 8311 	mrs	r3, BASEPRI
	return (ulBasePri > 0)? pdTRUE : pdFALSE;
 800700c:	b11b      	cbz	r3, 8007016 <osalThreadResumeI.lto_priv.0+0x10>
}
 800700e:	e8bd 4008 	ldmia.w	sp!, {r3, lr}
 8007012:	f7ff bf23 	b.w	8006e5c <osalThreadResumeI.part.0.lto_priv.0>
    osalDbgCheckClassI();
 8007016:	f7fd fb9d 	bl	8004754 <vTaskEndScheduler>
 800701a:	e7fe      	b.n	800701a <osalThreadResumeI.lto_priv.0+0x14>

0800701c <i2c_lld_serve_rx_end_irq>:
  if ((flags & (STM32_DMA_ISR_TEIF | STM32_DMA_ISR_DMEIF)) != 0) {
 800701c:	f011 0108 	ands.w	r1, r1, #8
static void i2c_lld_serve_rx_end_irq(I2CDriver *i2cp, uint32_t flags) {
 8007020:	b538      	push	{r3, r4, r5, lr}
 8007022:	4604      	mov	r4, r0
  if ((flags & (STM32_DMA_ISR_TEIF | STM32_DMA_ISR_DMEIF)) != 0) {
 8007024:	d002      	beq.n	800702c <i2c_lld_serve_rx_end_irq+0x10>
    STM32_I2C_DMA_ERROR_HOOK(i2cp);
 8007026:	f7fd fb95 	bl	8004754 <vTaskEndScheduler>
 800702a:	e7fe      	b.n	800702a <i2c_lld_serve_rx_end_irq+0xe>
  dmaStreamDisable(i2cp->dmarx);
 800702c:	6f02      	ldr	r2, [r0, #112]	; 0x70
  I2C_TypeDef *dp = i2cp->i2c;
 800702e:	6f83      	ldr	r3, [r0, #120]	; 0x78
  dmaStreamDisable(i2cp->dmarx);
 8007030:	6855      	ldr	r5, [r2, #4]
 8007032:	6828      	ldr	r0, [r5, #0]
 8007034:	f020 000f 	bic.w	r0, r0, #15
 8007038:	6028      	str	r0, [r5, #0]
 800703a:	7c15      	ldrb	r5, [r2, #16]
 800703c:	6810      	ldr	r0, [r2, #0]
 800703e:	220e      	movs	r2, #14
 8007040:	40aa      	lsls	r2, r5
 8007042:	6042      	str	r2, [r0, #4]
  dp->CR2 &= ~I2C_CR2_LAST;
 8007044:	685a      	ldr	r2, [r3, #4]
 8007046:	f422 5280 	bic.w	r2, r2, #4096	; 0x1000
 800704a:	605a      	str	r2, [r3, #4]
  dp->CR1 &= ~I2C_CR1_ACK;
 800704c:	681a      	ldr	r2, [r3, #0]
 800704e:	f422 6280 	bic.w	r2, r2, #1024	; 0x400
 8007052:	601a      	str	r2, [r3, #0]
  dp->CR1 |= I2C_CR1_STOP;
 8007054:	681a      	ldr	r2, [r3, #0]
 8007056:	f442 7200 	orr.w	r2, r2, #512	; 0x200
 800705a:	601a      	str	r2, [r3, #0]
  _i2c_wakeup_isr(i2cp);
 800705c:	f7fd fe00 	bl	8004c60 <osalSysLockFromISR.lto_priv.0>
 8007060:	f104 0060 	add.w	r0, r4, #96	; 0x60
 8007064:	f7ff ffcf 	bl	8007006 <osalThreadResumeI.lto_priv.0>
}
 8007068:	e8bd 4038 	ldmia.w	sp!, {r3, r4, r5, lr}
  _i2c_wakeup_isr(i2cp);
 800706c:	f7fd be0c 	b.w	8004c88 <osalSysUnlockFromISR.lto_priv.0>

08007070 <VectorBC>:
/**
 * @brief   I2C1 event interrupt handler.
 *
 * @notapi
 */
OSAL_IRQ_HANDLER(STM32_I2C1_EVENT_HANDLER) {
 8007070:	b570      	push	{r4, r5, r6, lr}
  I2C_TypeDef *dp = i2cp->i2c;
 8007072:	4d4d      	ldr	r5, [pc, #308]	; (80071a8 <VectorBC+0x138>)
 8007074:	6fac      	ldr	r4, [r5, #120]	; 0x78
  i2cp->numInterrupts++;
 8007076:	f8d5 2080 	ldr.w	r2, [r5, #128]	; 0x80
  uint32_t regSR2 = dp->SR2;
 800707a:	69a3      	ldr	r3, [r4, #24]
  uint32_t event = dp->SR1;
 800707c:	6966      	ldr	r6, [r4, #20]
  i2cp->numInterrupts++;
 800707e:	3201      	adds	r2, #1
  if ((event & I2C_SR1_BERR) || (i2cp->numInterrupts>=30)) {
 8007080:	05f1      	lsls	r1, r6, #23
  i2cp->numInterrupts++;
 8007082:	f8c5 2080 	str.w	r2, [r5, #128]	; 0x80
  if ((event & I2C_SR1_BERR) || (i2cp->numInterrupts>=30)) {
 8007086:	d401      	bmi.n	800708c <VectorBC+0x1c>
 8007088:	2a1d      	cmp	r2, #29
 800708a:	d91c      	bls.n	80070c6 <VectorBC+0x56>
    dp->SR1 &= ~I2C_SR1_BERR;
 800708c:	6963      	ldr	r3, [r4, #20]
    _i2c_wakeup_error_isr(i2cp);
 800708e:	f06f 0101 	mvn.w	r1, #1
    dp->SR1 &= ~I2C_SR1_BERR;
 8007092:	f423 7380 	bic.w	r3, r3, #256	; 0x100
 8007096:	6163      	str	r3, [r4, #20]
    dp->CR2 &=~ I2C_CR2_ITEVTEN | I2C_CR2_ITERREN | I2C_CR2_ITBUFEN;
 8007098:	6863      	ldr	r3, [r4, #4]
 800709a:	f423 7300 	bic.w	r3, r3, #512	; 0x200
 800709e:	6063      	str	r3, [r4, #4]
    i2cp->errors = I2C_BUS_ERROR;
 80070a0:	2301      	movs	r3, #1
 80070a2:	60ab      	str	r3, [r5, #8]
    _i2c_wakeup_error_isr(i2cp);
 80070a4:	f7fd fddc 	bl	8004c60 <osalSysLockFromISR.lto_priv.0>
 80070a8:	4840      	ldr	r0, [pc, #256]	; (80071ac <VectorBC+0x13c>)
 80070aa:	f7ff ffac 	bl	8007006 <osalThreadResumeI.lto_priv.0>
 80070ae:	f7fd fdeb 	bl	8004c88 <osalSysUnlockFromISR.lto_priv.0>
 80070b2:	2100      	movs	r1, #0
 80070b4:	4b3e      	ldr	r3, [pc, #248]	; (80071b0 <VectorBC+0x140>)
 80070b6:	681a      	ldr	r2, [r3, #0]
 80070b8:	6019      	str	r1, [r3, #0]

  OSAL_IRQ_PROLOGUE();

  i2c_lld_serve_event_interrupt(&I2CD1);

  OSAL_IRQ_EPILOGUE();
 80070ba:	2a00      	cmp	r2, #0
 80070bc:	d072      	beq.n	80071a4 <VectorBC+0x134>
}
 80070be:	e8bd 4070 	ldmia.w	sp!, {r4, r5, r6, lr}
 80070c2:	f7fc be5f 	b.w	8003d84 <Vector6C.part.0>
  switch (I2C_EV_MASK & (event | (regSR2 << 16))) {
 80070c6:	4a3b      	ldr	r2, [pc, #236]	; (80071b4 <VectorBC+0x144>)
 80070c8:	ea46 4303 	orr.w	r3, r6, r3, lsl #16
 80070cc:	f023 437f 	bic.w	r3, r3, #4278190080	; 0xff000000
 80070d0:	4293      	cmp	r3, r2
 80070d2:	d030      	beq.n	8007136 <VectorBC+0xc6>
 80070d4:	d80a      	bhi.n	80070ec <VectorBC+0x7c>
 80070d6:	3a07      	subs	r2, #7
 80070d8:	4293      	cmp	r3, r2
 80070da:	d01d      	beq.n	8007118 <VectorBC+0xa8>
 80070dc:	3201      	adds	r2, #1
 80070de:	4293      	cmp	r3, r2
 80070e0:	d02e      	beq.n	8007140 <VectorBC+0xd0>
  if (event & (I2C_SR1_ADDR | I2C_SR1_ADD10))
 80070e2:	f016 0f0a 	tst.w	r6, #10
    (void)dp->SR2;
 80070e6:	bf18      	it	ne
 80070e8:	69a3      	ldrne	r3, [r4, #24]
 80070ea:	e7e2      	b.n	80070b2 <VectorBC+0x42>
  switch (I2C_EV_MASK & (event | (regSR2 << 16))) {
 80070ec:	4a32      	ldr	r2, [pc, #200]	; (80071b8 <VectorBC+0x148>)
 80070ee:	4293      	cmp	r3, r2
 80070f0:	d03c      	beq.n	800716c <VectorBC+0xfc>
 80070f2:	3202      	adds	r2, #2
 80070f4:	4293      	cmp	r3, r2
 80070f6:	d1f4      	bne.n	80070e2 <VectorBC+0x72>
    if (dmaStreamGetTransactionSize(i2cp->dmarx) > 0) {
 80070f8:	6f2b      	ldr	r3, [r5, #112]	; 0x70
 80070fa:	685b      	ldr	r3, [r3, #4]
 80070fc:	6859      	ldr	r1, [r3, #4]
 80070fe:	2900      	cmp	r1, #0
 8007100:	d03f      	beq.n	8007182 <VectorBC+0x112>
      i2cp->addr |= 0x01;
 8007102:	f8b5 3064 	ldrh.w	r3, [r5, #100]	; 0x64
 8007106:	f043 0301 	orr.w	r3, r3, #1
 800710a:	f8a5 3064 	strh.w	r3, [r5, #100]	; 0x64
      dp->CR1 |= I2C_CR1_START | I2C_CR1_ACK;
 800710e:	6823      	ldr	r3, [r4, #0]
 8007110:	f443 63a0 	orr.w	r3, r3, #1280	; 0x500
 8007114:	6023      	str	r3, [r4, #0]
 8007116:	e7cc      	b.n	80070b2 <VectorBC+0x42>
    if ((i2cp->addr >> 8) > 0) { 
 8007118:	f8b5 2064 	ldrh.w	r2, [r5, #100]	; 0x64
 800711c:	0a13      	lsrs	r3, r2, #8
 800711e:	d008      	beq.n	8007132 <VectorBC+0xc2>
      dp->DR = 0xF0 | (0x6 & (i2cp->addr >> 8)) | (0x1 & i2cp->addr);
 8007120:	f003 0306 	and.w	r3, r3, #6
 8007124:	f002 0201 	and.w	r2, r2, #1
 8007128:	4313      	orrs	r3, r2
 800712a:	f043 03f0 	orr.w	r3, r3, #240	; 0xf0
    dp->DR = (0xFF & (i2cp->addr >> 1));
 800712e:	6123      	str	r3, [r4, #16]
 8007130:	e7d7      	b.n	80070e2 <VectorBC+0x72>
      dp->DR = i2cp->addr;
 8007132:	6122      	str	r2, [r4, #16]
 8007134:	e7d5      	b.n	80070e2 <VectorBC+0x72>
    dp->DR = (0xFF & (i2cp->addr >> 1));
 8007136:	f8b5 3064 	ldrh.w	r3, [r5, #100]	; 0x64
 800713a:	f3c3 0347 	ubfx	r3, r3, #1, #8
 800713e:	e7f6      	b.n	800712e <VectorBC+0xbe>
    dp->CR2 &= ~I2C_CR2_ITEVTEN;
 8007140:	6863      	ldr	r3, [r4, #4]
 8007142:	f423 7300 	bic.w	r3, r3, #512	; 0x200
 8007146:	6063      	str	r3, [r4, #4]
    dmaStreamEnable(i2cp->dmarx);
 8007148:	6f2b      	ldr	r3, [r5, #112]	; 0x70
 800714a:	685b      	ldr	r3, [r3, #4]
 800714c:	681a      	ldr	r2, [r3, #0]
 800714e:	f042 0201 	orr.w	r2, r2, #1
 8007152:	601a      	str	r2, [r3, #0]
    dp->CR2 |= I2C_CR2_LAST;                 /* Needed in receiver mode. */
 8007154:	6862      	ldr	r2, [r4, #4]
 8007156:	f442 5280 	orr.w	r2, r2, #4096	; 0x1000
 800715a:	6062      	str	r2, [r4, #4]
    if (dmaStreamGetTransactionSize(i2cp->dmarx) < 2)
 800715c:	685b      	ldr	r3, [r3, #4]
 800715e:	2b01      	cmp	r3, #1
 8007160:	d8bf      	bhi.n	80070e2 <VectorBC+0x72>
      dp->CR1 &= ~I2C_CR1_ACK;
 8007162:	6823      	ldr	r3, [r4, #0]
 8007164:	f423 6380 	bic.w	r3, r3, #1024	; 0x400
 8007168:	6023      	str	r3, [r4, #0]
 800716a:	e7ba      	b.n	80070e2 <VectorBC+0x72>
    dp->CR2 &= ~I2C_CR2_ITEVTEN;
 800716c:	6863      	ldr	r3, [r4, #4]
 800716e:	f423 7300 	bic.w	r3, r3, #512	; 0x200
 8007172:	6063      	str	r3, [r4, #4]
    dmaStreamEnable(i2cp->dmatx);
 8007174:	6f6b      	ldr	r3, [r5, #116]	; 0x74
 8007176:	685a      	ldr	r2, [r3, #4]
 8007178:	6813      	ldr	r3, [r2, #0]
 800717a:	f043 0301 	orr.w	r3, r3, #1
 800717e:	6013      	str	r3, [r2, #0]
 8007180:	e7af      	b.n	80070e2 <VectorBC+0x72>
    dp->CR2 &= ~I2C_CR2_ITEVTEN;
 8007182:	6863      	ldr	r3, [r4, #4]
 8007184:	f423 7300 	bic.w	r3, r3, #512	; 0x200
 8007188:	6063      	str	r3, [r4, #4]
    dp->CR1 |= I2C_CR1_STOP;
 800718a:	6823      	ldr	r3, [r4, #0]
 800718c:	f443 7300 	orr.w	r3, r3, #512	; 0x200
 8007190:	6023      	str	r3, [r4, #0]
    _i2c_wakeup_isr(i2cp);
 8007192:	f7fd fd65 	bl	8004c60 <osalSysLockFromISR.lto_priv.0>
 8007196:	f105 0060 	add.w	r0, r5, #96	; 0x60
 800719a:	f7ff ff34 	bl	8007006 <osalThreadResumeI.lto_priv.0>
 800719e:	f7fd fd73 	bl	8004c88 <osalSysUnlockFromISR.lto_priv.0>
 80071a2:	e79e      	b.n	80070e2 <VectorBC+0x72>
}
 80071a4:	bd70      	pop	{r4, r5, r6, pc}
 80071a6:	bf00      	nop
 80071a8:	20000934 	.word	0x20000934
 80071ac:	20000994 	.word	0x20000994
 80071b0:	2000164c 	.word	0x2000164c
 80071b4:	00030008 	.word	0x00030008
 80071b8:	00070082 	.word	0x00070082

080071bc <VectorC0>:

/**
 * @brief   I2C1 error interrupt handler.
 */
OSAL_IRQ_HANDLER(STM32_I2C1_ERROR_HANDLER) {
 80071bc:	b5f8      	push	{r3, r4, r5, r6, r7, lr}
  uint16_t sr = I2CD1.i2c->SR1;
 80071be:	4b35      	ldr	r3, [pc, #212]	; (8007294 <VectorC0+0xd8>)
 80071c0:	6f9a      	ldr	r2, [r3, #120]	; 0x78
 80071c2:	6951      	ldr	r1, [r2, #20]

  OSAL_IRQ_PROLOGUE();

  I2CD1.i2c->SR1 = ~(sr & I2C_ERROR_MASK);
 80071c4:	f401 445f 	and.w	r4, r1, #57088	; 0xdf00
 80071c8:	43e4      	mvns	r4, r4
 80071ca:	6154      	str	r4, [r2, #20]
  dmaStreamDisable(i2cp->dmatx);
 80071cc:	6f5c      	ldr	r4, [r3, #116]	; 0x74
  uint16_t sr = I2CD1.i2c->SR1;
 80071ce:	b288      	uxth	r0, r1
  dmaStreamDisable(i2cp->dmatx);
 80071d0:	6866      	ldr	r6, [r4, #4]
 80071d2:	6835      	ldr	r5, [r6, #0]
 80071d4:	f025 050f 	bic.w	r5, r5, #15
 80071d8:	6035      	str	r5, [r6, #0]
 80071da:	7c25      	ldrb	r5, [r4, #16]
 80071dc:	6826      	ldr	r6, [r4, #0]
 80071de:	240e      	movs	r4, #14
 80071e0:	fa04 f505 	lsl.w	r5, r4, r5
 80071e4:	6075      	str	r5, [r6, #4]
  dmaStreamDisable(i2cp->dmarx);
 80071e6:	6f1d      	ldr	r5, [r3, #112]	; 0x70
 80071e8:	686f      	ldr	r7, [r5, #4]
 80071ea:	683e      	ldr	r6, [r7, #0]
 80071ec:	f026 060f 	bic.w	r6, r6, #15
 80071f0:	603e      	str	r6, [r7, #0]
 80071f2:	682e      	ldr	r6, [r5, #0]
 80071f4:	7c2d      	ldrb	r5, [r5, #16]
 80071f6:	40ac      	lsls	r4, r5
 80071f8:	6074      	str	r4, [r6, #4]
  i2cp->numInterrupts++;
 80071fa:	f8d3 4080 	ldr.w	r4, [r3, #128]	; 0x80
 80071fe:	3401      	adds	r4, #1
 8007200:	f8c3 4080 	str.w	r4, [r3, #128]	; 0x80
  if (sr & I2C_SR1_BERR)                            /* Bus error.           */
 8007204:	f411 7480 	ands.w	r4, r1, #256	; 0x100
    i2cp->errors |= I2C_BUS_ERROR;
 8007208:	bf18      	it	ne
 800720a:	2401      	movne	r4, #1
  if (sr & I2C_SR1_ARLO)                            /* Arbitration lost.    */
 800720c:	0587      	lsls	r7, r0, #22
    i2cp->errors |= I2C_BUS_ERROR;
 800720e:	609c      	str	r4, [r3, #8]
    i2cp->errors |= I2C_ARBITRATION_LOST;
 8007210:	bf42      	ittt	mi
 8007212:	689c      	ldrmi	r4, [r3, #8]
 8007214:	f044 0402 	orrmi.w	r4, r4, #2
 8007218:	609c      	strmi	r4, [r3, #8]
  if (sr & I2C_SR1_AF) {                            /* Acknowledge fail.    */
 800721a:	0546      	lsls	r6, r0, #21
 800721c:	d50b      	bpl.n	8007236 <VectorC0+0x7a>
    i2cp->i2c->CR2 &= ~I2C_CR2_ITEVTEN;
 800721e:	6855      	ldr	r5, [r2, #4]
    i2cp->errors |= I2C_ACK_FAILURE;
 8007220:	689c      	ldr	r4, [r3, #8]
    i2cp->i2c->CR2 &= ~I2C_CR2_ITEVTEN;
 8007222:	f425 7500 	bic.w	r5, r5, #512	; 0x200
 8007226:	6055      	str	r5, [r2, #4]
    i2cp->i2c->CR1 |= I2C_CR1_STOP;                 /* Setting stop bit.    */
 8007228:	6815      	ldr	r5, [r2, #0]
    i2cp->errors |= I2C_ACK_FAILURE;
 800722a:	f044 0404 	orr.w	r4, r4, #4
    i2cp->i2c->CR1 |= I2C_CR1_STOP;                 /* Setting stop bit.    */
 800722e:	f445 7500 	orr.w	r5, r5, #512	; 0x200
 8007232:	6015      	str	r5, [r2, #0]
    i2cp->errors |= I2C_ACK_FAILURE;
 8007234:	609c      	str	r4, [r3, #8]
  if (sr & I2C_SR1_OVR)                             /* Overrun.             */
 8007236:	0505      	lsls	r5, r0, #20
    i2cp->errors |= I2C_OVERRUN;
 8007238:	bf42      	ittt	mi
 800723a:	689a      	ldrmi	r2, [r3, #8]
 800723c:	f042 0208 	orrmi.w	r2, r2, #8
 8007240:	609a      	strmi	r2, [r3, #8]
  if (sr & I2C_SR1_TIMEOUT)                         /* SMBus Timeout.       */
 8007242:	0444      	lsls	r4, r0, #17
    i2cp->errors |= I2C_TIMEOUT;
 8007244:	bf42      	ittt	mi
 8007246:	689a      	ldrmi	r2, [r3, #8]
 8007248:	f042 0220 	orrmi.w	r2, r2, #32
 800724c:	609a      	strmi	r2, [r3, #8]
  if (sr & I2C_SR1_PECERR)                          /* PEC error.           */
 800724e:	04c0      	lsls	r0, r0, #19
    i2cp->errors |= I2C_PEC_ERROR;
 8007250:	bf42      	ittt	mi
 8007252:	689a      	ldrmi	r2, [r3, #8]
 8007254:	f042 0210 	orrmi.w	r2, r2, #16
 8007258:	609a      	strmi	r2, [r3, #8]
  if (sr & I2C_SR1_SMBALERT)                        /* SMBus alert.         */
 800725a:	0409      	lsls	r1, r1, #16
    i2cp->errors |= I2C_SMB_ALERT;
 800725c:	689a      	ldr	r2, [r3, #8]
  if (sr & I2C_SR1_SMBALERT)                        /* SMBus alert.         */
 800725e:	d50c      	bpl.n	800727a <VectorC0+0xbe>
    i2cp->errors |= I2C_SMB_ALERT;
 8007260:	f042 0240 	orr.w	r2, r2, #64	; 0x40
 8007264:	609a      	str	r2, [r3, #8]
    _i2c_wakeup_error_isr(i2cp);
 8007266:	f7fd fcfb 	bl	8004c60 <osalSysLockFromISR.lto_priv.0>
 800726a:	f06f 0101 	mvn.w	r1, #1
 800726e:	480a      	ldr	r0, [pc, #40]	; (8007298 <VectorC0+0xdc>)
 8007270:	f7ff fec9 	bl	8007006 <osalThreadResumeI.lto_priv.0>
 8007274:	f7fd fd08 	bl	8004c88 <osalSysUnlockFromISR.lto_priv.0>
 8007278:	e001      	b.n	800727e <VectorC0+0xc2>
  if (i2cp->errors != I2C_NO_ERROR)
 800727a:	2a00      	cmp	r2, #0
 800727c:	d1f3      	bne.n	8007266 <VectorC0+0xaa>
 800727e:	2100      	movs	r1, #0
 8007280:	4b06      	ldr	r3, [pc, #24]	; (800729c <VectorC0+0xe0>)
 8007282:	681a      	ldr	r2, [r3, #0]
 8007284:	6019      	str	r1, [r3, #0]
  i2c_lld_serve_error_interrupt(&I2CD1, sr);

  OSAL_IRQ_EPILOGUE();
 8007286:	b11a      	cbz	r2, 8007290 <VectorC0+0xd4>
}
 8007288:	e8bd 40f8 	ldmia.w	sp!, {r3, r4, r5, r6, r7, lr}
 800728c:	f7fc bd7a 	b.w	8003d84 <Vector6C.part.0>
 8007290:	bdf8      	pop	{r3, r4, r5, r6, r7, pc}
 8007292:	bf00      	nop
 8007294:	20000934 	.word	0x20000934
 8007298:	20000994 	.word	0x20000994
 800729c:	2000164c 	.word	0x2000164c

080072a0 <spi_lld_serve_rx_interrupt>:
static void spi_lld_serve_rx_interrupt(SPIDriver *spip, uint32_t flags) {
 80072a0:	b538      	push	{r3, r4, r5, lr}
  if ((flags & (STM32_DMA_ISR_TEIF | STM32_DMA_ISR_DMEIF)) != 0) {
 80072a2:	070b      	lsls	r3, r1, #28
static void spi_lld_serve_rx_interrupt(SPIDriver *spip, uint32_t flags) {
 80072a4:	4604      	mov	r4, r0
  if ((flags & (STM32_DMA_ISR_TEIF | STM32_DMA_ISR_DMEIF)) != 0) {
 80072a6:	d502      	bpl.n	80072ae <spi_lld_serve_rx_interrupt+0xe>
    STM32_SPI_DMA_ERROR_HOOK(spip);
 80072a8:	f7fd fa54 	bl	8004754 <vTaskEndScheduler>
 80072ac:	e7fe      	b.n	80072ac <spi_lld_serve_rx_interrupt+0xc>
  dmaStreamDisable(spip->dmatx);
 80072ae:	6e83      	ldr	r3, [r0, #104]	; 0x68
 80072b0:	6859      	ldr	r1, [r3, #4]
 80072b2:	680a      	ldr	r2, [r1, #0]
 80072b4:	f022 020f 	bic.w	r2, r2, #15
 80072b8:	600a      	str	r2, [r1, #0]
 80072ba:	7c1a      	ldrb	r2, [r3, #16]
 80072bc:	6819      	ldr	r1, [r3, #0]
 80072be:	230e      	movs	r3, #14
 80072c0:	fa03 f202 	lsl.w	r2, r3, r2
 80072c4:	604a      	str	r2, [r1, #4]
  dmaStreamDisable(spip->dmarx);
 80072c6:	6e42      	ldr	r2, [r0, #100]	; 0x64
 80072c8:	6855      	ldr	r5, [r2, #4]
 80072ca:	6829      	ldr	r1, [r5, #0]
 80072cc:	f021 010f 	bic.w	r1, r1, #15
 80072d0:	6029      	str	r1, [r5, #0]
 80072d2:	6811      	ldr	r1, [r2, #0]
 80072d4:	7c12      	ldrb	r2, [r2, #16]
 80072d6:	4093      	lsls	r3, r2
 80072d8:	604b      	str	r3, [r1, #4]
  _spi_isr_code(spip);
 80072da:	6843      	ldr	r3, [r0, #4]
 80072dc:	681b      	ldr	r3, [r3, #0]
 80072de:	b12b      	cbz	r3, 80072ec <spi_lld_serve_rx_interrupt+0x4c>
 80072e0:	2204      	movs	r2, #4
 80072e2:	7002      	strb	r2, [r0, #0]
 80072e4:	4798      	blx	r3
 80072e6:	7823      	ldrb	r3, [r4, #0]
 80072e8:	2b04      	cmp	r3, #4
 80072ea:	d101      	bne.n	80072f0 <spi_lld_serve_rx_interrupt+0x50>
 80072ec:	2302      	movs	r3, #2
 80072ee:	7023      	strb	r3, [r4, #0]
 80072f0:	f7fd fcb6 	bl	8004c60 <osalSysLockFromISR.lto_priv.0>
	__asm volatile( "mrs %0, basepri" : "=r"( ulBasePri ) );
 80072f4:	f3ef 8311 	mrs	r3, BASEPRI
	return (ulBasePri > 0)? pdTRUE : pdFALSE;
 80072f8:	b12b      	cbz	r3, 8007306 <spi_lld_serve_rx_interrupt+0x66>
    if(*thread_reference) {
 80072fa:	68a0      	ldr	r0, [r4, #8]
 80072fc:	b930      	cbnz	r0, 800730c <spi_lld_serve_rx_interrupt+0x6c>
}
 80072fe:	e8bd 4038 	ldmia.w	sp!, {r3, r4, r5, lr}
  _spi_isr_code(spip);
 8007302:	f7fd bcc1 	b.w	8004c88 <osalSysUnlockFromISR.lto_priv.0>
    osalDbgCheckClassI();
 8007306:	f7fd fa25 	bl	8004754 <vTaskEndScheduler>
 800730a:	e7fe      	b.n	800730a <spi_lld_serve_rx_interrupt+0x6a>
        xTaskNotifyFromISR( *thread_reference, msg, eSetValueWithOverwrite, NULL );
 800730c:	2100      	movs	r1, #0
 800730e:	f7ff fd5d 	bl	8006dcc <xTaskGenericNotifyFromISR.constprop.0.isra.0>
        *thread_reference = NULL;
 8007312:	2300      	movs	r3, #0
 8007314:	60a3      	str	r3, [r4, #8]
 8007316:	e7f2      	b.n	80072fe <spi_lld_serve_rx_interrupt+0x5e>

08007318 <gpioSetPinMode.isra.0>:
bool gpioSetPinMode(uint16_t pin, uint8_t mode)
 8007318:	b510      	push	{r4, lr}
 800731a:	4604      	mov	r4, r0
    const GPIOPort* port = gpioGetPortDriver(gpioPort);
 800731c:	0a00      	lsrs	r0, r0, #8
 800731e:	f7fd f85b 	bl	80043d8 <gpioGetPortDriver>
    return port->functions->setMode(port, gpioPin, mode);
 8007322:	6883      	ldr	r3, [r0, #8]
 8007324:	460a      	mov	r2, r1
 8007326:	681b      	ldr	r3, [r3, #0]
 8007328:	b2e1      	uxtb	r1, r4
}
 800732a:	e8bd 4010 	ldmia.w	sp!, {r4, lr}
    return port->functions->setMode(port, gpioPin, mode);
 800732e:	4718      	bx	r3

08007330 <i2cSafeRawHardwareControl>:
{
 8007330:	e92d 41f0 	stmdb	sp!, {r4, r5, r6, r7, r8, lr}
    i2cSafeConfig* config = (i2cSafeConfig*)i2c->i2cSafeConfig;
 8007334:	6fc5      	ldr	r5, [r0, #124]	; 0x7c
{
 8007336:	4604      	mov	r4, r0
  osalDbgCheck((i2cp != NULL) && (config != NULL));
 8007338:	b915      	cbnz	r5, 8007340 <i2cSafeRawHardwareControl+0x10>
 800733a:	f7fd fa0b 	bl	8004754 <vTaskEndScheduler>
 800733e:	e7fe      	b.n	800733e <i2cSafeRawHardwareControl+0xe>
  osalDbgAssert((i2cp->state == I2C_STOP) || (i2cp->state == I2C_READY) ||
 8007340:	7803      	ldrb	r3, [r0, #0]
 8007342:	1e5a      	subs	r2, r3, #1
 8007344:	2a01      	cmp	r2, #1
 8007346:	d904      	bls.n	8007352 <i2cSafeRawHardwareControl+0x22>
 8007348:	2b05      	cmp	r3, #5
 800734a:	d002      	beq.n	8007352 <i2cSafeRawHardwareControl+0x22>
 800734c:	f7fd fa02 	bl	8004754 <vTaskEndScheduler>
 8007350:	e7fe      	b.n	8007350 <i2cSafeRawHardwareControl+0x20>
  osalSysLock();
 8007352:	f7fd f9ef 	bl	8004734 <vPortEnterCritical>
 */
void i2c_lld_start(I2CDriver *i2cp) {
  I2C_TypeDef *dp = i2cp->i2c;

  /* If in stopped state then enables the I2C and DMA clocks.*/
  if (i2cp->state == I2C_STOP) {
 8007356:	f894 8000 	ldrb.w	r8, [r4]
  I2C_TypeDef *dp = i2cp->i2c;
 800735a:	6fa6      	ldr	r6, [r4, #120]	; 0x78
  if (i2cp->state == I2C_STOP) {
 800735c:	f1b8 0f01 	cmp.w	r8, #1
  i2cp->config = config;
 8007360:	6065      	str	r5, [r4, #4]
 8007362:	d13a      	bne.n	80073da <i2cSafeRawHardwareControl+0xaa>

    i2cp->txdmamode = STM32_DMA_CR_PSIZE_BYTE | STM32_DMA_CR_MSIZE_BYTE |
                      STM32_DMA_CR_MINC       | STM32_DMA_CR_DMEIE |
                      STM32_DMA_CR_TEIE       | STM32_DMA_CR_TCIE |
                      STM32_DMA_CR_DIR_M2P;
    i2cp->rxdmamode = STM32_DMA_CR_PSIZE_BYTE | STM32_DMA_CR_MSIZE_BYTE |
 8007364:	238a      	movs	r3, #138	; 0x8a
 8007366:	229a      	movs	r2, #154	; 0x9a
 8007368:	e9c4 321a 	strd	r3, r2, [r4, #104]	; 0x68
                      STM32_DMA_CR_MINC       | STM32_DMA_CR_DMEIE |
                      STM32_DMA_CR_TEIE       | STM32_DMA_CR_TCIE |
                      STM32_DMA_CR_DIR_P2M;

#if STM32_I2C_USE_I2C1
    if (&I2CD1 == i2cp) {
 800736c:	4b6b      	ldr	r3, [pc, #428]	; (800751c <i2cSafeRawHardwareControl+0x1ec>)
 800736e:	429c      	cmp	r4, r3
 8007370:	d133      	bne.n	80073da <i2cSafeRawHardwareControl+0xaa>
      bool b;

      rccResetI2C1();
 8007372:	4f6b      	ldr	r7, [pc, #428]	; (8007520 <i2cSafeRawHardwareControl+0x1f0>)
      b = dmaStreamAllocate(i2cp->dmarx,
 8007374:	4622      	mov	r2, r4
      rccResetI2C1();
 8007376:	693b      	ldr	r3, [r7, #16]
      b = dmaStreamAllocate(i2cp->dmarx,
 8007378:	496a      	ldr	r1, [pc, #424]	; (8007524 <i2cSafeRawHardwareControl+0x1f4>)
      rccResetI2C1();
 800737a:	f443 1300 	orr.w	r3, r3, #2097152	; 0x200000
 800737e:	613b      	str	r3, [r7, #16]
 8007380:	2300      	movs	r3, #0
      b = dmaStreamAllocate(i2cp->dmarx,
 8007382:	6f20      	ldr	r0, [r4, #112]	; 0x70
      rccResetI2C1();
 8007384:	613b      	str	r3, [r7, #16]
      b = dmaStreamAllocate(i2cp->dmarx,
 8007386:	f7ff f863 	bl	8006450 <dmaStreamAllocate.constprop.0>
                            STM32_I2C_I2C1_IRQ_PRIORITY,
                            (stm32_dmaisr_t)i2c_lld_serve_rx_end_irq,
                            (void *)i2cp);
      osalDbgAssert(!b, "stream already allocated");
 800738a:	b110      	cbz	r0, 8007392 <i2cSafeRawHardwareControl+0x62>
 800738c:	f7fd f9e2 	bl	8004754 <vTaskEndScheduler>
 8007390:	e7fe      	b.n	8007390 <i2cSafeRawHardwareControl+0x60>
      b = dmaStreamAllocate(i2cp->dmatx,
 8007392:	4622      	mov	r2, r4
 8007394:	4964      	ldr	r1, [pc, #400]	; (8007528 <i2cSafeRawHardwareControl+0x1f8>)
 8007396:	6f60      	ldr	r0, [r4, #116]	; 0x74
 8007398:	f7ff f85a 	bl	8006450 <dmaStreamAllocate.constprop.0>
                            STM32_I2C_I2C1_IRQ_PRIORITY,
                            (stm32_dmaisr_t)i2c_lld_serve_tx_end_irq,
                            (void *)i2cp);
      osalDbgAssert(!b, "stream already allocated");
 800739c:	b110      	cbz	r0, 80073a4 <i2cSafeRawHardwareControl+0x74>
 800739e:	f7fd f9d9 	bl	8004754 <vTaskEndScheduler>
 80073a2:	e7fe      	b.n	80073a2 <i2cSafeRawHardwareControl+0x72>
  NVIC->IP[n] = NVIC_PRIORITY_MASK(prio);
 80073a4:	22c0      	movs	r2, #192	; 0xc0
  NVIC->ICPR[n >> 5U] = 1U << (n & 0x1FU);
 80073a6:	f04f 4100 	mov.w	r1, #2147483648	; 0x80000000
      rccEnableI2C1(FALSE);
 80073aa:	69fb      	ldr	r3, [r7, #28]
 80073ac:	f443 1300 	orr.w	r3, r3, #2097152	; 0x200000
 80073b0:	61fb      	str	r3, [r7, #28]
  NVIC->IP[n] = NVIC_PRIORITY_MASK(prio);
 80073b2:	4b5e      	ldr	r3, [pc, #376]	; (800752c <i2cSafeRawHardwareControl+0x1fc>)
 80073b4:	f883 231f 	strb.w	r2, [r3, #799]	; 0x31f
  NVIC->ICPR[n >> 5U] = 1U << (n & 0x1FU);
 80073b8:	f8c3 1180 	str.w	r1, [r3, #384]	; 0x180
  NVIC->ISER[n >> 5U] = 1U << (n & 0x1FU);
 80073bc:	6019      	str	r1, [r3, #0]
  NVIC->IP[n] = NVIC_PRIORITY_MASK(prio);
 80073be:	f883 2320 	strb.w	r2, [r3, #800]	; 0x320
  NVIC->ICPR[n >> 5U] = 1U << (n & 0x1FU);
 80073c2:	f8c3 8184 	str.w	r8, [r3, #388]	; 0x184
  NVIC->ISER[n >> 5U] = 1U << (n & 0x1FU);
 80073c6:	f8c3 8004 	str.w	r8, [r3, #4]
      nvicEnableVector(I2C1_EV_IRQn, STM32_I2C_I2C1_IRQ_PRIORITY);
      nvicEnableVector(I2C1_ER_IRQn, STM32_I2C_I2C1_IRQ_PRIORITY);

      i2cp->rxdmamode |= STM32_DMA_CR_CHSEL(I2C1_RX_DMA_CHANNEL) |
 80073ca:	6ea3      	ldr	r3, [r4, #104]	; 0x68
 80073cc:	f443 5340 	orr.w	r3, r3, #12288	; 0x3000
 80073d0:	66a3      	str	r3, [r4, #104]	; 0x68
                       STM32_DMA_CR_PL(STM32_I2C_I2C1_DMA_PRIORITY);
      i2cp->txdmamode |= STM32_DMA_CR_CHSEL(I2C1_TX_DMA_CHANNEL) |
 80073d2:	6ee3      	ldr	r3, [r4, #108]	; 0x6c
 80073d4:	f443 5340 	orr.w	r3, r3, #12288	; 0x3000
 80073d8:	66e3      	str	r3, [r4, #108]	; 0x6c
    }
#endif /* STM32_I2C_USE_I2C3 */
  }

  /* I2C registers pointed by the DMA.*/
  dmaStreamSetPeripheral(i2cp->dmarx, &dp->DR);
 80073da:	6f23      	ldr	r3, [r4, #112]	; 0x70
  int32_t clock_speed = i2cp->config->clock_speed;
 80073dc:	6867      	ldr	r7, [r4, #4]
  dmaStreamSetPeripheral(i2cp->dmarx, &dp->DR);
 80073de:	685a      	ldr	r2, [r3, #4]
 80073e0:	f106 0310 	add.w	r3, r6, #16
 80073e4:	6093      	str	r3, [r2, #8]
  dmaStreamSetPeripheral(i2cp->dmatx, &dp->DR);
 80073e6:	6f62      	ldr	r2, [r4, #116]	; 0x74
  int32_t clock_speed = i2cp->config->clock_speed;
 80073e8:	6879      	ldr	r1, [r7, #4]
  dmaStreamSetPeripheral(i2cp->dmatx, &dp->DR);
 80073ea:	6852      	ldr	r2, [r2, #4]
  osalDbgCheck((i2cp != NULL) &&
 80073ec:	1e48      	subs	r0, r1, #1
  dmaStreamSetPeripheral(i2cp->dmatx, &dp->DR);
 80073ee:	6093      	str	r3, [r2, #8]

  /* Reset i2c peripheral.*/
  dp->CR1 = I2C_CR1_SWRST;
 80073f0:	f44f 4300 	mov.w	r3, #32768	; 0x8000
  dp->CR1 = 0;
  dp->CR2 = I2C_CR2_ITERREN | I2C_CR2_DMAEN;
 80073f4:	f44f 6210 	mov.w	r2, #2304	; 0x900
  dp->CR1 = I2C_CR1_SWRST;
 80073f8:	6033      	str	r3, [r6, #0]
  dp->CR1 = 0;
 80073fa:	2300      	movs	r3, #0
 80073fc:	6033      	str	r3, [r6, #0]
  dp->CR2 = I2C_CR2_ITERREN | I2C_CR2_DMAEN;
 80073fe:	6072      	str	r2, [r6, #4]
  osalDbgCheck((i2cp != NULL) &&
 8007400:	4a4b      	ldr	r2, [pc, #300]	; (8007530 <i2cSafeRawHardwareControl+0x200>)
 8007402:	4290      	cmp	r0, r2
 8007404:	d902      	bls.n	800740c <i2cSafeRawHardwareControl+0xdc>
 8007406:	f7fd f9a5 	bl	8004754 <vTaskEndScheduler>
 800740a:	e7fe      	b.n	800740a <i2cSafeRawHardwareControl+0xda>
  I2C_TypeDef *dp = i2cp->i2c;
 800740c:	6fa0      	ldr	r0, [r4, #120]	; 0x78
  i2cdutycycle_t duty = i2cp->config->duty_cycle;
 800740e:	7a3a      	ldrb	r2, [r7, #8]
  dp->CR2 &= (uint16_t)~I2C_CR2_FREQ;
 8007410:	f8d0 c004 	ldr.w	ip, [r0, #4]
 8007414:	f02c 0c3f 	bic.w	ip, ip, #63	; 0x3f
 8007418:	ea4f 4c0c 	mov.w	ip, ip, lsl #16
 800741c:	ea4f 4c1c 	mov.w	ip, ip, lsr #16
 8007420:	f8c0 c004 	str.w	ip, [r0, #4]
  dp->CR2 |= (uint16_t)I2C_CLK_FREQ;
 8007424:	f8d0 c004 	ldr.w	ip, [r0, #4]
 8007428:	f04c 0c24 	orr.w	ip, ip, #36	; 0x24
 800742c:	f8c0 c004 	str.w	ip, [r0, #4]
  if (clock_speed <= 100000) {
 8007430:	f8df c100 	ldr.w	ip, [pc, #256]	; 8007534 <i2cSafeRawHardwareControl+0x204>
 8007434:	4561      	cmp	r1, ip
 8007436:	d839      	bhi.n	80074ac <i2cSafeRawHardwareControl+0x17c>
    osalDbgAssert(duty == STD_DUTY_CYCLE, "invalid standard mode duty cycle");
 8007438:	2a01      	cmp	r2, #1
 800743a:	d002      	beq.n	8007442 <i2cSafeRawHardwareControl+0x112>
 800743c:	f7fd f98a 	bl	8004754 <vTaskEndScheduler>
 8007440:	e7fe      	b.n	8007440 <i2cSafeRawHardwareControl+0x110>
    osalDbgAssert((STM32_PCLK1 % (clock_speed * 2)) == 0,
 8007442:	4a3d      	ldr	r2, [pc, #244]	; (8007538 <i2cSafeRawHardwareControl+0x208>)
 8007444:	0049      	lsls	r1, r1, #1
 8007446:	fbb2 f3f1 	udiv	r3, r2, r1
 800744a:	fb01 2213 	mls	r2, r1, r3, r2
 800744e:	b112      	cbz	r2, 8007456 <i2cSafeRawHardwareControl+0x126>
 8007450:	f7fd f980 	bl	8004754 <vTaskEndScheduler>
 8007454:	e7fe      	b.n	8007454 <i2cSafeRawHardwareControl+0x124>
    clock_div = (uint16_t)(STM32_PCLK1 / (clock_speed * 2));
 8007456:	b29b      	uxth	r3, r3
    osalDbgAssert(clock_div >= 0x04,
 8007458:	2b03      	cmp	r3, #3
 800745a:	d802      	bhi.n	8007462 <i2cSafeRawHardwareControl+0x132>
 800745c:	f7fd f97a 	bl	8004754 <vTaskEndScheduler>
 8007460:	e7fe      	b.n	8007460 <i2cSafeRawHardwareControl+0x130>
    dp->TRISE = I2C_CLK_FREQ + 1;
 8007462:	2225      	movs	r2, #37	; 0x25
  osalDbgAssert((clock_div <= I2C_CCR_CCR), "the selected clock is too low");
 8007464:	f5b3 5f80 	cmp.w	r3, #4096	; 0x1000
    dp->TRISE = I2C_CLK_FREQ + 1;
 8007468:	6202      	str	r2, [r0, #32]
  osalDbgAssert((clock_div <= I2C_CCR_CCR), "the selected clock is too low");
 800746a:	d24b      	bcs.n	8007504 <i2cSafeRawHardwareControl+0x1d4>
  dp->CCR = regCCR;
 800746c:	61c3      	str	r3, [r0, #28]
  i2copmode_t opmode = i2cp->config->op_mode;
 800746e:	783a      	ldrb	r2, [r7, #0]
  regCR1 = dp->CR1;
 8007470:	6803      	ldr	r3, [r0, #0]
  switch (opmode) {
 8007472:	2a02      	cmp	r2, #2
  regCR1 = dp->CR1;
 8007474:	b29b      	uxth	r3, r3
  switch (opmode) {
 8007476:	d048      	beq.n	800750a <i2cSafeRawHardwareControl+0x1da>
 8007478:	2a03      	cmp	r2, #3
 800747a:	d04c      	beq.n	8007516 <i2cSafeRawHardwareControl+0x1e6>
 800747c:	2a01      	cmp	r2, #1
 800747e:	d102      	bne.n	8007486 <i2cSafeRawHardwareControl+0x156>
    regCR1 &= (uint16_t)~(I2C_CR1_SMBUS|I2C_CR1_SMBTYPE);
 8007480:	f023 030a 	bic.w	r3, r3, #10
 8007484:	b29b      	uxth	r3, r3
  dp->CR1 = regCR1;
 8007486:	6003      	str	r3, [r0, #0]
  /* Setup I2C parameters.*/
  i2c_lld_set_clock(i2cp);
  i2c_lld_set_opmode(i2cp);

  /* Ready to go.*/
  dp->CR1 |= I2C_CR1_PE;
 8007488:	6833      	ldr	r3, [r6, #0]
 800748a:	f043 0301 	orr.w	r3, r3, #1
 800748e:	6033      	str	r3, [r6, #0]
  i2cp->state = I2C_READY;
 8007490:	2302      	movs	r3, #2
 8007492:	7023      	strb	r3, [r4, #0]
  osalSysUnlock();
 8007494:	f7fd fb72 	bl	8004b7c <osalSysUnlock.lto_priv.0>
    gpioSetPinMode(config->sclPin, config->peripheralMode);
 8007498:	7c29      	ldrb	r1, [r5, #16]
 800749a:	89a8      	ldrh	r0, [r5, #12]
 800749c:	f7ff ff3c 	bl	8007318 <gpioSetPinMode.isra.0>
    gpioSetPinMode(config->sdaPin, config->peripheralMode);
 80074a0:	7c29      	ldrb	r1, [r5, #16]
 80074a2:	89e8      	ldrh	r0, [r5, #14]
}
 80074a4:	e8bd 41f0 	ldmia.w	sp!, {r4, r5, r6, r7, r8, lr}
    gpioSetPinMode(config->sdaPin, config->peripheralMode);
 80074a8:	f7ff bf36 	b.w	8007318 <gpioSetPinMode.isra.0>
  else if (clock_speed <= 400000) {
 80074ac:	f8df c08c 	ldr.w	ip, [pc, #140]	; 800753c <i2cSafeRawHardwareControl+0x20c>
 80074b0:	4561      	cmp	r1, ip
 80074b2:	dcdb      	bgt.n	800746c <i2cSafeRawHardwareControl+0x13c>
    osalDbgAssert((duty == FAST_DUTY_CYCLE_2) ||
 80074b4:	1e93      	subs	r3, r2, #2
 80074b6:	2b01      	cmp	r3, #1
 80074b8:	d902      	bls.n	80074c0 <i2cSafeRawHardwareControl+0x190>
 80074ba:	f7fd f94b 	bl	8004754 <vTaskEndScheduler>
 80074be:	e7fe      	b.n	80074be <i2cSafeRawHardwareControl+0x18e>
    if (duty == FAST_DUTY_CYCLE_2) {
 80074c0:	2a02      	cmp	r2, #2
 80074c2:	4b1d      	ldr	r3, [pc, #116]	; (8007538 <i2cSafeRawHardwareControl+0x208>)
 80074c4:	d110      	bne.n	80074e8 <i2cSafeRawHardwareControl+0x1b8>
      osalDbgAssert((STM32_PCLK1 % (clock_speed * 3)) == 0,
 80074c6:	eb01 0141 	add.w	r1, r1, r1, lsl #1
 80074ca:	fbb3 f2f1 	udiv	r2, r3, r1
 80074ce:	fb01 3312 	mls	r3, r1, r2, r3
 80074d2:	b113      	cbz	r3, 80074da <i2cSafeRawHardwareControl+0x1aa>
 80074d4:	f7fd f93e 	bl	8004754 <vTaskEndScheduler>
 80074d8:	e7fe      	b.n	80074d8 <i2cSafeRawHardwareControl+0x1a8>
      clock_div = (uint16_t)(STM32_PCLK1 / (clock_speed * 3));
 80074da:	b292      	uxth	r2, r2
    regCCR |= (I2C_CCR_FS | (clock_div & I2C_CCR_CCR));
 80074dc:	4313      	orrs	r3, r2
    dp->TRISE = (I2C_CLK_FREQ * 300 / 1000) + 1;
 80074de:	220b      	movs	r2, #11
    regCCR |= (I2C_CCR_FS | (clock_div & I2C_CCR_CCR));
 80074e0:	f443 4300 	orr.w	r3, r3, #32768	; 0x8000
    dp->TRISE = (I2C_CLK_FREQ * 300 / 1000) + 1;
 80074e4:	6202      	str	r2, [r0, #32]
  osalDbgAssert((clock_div <= I2C_CCR_CCR), "the selected clock is too low");
 80074e6:	e7c1      	b.n	800746c <i2cSafeRawHardwareControl+0x13c>
      osalDbgAssert((STM32_PCLK1 % (clock_speed * 25)) == 0,
 80074e8:	2219      	movs	r2, #25
 80074ea:	4351      	muls	r1, r2
 80074ec:	fbb3 f2f1 	udiv	r2, r3, r1
 80074f0:	fb01 3312 	mls	r3, r1, r2, r3
 80074f4:	b113      	cbz	r3, 80074fc <i2cSafeRawHardwareControl+0x1cc>
 80074f6:	f7fd f92d 	bl	8004754 <vTaskEndScheduler>
 80074fa:	e7fe      	b.n	80074fa <i2cSafeRawHardwareControl+0x1ca>
      regCCR |= I2C_CCR_DUTY;
 80074fc:	f44f 4380 	mov.w	r3, #16384	; 0x4000
      clock_div = (uint16_t)(STM32_PCLK1 / (clock_speed * 25));
 8007500:	b292      	uxth	r2, r2
      regCCR |= I2C_CCR_DUTY;
 8007502:	e7eb      	b.n	80074dc <i2cSafeRawHardwareControl+0x1ac>
  osalDbgAssert((clock_div <= I2C_CCR_CCR), "the selected clock is too low");
 8007504:	f7fd f926 	bl	8004754 <vTaskEndScheduler>
 8007508:	e7fe      	b.n	8007508 <i2cSafeRawHardwareControl+0x1d8>
    regCR1 &= (uint16_t)~(I2C_CR1_SMBTYPE);
 800750a:	f023 0308 	bic.w	r3, r3, #8
 800750e:	b29b      	uxth	r3, r3
 8007510:	f043 0302 	orr.w	r3, r3, #2
    break;
 8007514:	e7b7      	b.n	8007486 <i2cSafeRawHardwareControl+0x156>
    regCR1 |= (I2C_CR1_SMBUS|I2C_CR1_SMBTYPE);
 8007516:	f043 030a 	orr.w	r3, r3, #10
    break;
 800751a:	e7b4      	b.n	8007486 <i2cSafeRawHardwareControl+0x156>
 800751c:	20000934 	.word	0x20000934
 8007520:	40021000 	.word	0x40021000
 8007524:	0800701d 	.word	0x0800701d
 8007528:	08004a19 	.word	0x08004a19
 800752c:	e000e100 	.word	0xe000e100
 8007530:	003d08ff 	.word	0x003d08ff
 8007534:	000186a0 	.word	0x000186a0
 8007538:	02255100 	.word	0x02255100
 800753c:	00061a80 	.word	0x00061a80

08007540 <gpioSetPin.isra.0>:
bool gpioSetPin(uint16_t pin, bool on)
 8007540:	b510      	push	{r4, lr}
 8007542:	4604      	mov	r4, r0
    const GPIOPort* port = gpioGetPortDriver(gpioPort);
 8007544:	0a00      	lsrs	r0, r0, #8
 8007546:	f7fc ff47 	bl	80043d8 <gpioGetPortDriver>
    return port->functions->setValue(port, 1<<gpioPin, on<<gpioPin);
 800754a:	b2e4      	uxtb	r4, r4
 800754c:	fa01 f204 	lsl.w	r2, r1, r4
 8007550:	2101      	movs	r1, #1
 8007552:	6883      	ldr	r3, [r0, #8]
 8007554:	40a1      	lsls	r1, r4
 8007556:	689b      	ldr	r3, [r3, #8]
}
 8007558:	e8bd 4010 	ldmia.w	sp!, {r4, lr}
    return port->functions->setValue(port, 1<<gpioPin, on<<gpioPin);
 800755c:	4718      	bx	r3
	...

08007560 <converterSetGpio>:
{
 8007560:	b570      	push	{r4, r5, r6, lr}
    gpioValues |= bandSpecificGpioSettings[converter->activeBand];
 8007562:	4a6c      	ldr	r2, [pc, #432]	; (8007714 <converterSetGpio+0x1b4>)
 8007564:	7e03      	ldrb	r3, [r0, #24]
 8007566:	f852 4023 	ldr.w	r4, [r2, r3, lsl #2]
 800756a:	430c      	orrs	r4, r1
    switch(converter->activeBand){
 800756c:	2b05      	cmp	r3, #5
 800756e:	d81d      	bhi.n	80075ac <converterSetGpio+0x4c>
 8007570:	e8df f003 	tbb	[pc, r3]
 8007574:	56563a03 	.word	0x56563a03
 8007578:	7156      	.short	0x7156
            gpioSetPin(GPIO_SW_SW,0);//PB 0
 800757a:	2100      	movs	r1, #0
 800757c:	f44f 7080 	mov.w	r0, #256	; 0x100
 8007580:	f7ff ffde 	bl	8007540 <gpioSetPin.isra.0>
            gpioSetPin(GPIO_SW_BYPASS,0);//PB 12
 8007584:	2100      	movs	r1, #0
 8007586:	f44f 7086 	mov.w	r0, #268	; 0x10c
 800758a:	f7ff ffd9 	bl	8007540 <gpioSetPin.isra.0>
            gpioSetPin(GPIO_SW_MIX, 1);//PB 13
 800758e:	2101      	movs	r1, #1
 8007590:	f240 100d 	movw	r0, #269	; 0x10d
 8007594:	f7ff ffd4 	bl	8007540 <gpioSetPin.isra.0>
            gpioSetPin(GPIO_MIX_X2, 0);//PB 14
 8007598:	2100      	movs	r1, #0
 800759a:	f44f 7087 	mov.w	r0, #270	; 0x10e
 800759e:	f7ff ffcf 	bl	8007540 <gpioSetPin.isra.0>
            gpioSetPin(GPIO_MIX_EN, 0);//PB 15
 80075a2:	2100      	movs	r1, #0
 80075a4:	f240 100f 	movw	r0, #271	; 0x10f
            gpioSetPin(GPIO_LOWBAND, 0);//PA 2
 80075a8:	f7ff ffca 	bl	8007540 <gpioSetPin.isra.0>
    gpioSetPin(GPIO_MIX_SW_EN, (gpioValues & _BV(CONVERTER_IO_PIN_MIX_SW_EN)) == 0);
 80075ac:	f414 7580 	ands.w	r5, r4, #256	; 0x100
 80075b0:	bf0c      	ite	eq
 80075b2:	2101      	moveq	r1, #1
 80075b4:	2100      	movne	r1, #0
 80075b6:	f44f 7084 	mov.w	r0, #264	; 0x108
 80075ba:	f7ff ffc1 	bl	8007540 <gpioSetPin.isra.0>
    systemEnableMCO((gpioValues & _BV(CONVERTER_IO_PIN_MIX_SW_LO)) > 0);
 80075be:	1e28      	subs	r0, r5, #0
 80075c0:	bf18      	it	ne
 80075c2:	2001      	movne	r0, #1
 80075c4:	f7fc fe5e 	bl	8004284 <systemEnableMCO>
    mixBlinkDelay += (gpioValues & _BV(CONVERTER_IO_PIN_LED1))? 100:0;
 80075c8:	f414 6380 	ands.w	r3, r4, #1024	; 0x400
 80075cc:	bf18      	it	ne
 80075ce:	2364      	movne	r3, #100	; 0x64
    mixBlinkDelay += (gpioValues & _BV(CONVERTER_IO_PIN_LED2))? 200:0;
 80075d0:	f414 6400 	ands.w	r4, r4, #2048	; 0x800
 80075d4:	bf18      	it	ne
 80075d6:	24c8      	movne	r4, #200	; 0xc8
 80075d8:	441c      	add	r4, r3
    mixLedDelay = mixBlinkDelay;
 80075da:	4b4f      	ldr	r3, [pc, #316]	; (8007718 <converterSetGpio+0x1b8>)
 80075dc:	601c      	str	r4, [r3, #0]
    vTaskResume(mixLedTaskHandle);
 80075de:	4b4f      	ldr	r3, [pc, #316]	; (800771c <converterSetGpio+0x1bc>)
 80075e0:	681c      	ldr	r4, [r3, #0]
 80075e2:	2c00      	cmp	r4, #0
 80075e4:	d14d      	bne.n	8007682 <converterSetGpio+0x122>
 80075e6:	e7fe      	b.n	80075e6 <converterSetGpio+0x86>
            gpioSetPin(GPIO_SW_SW,1);//PB 0
 80075e8:	2101      	movs	r1, #1
 80075ea:	f44f 7080 	mov.w	r0, #256	; 0x100
 80075ee:	f7ff ffa7 	bl	8007540 <gpioSetPin.isra.0>
            gpioSetPin(GPIO_SW_BYPASS,0);//PB 12
 80075f2:	2100      	movs	r1, #0
 80075f4:	f44f 7086 	mov.w	r0, #268	; 0x10c
 80075f8:	f7ff ffa2 	bl	8007540 <gpioSetPin.isra.0>
            gpioSetPin(GPIO_SW_MIX, 0);//PB 13
 80075fc:	2100      	movs	r1, #0
 80075fe:	f240 100d 	movw	r0, #269	; 0x10d
 8007602:	f7ff ff9d 	bl	8007540 <gpioSetPin.isra.0>
            gpioSetPin(GPIO_MIX_X2, 0);//PB 14
 8007606:	2100      	movs	r1, #0
 8007608:	f44f 7087 	mov.w	r0, #270	; 0x10e
 800760c:	f7ff ff98 	bl	8007540 <gpioSetPin.isra.0>
            gpioSetPin(GPIO_MIX_EN, 1);//PB 15
 8007610:	2101      	movs	r1, #1
 8007612:	f240 100f 	movw	r0, #271	; 0x10f
 8007616:	f7ff ff93 	bl	8007540 <gpioSetPin.isra.0>
            gpioSetPin(GPIO_LOWBAND, 1);//PA 2
 800761a:	2101      	movs	r1, #1
            gpioSetPin(GPIO_LOWBAND, 0);//PA 2
 800761c:	2002      	movs	r0, #2
 800761e:	e7c3      	b.n	80075a8 <converterSetGpio+0x48>
            gpioSetPin(GPIO_SW_SW,1);//PB 0
 8007620:	2101      	movs	r1, #1
 8007622:	f44f 7080 	mov.w	r0, #256	; 0x100
 8007626:	f7ff ff8b 	bl	8007540 <gpioSetPin.isra.0>
            gpioSetPin(GPIO_SW_BYPASS,0);//PB 12
 800762a:	2100      	movs	r1, #0
 800762c:	f44f 7086 	mov.w	r0, #268	; 0x10c
 8007630:	f7ff ff86 	bl	8007540 <gpioSetPin.isra.0>
            gpioSetPin(GPIO_SW_MIX, 1);//PB 13
 8007634:	2101      	movs	r1, #1
 8007636:	f240 100d 	movw	r0, #269	; 0x10d
 800763a:	f7ff ff81 	bl	8007540 <gpioSetPin.isra.0>
            gpioSetPin(GPIO_MIX_X2, 1);//PB 14
 800763e:	2101      	movs	r1, #1
 8007640:	f44f 7087 	mov.w	r0, #270	; 0x10e
 8007644:	f7ff ff7c 	bl	8007540 <gpioSetPin.isra.0>
            gpioSetPin(GPIO_MIX_EN, 1);//PB 15
 8007648:	2101      	movs	r1, #1
            gpioSetPin(GPIO_MIX_EN, 0);//PB 15
 800764a:	f240 100f 	movw	r0, #271	; 0x10f
 800764e:	f7ff ff77 	bl	8007540 <gpioSetPin.isra.0>
            gpioSetPin(GPIO_LOWBAND, 0);//PA 2
 8007652:	2100      	movs	r1, #0
 8007654:	e7e2      	b.n	800761c <converterSetGpio+0xbc>
            gpioSetPin(GPIO_SW_SW,0);//PB 0
 8007656:	2100      	movs	r1, #0
 8007658:	f44f 7080 	mov.w	r0, #256	; 0x100
 800765c:	f7ff ff70 	bl	8007540 <gpioSetPin.isra.0>
            gpioSetPin(GPIO_SW_BYPASS,1);//PB 12
 8007660:	2101      	movs	r1, #1
 8007662:	f44f 7086 	mov.w	r0, #268	; 0x10c
 8007666:	f7ff ff6b 	bl	8007540 <gpioSetPin.isra.0>
            gpioSetPin(GPIO_SW_MIX, 0);//PB 13
 800766a:	2100      	movs	r1, #0
 800766c:	f240 100d 	movw	r0, #269	; 0x10d
 8007670:	f7ff ff66 	bl	8007540 <gpioSetPin.isra.0>
            gpioSetPin(GPIO_MIX_X2, 0);//PB 14
 8007674:	2100      	movs	r1, #0
 8007676:	f44f 7087 	mov.w	r0, #270	; 0x10e
 800767a:	f7ff ff61 	bl	8007540 <gpioSetPin.isra.0>
            gpioSetPin(GPIO_MIX_EN, 0);//PB 15
 800767e:	2100      	movs	r1, #0
 8007680:	e7e3      	b.n	800764a <converterSetGpio+0xea>
 8007682:	4d27      	ldr	r5, [pc, #156]	; (8007720 <converterSetGpio+0x1c0>)
 8007684:	682b      	ldr	r3, [r5, #0]
 8007686:	429c      	cmp	r4, r3
 8007688:	d042      	beq.n	8007710 <converterSetGpio+0x1b0>
 800768a:	f7fd f853 	bl	8004734 <vPortEnterCritical>
 800768e:	6962      	ldr	r2, [r4, #20]
 8007690:	4b24      	ldr	r3, [pc, #144]	; (8007724 <converterSetGpio+0x1c4>)
 8007692:	429a      	cmp	r2, r3
 8007694:	d138      	bne.n	8007708 <converterSetGpio+0x1a8>
 8007696:	6aa3      	ldr	r3, [r4, #40]	; 0x28
 8007698:	4a23      	ldr	r2, [pc, #140]	; (8007728 <converterSetGpio+0x1c8>)
 800769a:	4293      	cmp	r3, r2
 800769c:	d034      	beq.n	8007708 <converterSetGpio+0x1a8>
 800769e:	bb9b      	cbnz	r3, 8007708 <converterSetGpio+0x1a8>
 80076a0:	1d26      	adds	r6, r4, #4
 80076a2:	4630      	mov	r0, r6
 80076a4:	f7fd ff31 	bl	800550a <uxListRemove>
 80076a8:	2301      	movs	r3, #1
 80076aa:	4920      	ldr	r1, [pc, #128]	; (800772c <converterSetGpio+0x1cc>)
 80076ac:	6ae2      	ldr	r2, [r4, #44]	; 0x2c
 80076ae:	6808      	ldr	r0, [r1, #0]
 80076b0:	4093      	lsls	r3, r2
 80076b2:	4303      	orrs	r3, r0
 80076b4:	2014      	movs	r0, #20
 80076b6:	600b      	str	r3, [r1, #0]
 80076b8:	4b1d      	ldr	r3, [pc, #116]	; (8007730 <converterSetGpio+0x1d0>)
 80076ba:	4631      	mov	r1, r6
 80076bc:	fb00 3002 	mla	r0, r0, r2, r3
 80076c0:	f7fd fe4b 	bl	800535a <vListInsertEnd>
 80076c4:	682b      	ldr	r3, [r5, #0]
 80076c6:	6ae2      	ldr	r2, [r4, #44]	; 0x2c
 80076c8:	6adb      	ldr	r3, [r3, #44]	; 0x2c
 80076ca:	429a      	cmp	r2, r3
 80076cc:	d31c      	bcc.n	8007708 <converterSetGpio+0x1a8>
 80076ce:	f04f 23e0 	mov.w	r3, #3758153728	; 0xe000e000
 80076d2:	4a18      	ldr	r2, [pc, #96]	; (8007734 <converterSetGpio+0x1d4>)
 80076d4:	f8d3 1d20 	ldr.w	r1, [r3, #3360]	; 0xd20
 80076d8:	6011      	str	r1, [r2, #0]
 80076da:	4a17      	ldr	r2, [pc, #92]	; (8007738 <converterSetGpio+0x1d8>)
 80076dc:	6812      	ldr	r2, [r2, #0]
 80076de:	b14a      	cbz	r2, 80076f4 <converterSetGpio+0x194>
 80076e0:	f8d3 2d20 	ldr.w	r2, [r3, #3360]	; 0xd20
 80076e4:	f422 027f 	bic.w	r2, r2, #16711680	; 0xff0000
 80076e8:	f8c3 2d20 	str.w	r2, [r3, #3360]	; 0xd20
 80076ec:	f8d3 2d20 	ldr.w	r2, [r3, #3360]	; 0xd20
 80076f0:	f8c3 2d20 	str.w	r2, [r3, #3360]	; 0xd20
 80076f4:	f04f 23e0 	mov.w	r3, #3758153728	; 0xe000e000
 80076f8:	f04f 5280 	mov.w	r2, #268435456	; 0x10000000
 80076fc:	f8c3 2d04 	str.w	r2, [r3, #3332]	; 0xd04
 8007700:	f3bf 8f4f 	dsb	sy
 8007704:	f3bf 8f6f 	isb	sy
}
 8007708:	e8bd 4070 	ldmia.w	sp!, {r4, r5, r6, lr}
 800770c:	f7fd ba2a 	b.w	8004b64 <vPortExitCritical>
 8007710:	bd70      	pop	{r4, r5, r6, pc}
 8007712:	bf00      	nop
 8007714:	0800c900 	.word	0x0800c900
 8007718:	20001198 	.word	0x20001198
 800771c:	2000119c 	.word	0x2000119c
 8007720:	200011a8 	.word	0x200011a8
 8007724:	20001620 	.word	0x20001620
 8007728:	20001600 	.word	0x20001600
 800772c:	20001374 	.word	0x20001374
 8007730:	200011b8 	.word	0x200011b8
 8007734:	2000134c 	.word	0x2000134c
 8007738:	20001358 	.word	0x20001358

0800773c <usbShellTerminated>:
    shellStart((BaseSequentialStream*)&SD3, 128, "ShellTTL", NULL, NULL);
}

static volatile bool usbShellIsUp = false;
static void usbShellTerminated(void* param)
{
 800773c:	b508      	push	{r3, lr}
    (void)param;

    gpioSetPin(GPIO_LED_USB, true);
 800773e:	2101      	movs	r1, #1
 8007740:	f240 1003 	movw	r0, #259	; 0x103
 8007744:	f7ff fefc 	bl	8007540 <gpioSetPin.isra.0>
    osalThreadSleepSeconds(1);
 8007748:	f44f 707a 	mov.w	r0, #1000	; 0x3e8
 800774c:	f7fe fbda 	bl	8005f04 <vTaskDelay>
    usbShellIsUp = false;
 8007750:	2200      	movs	r2, #0
 8007752:	4b01      	ldr	r3, [pc, #4]	; (8007758 <usbShellTerminated+0x1c>)
 8007754:	701a      	strb	r2, [r3, #0]
}
 8007756:	bd08      	pop	{r3, pc}
 8007758:	20001355 	.word	0x20001355

0800775c <mac2870LockCallback>:
    if(locked) {
 800775c:	b120      	cbz	r0, 8007768 <mac2870LockCallback+0xc>
        gpioSetPin(GPIO_LED_LOCK, false);
 800775e:	2100      	movs	r1, #0
        gpioSetPin(GPIO_LED_LOCK, true);
 8007760:	f44f 7082 	mov.w	r0, #260	; 0x104
 8007764:	f7ff beec 	b.w	8007540 <gpioSetPin.isra.0>
 8007768:	2101      	movs	r1, #1
 800776a:	e7f9      	b.n	8007760 <mac2870LockCallback+0x4>

0800776c <i2cSafeClockGoHigh>:
{
 800776c:	b538      	push	{r3, r4, r5, lr}
    gpioSetPin(config->sclPin, level);
 800776e:	6fc3      	ldr	r3, [r0, #124]	; 0x7c
{
 8007770:	4605      	mov	r5, r0
    gpioSetPin(config->sclPin, level);
 8007772:	2101      	movs	r1, #1
 8007774:	8998      	ldrh	r0, [r3, #12]
 8007776:	f7ff fee3 	bl	8007540 <gpioSetPin.isra.0>
    vPortBusyDelay(i2cSafe_CYCLE_DELAY);
 800777a:	f44f 70c8 	mov.w	r0, #400	; 0x190
 800777e:	f7fd fde5 	bl	800534c <vPortBusyDelay>
 8007782:	2406      	movs	r4, #6
    return gpioGetPin(config->sclPin);
 8007784:	6feb      	ldr	r3, [r5, #124]	; 0x7c
 8007786:	8998      	ldrh	r0, [r3, #12]
 8007788:	f7fc fe34 	bl	80043f4 <gpioGetPin>
    for(j=5; !i2cSafeRawGetClock(i2c); j--) {
 800778c:	b108      	cbz	r0, 8007792 <i2cSafeClockGoHigh+0x26>
    return I2C_BUS_OK;
 800778e:	2000      	movs	r0, #0
}
 8007790:	bd38      	pop	{r3, r4, r5, pc}
        osalThreadSleepMilliseconds(1);
 8007792:	2001      	movs	r0, #1
        if(j == 0) {
 8007794:	3c01      	subs	r4, #1
        osalThreadSleepMilliseconds(1);
 8007796:	f7fe fbb5 	bl	8005f04 <vTaskDelay>
        if(j == 0) {
 800779a:	f014 04ff 	ands.w	r4, r4, #255	; 0xff
 800779e:	d1f1      	bne.n	8007784 <i2cSafeClockGoHigh+0x18>
            return I2C_BUS_STUCK_SCL_PULLED_LOW;
 80077a0:	2001      	movs	r0, #1
 80077a2:	e7f5      	b.n	8007790 <i2cSafeClockGoHigh+0x24>

080077a4 <i2cSafeClockGoLow>:
{
 80077a4:	b510      	push	{r4, lr}
 80077a6:	4604      	mov	r4, r0
    gpioSetPin(config->sclPin, level);
 80077a8:	6fc3      	ldr	r3, [r0, #124]	; 0x7c
 80077aa:	2100      	movs	r1, #0
 80077ac:	8998      	ldrh	r0, [r3, #12]
 80077ae:	f7ff fec7 	bl	8007540 <gpioSetPin.isra.0>
    vPortBusyDelay(i2cSafe_CYCLE_DELAY);
 80077b2:	f44f 70c8 	mov.w	r0, #400	; 0x190
 80077b6:	f7fd fdc9 	bl	800534c <vPortBusyDelay>
    return gpioGetPin(config->sclPin);
 80077ba:	6fe3      	ldr	r3, [r4, #124]	; 0x7c
 80077bc:	8998      	ldrh	r0, [r3, #12]
 80077be:	f7fc fe19 	bl	80043f4 <gpioGetPin>
        return I2C_BUS_STUCK_SCL_PULLED_HIGH;
 80077c2:	2800      	cmp	r0, #0
}
 80077c4:	bf14      	ite	ne
 80077c6:	2003      	movne	r0, #3
 80077c8:	2000      	moveq	r0, #0
 80077ca:	bd10      	pop	{r4, pc}

080077cc <i2cSafeDataGoHigh>:
{
 80077cc:	b510      	push	{r4, lr}
 80077ce:	4604      	mov	r4, r0
    gpioSetPin(config->sdaPin, level);
 80077d0:	6fc3      	ldr	r3, [r0, #124]	; 0x7c
 80077d2:	2101      	movs	r1, #1
 80077d4:	89d8      	ldrh	r0, [r3, #14]
 80077d6:	f7ff feb3 	bl	8007540 <gpioSetPin.isra.0>
    vPortBusyDelay(i2cSafe_CYCLE_DELAY);
 80077da:	f44f 70c8 	mov.w	r0, #400	; 0x190
 80077de:	f7fd fdb5 	bl	800534c <vPortBusyDelay>
    return gpioGetPin(config->sdaPin);
 80077e2:	6fe3      	ldr	r3, [r4, #124]	; 0x7c
 80077e4:	89d8      	ldrh	r0, [r3, #14]
 80077e6:	f7fc fe05 	bl	80043f4 <gpioGetPin>
        return I2C_BUS_STUCK_SDA_PULLED_LOW;
 80077ea:	2800      	cmp	r0, #0
}
 80077ec:	bf0c      	ite	eq
 80077ee:	2002      	moveq	r0, #2
 80077f0:	2000      	movne	r0, #0
 80077f2:	bd10      	pop	{r4, pc}

080077f4 <i2cSafeDataGoLow>:
{
 80077f4:	b510      	push	{r4, lr}
 80077f6:	4604      	mov	r4, r0
    gpioSetPin(config->sdaPin, level);
 80077f8:	6fc3      	ldr	r3, [r0, #124]	; 0x7c
 80077fa:	2100      	movs	r1, #0
 80077fc:	89d8      	ldrh	r0, [r3, #14]
 80077fe:	f7ff fe9f 	bl	8007540 <gpioSetPin.isra.0>
    vPortBusyDelay(i2cSafe_CYCLE_DELAY);
 8007802:	f44f 70c8 	mov.w	r0, #400	; 0x190
 8007806:	f7fd fda1 	bl	800534c <vPortBusyDelay>
    return gpioGetPin(config->sdaPin);
 800780a:	6fe3      	ldr	r3, [r4, #124]	; 0x7c
 800780c:	89d8      	ldrh	r0, [r3, #14]
 800780e:	f7fc fdf1 	bl	80043f4 <gpioGetPin>
        return I2C_BUS_STUCK_SDA_PULLED_HIGH;
 8007812:	2800      	cmp	r0, #0
}
 8007814:	bf14      	ite	ne
 8007816:	2004      	movne	r0, #4
 8007818:	2000      	moveq	r0, #0
 800781a:	bd10      	pop	{r4, pc}

0800781c <sdu_start_receive.isra.0>:
static bool sdu_start_receive(SerialUSBDriver *sdup) {
 800781c:	b510      	push	{r4, lr}
  if ((usbGetDriverStateI(sdup->config->usbp) != USB_ACTIVE) ||
 800781e:	f8d0 1498 	ldr.w	r1, [r0, #1176]	; 0x498
static bool sdu_start_receive(SerialUSBDriver *sdup) {
 8007822:	4603      	mov	r3, r0
  if ((usbGetDriverStateI(sdup->config->usbp) != USB_ACTIVE) ||
 8007824:	6808      	ldr	r0, [r1, #0]
 8007826:	7802      	ldrb	r2, [r0, #0]
 8007828:	2a04      	cmp	r2, #4
 800782a:	d11c      	bne.n	8007866 <sdu_start_receive.isra.0+0x4a>
 800782c:	7d1a      	ldrb	r2, [r3, #20]
 800782e:	2a02      	cmp	r2, #2
 8007830:	d119      	bne.n	8007866 <sdu_start_receive.isra.0+0x4a>
  if (usbGetReceiveStatusI(sdup->config->usbp, sdup->config->bulk_in)) {
 8007832:	2201      	movs	r2, #1
 8007834:	790c      	ldrb	r4, [r1, #4]
 8007836:	40a2      	lsls	r2, r4
 8007838:	8944      	ldrh	r4, [r0, #10]
 800783a:	4222      	tst	r2, r4
 800783c:	d113      	bne.n	8007866 <sdu_start_receive.isra.0+0x4a>
	__asm volatile( "mrs %0, basepri" : "=r"( ulBasePri ) );
 800783e:	f3ef 8211 	mrs	r2, BASEPRI
	return (ulBasePri > 0)? pdTRUE : pdFALSE;
 8007842:	b16a      	cbz	r2, 8007860 <sdu_start_receive.isra.0+0x44>
  if (ibqIsFullI(ibqp)) {
 8007844:	e9d3 240a 	ldrd	r2, r4, [r3, #40]	; 0x28
 8007848:	42a2      	cmp	r2, r4
 800784a:	d101      	bne.n	8007850 <sdu_start_receive.isra.0+0x34>
 800784c:	6a5b      	ldr	r3, [r3, #36]	; 0x24
 800784e:	b953      	cbnz	r3, 8007866 <sdu_start_receive.isra.0+0x4a>
}
 8007850:	e8bd 4010 	ldmia.w	sp!, {r4, lr}
  usbStartReceiveI(sdup->config->usbp, sdup->config->bulk_out,
 8007854:	f44f 7380 	mov.w	r3, #256	; 0x100
 8007858:	7949      	ldrb	r1, [r1, #5]
 800785a:	3204      	adds	r2, #4
 800785c:	f7fd b808 	b.w	8004870 <usbStartReceiveI>
  osalDbgCheckClassI();
 8007860:	f7fc ff78 	bl	8004754 <vTaskEndScheduler>
 8007864:	e7fe      	b.n	8007864 <sdu_start_receive.isra.0+0x48>
}
 8007866:	bd10      	pop	{r4, pc}

08007868 <ibnotify>:
  (void) sdu_start_receive(sdup);
 8007868:	6b40      	ldr	r0, [r0, #52]	; 0x34
 800786a:	f7ff bfd7 	b.w	800781c <sdu_start_receive.isra.0>

0800786e <sduDataReceived>:
  SerialUSBDriver *sdup = usbp->out_params[ep - 1U];
 800786e:	3111      	adds	r1, #17
void sduDataReceived(USBDriver *usbp, usbep_t ep) {
 8007870:	b510      	push	{r4, lr}
  SerialUSBDriver *sdup = usbp->out_params[ep - 1U];
 8007872:	f850 4021 	ldr.w	r4, [r0, r1, lsl #2]
  if (sdup == NULL) {
 8007876:	2c00      	cmp	r4, #0
 8007878:	d03d      	beq.n	80078f6 <sduDataReceived+0x88>
  chnAddFlagsI(sdup, CHN_INPUT_AVAILABLE);
 800787a:	2104      	movs	r1, #4
  osalSysLockFromISR();
 800787c:	f7fd f9f0 	bl	8004c60 <osalSysLockFromISR.lto_priv.0>
  chnAddFlagsI(sdup, CHN_INPUT_AVAILABLE);
 8007880:	1860      	adds	r0, r4, r1
 8007882:	f7ff fb31 	bl	8006ee8 <osalEventBroadcastFlagsI>
	__asm volatile( "mrs %0, basepri" : "=r"( ulBasePri ) );
 8007886:	f3ef 8311 	mrs	r3, BASEPRI
	return (ulBasePri > 0)? pdTRUE : pdFALSE;
 800788a:	b163      	cbz	r3, 80078a6 <sduDataReceived+0x38>
                     usbGetReceiveTransactionSizeX(sdup->config->usbp,
 800788c:	f8d4 2498 	ldr.w	r2, [r4, #1176]	; 0x498
 8007890:	6813      	ldr	r3, [r2, #0]
 8007892:	7952      	ldrb	r2, [r2, #5]
 8007894:	eb03 0382 	add.w	r3, r3, r2, lsl #2
 8007898:	68db      	ldr	r3, [r3, #12]
  ibqPostFullBufferI(&sdup->ibqueue,
 800789a:	699b      	ldr	r3, [r3, #24]
 800789c:	685a      	ldr	r2, [r3, #4]
  osalDbgCheck((size > 0U) && (size <= (ibqp->bsize - sizeof (size_t))));
 800789e:	b92a      	cbnz	r2, 80078ac <sduDataReceived+0x3e>
 80078a0:	f7fc ff58 	bl	8004754 <vTaskEndScheduler>
 80078a4:	e7fe      	b.n	80078a4 <sduDataReceived+0x36>
  osalDbgCheckClassI();
 80078a6:	f7fc ff55 	bl	8004754 <vTaskEndScheduler>
 80078aa:	e7fe      	b.n	80078aa <sduDataReceived+0x3c>
  osalDbgCheck((size > 0U) && (size <= (ibqp->bsize - sizeof (size_t))));
 80078ac:	6b63      	ldr	r3, [r4, #52]	; 0x34
 80078ae:	3b04      	subs	r3, #4
 80078b0:	429a      	cmp	r2, r3
 80078b2:	d8f5      	bhi.n	80078a0 <sduDataReceived+0x32>
  osalDbgAssert(!ibqIsFullI(ibqp), "buffers queue full");
 80078b4:	e9d4 310a 	ldrd	r3, r1, [r4, #40]	; 0x28
 80078b8:	428b      	cmp	r3, r1
 80078ba:	d104      	bne.n	80078c6 <sduDataReceived+0x58>
 80078bc:	6a61      	ldr	r1, [r4, #36]	; 0x24
 80078be:	b111      	cbz	r1, 80078c6 <sduDataReceived+0x58>
 80078c0:	f7fc ff48 	bl	8004754 <vTaskEndScheduler>
 80078c4:	e7fe      	b.n	80078c4 <sduDataReceived+0x56>
  *((size_t *)ibqp->bwrptr) = size;
 80078c6:	601a      	str	r2, [r3, #0]
  ibqp->bcounter++;
 80078c8:	6a62      	ldr	r2, [r4, #36]	; 0x24
 80078ca:	3201      	adds	r2, #1
 80078cc:	6262      	str	r2, [r4, #36]	; 0x24
  ibqp->bwrptr += ibqp->bsize;
 80078ce:	6b62      	ldr	r2, [r4, #52]	; 0x34
 80078d0:	4413      	add	r3, r2
  if (ibqp->bwrptr >= ibqp->btop) {
 80078d2:	6b22      	ldr	r2, [r4, #48]	; 0x30
  ibqp->bwrptr += ibqp->bsize;
 80078d4:	62a3      	str	r3, [r4, #40]	; 0x28
  if (ibqp->bwrptr >= ibqp->btop) {
 80078d6:	4293      	cmp	r3, r2
 80078d8:	d20a      	bcs.n	80078f0 <sduDataReceived+0x82>
  osalThreadDequeueNextI(&ibqp->waiting, MSG_OK);
 80078da:	f104 0018 	add.w	r0, r4, #24
 80078de:	f7ff fadf 	bl	8006ea0 <osalThreadDequeueNextI.constprop.0>
  (void) sdu_start_receive(sdup);
 80078e2:	4620      	mov	r0, r4
 80078e4:	f7ff ff9a 	bl	800781c <sdu_start_receive.isra.0>
}
 80078e8:	e8bd 4010 	ldmia.w	sp!, {r4, lr}
  osalSysUnlockFromISR();
 80078ec:	f7fd b9cc 	b.w	8004c88 <osalSysUnlockFromISR.lto_priv.0>
    ibqp->bwrptr = ibqp->buffers;
 80078f0:	6be3      	ldr	r3, [r4, #60]	; 0x3c
 80078f2:	62a3      	str	r3, [r4, #40]	; 0x28
 80078f4:	e7f1      	b.n	80078da <sduDataReceived+0x6c>
}
 80078f6:	bd10      	pop	{r4, pc}

080078f8 <ibqReadTimeout.part.0>:
size_t ibqReadTimeout(input_buffers_queue_t *ibqp, uint8_t *bp,
 80078f8:	e92d 4ff7 	stmdb	sp!, {r0, r1, r2, r4, r5, r6, r7, r8, r9, sl, fp, lr}
 80078fc:	461f      	mov	r7, r3
 80078fe:	4604      	mov	r4, r0
  size_t r = 0;
 8007900:	2600      	movs	r6, #0
 8007902:	f8df a0ac 	ldr.w	sl, [pc, #172]	; 80079b0 <ibqReadTimeout.part.0+0xb8>
size_t ibqReadTimeout(input_buffers_queue_t *ibqp, uint8_t *bp,
 8007906:	4690      	mov	r8, r2
 8007908:	460d      	mov	r5, r1
  osalSysLock();
 800790a:	f7fc ff13 	bl	8004734 <vPortEnterCritical>
 800790e:	f7fd fcff 	bl	8005310 <vPortValidateInterruptPriority>
 8007912:	f8da 3000 	ldr.w	r3, [sl]
      if ((timeout == TIME_INFINITE) || (timeout == TIME_IMMEDIATE)) {
 8007916:	f107 3bff 	add.w	fp, r7, #4294967295	; 0xffffffff
  deadline = osalOsGetSystemTimeX() + timeout;
 800791a:	eb07 0903 	add.w	r9, r7, r3
    if (ibqp->ptr == NULL) {
 800791e:	6aa3      	ldr	r3, [r4, #40]	; 0x28
 8007920:	b93b      	cbnz	r3, 8007932 <ibqReadTimeout.part.0+0x3a>
      if ((timeout == TIME_INFINITE) || (timeout == TIME_IMMEDIATE)) {
 8007922:	f11b 0f03 	cmn.w	fp, #3
 8007926:	d92a      	bls.n	800797e <ibqReadTimeout.part.0+0x86>
        msg = ibqGetFullBufferTimeoutS(ibqp, timeout);
 8007928:	4639      	mov	r1, r7
        msg = ibqGetFullBufferTimeoutS(ibqp, next_timeout);
 800792a:	4620      	mov	r0, r4
 800792c:	f7fe fefa 	bl	8006724 <ibqGetFullBufferTimeoutS>
      if (msg != MSG_OK) {
 8007930:	bb68      	cbnz	r0, 800798e <ibqReadTimeout.part.0+0x96>
    size = (size_t)ibqp->top - (size_t)ibqp->ptr;
 8007932:	e9d4 120a 	ldrd	r1, r2, [r4, #40]	; 0x28
    if (size > (n - r)) {
 8007936:	eba8 0306 	sub.w	r3, r8, r6
    size = (size_t)ibqp->top - (size_t)ibqp->ptr;
 800793a:	1a52      	subs	r2, r2, r1
    if (size > (n - r)) {
 800793c:	429a      	cmp	r2, r3
 800793e:	bf28      	it	cs
 8007940:	461a      	movcs	r2, r3
    if (size > 64U) {
 8007942:	2a40      	cmp	r2, #64	; 0x40
 8007944:	d929      	bls.n	800799a <ibqReadTimeout.part.0+0xa2>
      memcpy(bp, ibqp->ptr, 64U);
 8007946:	462b      	mov	r3, r5
 8007948:	f101 0240 	add.w	r2, r1, #64	; 0x40
 800794c:	f851 0b04 	ldr.w	r0, [r1], #4
 8007950:	4291      	cmp	r1, r2
 8007952:	f843 0b04 	str.w	r0, [r3], #4
 8007956:	d1f9      	bne.n	800794c <ibqReadTimeout.part.0+0x54>
      ibqp->ptr += 64U;
 8007958:	6aa3      	ldr	r3, [r4, #40]	; 0x28
      bp        += 64U;
 800795a:	3540      	adds	r5, #64	; 0x40
      ibqp->ptr += 64U;
 800795c:	3340      	adds	r3, #64	; 0x40
 800795e:	62a3      	str	r3, [r4, #40]	; 0x28
      r         += 64U;
 8007960:	3640      	adds	r6, #64	; 0x40
    if (ibqp->ptr >= ibqp->top) {
 8007962:	e9d4 230a 	ldrd	r2, r3, [r4, #40]	; 0x28
 8007966:	429a      	cmp	r2, r3
 8007968:	d302      	bcc.n	8007970 <ibqReadTimeout.part.0+0x78>
      ibqReleaseEmptyBufferS(ibqp);
 800796a:	4620      	mov	r0, r4
 800796c:	f7fc fefe 	bl	800476c <ibqReleaseEmptyBufferS>
    osalSysUnlock();
 8007970:	f7fd f904 	bl	8004b7c <osalSysUnlock.lto_priv.0>
    if (r >= n) {
 8007974:	45b0      	cmp	r8, r6
 8007976:	d90c      	bls.n	8007992 <ibqReadTimeout.part.0+0x9a>
    osalSysLock();
 8007978:	f7fc fedc 	bl	8004734 <vPortEnterCritical>
  while (true) {
 800797c:	e7cf      	b.n	800791e <ibqReadTimeout.part.0+0x26>
 800797e:	f7fd fcc7 	bl	8005310 <vPortValidateInterruptPriority>
 8007982:	f8da 1000 	ldr.w	r1, [sl]
        systime_t next_timeout = deadline - osalOsGetSystemTimeX();
 8007986:	eba9 0101 	sub.w	r1, r9, r1
        if (next_timeout > timeout) {
 800798a:	428f      	cmp	r7, r1
 800798c:	d2cd      	bcs.n	800792a <ibqReadTimeout.part.0+0x32>
        osalSysUnlock();
 800798e:	f7fd f8f5 	bl	8004b7c <osalSysUnlock.lto_priv.0>
}
 8007992:	4630      	mov	r0, r6
 8007994:	b003      	add	sp, #12
 8007996:	e8bd 8ff0 	ldmia.w	sp!, {r4, r5, r6, r7, r8, r9, sl, fp, pc}
      memcpy(bp, ibqp->ptr, size);
 800799a:	4628      	mov	r0, r5
 800799c:	9201      	str	r2, [sp, #4]
 800799e:	f7fc f89d 	bl	8003adc <memcpy>
      bp        += size;
 80079a2:	9a01      	ldr	r2, [sp, #4]
      ibqp->ptr += size;
 80079a4:	6aa3      	ldr	r3, [r4, #40]	; 0x28
      bp        += size;
 80079a6:	4415      	add	r5, r2
      ibqp->ptr += size;
 80079a8:	4413      	add	r3, r2
 80079aa:	62a3      	str	r3, [r4, #40]	; 0x28
      r         += size;
 80079ac:	4416      	add	r6, r2
 80079ae:	e7d8      	b.n	8007962 <ibqReadTimeout.part.0+0x6a>
 80079b0:	20001648 	.word	0x20001648

080079b4 <_readt.lto_priv.1>:
static size_t _readt(void *ip, uint8_t *bp, size_t n, systime_t timeout) {
 80079b4:	b510      	push	{r4, lr}
  osalDbgCheck(n > 0U);
 80079b6:	b912      	cbnz	r2, 80079be <_readt.lto_priv.1+0xa>
 80079b8:	f7fc fecc 	bl	8004754 <vTaskEndScheduler>
 80079bc:	e7fe      	b.n	80079bc <_readt.lto_priv.1+0x8>
 80079be:	3018      	adds	r0, #24
}
 80079c0:	e8bd 4010 	ldmia.w	sp!, {r4, lr}
 80079c4:	f7ff bf98 	b.w	80078f8 <ibqReadTimeout.part.0>

080079c8 <_read.lto_priv.1>:
static size_t _read(void *ip, uint8_t *bp, size_t n) {
 80079c8:	b510      	push	{r4, lr}
 80079ca:	b912      	cbnz	r2, 80079d2 <_read.lto_priv.1+0xa>
 80079cc:	f7fc fec2 	bl	8004754 <vTaskEndScheduler>
 80079d0:	e7fe      	b.n	80079d0 <_read.lto_priv.1+0x8>
 80079d2:	f04f 33ff 	mov.w	r3, #4294967295	; 0xffffffff
}
 80079d6:	e8bd 4010 	ldmia.w	sp!, {r4, lr}
 80079da:	3018      	adds	r0, #24
 80079dc:	f7ff bf8c 	b.w	80078f8 <ibqReadTimeout.part.0>

080079e0 <obqWriteTimeout.part.0>:
size_t obqWriteTimeout(output_buffers_queue_t *obqp, const uint8_t *bp,
 80079e0:	e92d 4ff7 	stmdb	sp!, {r0, r1, r2, r4, r5, r6, r7, r8, r9, sl, fp, lr}
 80079e4:	461f      	mov	r7, r3
 80079e6:	4604      	mov	r4, r0
  size_t w = 0;
 80079e8:	2600      	movs	r6, #0
 80079ea:	f8df a0ac 	ldr.w	sl, [pc, #172]	; 8007a98 <obqWriteTimeout.part.0+0xb8>
size_t obqWriteTimeout(output_buffers_queue_t *obqp, const uint8_t *bp,
 80079ee:	4690      	mov	r8, r2
 80079f0:	460d      	mov	r5, r1
  osalSysLock();
 80079f2:	f7fc fe9f 	bl	8004734 <vPortEnterCritical>
 80079f6:	f7fd fc8b 	bl	8005310 <vPortValidateInterruptPriority>
 80079fa:	f8da 3000 	ldr.w	r3, [sl]
      if ((timeout == TIME_INFINITE) || (timeout == TIME_IMMEDIATE)) {
 80079fe:	f107 3bff 	add.w	fp, r7, #4294967295	; 0xffffffff
  deadline = osalOsGetSystemTimeX() + timeout;
 8007a02:	eb07 0903 	add.w	r9, r7, r3
    if (obqp->ptr == NULL) {
 8007a06:	6aa3      	ldr	r3, [r4, #40]	; 0x28
 8007a08:	b93b      	cbnz	r3, 8007a1a <obqWriteTimeout.part.0+0x3a>
      if ((timeout == TIME_INFINITE) || (timeout == TIME_IMMEDIATE)) {
 8007a0a:	f11b 0f03 	cmn.w	fp, #3
 8007a0e:	d92a      	bls.n	8007a66 <obqWriteTimeout.part.0+0x86>
        msg = obqGetEmptyBufferTimeoutS(obqp, timeout);
 8007a10:	4639      	mov	r1, r7
        msg = obqGetEmptyBufferTimeoutS(obqp, next_timeout);
 8007a12:	4620      	mov	r0, r4
 8007a14:	f7fe fed3 	bl	80067be <obqGetEmptyBufferTimeoutS>
      if (msg != MSG_OK) {
 8007a18:	bb68      	cbnz	r0, 8007a76 <obqWriteTimeout.part.0+0x96>
    size = (size_t)obqp->top - (size_t)obqp->ptr;
 8007a1a:	e9d4 020a 	ldrd	r0, r2, [r4, #40]	; 0x28
    if (size > (n - w)) {
 8007a1e:	eba8 0306 	sub.w	r3, r8, r6
    size = (size_t)obqp->top - (size_t)obqp->ptr;
 8007a22:	1a12      	subs	r2, r2, r0
    if (size > (n - w)) {
 8007a24:	429a      	cmp	r2, r3
 8007a26:	bf28      	it	cs
 8007a28:	461a      	movcs	r2, r3
    if (size > 64U) {
 8007a2a:	2a40      	cmp	r2, #64	; 0x40
 8007a2c:	d929      	bls.n	8007a82 <obqWriteTimeout.part.0+0xa2>
      memcpy(obqp->ptr, bp, 64U);
 8007a2e:	f105 0340 	add.w	r3, r5, #64	; 0x40
 8007a32:	f855 2b04 	ldr.w	r2, [r5], #4
 8007a36:	429d      	cmp	r5, r3
 8007a38:	f840 2b04 	str.w	r2, [r0], #4
 8007a3c:	d1f9      	bne.n	8007a32 <obqWriteTimeout.part.0+0x52>
      obqp->ptr += 64U;
 8007a3e:	6aa3      	ldr	r3, [r4, #40]	; 0x28
      w         += 64U;
 8007a40:	3640      	adds	r6, #64	; 0x40
      obqp->ptr += 64U;
 8007a42:	3340      	adds	r3, #64	; 0x40
 8007a44:	62a3      	str	r3, [r4, #40]	; 0x28
    if (obqp->ptr >= obqp->top) {
 8007a46:	e9d4 230a 	ldrd	r2, r3, [r4, #40]	; 0x28
 8007a4a:	429a      	cmp	r2, r3
 8007a4c:	d304      	bcc.n	8007a58 <obqWriteTimeout.part.0+0x78>
      obqPostFullBufferS(obqp, obqp->bsize - sizeof (size_t));
 8007a4e:	69e1      	ldr	r1, [r4, #28]
 8007a50:	4620      	mov	r0, r4
 8007a52:	3904      	subs	r1, #4
 8007a54:	f7fc fec4 	bl	80047e0 <obqPostFullBufferS>
    osalSysUnlock();
 8007a58:	f7fd f890 	bl	8004b7c <osalSysUnlock.lto_priv.0>
    if (w >= n) {
 8007a5c:	45b0      	cmp	r8, r6
 8007a5e:	d90c      	bls.n	8007a7a <obqWriteTimeout.part.0+0x9a>
    osalSysLock();
 8007a60:	f7fc fe68 	bl	8004734 <vPortEnterCritical>
  while (true) {
 8007a64:	e7cf      	b.n	8007a06 <obqWriteTimeout.part.0+0x26>
 8007a66:	f7fd fc53 	bl	8005310 <vPortValidateInterruptPriority>
 8007a6a:	f8da 1000 	ldr.w	r1, [sl]
        systime_t next_timeout = deadline - osalOsGetSystemTimeX();
 8007a6e:	eba9 0101 	sub.w	r1, r9, r1
        if (next_timeout > timeout) {
 8007a72:	428f      	cmp	r7, r1
 8007a74:	d2cd      	bcs.n	8007a12 <obqWriteTimeout.part.0+0x32>
        osalSysUnlock();
 8007a76:	f7fd f881 	bl	8004b7c <osalSysUnlock.lto_priv.0>
}
 8007a7a:	4630      	mov	r0, r6
 8007a7c:	b003      	add	sp, #12
 8007a7e:	e8bd 8ff0 	ldmia.w	sp!, {r4, r5, r6, r7, r8, r9, sl, fp, pc}
      memcpy(obqp->ptr, bp, size);
 8007a82:	4629      	mov	r1, r5
 8007a84:	9201      	str	r2, [sp, #4]
 8007a86:	f7fc f829 	bl	8003adc <memcpy>
      bp        += size;
 8007a8a:	9a01      	ldr	r2, [sp, #4]
      obqp->ptr += size;
 8007a8c:	6aa3      	ldr	r3, [r4, #40]	; 0x28
      bp        += size;
 8007a8e:	4415      	add	r5, r2
      obqp->ptr += size;
 8007a90:	4413      	add	r3, r2
 8007a92:	62a3      	str	r3, [r4, #40]	; 0x28
      w         += size;
 8007a94:	4416      	add	r6, r2
 8007a96:	e7d6      	b.n	8007a46 <obqWriteTimeout.part.0+0x66>
 8007a98:	20001648 	.word	0x20001648

08007a9c <_writet.lto_priv.1>:
static size_t _writet(void *ip, const uint8_t *bp, size_t n, systime_t timeout) {
 8007a9c:	e92d 41f0 	stmdb	sp!, {r4, r5, r6, r7, r8, lr}
 8007aa0:	4615      	mov	r5, r2
  if(sdup->config->sofCallback) sdup->config->sofCallback(sdup->config->usbp, true);
 8007aa2:	f8d0 2498 	ldr.w	r2, [r0, #1176]	; 0x498
static size_t _writet(void *ip, const uint8_t *bp, size_t n, systime_t timeout) {
 8007aa6:	461f      	mov	r7, r3
  if(sdup->config->sofCallback) sdup->config->sofCallback(sdup->config->usbp, true);
 8007aa8:	6893      	ldr	r3, [r2, #8]
static size_t _writet(void *ip, const uint8_t *bp, size_t n, systime_t timeout) {
 8007aaa:	4604      	mov	r4, r0
 8007aac:	460e      	mov	r6, r1
  if(sdup->config->sofCallback) sdup->config->sofCallback(sdup->config->usbp, true);
 8007aae:	b113      	cbz	r3, 8007ab6 <_writet.lto_priv.1+0x1a>
 8007ab0:	2101      	movs	r1, #1
 8007ab2:	6810      	ldr	r0, [r2, #0]
 8007ab4:	4798      	blx	r3
  osalDbgCheck(n > 0U);
 8007ab6:	b915      	cbnz	r5, 8007abe <_writet.lto_priv.1+0x22>
 8007ab8:	f7fc fe4c 	bl	8004754 <vTaskEndScheduler>
 8007abc:	e7fe      	b.n	8007abc <_writet.lto_priv.1+0x20>
 8007abe:	463b      	mov	r3, r7
 8007ac0:	462a      	mov	r2, r5
 8007ac2:	4631      	mov	r1, r6
 8007ac4:	f104 0050 	add.w	r0, r4, #80	; 0x50
}
 8007ac8:	e8bd 41f0 	ldmia.w	sp!, {r4, r5, r6, r7, r8, lr}
 8007acc:	f7ff bf88 	b.w	80079e0 <obqWriteTimeout.part.0>

08007ad0 <_write.lto_priv.1>:
static size_t _write(void *ip, const uint8_t *bp, size_t n) {
 8007ad0:	b570      	push	{r4, r5, r6, lr}
 8007ad2:	4615      	mov	r5, r2
  if(sdup->config->sofCallback) sdup->config->sofCallback(sdup->config->usbp, true);
 8007ad4:	f8d0 2498 	ldr.w	r2, [r0, #1176]	; 0x498
static size_t _write(void *ip, const uint8_t *bp, size_t n) {
 8007ad8:	4604      	mov	r4, r0
  if(sdup->config->sofCallback) sdup->config->sofCallback(sdup->config->usbp, true);
 8007ada:	6893      	ldr	r3, [r2, #8]
static size_t _write(void *ip, const uint8_t *bp, size_t n) {
 8007adc:	460e      	mov	r6, r1
  if(sdup->config->sofCallback) sdup->config->sofCallback(sdup->config->usbp, true);
 8007ade:	b113      	cbz	r3, 8007ae6 <_write.lto_priv.1+0x16>
 8007ae0:	2101      	movs	r1, #1
 8007ae2:	6810      	ldr	r0, [r2, #0]
 8007ae4:	4798      	blx	r3
 8007ae6:	b915      	cbnz	r5, 8007aee <_write.lto_priv.1+0x1e>
 8007ae8:	f7fc fe34 	bl	8004754 <vTaskEndScheduler>
 8007aec:	e7fe      	b.n	8007aec <_write.lto_priv.1+0x1c>
 8007aee:	462a      	mov	r2, r5
 8007af0:	4631      	mov	r1, r6
 8007af2:	f104 0050 	add.w	r0, r4, #80	; 0x50
 8007af6:	f04f 33ff 	mov.w	r3, #4294967295	; 0xffffffff
}
 8007afa:	e8bd 4070 	ldmia.w	sp!, {r4, r5, r6, lr}
 8007afe:	f7ff bf6f 	b.w	80079e0 <obqWriteTimeout.part.0>

08007b02 <_writes>:
static size_t _writes(void *ip, const uint8_t *bp, size_t n) {
 8007b02:	b538      	push	{r3, r4, r5, lr}
 8007b04:	4605      	mov	r5, r0
  if (msp->size - msp->eos < n)
 8007b06:	e9d0 3002 	ldrd	r3, r0, [r0, #8]
 8007b0a:	1a1c      	subs	r4, r3, r0
 8007b0c:	4294      	cmp	r4, r2
 8007b0e:	bf28      	it	cs
 8007b10:	4614      	movcs	r4, r2
  memcpy(msp->buffer + msp->eos, bp, n);
 8007b12:	686b      	ldr	r3, [r5, #4]
 8007b14:	4622      	mov	r2, r4
 8007b16:	4418      	add	r0, r3
 8007b18:	f7fb ffe0 	bl	8003adc <memcpy>
  msp->eos += n;
 8007b1c:	68eb      	ldr	r3, [r5, #12]
}
 8007b1e:	4620      	mov	r0, r4
  msp->eos += n;
 8007b20:	4423      	add	r3, r4
 8007b22:	60eb      	str	r3, [r5, #12]
}
 8007b24:	bd38      	pop	{r3, r4, r5, pc}

08007b26 <_reads>:
static size_t _reads(void *ip, uint8_t *bp, size_t n) {
 8007b26:	b538      	push	{r3, r4, r5, lr}
 8007b28:	4605      	mov	r5, r0
 8007b2a:	4608      	mov	r0, r1
  if (msp->eos - msp->offset < n)
 8007b2c:	e9d5 3103 	ldrd	r3, r1, [r5, #12]
 8007b30:	1a5c      	subs	r4, r3, r1
 8007b32:	4294      	cmp	r4, r2
 8007b34:	bf28      	it	cs
 8007b36:	4614      	movcs	r4, r2
  memcpy(bp, msp->buffer + msp->offset, n);
 8007b38:	686b      	ldr	r3, [r5, #4]
 8007b3a:	4622      	mov	r2, r4
 8007b3c:	4419      	add	r1, r3
 8007b3e:	f7fb ffcd 	bl	8003adc <memcpy>
  msp->offset += n;
 8007b42:	692b      	ldr	r3, [r5, #16]
}
 8007b44:	4620      	mov	r0, r4
  msp->offset += n;
 8007b46:	4423      	add	r3, r4
 8007b48:	612b      	str	r3, [r5, #16]
}
 8007b4a:	bd38      	pop	{r3, r4, r5, pc}

08007b4c <usbInitEndpointI>:
                      const USBEndpointConfig *epcp) {
 8007b4c:	b570      	push	{r4, r5, r6, lr}
 8007b4e:	4604      	mov	r4, r0
 8007b50:	460e      	mov	r6, r1
 8007b52:	4615      	mov	r5, r2
	__asm volatile( "mrs %0, basepri" : "=r"( ulBasePri ) );
 8007b54:	f3ef 8311 	mrs	r3, BASEPRI
	return (ulBasePri > 0)? pdTRUE : pdFALSE;
 8007b58:	b11b      	cbz	r3, 8007b62 <usbInitEndpointI+0x16>
  osalDbgCheck((usbp != NULL) && (epcp != NULL));
 8007b5a:	b928      	cbnz	r0, 8007b68 <usbInitEndpointI+0x1c>
 8007b5c:	f7fc fdfa 	bl	8004754 <vTaskEndScheduler>
 8007b60:	e7fe      	b.n	8007b60 <usbInitEndpointI+0x14>
  osalDbgCheckClassI();
 8007b62:	f7fc fdf7 	bl	8004754 <vTaskEndScheduler>
 8007b66:	e7fe      	b.n	8007b66 <usbInitEndpointI+0x1a>
  osalDbgAssert(usbp->state == USB_ACTIVE,
 8007b68:	7803      	ldrb	r3, [r0, #0]
 8007b6a:	2b04      	cmp	r3, #4
 8007b6c:	d002      	beq.n	8007b74 <usbInitEndpointI+0x28>
 8007b6e:	f7fc fdf1 	bl	8004754 <vTaskEndScheduler>
 8007b72:	e7fe      	b.n	8007b72 <usbInitEndpointI+0x26>
  osalDbgAssert(usbp->epc[ep] == NULL, "already initialized");
 8007b74:	eb00 0381 	add.w	r3, r0, r1, lsl #2
 8007b78:	68d9      	ldr	r1, [r3, #12]
 8007b7a:	b111      	cbz	r1, 8007b82 <usbInitEndpointI+0x36>
 8007b7c:	f7fc fdea 	bl	8004754 <vTaskEndScheduler>
 8007b80:	e7fe      	b.n	8007b80 <usbInitEndpointI+0x34>
  if (epcp->in_state != NULL) {
 8007b82:	6950      	ldr	r0, [r2, #20]
  usbp->epc[ep] = epcp;
 8007b84:	60da      	str	r2, [r3, #12]
  if (epcp->in_state != NULL) {
 8007b86:	b110      	cbz	r0, 8007b8e <usbInitEndpointI+0x42>
    memset(epcp->in_state, 0, sizeof(USBInEndpointState));
 8007b88:	2210      	movs	r2, #16
 8007b8a:	f003 fe4b 	bl	800b824 <memset>
  if (epcp->out_state != NULL) {
 8007b8e:	69a8      	ldr	r0, [r5, #24]
 8007b90:	b118      	cbz	r0, 8007b9a <usbInitEndpointI+0x4e>
    memset(epcp->out_state, 0, sizeof(USBOutEndpointState));
 8007b92:	2210      	movs	r2, #16
 8007b94:	2100      	movs	r1, #0
 8007b96:	f003 fe45 	bl	800b824 <memset>
  usb_lld_init_endpoint(usbp, ep);
 8007b9a:	4631      	mov	r1, r6
 8007b9c:	4620      	mov	r0, r4
}
 8007b9e:	e8bd 4070 	ldmia.w	sp!, {r4, r5, r6, lr}
  usb_lld_init_endpoint(usbp, ep);
 8007ba2:	f7fc bf57 	b.w	8004a54 <usb_lld_init_endpoint>

08007ba6 <get_history>:
    shp->sh_end -= shp->sh_size;
  *(shp->sh_buffer + shp->sh_end) = 0;
  shp->sh_cur = 0;
}

static int get_history(ShellHistory *shp, char *line, int dir) {
 8007ba6:	e92d 41f0 	stmdb	sp!, {r4, r5, r6, r7, r8, lr}
  if (shp == NULL)
    return -1;

  /* Count the number of lines saved in the buffer */
  int idx = shp->sh_beg;
  while (idx != shp->sh_end) {
 8007baa:	e9d0 5602 	ldrd	r5, r6, [r0, #8]
static int get_history(ShellHistory *shp, char *line, int dir) {
 8007bae:	4604      	mov	r4, r0
 8007bb0:	4688      	mov	r8, r1
  int idx = shp->sh_beg;
 8007bb2:	4628      	mov	r0, r5
  int count=0;
 8007bb4:	2100      	movs	r1, #0
  while (idx != shp->sh_end) {
 8007bb6:	4286      	cmp	r6, r0
 8007bb8:	d12a      	bne.n	8007c10 <get_history+0x6a>
    if (idx >= shp->sh_size)
      idx -= shp->sh_size;
    count++;
  }

  if (dir == SHELL_HIST_DIR_FW) {
 8007bba:	2a01      	cmp	r2, #1
 8007bbc:	d104      	bne.n	8007bc8 <get_history+0x22>
    if (shp->sh_cur > 0)
 8007bbe:	6923      	ldr	r3, [r4, #16]
 8007bc0:	2b00      	cmp	r3, #0
 8007bc2:	dd48      	ble.n	8007c56 <get_history+0xb0>
      shp->sh_cur -= 2;
 8007bc4:	3b02      	subs	r3, #2
 8007bc6:	6123      	str	r3, [r4, #16]
    else
      return 0;
  }

  if (count >= shp->sh_cur) {
 8007bc8:	6923      	ldr	r3, [r4, #16]
 8007bca:	428b      	cmp	r3, r1
 8007bcc:	dc45      	bgt.n	8007c5a <get_history+0xb4>
    idx += *(shp->sh_buffer + idx) + 1;
 8007bce:	f8d4 c000 	ldr.w	ip, [r4]
 8007bd2:	3901      	subs	r1, #1
    idx = shp->sh_beg;
    int i = 0;
    while (idx != shp->sh_end && shp->sh_cur != (count - i - 1)) {
      idx += *(shp->sh_buffer + idx) + 1;
 8007bd4:	f81c 7005 	ldrb.w	r7, [ip, r5]
    while (idx != shp->sh_end && shp->sh_cur != (count - i - 1)) {
 8007bd8:	42a8      	cmp	r0, r5
      idx += *(shp->sh_buffer + idx) + 1;
 8007bda:	463e      	mov	r6, r7
    while (idx != shp->sh_end && shp->sh_cur != (count - i - 1)) {
 8007bdc:	d001      	beq.n	8007be2 <get_history+0x3c>
 8007bde:	428b      	cmp	r3, r1
 8007be0:	d120      	bne.n	8007c24 <get_history+0x7e>
      i++;
    }

    int length = *(shp->sh_buffer + idx);

    if (length > 0) {
 8007be2:	b39f      	cbz	r7, 8007c4c <get_history+0xa6>
      shp->sh_cur++;
 8007be4:	3301      	adds	r3, #1

      memset(line, 0, SHELL_MAX_LINE_LENGTH);
 8007be6:	2240      	movs	r2, #64	; 0x40
 8007be8:	2100      	movs	r1, #0
      shp->sh_cur++;
 8007bea:	6123      	str	r3, [r4, #16]
      memset(line, 0, SHELL_MAX_LINE_LENGTH);
 8007bec:	4640      	mov	r0, r8
 8007bee:	f003 fe19 	bl	800b824 <memset>
      if ((idx + length) < shp->sh_size) {
 8007bf2:	6863      	ldr	r3, [r4, #4]
 8007bf4:	19ea      	adds	r2, r5, r7
 8007bf6:	429a      	cmp	r2, r3
 8007bf8:	6820      	ldr	r0, [r4, #0]
        memcpy(line, (shp->sh_buffer + idx + 1), length);
 8007bfa:	f105 0101 	add.w	r1, r5, #1
      if ((idx + length) < shp->sh_size) {
 8007bfe:	da19      	bge.n	8007c34 <get_history+0x8e>
        memcpy(line, (shp->sh_buffer + idx + 1), length);
 8007c00:	4401      	add	r1, r0
 8007c02:	463a      	mov	r2, r7
 8007c04:	4640      	mov	r0, r8
         * Since the saved line was split at the end of the buffer,
         * get the line in two parts.
         */
        int part_len = shp->sh_size - idx - 1;
        memcpy(line, shp->sh_buffer + idx + 1, part_len);
        memcpy(line + part_len, shp->sh_buffer, length - part_len);
 8007c06:	f7fb ff69 	bl	8003adc <memcpy>
      shp->sh_cur++;
      return 0;
    }
  }
  return -1;
}
 8007c0a:	4630      	mov	r0, r6
 8007c0c:	e8bd 81f0 	ldmia.w	sp!, {r4, r5, r6, r7, r8, pc}
    idx += *(shp->sh_buffer + idx) + 1;
 8007c10:	6823      	ldr	r3, [r4, #0]
    count++;
 8007c12:	3101      	adds	r1, #1
    idx += *(shp->sh_buffer + idx) + 1;
 8007c14:	5c1b      	ldrb	r3, [r3, r0]
 8007c16:	3301      	adds	r3, #1
 8007c18:	4418      	add	r0, r3
    if (idx >= shp->sh_size)
 8007c1a:	6863      	ldr	r3, [r4, #4]
 8007c1c:	4283      	cmp	r3, r0
      idx -= shp->sh_size;
 8007c1e:	bfd8      	it	le
 8007c20:	1ac0      	suble	r0, r0, r3
    count++;
 8007c22:	e7c8      	b.n	8007bb6 <get_history+0x10>
      if (idx >= shp->sh_size)
 8007c24:	6866      	ldr	r6, [r4, #4]
      idx += *(shp->sh_buffer + idx) + 1;
 8007c26:	3701      	adds	r7, #1
 8007c28:	443d      	add	r5, r7
      if (idx >= shp->sh_size)
 8007c2a:	42ae      	cmp	r6, r5
        idx -= shp->sh_size;
 8007c2c:	bfd8      	it	le
 8007c2e:	1bad      	suble	r5, r5, r6
      i++;
 8007c30:	3901      	subs	r1, #1
 8007c32:	e7cf      	b.n	8007bd4 <get_history+0x2e>
        int part_len = shp->sh_size - idx - 1;
 8007c34:	1b5d      	subs	r5, r3, r5
 8007c36:	3d01      	subs	r5, #1
        memcpy(line, shp->sh_buffer + idx + 1, part_len);
 8007c38:	4401      	add	r1, r0
 8007c3a:	462a      	mov	r2, r5
 8007c3c:	4640      	mov	r0, r8
 8007c3e:	f7fb ff4d 	bl	8003adc <memcpy>
        memcpy(line + part_len, shp->sh_buffer, length - part_len);
 8007c42:	6821      	ldr	r1, [r4, #0]
 8007c44:	1b7a      	subs	r2, r7, r5
 8007c46:	eb08 0005 	add.w	r0, r8, r5
 8007c4a:	e7dc      	b.n	8007c06 <get_history+0x60>
    else if (dir == SHELL_HIST_DIR_FW) {
 8007c4c:	2a01      	cmp	r2, #1
 8007c4e:	d104      	bne.n	8007c5a <get_history+0xb4>
      shp->sh_cur++;
 8007c50:	3301      	adds	r3, #1
 8007c52:	6123      	str	r3, [r4, #16]
      return 0;
 8007c54:	e7d9      	b.n	8007c0a <get_history+0x64>
      return 0;
 8007c56:	2600      	movs	r6, #0
 8007c58:	e7d7      	b.n	8007c0a <get_history+0x64>
  return -1;
 8007c5a:	f04f 36ff 	mov.w	r6, #4294967295	; 0xffffffff
 8007c5e:	e7d4      	b.n	8007c0a <get_history+0x64>

08007c60 <prvInitialiseNewTask.constprop.0>:
 8007c60:	e92d 47f0 	stmdb	sp!, {r4, r5, r6, r7, r8, r9, sl, lr}
 8007c64:	460d      	mov	r5, r1
 8007c66:	e9dd 9808 	ldrd	r9, r8, [sp, #32]
 8007c6a:	9c0a      	ldr	r4, [sp, #40]	; 0x28
 8007c6c:	0096      	lsls	r6, r2, #2
 8007c6e:	4632      	mov	r2, r6
 8007c70:	21a5      	movs	r1, #165	; 0xa5
 8007c72:	4607      	mov	r7, r0
 8007c74:	6b20      	ldr	r0, [r4, #48]	; 0x30
 8007c76:	469a      	mov	sl, r3
 8007c78:	f003 fdd4 	bl	800b824 <memset>
 8007c7c:	6b22      	ldr	r2, [r4, #48]	; 0x30
 8007c7e:	3e04      	subs	r6, #4
 8007c80:	4432      	add	r2, r6
 8007c82:	1e6b      	subs	r3, r5, #1
 8007c84:	f022 0207 	bic.w	r2, r2, #7
 8007c88:	f104 0134 	add.w	r1, r4, #52	; 0x34
 8007c8c:	350f      	adds	r5, #15
 8007c8e:	f813 0f01 	ldrb.w	r0, [r3, #1]!
 8007c92:	f801 0b01 	strb.w	r0, [r1], #1
 8007c96:	b108      	cbz	r0, 8007c9c <prvInitialiseNewTask.constprop.0+0x3c>
 8007c98:	42ab      	cmp	r3, r5
 8007c9a:	d1f8      	bne.n	8007c8e <prvInitialiseNewTask.constprop.0+0x2e>
 8007c9c:	f1c9 0305 	rsb	r3, r9, #5
 8007ca0:	2100      	movs	r1, #0
 8007ca2:	61a3      	str	r3, [r4, #24]
 8007ca4:	f04f 7380 	mov.w	r3, #16777216	; 0x1000000
 8007ca8:	6621      	str	r1, [r4, #96]	; 0x60
 8007caa:	e9c4 9113 	strd	r9, r1, [r4, #76]	; 0x4c
 8007cae:	e9c4 1115 	strd	r1, r1, [r4, #84]	; 0x54
 8007cb2:	f884 1043 	strb.w	r1, [r4, #67]	; 0x43
 8007cb6:	f8c4 902c 	str.w	r9, [r4, #44]	; 0x2c
 8007cba:	6161      	str	r1, [r4, #20]
 8007cbc:	62a1      	str	r1, [r4, #40]	; 0x28
 8007cbe:	6124      	str	r4, [r4, #16]
 8007cc0:	6264      	str	r4, [r4, #36]	; 0x24
 8007cc2:	65e1      	str	r1, [r4, #92]	; 0x5c
 8007cc4:	f884 1064 	strb.w	r1, [r4, #100]	; 0x64
 8007cc8:	f842 3c04 	str.w	r3, [r2, #-4]
 8007ccc:	4b0a      	ldr	r3, [pc, #40]	; (8007cf8 <prvInitialiseNewTask.constprop.0+0x98>)
 8007cce:	f027 0701 	bic.w	r7, r7, #1
 8007cd2:	f842 7c08 	str.w	r7, [r2, #-8]
 8007cd6:	f842 3c0c 	str.w	r3, [r2, #-12]
 8007cda:	f842 ac20 	str.w	sl, [r2, #-32]
 8007cde:	f842 1c44 	str.w	r1, [r2, #-68]
 8007ce2:	f842 1d48 	str.w	r1, [r2, #-72]!
 8007ce6:	6022      	str	r2, [r4, #0]
 8007ce8:	f1b8 0f00 	cmp.w	r8, #0
 8007cec:	d001      	beq.n	8007cf2 <prvInitialiseNewTask.constprop.0+0x92>
 8007cee:	f8c8 4000 	str.w	r4, [r8]
 8007cf2:	e8bd 87f0 	ldmia.w	sp!, {r4, r5, r6, r7, r8, r9, sl, pc}
 8007cf6:	bf00      	nop
 8007cf8:	08004b4d 	.word	0x08004b4d

08007cfc <xTaskCreate.isra.0>:
 8007cfc:	e92d 4ff0 	stmdb	sp!, {r4, r5, r6, r7, r8, r9, sl, fp, lr}
 8007d00:	4606      	mov	r6, r0
 8007d02:	b085      	sub	sp, #20
 8007d04:	0090      	lsls	r0, r2, #2
 8007d06:	460f      	mov	r7, r1
 8007d08:	e9dd 9a0e 	ldrd	r9, sl, [sp, #56]	; 0x38
 8007d0c:	4693      	mov	fp, r2
 8007d0e:	4698      	mov	r8, r3
 8007d10:	f7fd fd7c 	bl	800580c <pvPortMalloc>
 8007d14:	4605      	mov	r5, r0
 8007d16:	b1f0      	cbz	r0, 8007d56 <xTaskCreate.isra.0+0x5a>
 8007d18:	2068      	movs	r0, #104	; 0x68
 8007d1a:	f7fd fd77 	bl	800580c <pvPortMalloc>
 8007d1e:	4604      	mov	r4, r0
 8007d20:	b198      	cbz	r0, 8007d4a <xTaskCreate.isra.0+0x4e>
 8007d22:	2300      	movs	r3, #0
 8007d24:	6305      	str	r5, [r0, #48]	; 0x30
 8007d26:	f880 3065 	strb.w	r3, [r0, #101]	; 0x65
 8007d2a:	465a      	mov	r2, fp
 8007d2c:	e9cd a001 	strd	sl, r0, [sp, #4]
 8007d30:	4643      	mov	r3, r8
 8007d32:	4630      	mov	r0, r6
 8007d34:	4639      	mov	r1, r7
 8007d36:	f8cd 9000 	str.w	r9, [sp]
 8007d3a:	f7ff ff91 	bl	8007c60 <prvInitialiseNewTask.constprop.0>
 8007d3e:	4620      	mov	r0, r4
 8007d40:	b005      	add	sp, #20
 8007d42:	e8bd 4ff0 	ldmia.w	sp!, {r4, r5, r6, r7, r8, r9, sl, fp, lr}
 8007d46:	f7fd bb15 	b.w	8005374 <prvAddNewTaskToReadyList>
 8007d4a:	4628      	mov	r0, r5
 8007d4c:	b005      	add	sp, #20
 8007d4e:	e8bd 4ff0 	ldmia.w	sp!, {r4, r5, r6, r7, r8, r9, sl, fp, lr}
 8007d52:	f7fd bddb 	b.w	800590c <vPortFree>
 8007d56:	b005      	add	sp, #20
 8007d58:	e8bd 8ff0 	ldmia.w	sp!, {r4, r5, r6, r7, r8, r9, sl, fp, pc}

08007d5c <shellStart.constprop.0>:
    syslog("Shell 0x%08x started (%s).", activeShell, activeShell->taskName);

    shellThread(&activeShell->shellCfg);
}

bool shellStart(BaseSequentialStream* stream,
 8007d5c:	b5f7      	push	{r0, r1, r2, r4, r5, r6, r7, lr}
 8007d5e:	4606      	mov	r6, r0
                unsigned int histSize, const char* taskName,
                void(*terminateCallback)(void* param), void* param)
{
    ActiveShell* activeShell = pvPortMalloc(sizeof(ActiveShell));
 8007d60:	2020      	movs	r0, #32
bool shellStart(BaseSequentialStream* stream,
 8007d62:	460d      	mov	r5, r1
 8007d64:	4617      	mov	r7, r2
    ActiveShell* activeShell = pvPortMalloc(sizeof(ActiveShell));
 8007d66:	f7fd fd51 	bl	800580c <pvPortMalloc>
    if(!activeShell) {
 8007d6a:	4604      	mov	r4, r0
 8007d6c:	b300      	cbz	r0, 8007db0 <shellStart.constprop.0+0x54>
        return false;
    }

    memset(activeShell, 0, sizeof(*activeShell));
 8007d6e:	2220      	movs	r2, #32
 8007d70:	2100      	movs	r1, #0
 8007d72:	f003 fd57 	bl	800b824 <memset>

    activeShell->param = param;
    activeShell->terminateCallback = terminateCallback;

    activeShell->shellCfg.sc_channel = stream;
    activeShell->shellCfg.sc_commands = shellCommands;
 8007d76:	4b0f      	ldr	r3, [pc, #60]	; (8007db4 <shellStart.constprop.0+0x58>)

    if(histSize) {
        activeShell->shellCfg.sc_histbuf = pvPortMalloc(histSize);
 8007d78:	2080      	movs	r0, #128	; 0x80
    activeShell->terminateCallback = terminateCallback;
 8007d7a:	61a7      	str	r7, [r4, #24]
    activeShell->shellCfg.sc_channel = stream;
 8007d7c:	6066      	str	r6, [r4, #4]
    activeShell->shellCfg.sc_commands = shellCommands;
 8007d7e:	60a3      	str	r3, [r4, #8]
        activeShell->shellCfg.sc_histbuf = pvPortMalloc(histSize);
 8007d80:	f7fd fd44 	bl	800580c <pvPortMalloc>
 8007d84:	60e0      	str	r0, [r4, #12]
        if(activeShell->shellCfg.sc_histbuf) {
 8007d86:	b128      	cbz	r0, 8007d94 <shellStart.constprop.0+0x38>
            memset(activeShell->shellCfg.sc_histbuf, 0, histSize);
 8007d88:	2780      	movs	r7, #128	; 0x80
 8007d8a:	2100      	movs	r1, #0
 8007d8c:	463a      	mov	r2, r7
 8007d8e:	f003 fd49 	bl	800b824 <memset>
            activeShell->shellCfg.sc_histsize = histSize;
 8007d92:	6127      	str	r7, [r4, #16]
        }
    }

    activeShell->stream = stream;
    activeShell->taskName = taskName;
    xTaskCreate(shellStartThread, taskName, 256, activeShell, 2, NULL);
 8007d94:	2302      	movs	r3, #2
 8007d96:	2200      	movs	r2, #0
 8007d98:	4807      	ldr	r0, [pc, #28]	; (8007db8 <shellStart.constprop.0+0x5c>)
    activeShell->stream = stream;
 8007d9a:	6166      	str	r6, [r4, #20]
    activeShell->taskName = taskName;
 8007d9c:	6025      	str	r5, [r4, #0]
    xTaskCreate(shellStartThread, taskName, 256, activeShell, 2, NULL);
 8007d9e:	4629      	mov	r1, r5
 8007da0:	e9cd 3200 	strd	r3, r2, [sp]
 8007da4:	4623      	mov	r3, r4
 8007da6:	f44f 7280 	mov.w	r2, #256	; 0x100
 8007daa:	f7ff ffa7 	bl	8007cfc <xTaskCreate.isra.0>

    return true;
 8007dae:	2001      	movs	r0, #1
}
 8007db0:	b003      	add	sp, #12
 8007db2:	bdf0      	pop	{r4, r5, r6, r7, pc}
 8007db4:	2000085c 	.word	0x2000085c
 8007db8:	08009bfd 	.word	0x08009bfd

08007dbc <VectorDC>:
/**
 * @brief   USART3 interrupt handler.
 *
 * @isr
 */
OSAL_IRQ_HANDLER(STM32_USART3_HANDLER) {
 8007dbc:	e92d 47f0 	stmdb	sp!, {r4, r5, r6, r7, r8, r9, sl, lr}
  USART_TypeDef *u = sdp->usart;
 8007dc0:	4c62      	ldr	r4, [pc, #392]	; (8007f4c <VectorDC+0x190>)
 8007dc2:	f8d4 6080 	ldr.w	r6, [r4, #128]	; 0x80
  uint16_t cr1 = u->CR1;
 8007dc6:	68f7      	ldr	r7, [r6, #12]
  uint16_t sr = u->SR;
 8007dc8:	6833      	ldr	r3, [r6, #0]
  if (sr & USART_SR_LBD) {
 8007dca:	05da      	lsls	r2, r3, #23
  uint16_t sr = u->SR;
 8007dcc:	b29d      	uxth	r5, r3
  if (sr & USART_SR_LBD) {
 8007dce:	d50b      	bpl.n	8007de8 <VectorDC+0x2c>
    osalSysLockFromISR();
 8007dd0:	f7fc ff46 	bl	8004c60 <osalSysLockFromISR.lto_priv.0>
    chnAddFlagsI(sdp, SD_BREAK_DETECTED);
 8007dd4:	f44f 7100 	mov.w	r1, #512	; 0x200
 8007dd8:	1d20      	adds	r0, r4, #4
 8007dda:	f7ff f885 	bl	8006ee8 <osalEventBroadcastFlagsI>
    u->SR = ~USART_SR_LBD;
 8007dde:	f46f 7380 	mvn.w	r3, #256	; 0x100
 8007de2:	6033      	str	r3, [r6, #0]
    osalSysUnlockFromISR();
 8007de4:	f7fc ff50 	bl	8004c88 <osalSysUnlockFromISR.lto_priv.0>
  osalSysLockFromISR();
 8007de8:	f7fc ff3a 	bl	8004c60 <osalSysLockFromISR.lto_priv.0>
  chnAddFlagsI(sdp, sts);
 8007dec:	f8df 8160 	ldr.w	r8, [pc, #352]	; 8007f50 <VectorDC+0x194>
  osalThreadDequeueNextI(&iqp->q_waiting, MSG_OK);
 8007df0:	f108 0914 	add.w	r9, r8, #20
  while (sr & (USART_SR_RXNE | USART_SR_ORE | USART_SR_NE | USART_SR_FE |
 8007df4:	f015 0f2f 	tst.w	r5, #47	; 0x2f
 8007df8:	d124      	bne.n	8007e44 <VectorDC+0x88>
  osalSysUnlockFromISR();
 8007dfa:	f7fc ff45 	bl	8004c88 <osalSysUnlockFromISR.lto_priv.0>
  if ((cr1 & USART_CR1_TXEIE) && (sr & USART_SR_TXE)) {
 8007dfe:	0639      	lsls	r1, r7, #24
 8007e00:	d57b      	bpl.n	8007efa <VectorDC+0x13e>
 8007e02:	062a      	lsls	r2, r5, #24
 8007e04:	d579      	bpl.n	8007efa <VectorDC+0x13e>
    osalSysLockFromISR();
 8007e06:	f7fc ff2b 	bl	8004c60 <osalSysLockFromISR.lto_priv.0>
	__asm volatile( "mrs %0, basepri" : "=r"( ulBasePri ) );
 8007e0a:	f3ef 8311 	mrs	r3, BASEPRI
	return (ulBasePri > 0)? pdTRUE : pdFALSE;
 8007e0e:	2b00      	cmp	r3, #0
 8007e10:	f000 8097 	beq.w	8007f42 <VectorDC+0x186>
  if (oqIsEmptyI(oqp)) {
 8007e14:	e9d4 2314 	ldrd	r2, r3, [r4, #80]	; 0x50
 8007e18:	429a      	cmp	r2, r3
 8007e1a:	d102      	bne.n	8007e22 <VectorDC+0x66>
 8007e1c:	6c62      	ldr	r2, [r4, #68]	; 0x44
 8007e1e:	2a00      	cmp	r2, #0
 8007e20:	d15f      	bne.n	8007ee2 <VectorDC+0x126>
  oqp->q_counter++;
 8007e22:	6c62      	ldr	r2, [r4, #68]	; 0x44
 8007e24:	3201      	adds	r2, #1
 8007e26:	6462      	str	r2, [r4, #68]	; 0x44
  b = *oqp->q_rdptr++;
 8007e28:	1c5a      	adds	r2, r3, #1
 8007e2a:	6562      	str	r2, [r4, #84]	; 0x54
 8007e2c:	f893 8000 	ldrb.w	r8, [r3]
  if (oqp->q_rdptr >= oqp->q_top) {
 8007e30:	6ce3      	ldr	r3, [r4, #76]	; 0x4c
 8007e32:	429a      	cmp	r2, r3
 8007e34:	f080 8082 	bcs.w	8007f3c <VectorDC+0x180>
  osalThreadDequeueNextI(&oqp->q_waiting, MSG_OK);
 8007e38:	4846      	ldr	r0, [pc, #280]	; (8007f54 <VectorDC+0x198>)
 8007e3a:	f7ff f831 	bl	8006ea0 <osalThreadDequeueNextI.constprop.0>
      u->DR = b;
 8007e3e:	f8c6 8004 	str.w	r8, [r6, #4]
 8007e42:	e058      	b.n	8007ef6 <VectorDC+0x13a>
    if (sr & (USART_SR_ORE | USART_SR_NE | USART_SR_FE  | USART_SR_PE))
 8007e44:	072b      	lsls	r3, r5, #28
 8007e46:	d013      	beq.n	8007e70 <VectorDC+0xb4>
    sts |= SD_OVERRUN_ERROR;
 8007e48:	f015 0f08 	tst.w	r5, #8
 8007e4c:	bf0c      	ite	eq
 8007e4e:	2100      	moveq	r1, #0
 8007e50:	2180      	movne	r1, #128	; 0x80
  if (sr & USART_SR_PE)
 8007e52:	07e8      	lsls	r0, r5, #31
    sts |= SD_PARITY_ERROR;
 8007e54:	bf48      	it	mi
 8007e56:	f041 0120 	orrmi.w	r1, r1, #32
  if (sr & USART_SR_FE)
 8007e5a:	07aa      	lsls	r2, r5, #30
    sts |= SD_FRAMING_ERROR;
 8007e5c:	bf48      	it	mi
 8007e5e:	f041 0140 	orrmi.w	r1, r1, #64	; 0x40
  if (sr & USART_SR_NE)
 8007e62:	076b      	lsls	r3, r5, #29
  chnAddFlagsI(sdp, sts);
 8007e64:	4640      	mov	r0, r8
    sts |= SD_NOISE_ERROR;
 8007e66:	bf48      	it	mi
 8007e68:	f441 7180 	orrmi.w	r1, r1, #256	; 0x100
  chnAddFlagsI(sdp, sts);
 8007e6c:	f7ff f83c 	bl	8006ee8 <osalEventBroadcastFlagsI>
    if (sr & USART_SR_RXNE)
 8007e70:	06a8      	lsls	r0, r5, #26
    b = (uint8_t)u->DR & sdp->rxmask;
 8007e72:	f8d6 a004 	ldr.w	sl, [r6, #4]
    if (sr & USART_SR_RXNE)
 8007e76:	d51b      	bpl.n	8007eb0 <VectorDC+0xf4>
	__asm volatile( "mrs %0, basepri" : "=r"( ulBasePri ) );
 8007e78:	f3ef 8311 	mrs	r3, BASEPRI
	return (ulBasePri > 0)? pdTRUE : pdFALSE;
 8007e7c:	b913      	cbnz	r3, 8007e84 <VectorDC+0xc8>
 *
 * @iclass
 */
void sdIncomingDataI(SerialDriver *sdp, uint8_t b) {

  osalDbgCheckClassI();
 8007e7e:	f7fc fc69 	bl	8004754 <vTaskEndScheduler>
 8007e82:	e7fe      	b.n	8007e82 <VectorDC+0xc6>
  osalDbgCheck(sdp != NULL);

  if (iqIsEmptyI(&sdp->iqueue))
 8007e84:	6a23      	ldr	r3, [r4, #32]
    b = (uint8_t)u->DR & sdp->rxmask;
 8007e86:	f894 5084 	ldrb.w	r5, [r4, #132]	; 0x84
 8007e8a:	b91b      	cbnz	r3, 8007e94 <VectorDC+0xd8>
    chnAddFlagsI(sdp, CHN_INPUT_AVAILABLE);
 8007e8c:	2104      	movs	r1, #4
 8007e8e:	4640      	mov	r0, r8
 8007e90:	f7ff f82a 	bl	8006ee8 <osalEventBroadcastFlagsI>
	__asm volatile( "mrs %0, basepri" : "=r"( ulBasePri ) );
 8007e94:	f3ef 8311 	mrs	r3, BASEPRI
	return (ulBasePri > 0)? pdTRUE : pdFALSE;
 8007e98:	b303      	cbz	r3, 8007edc <VectorDC+0x120>
  if (iqIsFullI(iqp)) {
 8007e9a:	e9d4 320b 	ldrd	r3, r2, [r4, #44]	; 0x2c
 8007e9e:	4293      	cmp	r3, r2
 8007ea0:	d109      	bne.n	8007eb6 <VectorDC+0xfa>
 8007ea2:	6a22      	ldr	r2, [r4, #32]
 8007ea4:	b13a      	cbz	r2, 8007eb6 <VectorDC+0xfa>
  if (iqPutI(&sdp->iqueue, b) < MSG_OK)
    chnAddFlagsI(sdp, SD_QUEUE_FULL_ERROR);
 8007ea6:	f44f 6180 	mov.w	r1, #1024	; 0x400
 8007eaa:	4640      	mov	r0, r8
 8007eac:	f7ff f81c 	bl	8006ee8 <osalEventBroadcastFlagsI>
    sr = u->SR;
 8007eb0:	6835      	ldr	r5, [r6, #0]
 8007eb2:	b2ad      	uxth	r5, r5
 8007eb4:	e79e      	b.n	8007df4 <VectorDC+0x38>
  iqp->q_counter++;
 8007eb6:	6a22      	ldr	r2, [r4, #32]
    b = (uint8_t)u->DR & sdp->rxmask;
 8007eb8:	ea05 050a 	and.w	r5, r5, sl
 8007ebc:	3201      	adds	r2, #1
 8007ebe:	6222      	str	r2, [r4, #32]
  *iqp->q_wrptr++ = b;
 8007ec0:	1c5a      	adds	r2, r3, #1
 8007ec2:	62e2      	str	r2, [r4, #44]	; 0x2c
 8007ec4:	701d      	strb	r5, [r3, #0]
  if (iqp->q_wrptr >= iqp->q_top) {
 8007ec6:	e9d4 320a 	ldrd	r3, r2, [r4, #40]	; 0x28
 8007eca:	429a      	cmp	r2, r3
    iqp->q_wrptr = iqp->q_buffer;
 8007ecc:	bf28      	it	cs
 8007ece:	6a63      	ldrcs	r3, [r4, #36]	; 0x24
  osalThreadDequeueNextI(&iqp->q_waiting, MSG_OK);
 8007ed0:	4648      	mov	r0, r9
    iqp->q_wrptr = iqp->q_buffer;
 8007ed2:	bf28      	it	cs
 8007ed4:	62e3      	strcs	r3, [r4, #44]	; 0x2c
  osalThreadDequeueNextI(&iqp->q_waiting, MSG_OK);
 8007ed6:	f7fe ffe3 	bl	8006ea0 <osalThreadDequeueNextI.constprop.0>
 8007eda:	e7e9      	b.n	8007eb0 <VectorDC+0xf4>
  osalDbgCheckClassI();
 8007edc:	f7fc fc3a 	bl	8004754 <vTaskEndScheduler>
 8007ee0:	e7fe      	b.n	8007ee0 <VectorDC+0x124>
      chnAddFlagsI(sdp, CHN_OUTPUT_EMPTY);
 8007ee2:	2108      	movs	r1, #8
 8007ee4:	481a      	ldr	r0, [pc, #104]	; (8007f50 <VectorDC+0x194>)
 8007ee6:	f7fe ffff 	bl	8006ee8 <osalEventBroadcastFlagsI>
      u->CR1 = (cr1 & ~USART_CR1_TXEIE) | USART_CR1_TCIE;
 8007eea:	f64f 733f 	movw	r3, #65343	; 0xff3f
 8007eee:	403b      	ands	r3, r7
 8007ef0:	f043 0340 	orr.w	r3, r3, #64	; 0x40
 8007ef4:	60f3      	str	r3, [r6, #12]
    osalSysUnlockFromISR();
 8007ef6:	f7fc fec7 	bl	8004c88 <osalSysUnlockFromISR.lto_priv.0>
  if (sr & USART_SR_TC) {
 8007efa:	066b      	lsls	r3, r5, #25
 8007efc:	d515      	bpl.n	8007f2a <VectorDC+0x16e>
    osalSysLockFromISR();
 8007efe:	f7fc feaf 	bl	8004c60 <osalSysLockFromISR.lto_priv.0>
    if (oqIsEmptyI(&sdp->oqueue))
 8007f02:	e9d4 2314 	ldrd	r2, r3, [r4, #80]	; 0x50
 8007f06:	429a      	cmp	r2, r3
 8007f08:	d105      	bne.n	8007f16 <VectorDC+0x15a>
 8007f0a:	6c63      	ldr	r3, [r4, #68]	; 0x44
 8007f0c:	b11b      	cbz	r3, 8007f16 <VectorDC+0x15a>
      chnAddFlagsI(sdp, CHN_TRANSMISSION_END);
 8007f0e:	2110      	movs	r1, #16
 8007f10:	480f      	ldr	r0, [pc, #60]	; (8007f50 <VectorDC+0x194>)
 8007f12:	f7fe ffe9 	bl	8006ee8 <osalEventBroadcastFlagsI>
    u->SR = ~USART_SR_TC;
 8007f16:	f06f 0340 	mvn.w	r3, #64	; 0x40
    u->CR1 = cr1 & ~USART_CR1_TCIE;
 8007f1a:	f027 0740 	bic.w	r7, r7, #64	; 0x40
 8007f1e:	043f      	lsls	r7, r7, #16
 8007f20:	0c3f      	lsrs	r7, r7, #16
 8007f22:	60f7      	str	r7, [r6, #12]
    u->SR = ~USART_SR_TC;
 8007f24:	6033      	str	r3, [r6, #0]
    osalSysUnlockFromISR();
 8007f26:	f7fc feaf 	bl	8004c88 <osalSysUnlockFromISR.lto_priv.0>
 8007f2a:	2100      	movs	r1, #0
 8007f2c:	4b0a      	ldr	r3, [pc, #40]	; (8007f58 <VectorDC+0x19c>)
 8007f2e:	681a      	ldr	r2, [r3, #0]
 8007f30:	6019      	str	r1, [r3, #0]

  OSAL_IRQ_PROLOGUE();

  serve_interrupt(&SD3);

  OSAL_IRQ_EPILOGUE();
 8007f32:	b14a      	cbz	r2, 8007f48 <VectorDC+0x18c>
}
 8007f34:	e8bd 47f0 	ldmia.w	sp!, {r4, r5, r6, r7, r8, r9, sl, lr}
 8007f38:	f7fb bf24 	b.w	8003d84 <Vector6C.part.0>
    oqp->q_rdptr = oqp->q_buffer;
 8007f3c:	6ca3      	ldr	r3, [r4, #72]	; 0x48
 8007f3e:	6563      	str	r3, [r4, #84]	; 0x54
 8007f40:	e77a      	b.n	8007e38 <VectorDC+0x7c>
  osalDbgCheckClassI();
 8007f42:	f7fc fc07 	bl	8004754 <vTaskEndScheduler>
 8007f46:	e7fe      	b.n	8007f46 <VectorDC+0x18a>
 8007f48:	e8bd 87f0 	ldmia.w	sp!, {r4, r5, r6, r7, r8, r9, sl, pc}
 8007f4c:	200009bc 	.word	0x200009bc
 8007f50:	200009c0 	.word	0x200009c0
 8007f54:	200009f8 	.word	0x200009f8
 8007f58:	2000164c 	.word	0x2000164c

08007f5c <sanityRebootMonitorTask>:
{
 8007f5c:	b508      	push	{r3, lr}
    uint32_t numberOfSeconds = sanityRebootSeconds;
 8007f5e:	4b14      	ldr	r3, [pc, #80]	; (8007fb0 <sanityRebootMonitorTask+0x54>)
 8007f60:	6819      	ldr	r1, [r3, #0]
    if(numberOfSeconds &&
 8007f62:	b199      	cbz	r1, 8007f8c <sanityRebootMonitorTask+0x30>
 8007f64:	f7fd f9d4 	bl	8005310 <vPortValidateInterruptPriority>
            osalOsGetSystemTimeX() >= OSAL_S2ST(numberOfSeconds)) {
 8007f68:	f44f 727a 	mov.w	r2, #1000	; 0x3e8
 8007f6c:	4b11      	ldr	r3, [pc, #68]	; (8007fb4 <sanityRebootMonitorTask+0x58>)
 8007f6e:	4351      	muls	r1, r2
 8007f70:	681b      	ldr	r3, [r3, #0]
    if(numberOfSeconds &&
 8007f72:	4299      	cmp	r1, r3
 8007f74:	d80a      	bhi.n	8007f8c <sanityRebootMonitorTask+0x30>
        RCC->APB1ENR |= (RCC_APB1ENR_PWREN | RCC_APB1ENR_BKPEN);
 8007f76:	4a10      	ldr	r2, [pc, #64]	; (8007fb8 <sanityRebootMonitorTask+0x5c>)
 8007f78:	69d3      	ldr	r3, [r2, #28]
 8007f7a:	f043 53c0 	orr.w	r3, r3, #402653184	; 0x18000000
 8007f7e:	61d3      	str	r3, [r2, #28]
        BKP->DR10 = 0x424D;
 8007f80:	f244 224d 	movw	r2, #16973	; 0x424d
 8007f84:	4b0d      	ldr	r3, [pc, #52]	; (8007fbc <sanityRebootMonitorTask+0x60>)
 8007f86:	629a      	str	r2, [r3, #40]	; 0x28
        NVIC_SystemReset();
 8007f88:	f7fc f956 	bl	8004238 <NVIC_SystemReset.lto_priv.0>
 */
void wdgReset(WDGDriver *wdgp) {

  osalDbgCheck(wdgp != NULL);

  osalSysLock();
 8007f8c:	f7fc fbd2 	bl	8004734 <vPortEnterCritical>
  osalDbgAssert(wdgp->state == WDG_READY, "not ready");
 8007f90:	4b0b      	ldr	r3, [pc, #44]	; (8007fc0 <sanityRebootMonitorTask+0x64>)
 8007f92:	781a      	ldrb	r2, [r3, #0]
 8007f94:	2a02      	cmp	r2, #2
 8007f96:	d002      	beq.n	8007f9e <sanityRebootMonitorTask+0x42>
 8007f98:	f7fc fbdc 	bl	8004754 <vTaskEndScheduler>
 8007f9c:	e7fe      	b.n	8007f9c <sanityRebootMonitorTask+0x40>
 *
 * @notapi
 */
void wdg_lld_reset(WDGDriver * wdgp) {

  wdgp->wdg->KR = KR_KEY_RELOAD;
 8007f9e:	f64a 22aa 	movw	r2, #43690	; 0xaaaa
 8007fa2:	689b      	ldr	r3, [r3, #8]
}
 8007fa4:	2001      	movs	r0, #1
 8007fa6:	601a      	str	r2, [r3, #0]
  wdgResetI(wdgp);
  osalSysUnlock();
 8007fa8:	f7fc fde8 	bl	8004b7c <osalSysUnlock.lto_priv.0>
 8007fac:	bd08      	pop	{r3, pc}
 8007fae:	bf00      	nop
 8007fb0:	20000858 	.word	0x20000858
 8007fb4:	20001648 	.word	0x20001648
 8007fb8:	40021000 	.word	0x40021000
 8007fbc:	40006c00 	.word	0x40006c00
 8007fc0:	20000fdc 	.word	0x20000fdc

08007fc4 <i2cSafeRawUnclogBus>:
{
 8007fc4:	b570      	push	{r4, r5, r6, lr}
 8007fc6:	4605      	mov	r5, r0
    gpioSetPin(config->sclPin, level);
 8007fc8:	6fc3      	ldr	r3, [r0, #124]	; 0x7c
 8007fca:	2101      	movs	r1, #1
 8007fcc:	8998      	ldrh	r0, [r3, #12]
 8007fce:	f7ff fab7 	bl	8007540 <gpioSetPin.isra.0>
    gpioSetPin(config->sdaPin, level);
 8007fd2:	6feb      	ldr	r3, [r5, #124]	; 0x7c
 8007fd4:	2101      	movs	r1, #1
 8007fd6:	89d8      	ldrh	r0, [r3, #14]
 8007fd8:	f7ff fab2 	bl	8007540 <gpioSetPin.isra.0>
    i2cSafeConfig* config = (i2cSafeConfig*)i2c->i2cSafeConfig;
 8007fdc:	6fec      	ldr	r4, [r5, #124]	; 0x7c
    gpioSetPinMode(config->sdaPin, PAL_MODE_OUTPUT_OPENDRAIN);
 8007fde:	2107      	movs	r1, #7
 8007fe0:	89e0      	ldrh	r0, [r4, #14]
 8007fe2:	f7ff f999 	bl	8007318 <gpioSetPinMode.isra.0>
    gpioSetPinMode(config->sclPin, PAL_MODE_OUTPUT_OPENDRAIN);
 8007fe6:	2107      	movs	r1, #7
 8007fe8:	89a0      	ldrh	r0, [r4, #12]
 8007fea:	f7ff f995 	bl	8007318 <gpioSetPinMode.isra.0>
  osalSysLock();
 8007fee:	f7fc fba1 	bl	8004734 <vPortEnterCritical>
  osalDbgAssert((i2cp->state == I2C_STOP) || (i2cp->state == I2C_READY) ||
 8007ff2:	782b      	ldrb	r3, [r5, #0]
 8007ff4:	1e5a      	subs	r2, r3, #1
 8007ff6:	2a01      	cmp	r2, #1
 8007ff8:	d904      	bls.n	8008004 <i2cSafeRawUnclogBus+0x40>
 8007ffa:	2b05      	cmp	r3, #5
 8007ffc:	d004      	beq.n	8008008 <i2cSafeRawUnclogBus+0x44>
 8007ffe:	f7fc fba9 	bl	8004754 <vTaskEndScheduler>
 8008002:	e7fe      	b.n	8008002 <i2cSafeRawUnclogBus+0x3e>
 * @notapi
 */
void i2c_lld_stop(I2CDriver *i2cp) {

  /* If not in stopped state then disables the I2C clock.*/
  if (i2cp->state != I2C_STOP) {
 8008004:	2b01      	cmp	r3, #1
 8008006:	d036      	beq.n	8008076 <i2cSafeRawUnclogBus+0xb2>
  dp->CR1 = I2C_CR1_SWRST;
 8008008:	f44f 4200 	mov.w	r2, #32768	; 0x8000
  dp->CR1 = 0;
 800800c:	2400      	movs	r4, #0
  I2C_TypeDef *dp = i2cp->i2c;
 800800e:	6fab      	ldr	r3, [r5, #120]	; 0x78
  dmaStreamDisable(i2cp->dmatx);
 8008010:	6f68      	ldr	r0, [r5, #116]	; 0x74
  dp->CR1 = I2C_CR1_SWRST;
 8008012:	601a      	str	r2, [r3, #0]
  dmaStreamDisable(i2cp->dmatx);
 8008014:	6842      	ldr	r2, [r0, #4]
  dp->CR1 = 0;
 8008016:	601c      	str	r4, [r3, #0]
  dp->CR2 = 0;
 8008018:	605c      	str	r4, [r3, #4]
  dp->SR1 = 0;
 800801a:	615c      	str	r4, [r3, #20]
  dmaStreamDisable(i2cp->dmatx);
 800801c:	6813      	ldr	r3, [r2, #0]
 800801e:	6801      	ldr	r1, [r0, #0]
 8008020:	f023 030f 	bic.w	r3, r3, #15
 8008024:	6013      	str	r3, [r2, #0]
 8008026:	230e      	movs	r3, #14
 8008028:	7c02      	ldrb	r2, [r0, #16]
 800802a:	fa03 f202 	lsl.w	r2, r3, r2
 800802e:	604a      	str	r2, [r1, #4]
  dmaStreamDisable(i2cp->dmarx);
 8008030:	6f2a      	ldr	r2, [r5, #112]	; 0x70
 8008032:	6856      	ldr	r6, [r2, #4]
 8008034:	6831      	ldr	r1, [r6, #0]
 8008036:	f021 010f 	bic.w	r1, r1, #15
 800803a:	6031      	str	r1, [r6, #0]
 800803c:	6811      	ldr	r1, [r2, #0]
 800803e:	7c12      	ldrb	r2, [r2, #16]
 8008040:	4093      	lsls	r3, r2
 8008042:	604b      	str	r3, [r1, #4]

    /* I2C disable.*/
    i2c_lld_abort_operation(i2cp);
    dmaStreamRelease(i2cp->dmatx);
 8008044:	f7fc fcae 	bl	80049a4 <dmaStreamRelease>
    dmaStreamRelease(i2cp->dmarx);
 8008048:	6f28      	ldr	r0, [r5, #112]	; 0x70
 800804a:	f7fc fcab 	bl	80049a4 <dmaStreamRelease>

#if STM32_I2C_USE_I2C1
    if (&I2CD1 == i2cp) {
 800804e:	4b3a      	ldr	r3, [pc, #232]	; (8008138 <i2cSafeRawUnclogBus+0x174>)
 8008050:	429d      	cmp	r5, r3
 8008052:	d110      	bne.n	8008076 <i2cSafeRawUnclogBus+0xb2>
  NVIC->ICER[n >> 5U] = 1U << (n & 0x1FU);
 8008054:	f04f 4200 	mov.w	r2, #2147483648	; 0x80000000
 8008058:	4b38      	ldr	r3, [pc, #224]	; (800813c <i2cSafeRawUnclogBus+0x178>)
 800805a:	f8c3 2080 	str.w	r2, [r3, #128]	; 0x80
 800805e:	2201      	movs	r2, #1
  NVIC->IP[n] = 0U;
 8008060:	f883 431f 	strb.w	r4, [r3, #799]	; 0x31f
  NVIC->ICER[n >> 5U] = 1U << (n & 0x1FU);
 8008064:	f8c3 2084 	str.w	r2, [r3, #132]	; 0x84
      nvicDisableVector(I2C1_EV_IRQn);
      nvicDisableVector(I2C1_ER_IRQn);
      rccDisableI2C1(FALSE);
 8008068:	4a35      	ldr	r2, [pc, #212]	; (8008140 <i2cSafeRawUnclogBus+0x17c>)
  NVIC->IP[n] = 0U;
 800806a:	f883 4320 	strb.w	r4, [r3, #800]	; 0x320
 800806e:	69d3      	ldr	r3, [r2, #28]
 8008070:	f423 1300 	bic.w	r3, r3, #2097152	; 0x200000
 8008074:	61d3      	str	r3, [r2, #28]
  i2cp->config = NULL;
 8008076:	2300      	movs	r3, #0
 8008078:	606b      	str	r3, [r5, #4]
  i2cp->state  = I2C_STOP;
 800807a:	2301      	movs	r3, #1
    vPortBusyDelay(i2cSafe_CYCLE_DELAY);
 800807c:	f44f 70c8 	mov.w	r0, #400	; 0x190
 8008080:	702b      	strb	r3, [r5, #0]
  osalSysUnlock();
 8008082:	f7fc fd7b 	bl	8004b7c <osalSysUnlock.lto_priv.0>
 8008086:	f7fd f961 	bl	800534c <vPortBusyDelay>
    i2cSafeDataGoHigh(i2c);
 800808a:	4628      	mov	r0, r5
 800808c:	f7ff fb9e 	bl	80077cc <i2cSafeDataGoHigh>
 8008090:	2648      	movs	r6, #72	; 0x48
        if((retVal = i2cSafeClockGoHigh(i2c)) != I2C_BUS_OK) goto done;        
 8008092:	4628      	mov	r0, r5
 8008094:	f7ff fb6a 	bl	800776c <i2cSafeClockGoHigh>
 8008098:	4604      	mov	r4, r0
 800809a:	2800      	cmp	r0, #0
 800809c:	d142      	bne.n	8008124 <i2cSafeRawUnclogBus+0x160>
        if((retVal = i2cSafeClockGoLow(i2c)) != I2C_BUS_OK) goto done;
 800809e:	4628      	mov	r0, r5
 80080a0:	f7ff fb80 	bl	80077a4 <i2cSafeClockGoLow>
 80080a4:	4604      	mov	r4, r0
 80080a6:	2800      	cmp	r0, #0
 80080a8:	d13c      	bne.n	8008124 <i2cSafeRawUnclogBus+0x160>
    for(i=0; i<clocks; i++) {
 80080aa:	3e01      	subs	r6, #1
 80080ac:	f016 06ff 	ands.w	r6, r6, #255	; 0xff
 80080b0:	d1ef      	bne.n	8008092 <i2cSafeRawUnclogBus+0xce>
    if((retVal = i2cSafeClockGoHigh(i2c)) != I2C_BUS_OK) goto done;        
 80080b2:	4628      	mov	r0, r5
 80080b4:	f7ff fb5a 	bl	800776c <i2cSafeClockGoHigh>
 80080b8:	4604      	mov	r4, r0
 80080ba:	bb98      	cbnz	r0, 8008124 <i2cSafeRawUnclogBus+0x160>
    return gpioGetPin(config->sdaPin);
 80080bc:	6feb      	ldr	r3, [r5, #124]	; 0x7c
 80080be:	89d8      	ldrh	r0, [r3, #14]
 80080c0:	f7fc f998 	bl	80043f4 <gpioGetPin>
    if(!i2cSafeRawGetData(i2c)){
 80080c4:	b398      	cbz	r0, 800812e <i2cSafeRawUnclogBus+0x16a>
    if((retVal = i2cSafeDataGoLow(i2c)) != I2C_BUS_OK) goto done;        
 80080c6:	4628      	mov	r0, r5
 80080c8:	f7ff fb94 	bl	80077f4 <i2cSafeDataGoLow>
 80080cc:	4604      	mov	r4, r0
 80080ce:	bb48      	cbnz	r0, 8008124 <i2cSafeRawUnclogBus+0x160>
    if((retVal = i2cSafeClockGoLow(i2c)) != I2C_BUS_OK) goto done;        
 80080d0:	4628      	mov	r0, r5
 80080d2:	f7ff fb67 	bl	80077a4 <i2cSafeClockGoLow>
 80080d6:	4604      	mov	r4, r0
 80080d8:	bb20      	cbnz	r0, 8008124 <i2cSafeRawUnclogBus+0x160>
    i2cSafeDataGoHigh(i2c);
 80080da:	4628      	mov	r0, r5
 80080dc:	f7ff fb76 	bl	80077cc <i2cSafeDataGoHigh>
 80080e0:	2609      	movs	r6, #9
        if((retVal = i2cSafeClockGoHigh(i2c)) != I2C_BUS_OK) goto done;        
 80080e2:	4628      	mov	r0, r5
 80080e4:	f7ff fb42 	bl	800776c <i2cSafeClockGoHigh>
 80080e8:	4604      	mov	r4, r0
 80080ea:	b9d8      	cbnz	r0, 8008124 <i2cSafeRawUnclogBus+0x160>
        if((retVal = i2cSafeClockGoLow(i2c)) != I2C_BUS_OK) goto done;
 80080ec:	4628      	mov	r0, r5
 80080ee:	f7ff fb59 	bl	80077a4 <i2cSafeClockGoLow>
 80080f2:	4604      	mov	r4, r0
 80080f4:	b9b0      	cbnz	r0, 8008124 <i2cSafeRawUnclogBus+0x160>
    return gpioGetPin(config->sdaPin);
 80080f6:	6feb      	ldr	r3, [r5, #124]	; 0x7c
 80080f8:	89d8      	ldrh	r0, [r3, #14]
 80080fa:	f7fc f97b 	bl	80043f4 <gpioGetPin>
        if(checkData && !i2cSafeRawGetData(i2c)){
 80080fe:	b1c0      	cbz	r0, 8008132 <i2cSafeRawUnclogBus+0x16e>
    for(i=0; i<clocks; i++) {
 8008100:	3e01      	subs	r6, #1
 8008102:	f016 06ff 	ands.w	r6, r6, #255	; 0xff
 8008106:	d1ec      	bne.n	80080e2 <i2cSafeRawUnclogBus+0x11e>
    if((retVal = i2cSafeDataGoLow(i2c)) != I2C_BUS_OK) goto done;        
 8008108:	4628      	mov	r0, r5
 800810a:	f7ff fb73 	bl	80077f4 <i2cSafeDataGoLow>
 800810e:	4604      	mov	r4, r0
 8008110:	b940      	cbnz	r0, 8008124 <i2cSafeRawUnclogBus+0x160>
    if((retVal = i2cSafeClockGoHigh(i2c)) != I2C_BUS_OK) goto done;        
 8008112:	4628      	mov	r0, r5
 8008114:	f7ff fb2a 	bl	800776c <i2cSafeClockGoHigh>
 8008118:	4604      	mov	r4, r0
 800811a:	b918      	cbnz	r0, 8008124 <i2cSafeRawUnclogBus+0x160>
    if((retVal = i2cSafeDataGoHigh(i2c)) != I2C_BUS_OK) goto done;        
 800811c:	4628      	mov	r0, r5
 800811e:	f7ff fb55 	bl	80077cc <i2cSafeDataGoHigh>
 8008122:	4604      	mov	r4, r0
    i2cSafeRawHardwareControl(i2c);
 8008124:	4628      	mov	r0, r5
 8008126:	f7ff f903 	bl	8007330 <i2cSafeRawHardwareControl>
}
 800812a:	4620      	mov	r0, r4
 800812c:	bd70      	pop	{r4, r5, r6, pc}
        retVal = I2C_BUS_STUCK_SDA_PULLED_LOW;
 800812e:	2402      	movs	r4, #2
 8008130:	e7f8      	b.n	8008124 <i2cSafeRawUnclogBus+0x160>
            return I2C_BUS_STUCK_SHORTED_TOGETHER;
 8008132:	2405      	movs	r4, #5
 8008134:	e7f6      	b.n	8008124 <i2cSafeRawUnclogBus+0x160>
 8008136:	bf00      	nop
 8008138:	20000934 	.word	0x20000934
 800813c:	e000e100 	.word	0xe000e100
 8008140:	40021000 	.word	0x40021000

08008144 <max2870SpiState.constprop.0>:
static void max2870SetMUXOut(MAX2870Driver* driver, uint8_t muxOut);

static void max2870SpiState(MAX2870Driver* driver, bool enable)
{
    if(enable) {
        spiAcquireBus(driver->config->spiPort);
 8008144:	6803      	ldr	r3, [r0, #0]
static void max2870SpiState(MAX2870Driver* driver, bool enable)
 8008146:	b510      	push	{r4, lr}
        spiAcquireBus(driver->config->spiPort);
 8008148:	681b      	ldr	r3, [r3, #0]
static void max2870SpiState(MAX2870Driver* driver, bool enable)
 800814a:	4604      	mov	r4, r0
 *
 * @api
 */
void spiAcquireBus(SPIDriver *spip) {

  osalDbgCheck(spip != NULL);
 800814c:	b913      	cbnz	r3, 8008154 <max2870SpiState.constprop.0+0x10>
 800814e:	f7fc fb01 	bl	8004754 <vTaskEndScheduler>
 8008152:	e7fe      	b.n	8008152 <max2870SpiState.constprop.0+0xe>
    xSemaphoreTake(mutex->handle, portMAX_DELAY);
 8008154:	68d8      	ldr	r0, [r3, #12]
 8008156:	f04f 31ff 	mov.w	r1, #4294967295	; 0xffffffff
 800815a:	f7fd fd4b 	bl	8005bf4 <xQueueSemaphoreTake>
        spiStart(driver->config->spiPort, driver->config->spiConfig);
 800815e:	6823      	ldr	r3, [r4, #0]
 8008160:	681c      	ldr	r4, [r3, #0]
  osalDbgCheck((spip != NULL) && (config != NULL));
 8008162:	b10c      	cbz	r4, 8008168 <max2870SpiState.constprop.0+0x24>
 8008164:	6858      	ldr	r0, [r3, #4]
 8008166:	b910      	cbnz	r0, 800816e <max2870SpiState.constprop.0+0x2a>
 8008168:	f7fc faf4 	bl	8004754 <vTaskEndScheduler>
 800816c:	e7fe      	b.n	800816c <max2870SpiState.constprop.0+0x28>
  osalSysLock();
 800816e:	f7fc fae1 	bl	8004734 <vPortEnterCritical>
  osalDbgAssert((spip->state == SPI_STOP) || (spip->state == SPI_READY),
 8008172:	7823      	ldrb	r3, [r4, #0]
 8008174:	1e5a      	subs	r2, r3, #1
 8008176:	2a01      	cmp	r2, #1
 8008178:	d902      	bls.n	8008180 <max2870SpiState.constprop.0+0x3c>
 800817a:	f7fc faeb 	bl	8004754 <vTaskEndScheduler>
 800817e:	e7fe      	b.n	800817e <max2870SpiState.constprop.0+0x3a>
  if (spip->state == SPI_STOP) {
 8008180:	2b01      	cmp	r3, #1
  spip->config = config;
 8008182:	6060      	str	r0, [r4, #4]
 8008184:	d121      	bne.n	80081ca <max2870SpiState.constprop.0+0x86>
    if (&SPID1 == spip) {
 8008186:	4b25      	ldr	r3, [pc, #148]	; (800821c <max2870SpiState.constprop.0+0xd8>)
 8008188:	429c      	cmp	r4, r3
 800818a:	d116      	bne.n	80081ba <max2870SpiState.constprop.0+0x76>
      b = dmaStreamAllocate(spip->dmarx,
 800818c:	4622      	mov	r2, r4
 800818e:	4924      	ldr	r1, [pc, #144]	; (8008220 <max2870SpiState.constprop.0+0xdc>)
 8008190:	6e60      	ldr	r0, [r4, #100]	; 0x64
 8008192:	f7fe f95d 	bl	8006450 <dmaStreamAllocate.constprop.0>
      osalDbgAssert(!b, "stream already allocated");
 8008196:	b110      	cbz	r0, 800819e <max2870SpiState.constprop.0+0x5a>
 8008198:	f7fc fadc 	bl	8004754 <vTaskEndScheduler>
 800819c:	e7fe      	b.n	800819c <max2870SpiState.constprop.0+0x58>
      b = dmaStreamAllocate(spip->dmatx,
 800819e:	4622      	mov	r2, r4
 80081a0:	4920      	ldr	r1, [pc, #128]	; (8008224 <max2870SpiState.constprop.0+0xe0>)
 80081a2:	6ea0      	ldr	r0, [r4, #104]	; 0x68
 80081a4:	f7fe f954 	bl	8006450 <dmaStreamAllocate.constprop.0>
      osalDbgAssert(!b, "stream already allocated");
 80081a8:	b110      	cbz	r0, 80081b0 <max2870SpiState.constprop.0+0x6c>
 80081aa:	f7fc fad3 	bl	8004754 <vTaskEndScheduler>
 80081ae:	e7fe      	b.n	80081ae <max2870SpiState.constprop.0+0x6a>
      rccEnableSPI1(FALSE);
 80081b0:	4a1d      	ldr	r2, [pc, #116]	; (8008228 <max2870SpiState.constprop.0+0xe4>)
 80081b2:	6993      	ldr	r3, [r2, #24]
 80081b4:	f443 5380 	orr.w	r3, r3, #4096	; 0x1000
 80081b8:	6193      	str	r3, [r2, #24]
    dmaStreamSetPeripheral(spip->dmarx, &spip->spi->DR);
 80081ba:	6e63      	ldr	r3, [r4, #100]	; 0x64
 80081bc:	685a      	ldr	r2, [r3, #4]
 80081be:	6e23      	ldr	r3, [r4, #96]	; 0x60
 80081c0:	330c      	adds	r3, #12
 80081c2:	6093      	str	r3, [r2, #8]
    dmaStreamSetPeripheral(spip->dmatx, &spip->spi->DR);
 80081c4:	6ea2      	ldr	r2, [r4, #104]	; 0x68
 80081c6:	6852      	ldr	r2, [r2, #4]
 80081c8:	6093      	str	r3, [r2, #8]
  if ((spip->config->cr1 & SPI_CR1_DFF) == 0) {
 80081ca:	6860      	ldr	r0, [r4, #4]
                      STM32_DMA_CR_PSIZE_BYTE | STM32_DMA_CR_MSIZE_BYTE;
 80081cc:	6ee2      	ldr	r2, [r4, #108]	; 0x6c
  if ((spip->config->cr1 & SPI_CR1_DFF) == 0) {
 80081ce:	8941      	ldrh	r1, [r0, #10]
                      STM32_DMA_CR_PSIZE_BYTE | STM32_DMA_CR_MSIZE_BYTE;
 80081d0:	f422 6270 	bic.w	r2, r2, #3840	; 0xf00
  if ((spip->config->cr1 & SPI_CR1_DFF) == 0) {
 80081d4:	f411 6f00 	tst.w	r1, #2048	; 0x800
                      STM32_DMA_CR_PSIZE_HWORD | STM32_DMA_CR_MSIZE_HWORD;
 80081d8:	bf16      	itet	ne
 80081da:	f442 62a0 	orrne.w	r2, r2, #1280	; 0x500
    spip->rxdmamode = (spip->rxdmamode & ~STM32_DMA_CR_SIZE_MASK) |
 80081de:	66e2      	streq	r2, [r4, #108]	; 0x6c
    spip->rxdmamode = (spip->rxdmamode & ~STM32_DMA_CR_SIZE_MASK) |
 80081e0:	66e2      	strne	r2, [r4, #108]	; 0x6c
  spip->spi->CR1  = 0;
 80081e2:	f04f 0200 	mov.w	r2, #0
                      STM32_DMA_CR_PSIZE_BYTE | STM32_DMA_CR_MSIZE_BYTE;
 80081e6:	6f23      	ldr	r3, [r4, #112]	; 0x70
  spip->spi->CR1  = spip->config->cr1 | SPI_CR1_MSTR | SPI_CR1_SSM |
 80081e8:	f441 7141 	orr.w	r1, r1, #772	; 0x304
                      STM32_DMA_CR_PSIZE_BYTE | STM32_DMA_CR_MSIZE_BYTE;
 80081ec:	f423 6370 	bic.w	r3, r3, #3840	; 0xf00
                      STM32_DMA_CR_PSIZE_HWORD | STM32_DMA_CR_MSIZE_HWORD;
 80081f0:	bf18      	it	ne
 80081f2:	f443 63a0 	orrne.w	r3, r3, #1280	; 0x500
    spip->txdmamode = (spip->txdmamode & ~STM32_DMA_CR_SIZE_MASK) |
 80081f6:	6723      	str	r3, [r4, #112]	; 0x70
  spip->spi->CR1  = 0;
 80081f8:	6e23      	ldr	r3, [r4, #96]	; 0x60
 80081fa:	601a      	str	r2, [r3, #0]
  spip->spi->CR2  = spip->config->cr2 | SPI_CR2_SSOE | SPI_CR2_RXDMAEN |
 80081fc:	8982      	ldrh	r2, [r0, #12]
  spip->spi->CR1  = spip->config->cr1 | SPI_CR1_MSTR | SPI_CR1_SSM |
 80081fe:	6019      	str	r1, [r3, #0]
  spip->spi->CR2  = spip->config->cr2 | SPI_CR2_SSOE | SPI_CR2_RXDMAEN |
 8008200:	f042 0207 	orr.w	r2, r2, #7
 8008204:	605a      	str	r2, [r3, #4]
  spip->spi->CR1 |= SPI_CR1_SPE;
 8008206:	681a      	ldr	r2, [r3, #0]
 8008208:	f042 0240 	orr.w	r2, r2, #64	; 0x40
 800820c:	601a      	str	r2, [r3, #0]
  spip->state = SPI_READY;
 800820e:	2302      	movs	r3, #2
 8008210:	7023      	strb	r3, [r4, #0]
        /* Update monitor state */
        monitorKick(&driver->pllMon, driver->enabled);

        spiReleaseBus(driver->config->spiPort);
    }
}
 8008212:	e8bd 4010 	ldmia.w	sp!, {r4, lr}
  osalSysUnlock();
 8008216:	f7fc bcb1 	b.w	8004b7c <osalSysUnlock.lto_priv.0>
 800821a:	bf00      	nop
 800821c:	20000ee0 	.word	0x20000ee0
 8008220:	080072a1 	.word	0x080072a1
 8008224:	08004a47 	.word	0x08004a47
 8008228:	40021000 	.word	0x40021000

0800822c <spiUnselect.constprop.0>:
void spiUnselect(SPIDriver *spip) {
 800822c:	b508      	push	{r3, lr}
  osalSysLock();
 800822e:	f7fc fa81 	bl	8004734 <vPortEnterCritical>
  osalDbgAssert(spip->state == SPI_READY, "not ready");
 8008232:	4b08      	ldr	r3, [pc, #32]	; (8008254 <spiUnselect.constprop.0+0x28>)
 8008234:	781a      	ldrb	r2, [r3, #0]
 8008236:	2a02      	cmp	r2, #2
 8008238:	d002      	beq.n	8008240 <spiUnselect.constprop.0+0x14>
 800823a:	f7fc fa8b 	bl	8004754 <vTaskEndScheduler>
 800823e:	e7fe      	b.n	800823e <spiUnselect.constprop.0+0x12>
  palSetPad(spip->config->ssport, spip->config->sspad);
 8008240:	685b      	ldr	r3, [r3, #4]
 8008242:	8919      	ldrh	r1, [r3, #8]
 8008244:	685a      	ldr	r2, [r3, #4]
 8008246:	2301      	movs	r3, #1
 8008248:	408b      	lsls	r3, r1
 800824a:	6113      	str	r3, [r2, #16]
}
 800824c:	e8bd 4008 	ldmia.w	sp!, {r3, lr}
  osalSysUnlock();
 8008250:	f7fc bc94 	b.w	8004b7c <osalSysUnlock.lto_priv.0>
 8008254:	20000ee0 	.word	0x20000ee0

08008258 <spiSelect.constprop.0>:
void spiSelect(SPIDriver *spip) {
 8008258:	b508      	push	{r3, lr}
  osalSysLock();
 800825a:	f7fc fa6b 	bl	8004734 <vPortEnterCritical>
  osalDbgAssert(spip->state == SPI_READY, "not ready");
 800825e:	4b08      	ldr	r3, [pc, #32]	; (8008280 <spiSelect.constprop.0+0x28>)
 8008260:	781a      	ldrb	r2, [r3, #0]
 8008262:	2a02      	cmp	r2, #2
 8008264:	d002      	beq.n	800826c <spiSelect.constprop.0+0x14>
 8008266:	f7fc fa75 	bl	8004754 <vTaskEndScheduler>
 800826a:	e7fe      	b.n	800826a <spiSelect.constprop.0+0x12>
  palClearPad(spip->config->ssport, spip->config->sspad);
 800826c:	685b      	ldr	r3, [r3, #4]
 800826e:	8919      	ldrh	r1, [r3, #8]
 8008270:	685a      	ldr	r2, [r3, #4]
 8008272:	2301      	movs	r3, #1
 8008274:	408b      	lsls	r3, r1
 8008276:	6153      	str	r3, [r2, #20]
}
 8008278:	e8bd 4008 	ldmia.w	sp!, {r3, lr}
  osalSysUnlock();
 800827c:	f7fc bc7e 	b.w	8004b7c <osalSysUnlock.lto_priv.0>
 8008280:	20000ee0 	.word	0x20000ee0

08008284 <spiSend.part.0.constprop.0>:
void spiSend(SPIDriver *spip, size_t n, const void *txbuf) {
 8008284:	b510      	push	{r4, lr}
  osalSysLock();
 8008286:	f7fc fa55 	bl	8004734 <vPortEnterCritical>
  osalDbgAssert(spip->state == SPI_READY, "not ready");
 800828a:	4b18      	ldr	r3, [pc, #96]	; (80082ec <spiSend.part.0.constprop.0+0x68>)
 800828c:	781a      	ldrb	r2, [r3, #0]
 800828e:	2a02      	cmp	r2, #2
 8008290:	d002      	beq.n	8008298 <spiSend.part.0.constprop.0+0x14>
 8008292:	f7fc fa5f 	bl	8004754 <vTaskEndScheduler>
 8008296:	e7fe      	b.n	8008296 <spiSend.part.0.constprop.0+0x12>
  osalDbgAssert(spip->config->end_cb == NULL, "has callback");
 8008298:	685a      	ldr	r2, [r3, #4]
 800829a:	6812      	ldr	r2, [r2, #0]
 800829c:	b112      	cbz	r2, 80082a4 <spiSend.part.0.constprop.0+0x20>
 800829e:	f7fc fa59 	bl	8004754 <vTaskEndScheduler>
 80082a2:	e7fe      	b.n	80082a2 <spiSend.part.0.constprop.0+0x1e>
  spiStartSendI(spip, n, txbuf);
 80082a4:	2203      	movs	r2, #3
  dmaStreamSetTransactionSize(spip->dmarx, n);
 80082a6:	2404      	movs	r4, #4
 80082a8:	701a      	strb	r2, [r3, #0]
  dmaStreamSetMemory0(spip->dmarx, &dummyrx);
 80082aa:	6e5a      	ldr	r2, [r3, #100]	; 0x64
 80082ac:	6851      	ldr	r1, [r2, #4]
 80082ae:	4a10      	ldr	r2, [pc, #64]	; (80082f0 <spiSend.part.0.constprop.0+0x6c>)
 80082b0:	60ca      	str	r2, [r1, #12]
  dmaStreamSetMode(spip->dmarx, spip->rxdmamode);
 80082b2:	6eda      	ldr	r2, [r3, #108]	; 0x6c
  dmaStreamSetTransactionSize(spip->dmarx, n);
 80082b4:	604c      	str	r4, [r1, #4]
  dmaStreamSetMode(spip->dmarx, spip->rxdmamode);
 80082b6:	600a      	str	r2, [r1, #0]
  dmaStreamSetMemory0(spip->dmatx, txbuf);
 80082b8:	6e9a      	ldr	r2, [r3, #104]	; 0x68
 80082ba:	6852      	ldr	r2, [r2, #4]
 80082bc:	60d0      	str	r0, [r2, #12]
  dmaStreamSetMode(spip->dmatx, spip->txdmamode | STM32_DMA_CR_MINC);
 80082be:	6f18      	ldr	r0, [r3, #112]	; 0x70
  dmaStreamSetTransactionSize(spip->dmatx, n);
 80082c0:	6054      	str	r4, [r2, #4]
  dmaStreamSetMode(spip->dmatx, spip->txdmamode | STM32_DMA_CR_MINC);
 80082c2:	f040 0080 	orr.w	r0, r0, #128	; 0x80
 80082c6:	6010      	str	r0, [r2, #0]
  dmaStreamEnable(spip->dmarx);
 80082c8:	6808      	ldr	r0, [r1, #0]
 80082ca:	f040 0001 	orr.w	r0, r0, #1
 80082ce:	6008      	str	r0, [r1, #0]
  dmaStreamEnable(spip->dmatx);
 80082d0:	6811      	ldr	r1, [r2, #0]
 80082d2:	f103 0008 	add.w	r0, r3, #8
 80082d6:	f041 0101 	orr.w	r1, r1, #1
 80082da:	6011      	str	r1, [r2, #0]
 80082dc:	f04f 31ff 	mov.w	r1, #4294967295	; 0xffffffff
 80082e0:	f7fe f976 	bl	80065d0 <osalThreadSuspendTimeoutS>
}
 80082e4:	e8bd 4010 	ldmia.w	sp!, {r4, lr}
  osalSysUnlock();
 80082e8:	f7fc bc48 	b.w	8004b7c <osalSysUnlock.lto_priv.0>
 80082ec:	20000ee0 	.word	0x20000ee0
 80082f0:	20001048 	.word	0x20001048

080082f4 <max2870WriteRegister>:

static bool max2870WriteRegister(MAX2870Driver* driver, const uint32_t addr, uint32_t value, bool force)
{
 80082f4:	b537      	push	{r0, r1, r2, r4, r5, lr}
 80082f6:	4604      	mov	r4, r0
 80082f8:	4618      	mov	r0, r3
    osalDbgCheck(addr < 0x6);
    osalDbgCheck((value & 0x7) == 0);
 80082fa:	0753      	lsls	r3, r2, #29
 80082fc:	d002      	beq.n	8008304 <max2870WriteRegister+0x10>
 80082fe:	f7fc fa29 	bl	8004754 <vTaskEndScheduler>
 8008302:	e7fe      	b.n	8008302 <max2870WriteRegister+0xe>

    if(!force && driver->registers[addr] == value) {
 8008304:	f101 0332 	add.w	r3, r1, #50	; 0x32
 8008308:	b918      	cbnz	r0, 8008312 <max2870WriteRegister+0x1e>
 800830a:	f854 5023 	ldr.w	r5, [r4, r3, lsl #2]
 800830e:	42aa      	cmp	r2, r5
 8008310:	d018      	beq.n	8008344 <max2870WriteRegister+0x50>
        return false;
    }
    driver->registers[addr] = value;
 8008312:	f844 2023 	str.w	r2, [r4, r3, lsl #2]

    value |= addr;
 8008316:	430a      	orrs	r2, r1

    uint8_t data[4] = {value>>24, (value >> 16) & 0xFF, (value >> 8) & 0xFF,  (value >> 0) & 0xFF};
 8008318:	0e13      	lsrs	r3, r2, #24
 800831a:	f88d 3004 	strb.w	r3, [sp, #4]
 800831e:	0c13      	lsrs	r3, r2, #16
 8008320:	f88d 3005 	strb.w	r3, [sp, #5]
 8008324:	a801      	add	r0, sp, #4
 8008326:	0a13      	lsrs	r3, r2, #8
 8008328:	f88d 3006 	strb.w	r3, [sp, #6]
 800832c:	f88d 2007 	strb.w	r2, [sp, #7]


    spiSelect(&SPID1);
 8008330:	f7ff ff92 	bl	8008258 <spiSelect.constprop.0>
void spiSend(SPIDriver *spip, size_t n, const void *txbuf) {
 8008334:	f7ff ffa6 	bl	8008284 <spiSend.part.0.constprop.0>
    }
}

static inline void osalSysPolledDelayX(rtcnt_t cycles)
{
    vPortBusyDelay(cycles);
 8008338:	2032      	movs	r0, #50	; 0x32
    spiSend(&SPID1, 4, data);
    spiUnselect(&SPID1);
 800833a:	f7ff ff77 	bl	800822c <spiUnselect.constprop.0>
 800833e:	f7fd f805 	bl	800534c <vPortBusyDelay>
    osalSysPolledDelayX(50);


    return true;
 8008342:	2001      	movs	r0, #1
}
 8008344:	b003      	add	sp, #12
 8008346:	bd30      	pop	{r4, r5, pc}

08008348 <max2870SetMUXOut>:

    return true;
}

static void max2870SetMUXOut(MAX2870Driver* driver, uint8_t muxOut)
{
 8008348:	b570      	push	{r4, r5, r6, lr}
    uint32_t register2 = driver->registers[2] & ~ (0x7 <<  MAX2870_REG2_MUX_OFFSET);
 800834a:	f8d0 50d0 	ldr.w	r5, [r0, #208]	; 0xd0
    register2 |= (muxOut & 0x7) << MAX2870_REG2_MUX_OFFSET;
    uint32_t register5 = driver->registers[5] & ~ _BV(MAX2870_REG5_MUX_OFFSET);
 800834e:	f8d0 20dc 	ldr.w	r2, [r0, #220]	; 0xdc
    uint32_t register2 = driver->registers[2] & ~ (0x7 <<  MAX2870_REG2_MUX_OFFSET);
 8008352:	f025 53e0 	bic.w	r3, r5, #469762048	; 0x1c000000
    register2 |= (muxOut & 0x7) << MAX2870_REG2_MUX_OFFSET;
 8008356:	068d      	lsls	r5, r1, #26
 8008358:	f005 55e0 	and.w	r5, r5, #469762048	; 0x1c000000
 800835c:	431d      	orrs	r5, r3
    uint32_t register5 = driver->registers[5] & ~ _BV(MAX2870_REG5_MUX_OFFSET);
 800835e:	f422 2280 	bic.w	r2, r2, #262144	; 0x40000
    if(muxOut & 0x8) {
 8008362:	070b      	lsls	r3, r1, #28
        register5 |= _BV(MAX2870_REG5_MUX_OFFSET);
 8008364:	bf48      	it	mi
 8008366:	f442 2280 	orrmi.w	r2, r2, #262144	; 0x40000
    }

    /* It seems reg 5 should be written before reg 2 to update the MUX value */
    bool mustUpdateOther = max2870WriteRegister(driver, 5, register5, false);
 800836a:	2300      	movs	r3, #0
 800836c:	2105      	movs	r1, #5
{
 800836e:	4604      	mov	r4, r0
    bool mustUpdateOther = max2870WriteRegister(driver, 5, register5, false);
 8008370:	f7ff ffc0 	bl	80082f4 <max2870WriteRegister>
    max2870WriteRegister(driver, 2, register2, mustUpdateOther);
 8008374:	462a      	mov	r2, r5
    bool mustUpdateOther = max2870WriteRegister(driver, 5, register5, false);
 8008376:	4603      	mov	r3, r0
    max2870WriteRegister(driver, 2, register2, mustUpdateOther);
 8008378:	2102      	movs	r1, #2
 800837a:	4620      	mov	r0, r4
}
 800837c:	e8bd 4070 	ldmia.w	sp!, {r4, r5, r6, lr}
    max2870WriteRegister(driver, 2, register2, mustUpdateOther);
 8008380:	f7ff bfb8 	b.w	80082f4 <max2870WriteRegister>

08008384 <max2870ReadRegister6>:

static uint32_t max2870ReadRegister6(MAX2870Driver* driver)
{
 8008384:	b513      	push	{r0, r1, r4, lr}
    /* Step 1: Set MUX OUT to readback mode */
    max2870SetMUXOut(driver, 0xC);
 8008386:	210c      	movs	r1, #12
{
 8008388:	4604      	mov	r4, r0
    max2870SetMUXOut(driver, 0xC);
 800838a:	f7ff ffdd 	bl	8008348 <max2870SetMUXOut>

    /* Step 2: Ask to read the register */
    uint8_t data[5]= {0, 0, 0, 0x6};
 800838e:	4b25      	ldr	r3, [pc, #148]	; (8008424 <max2870ReadRegister6+0xa0>)
 8008390:	6818      	ldr	r0, [r3, #0]
 8008392:	791b      	ldrb	r3, [r3, #4]
 8008394:	9000      	str	r0, [sp, #0]
 8008396:	4668      	mov	r0, sp
 8008398:	f88d 3004 	strb.w	r3, [sp, #4]
    spiSelect(&SPID1);
 800839c:	f7ff ff5c 	bl	8008258 <spiSelect.constprop.0>
 80083a0:	f7ff ff70 	bl	8008284 <spiSend.part.0.constprop.0>
    spiSend(&SPID1, 4, data);
    spiUnselect(&SPID1);
 80083a4:	f7ff ff42 	bl	800822c <spiUnselect.constprop.0>

    /* Step 3: Read in the data, note that the device should be unselected(!) */
    data[3] = 0;
 80083a8:	2300      	movs	r3, #0
 80083aa:	f88d 3003 	strb.w	r3, [sp, #3]
  osalSysLock();
 80083ae:	f7fc f9c1 	bl	8004734 <vPortEnterCritical>
  osalDbgAssert(spip->state == SPI_READY, "not ready");
 80083b2:	4b1d      	ldr	r3, [pc, #116]	; (8008428 <max2870ReadRegister6+0xa4>)
 80083b4:	781a      	ldrb	r2, [r3, #0]
 80083b6:	2a02      	cmp	r2, #2
 80083b8:	d002      	beq.n	80083c0 <max2870ReadRegister6+0x3c>
 80083ba:	f7fc f9cb 	bl	8004754 <vTaskEndScheduler>
 80083be:	e7fe      	b.n	80083be <max2870ReadRegister6+0x3a>
  osalDbgAssert(spip->config->end_cb == NULL, "has callback");
 80083c0:	685a      	ldr	r2, [r3, #4]
 80083c2:	6812      	ldr	r2, [r2, #0]
 80083c4:	b112      	cbz	r2, 80083cc <max2870ReadRegister6+0x48>
 80083c6:	f7fc f9c5 	bl	8004754 <vTaskEndScheduler>
 80083ca:	e7fe      	b.n	80083ca <max2870ReadRegister6+0x46>
  spiStartExchangeI(spip, n, txbuf, rxbuf);
 80083cc:	2203      	movs	r2, #3
  dmaStreamSetTransactionSize(spip->dmarx, n);
 80083ce:	2004      	movs	r0, #4
 80083d0:	701a      	strb	r2, [r3, #0]
  dmaStreamSetMemory0(spip->dmarx, rxbuf);
 80083d2:	6e5a      	ldr	r2, [r3, #100]	; 0x64
 80083d4:	6851      	ldr	r1, [r2, #4]
  dmaStreamSetMode(spip->dmarx, spip->rxdmamode| STM32_DMA_CR_MINC);
 80083d6:	6eda      	ldr	r2, [r3, #108]	; 0x6c
  dmaStreamSetMemory0(spip->dmarx, rxbuf);
 80083d8:	f8c1 d00c 	str.w	sp, [r1, #12]
  dmaStreamSetMode(spip->dmarx, spip->rxdmamode| STM32_DMA_CR_MINC);
 80083dc:	f042 0280 	orr.w	r2, r2, #128	; 0x80
  dmaStreamSetTransactionSize(spip->dmarx, n);
 80083e0:	6048      	str	r0, [r1, #4]
  dmaStreamSetMode(spip->dmarx, spip->rxdmamode| STM32_DMA_CR_MINC);
 80083e2:	600a      	str	r2, [r1, #0]
  dmaStreamSetMemory0(spip->dmatx, txbuf);
 80083e4:	6e9a      	ldr	r2, [r3, #104]	; 0x68
 80083e6:	6852      	ldr	r2, [r2, #4]
 80083e8:	f8c2 d00c 	str.w	sp, [r2, #12]
  dmaStreamSetTransactionSize(spip->dmatx, n);
 80083ec:	6050      	str	r0, [r2, #4]
  dmaStreamSetMode(spip->dmatx, spip->txdmamode | STM32_DMA_CR_MINC);
 80083ee:	6f18      	ldr	r0, [r3, #112]	; 0x70
 80083f0:	f040 0080 	orr.w	r0, r0, #128	; 0x80
 80083f4:	6010      	str	r0, [r2, #0]
  dmaStreamEnable(spip->dmarx);
 80083f6:	6808      	ldr	r0, [r1, #0]
 80083f8:	f040 0001 	orr.w	r0, r0, #1
 80083fc:	6008      	str	r0, [r1, #0]
  dmaStreamEnable(spip->dmatx);
 80083fe:	6811      	ldr	r1, [r2, #0]
 8008400:	f103 0008 	add.w	r0, r3, #8
 8008404:	f041 0101 	orr.w	r1, r1, #1
 8008408:	6011      	str	r1, [r2, #0]
 800840a:	f04f 31ff 	mov.w	r1, #4294967295	; 0xffffffff
 800840e:	f7fe f8df 	bl	80065d0 <osalThreadSuspendTimeoutS>
  osalSysUnlock();
 8008412:	f7fc fbb3 	bl	8004b7c <osalSysUnlock.lto_priv.0>
    spiExchange(&SPID1, 4, data, data);

    driver->registers[6] = (data[0] << 24) | (data[1] << 16) | (data[2] << 8) | data[3];
 8008416:	9800      	ldr	r0, [sp, #0]
 8008418:	ba00      	rev	r0, r0
 800841a:	f8c4 00e0 	str.w	r0, [r4, #224]	; 0xe0
    return driver->registers[6];
}
 800841e:	b002      	add	sp, #8
 8008420:	bd10      	pop	{r4, pc}
 8008422:	bf00      	nop
 8008424:	0800ba60 	.word	0x0800ba60
 8008428:	20000ee0 	.word	0x20000ee0

0800842c <max2870Disable>:

static void max2870Disable(MAX2870Driver* driver)
{
    if(driver->config->gpioChipEnable != 0xffff) {
 800842c:	f64f 72ff 	movw	r2, #65535	; 0xffff
 8008430:	6803      	ldr	r3, [r0, #0]
{
 8008432:	b510      	push	{r4, lr}
    if(driver->config->gpioChipEnable != 0xffff) {
 8008434:	891b      	ldrh	r3, [r3, #8]
{
 8008436:	4604      	mov	r4, r0
    if(driver->config->gpioChipEnable != 0xffff) {
 8008438:	4293      	cmp	r3, r2
 800843a:	d00b      	beq.n	8008454 <max2870Disable+0x28>
        gpioSetPin(driver->config->gpioChipEnable, false);
 800843c:	2100      	movs	r1, #0
 800843e:	4618      	mov	r0, r3
 8008440:	f7ff f87e 	bl	8007540 <gpioSetPin.isra.0>
    } else {
        max2870WriteRegister(driver, 2, _BV(MAX2870_REG2_SHDN_OFFSET), true);
    }

    if(driver->config->lockStatus) {
 8008444:	6823      	ldr	r3, [r4, #0]
 8008446:	69db      	ldr	r3, [r3, #28]
 8008448:	b10b      	cbz	r3, 800844e <max2870Disable+0x22>
        driver->config->lockStatus(false);
 800844a:	2000      	movs	r0, #0
 800844c:	4798      	blx	r3
    }
    driver->enabled = false;
 800844e:	2300      	movs	r3, #0
 8008450:	7123      	strb	r3, [r4, #4]
}
 8008452:	bd10      	pop	{r4, pc}
        max2870WriteRegister(driver, 2, _BV(MAX2870_REG2_SHDN_OFFSET), true);
 8008454:	2301      	movs	r3, #1
 8008456:	2220      	movs	r2, #32
 8008458:	2102      	movs	r1, #2
 800845a:	f7ff ff4b 	bl	80082f4 <max2870WriteRegister>
 800845e:	e7f1      	b.n	8008444 <max2870Disable+0x18>

08008460 <max2870WriteAllRegisters.isra.0>:
static bool max2870WriteAllRegisters(MAX2870Driver* driver, uint32_t* registers, bool force)
 8008460:	e92d 41f0 	stmdb	sp!, {r4, r5, r6, r7, r8, lr}
 8008464:	4606      	mov	r6, r0
 8008466:	460f      	mov	r7, r1
 8008468:	4690      	mov	r8, r2
    bool anyChanged = false;
 800846a:	2500      	movs	r5, #0
    for(int i = 5; i>=0; i--) {
 800846c:	2405      	movs	r4, #5
        anyChanged |= max2870WriteRegister(driver, i, registers[i], force || (i==0 && anyChanged));
 800846e:	f857 2024 	ldr.w	r2, [r7, r4, lsl #2]
 8008472:	f1b8 0f00 	cmp.w	r8, #0
 8008476:	d110      	bne.n	800849a <max2870WriteAllRegisters.isra.0+0x3a>
 8008478:	2c00      	cmp	r4, #0
 800847a:	bf0c      	ite	eq
 800847c:	462b      	moveq	r3, r5
 800847e:	2300      	movne	r3, #0
 8008480:	4621      	mov	r1, r4
 8008482:	4630      	mov	r0, r6
 8008484:	f003 0301 	and.w	r3, r3, #1
 8008488:	f7ff ff34 	bl	80082f4 <max2870WriteRegister>
    for(int i = 5; i>=0; i--) {
 800848c:	3c01      	subs	r4, #1
        anyChanged |= max2870WriteRegister(driver, i, registers[i], force || (i==0 && anyChanged));
 800848e:	ea45 0500 	orr.w	r5, r5, r0
 8008492:	b2ed      	uxtb	r5, r5
    for(int i = 5; i>=0; i--) {
 8008494:	d2eb      	bcs.n	800846e <max2870WriteAllRegisters.isra.0+0xe>
}
 8008496:	e8bd 81f0 	ldmia.w	sp!, {r4, r5, r6, r7, r8, pc}
        anyChanged |= max2870WriteRegister(driver, i, registers[i], force || (i==0 && anyChanged));
 800849a:	2301      	movs	r3, #1
 800849c:	e7f0      	b.n	8008480 <max2870WriteAllRegisters.isra.0+0x20>
	...

080084a0 <xQueueGenericSend.constprop.0>:
 80084a0:	e92d 41ff 	stmdb	sp!, {r0, r1, r2, r3, r4, r5, r6, r7, r8, lr}
 80084a4:	2300      	movs	r3, #0
 80084a6:	4604      	mov	r4, r0
 80084a8:	9301      	str	r3, [sp, #4]
 80084aa:	b900      	cbnz	r0, 80084ae <xQueueGenericSend.constprop.0+0xe>
 80084ac:	e7fe      	b.n	80084ac <xQueueGenericSend.constprop.0+0xc>
 80084ae:	6c05      	ldr	r5, [r0, #64]	; 0x40
 80084b0:	b105      	cbz	r5, 80084b4 <xQueueGenericSend.constprop.0+0x14>
 80084b2:	e7fe      	b.n	80084b2 <xQueueGenericSend.constprop.0+0x12>
 80084b4:	4e7e      	ldr	r6, [pc, #504]	; (80086b0 <xQueueGenericSend.constprop.0+0x210>)
 80084b6:	4f7f      	ldr	r7, [pc, #508]	; (80086b4 <xQueueGenericSend.constprop.0+0x214>)
 80084b8:	f8df 81fc 	ldr.w	r8, [pc, #508]	; 80086b8 <xQueueGenericSend.constprop.0+0x218>
 80084bc:	e0bb      	b.n	8008636 <xQueueGenericSend.constprop.0+0x196>
 80084be:	6865      	ldr	r5, [r4, #4]
 80084c0:	bb5d      	cbnz	r5, 800851a <xQueueGenericSend.constprop.0+0x7a>
 80084c2:	2500      	movs	r5, #0
 80084c4:	2200      	movs	r2, #0
 80084c6:	6062      	str	r2, [r4, #4]
 80084c8:	3601      	adds	r6, #1
 80084ca:	63a6      	str	r6, [r4, #56]	; 0x38
 80084cc:	6a62      	ldr	r2, [r4, #36]	; 0x24
 80084ce:	2a00      	cmp	r2, #0
 80084d0:	d068      	beq.n	80085a4 <xQueueGenericSend.constprop.0+0x104>
 80084d2:	f104 0024 	add.w	r0, r4, #36	; 0x24
 80084d6:	f7fd facb 	bl	8005a70 <xTaskRemoveFromEventList>
 80084da:	2800      	cmp	r0, #0
 80084dc:	d064      	beq.n	80085a8 <xQueueGenericSend.constprop.0+0x108>
 80084de:	f04f 23e0 	mov.w	r3, #3758153728	; 0xe000e000
 80084e2:	4a76      	ldr	r2, [pc, #472]	; (80086bc <xQueueGenericSend.constprop.0+0x21c>)
 80084e4:	f8d3 1d20 	ldr.w	r1, [r3, #3360]	; 0xd20
 80084e8:	6011      	str	r1, [r2, #0]
 80084ea:	4a75      	ldr	r2, [pc, #468]	; (80086c0 <xQueueGenericSend.constprop.0+0x220>)
 80084ec:	6812      	ldr	r2, [r2, #0]
 80084ee:	b14a      	cbz	r2, 8008504 <xQueueGenericSend.constprop.0+0x64>
 80084f0:	f8d3 2d20 	ldr.w	r2, [r3, #3360]	; 0xd20
 80084f4:	f422 027f 	bic.w	r2, r2, #16711680	; 0xff0000
 80084f8:	f8c3 2d20 	str.w	r2, [r3, #3360]	; 0xd20
 80084fc:	f8d3 2d20 	ldr.w	r2, [r3, #3360]	; 0xd20
 8008500:	f8c3 2d20 	str.w	r2, [r3, #3360]	; 0xd20
 8008504:	f04f 23e0 	mov.w	r3, #3758153728	; 0xe000e000
 8008508:	f04f 5280 	mov.w	r2, #268435456	; 0x10000000
 800850c:	f8c3 2d04 	str.w	r2, [r3, #3332]	; 0xd04
 8008510:	f3bf 8f4f 	dsb	sy
 8008514:	f3bf 8f6f 	isb	sy
 8008518:	e046      	b.n	80085a8 <xQueueGenericSend.constprop.0+0x108>
 800851a:	4b67      	ldr	r3, [pc, #412]	; (80086b8 <xQueueGenericSend.constprop.0+0x218>)
 800851c:	681b      	ldr	r3, [r3, #0]
 800851e:	429d      	cmp	r5, r3
 8008520:	d000      	beq.n	8008524 <xQueueGenericSend.constprop.0+0x84>
 8008522:	e7fe      	b.n	8008522 <xQueueGenericSend.constprop.0+0x82>
 8008524:	6d2b      	ldr	r3, [r5, #80]	; 0x50
 8008526:	b903      	cbnz	r3, 800852a <xQueueGenericSend.constprop.0+0x8a>
 8008528:	e7fe      	b.n	8008528 <xQueueGenericSend.constprop.0+0x88>
 800852a:	6ae9      	ldr	r1, [r5, #44]	; 0x2c
 800852c:	6cea      	ldr	r2, [r5, #76]	; 0x4c
 800852e:	3b01      	subs	r3, #1
 8008530:	4291      	cmp	r1, r2
 8008532:	652b      	str	r3, [r5, #80]	; 0x50
 8008534:	d0c5      	beq.n	80084c2 <xQueueGenericSend.constprop.0+0x22>
 8008536:	2b00      	cmp	r3, #0
 8008538:	d1c3      	bne.n	80084c2 <xQueueGenericSend.constprop.0+0x22>
 800853a:	f105 0804 	add.w	r8, r5, #4
 800853e:	4640      	mov	r0, r8
 8008540:	f7fc ffe3 	bl	800550a <uxListRemove>
 8008544:	f8df c17c 	ldr.w	ip, [pc, #380]	; 80086c4 <xQueueGenericSend.constprop.0+0x224>
 8008548:	4a5f      	ldr	r2, [pc, #380]	; (80086c8 <xQueueGenericSend.constprop.0+0x228>)
 800854a:	b958      	cbnz	r0, 8008564 <xQueueGenericSend.constprop.0+0xc4>
 800854c:	2014      	movs	r0, #20
 800854e:	6aef      	ldr	r7, [r5, #44]	; 0x2c
 8008550:	4378      	muls	r0, r7
 8008552:	f85c 3000 	ldr.w	r3, [ip, r0]
 8008556:	b92b      	cbnz	r3, 8008564 <xQueueGenericSend.constprop.0+0xc4>
 8008558:	2101      	movs	r1, #1
 800855a:	6813      	ldr	r3, [r2, #0]
 800855c:	40b9      	lsls	r1, r7
 800855e:	ea23 0301 	bic.w	r3, r3, r1
 8008562:	6013      	str	r3, [r2, #0]
 8008564:	6ceb      	ldr	r3, [r5, #76]	; 0x4c
 8008566:	2014      	movs	r0, #20
 8008568:	f1c3 0105 	rsb	r1, r3, #5
 800856c:	62eb      	str	r3, [r5, #44]	; 0x2c
 800856e:	61a9      	str	r1, [r5, #24]
 8008570:	2501      	movs	r5, #1
 8008572:	6811      	ldr	r1, [r2, #0]
 8008574:	fa05 f703 	lsl.w	r7, r5, r3
 8008578:	430f      	orrs	r7, r1
 800857a:	fb00 c003 	mla	r0, r0, r3, ip
 800857e:	4641      	mov	r1, r8
 8008580:	6017      	str	r7, [r2, #0]
 8008582:	f7fc feea 	bl	800535a <vListInsertEnd>
 8008586:	e79d      	b.n	80084c4 <xQueueGenericSend.constprop.0+0x24>
 8008588:	2100      	movs	r1, #0
 800858a:	68a0      	ldr	r0, [r4, #8]
 800858c:	f7fb faa6 	bl	8003adc <memcpy>
 8008590:	68a3      	ldr	r3, [r4, #8]
 8008592:	6c22      	ldr	r2, [r4, #64]	; 0x40
 8008594:	4413      	add	r3, r2
 8008596:	6862      	ldr	r2, [r4, #4]
 8008598:	60a3      	str	r3, [r4, #8]
 800859a:	4293      	cmp	r3, r2
 800859c:	bf24      	itt	cs
 800859e:	6823      	ldrcs	r3, [r4, #0]
 80085a0:	60a3      	strcs	r3, [r4, #8]
 80085a2:	e056      	b.n	8008652 <xQueueGenericSend.constprop.0+0x1b2>
 80085a4:	2d00      	cmp	r5, #0
 80085a6:	d19a      	bne.n	80084de <xQueueGenericSend.constprop.0+0x3e>
 80085a8:	f7fc fadc 	bl	8004b64 <vPortExitCritical>
 80085ac:	2001      	movs	r0, #1
 80085ae:	b004      	add	sp, #16
 80085b0:	e8bd 81f0 	ldmia.w	sp!, {r4, r5, r6, r7, r8, pc}
 80085b4:	9801      	ldr	r0, [sp, #4]
 80085b6:	b910      	cbnz	r0, 80085be <xQueueGenericSend.constprop.0+0x11e>
 80085b8:	f7fc fad4 	bl	8004b64 <vPortExitCritical>
 80085bc:	e7f7      	b.n	80085ae <xQueueGenericSend.constprop.0+0x10e>
 80085be:	b91d      	cbnz	r5, 80085c8 <xQueueGenericSend.constprop.0+0x128>
 80085c0:	6833      	ldr	r3, [r6, #0]
 80085c2:	9302      	str	r3, [sp, #8]
 80085c4:	683b      	ldr	r3, [r7, #0]
 80085c6:	9303      	str	r3, [sp, #12]
 80085c8:	f7fc facc 	bl	8004b64 <vPortExitCritical>
 80085cc:	f7fc f850 	bl	8004670 <vTaskSuspendAll>
 80085d0:	f7fc f8b0 	bl	8004734 <vPortEnterCritical>
 80085d4:	f894 3044 	ldrb.w	r3, [r4, #68]	; 0x44
 80085d8:	a901      	add	r1, sp, #4
 80085da:	2bff      	cmp	r3, #255	; 0xff
 80085dc:	bf04      	itt	eq
 80085de:	2300      	moveq	r3, #0
 80085e0:	f884 3044 	strbeq.w	r3, [r4, #68]	; 0x44
 80085e4:	f894 3045 	ldrb.w	r3, [r4, #69]	; 0x45
 80085e8:	a802      	add	r0, sp, #8
 80085ea:	2bff      	cmp	r3, #255	; 0xff
 80085ec:	bf04      	itt	eq
 80085ee:	2300      	moveq	r3, #0
 80085f0:	f884 3045 	strbeq.w	r3, [r4, #69]	; 0x45
 80085f4:	f7fc fab6 	bl	8004b64 <vPortExitCritical>
 80085f8:	f7fc faf8 	bl	8004bec <xTaskCheckForTimeOut>
 80085fc:	2800      	cmp	r0, #0
 80085fe:	d150      	bne.n	80086a2 <xQueueGenericSend.constprop.0+0x202>
 8008600:	f7fc f898 	bl	8004734 <vPortEnterCritical>
 8008604:	6ba2      	ldr	r2, [r4, #56]	; 0x38
 8008606:	6be3      	ldr	r3, [r4, #60]	; 0x3c
 8008608:	429a      	cmp	r2, r3
 800860a:	d124      	bne.n	8008656 <xQueueGenericSend.constprop.0+0x1b6>
 800860c:	f7fc faaa 	bl	8004b64 <vPortExitCritical>
 8008610:	f8d8 1000 	ldr.w	r1, [r8]
 8008614:	9d01      	ldr	r5, [sp, #4]
 8008616:	3118      	adds	r1, #24
 8008618:	f104 0010 	add.w	r0, r4, #16
 800861c:	f7fc ff5e 	bl	80054dc <vListInsert>
 8008620:	2101      	movs	r1, #1
 8008622:	4628      	mov	r0, r5
 8008624:	f7fd faa2 	bl	8005b6c <prvAddCurrentTaskToDelayedList>
 8008628:	4620      	mov	r0, r4
 800862a:	f7fd fa5d 	bl	8005ae8 <prvUnlockQueue>
 800862e:	f7fd f869 	bl	8005704 <xTaskResumeAll>
 8008632:	b1c0      	cbz	r0, 8008666 <xQueueGenericSend.constprop.0+0x1c6>
 8008634:	2501      	movs	r5, #1
 8008636:	f7fc f87d 	bl	8004734 <vPortEnterCritical>
 800863a:	6ba2      	ldr	r2, [r4, #56]	; 0x38
 800863c:	6be3      	ldr	r3, [r4, #60]	; 0x3c
 800863e:	429a      	cmp	r2, r3
 8008640:	d2b8      	bcs.n	80085b4 <xQueueGenericSend.constprop.0+0x114>
 8008642:	6c22      	ldr	r2, [r4, #64]	; 0x40
 8008644:	6ba6      	ldr	r6, [r4, #56]	; 0x38
 8008646:	2a00      	cmp	r2, #0
 8008648:	d19e      	bne.n	8008588 <xQueueGenericSend.constprop.0+0xe8>
 800864a:	6823      	ldr	r3, [r4, #0]
 800864c:	2b00      	cmp	r3, #0
 800864e:	f43f af36 	beq.w	80084be <xQueueGenericSend.constprop.0+0x1e>
 8008652:	2500      	movs	r5, #0
 8008654:	e738      	b.n	80084c8 <xQueueGenericSend.constprop.0+0x28>
 8008656:	4620      	mov	r0, r4
 8008658:	f7fc fa84 	bl	8004b64 <vPortExitCritical>
 800865c:	f7fd fa44 	bl	8005ae8 <prvUnlockQueue>
 8008660:	f7fd f850 	bl	8005704 <xTaskResumeAll>
 8008664:	e7e6      	b.n	8008634 <xQueueGenericSend.constprop.0+0x194>
 8008666:	f04f 23e0 	mov.w	r3, #3758153728	; 0xe000e000
 800866a:	4a14      	ldr	r2, [pc, #80]	; (80086bc <xQueueGenericSend.constprop.0+0x21c>)
 800866c:	f8d3 1d20 	ldr.w	r1, [r3, #3360]	; 0xd20
 8008670:	6011      	str	r1, [r2, #0]
 8008672:	4a13      	ldr	r2, [pc, #76]	; (80086c0 <xQueueGenericSend.constprop.0+0x220>)
 8008674:	6812      	ldr	r2, [r2, #0]
 8008676:	b14a      	cbz	r2, 800868c <xQueueGenericSend.constprop.0+0x1ec>
 8008678:	f8d3 2d20 	ldr.w	r2, [r3, #3360]	; 0xd20
 800867c:	f422 027f 	bic.w	r2, r2, #16711680	; 0xff0000
 8008680:	f8c3 2d20 	str.w	r2, [r3, #3360]	; 0xd20
 8008684:	f8d3 2d20 	ldr.w	r2, [r3, #3360]	; 0xd20
 8008688:	f8c3 2d20 	str.w	r2, [r3, #3360]	; 0xd20
 800868c:	f04f 23e0 	mov.w	r3, #3758153728	; 0xe000e000
 8008690:	f04f 5280 	mov.w	r2, #268435456	; 0x10000000
 8008694:	f8c3 2d04 	str.w	r2, [r3, #3332]	; 0xd04
 8008698:	f3bf 8f4f 	dsb	sy
 800869c:	f3bf 8f6f 	isb	sy
 80086a0:	e7c8      	b.n	8008634 <xQueueGenericSend.constprop.0+0x194>
 80086a2:	4620      	mov	r0, r4
 80086a4:	f7fd fa20 	bl	8005ae8 <prvUnlockQueue>
 80086a8:	f7fd f82c 	bl	8005704 <xTaskResumeAll>
 80086ac:	2000      	movs	r0, #0
 80086ae:	e77e      	b.n	80085ae <xQueueGenericSend.constprop.0+0x10e>
 80086b0:	200015fc 	.word	0x200015fc
 80086b4:	20001648 	.word	0x20001648
 80086b8:	200011a8 	.word	0x200011a8
 80086bc:	2000134c 	.word	0x2000134c
 80086c0:	20001358 	.word	0x20001358
 80086c4:	200011b8 	.word	0x200011b8
 80086c8:	20001374 	.word	0x20001374

080086cc <i2cReleaseBus>:
 *
 * @param[in] i2cp      pointer to the @p I2CDriver object
 *
 * @api
 */
void i2cReleaseBus(I2CDriver *i2cp) {
 80086cc:	b508      	push	{r3, lr}

  osalDbgCheck(i2cp != NULL);
 80086ce:	b910      	cbnz	r0, 80086d6 <i2cReleaseBus+0xa>
 80086d0:	f7fc f840 	bl	8004754 <vTaskEndScheduler>
 80086d4:	e7fe      	b.n	80086d4 <i2cReleaseBus+0x8>
    xSemaphoreGive(mutex->handle);
 80086d6:	68c0      	ldr	r0, [r0, #12]

  osalMutexUnlock(&i2cp->mutex);
}
 80086d8:	e8bd 4008 	ldmia.w	sp!, {r3, lr}
 80086dc:	f7ff bee0 	b.w	80084a0 <xQueueGenericSend.constprop.0>

080086e0 <max2870SpiState.part.0>:
static void max2870SpiState(MAX2870Driver* driver, bool enable)
 80086e0:	b510      	push	{r4, lr}
 80086e2:	4604      	mov	r4, r0
        max2870SetMUXOut(driver, 0x0);
 80086e4:	2100      	movs	r1, #0
 80086e6:	f7ff fe2f 	bl	8008348 <max2870SetMUXOut>
        monitorKick(&driver->pllMon, driver->enabled);
 80086ea:	7921      	ldrb	r1, [r4, #4]
 80086ec:	f104 00e8 	add.w	r0, r4, #232	; 0xe8
 80086f0:	f7fc ff1c 	bl	800552c <monitorKick>
        spiReleaseBus(driver->config->spiPort);
 80086f4:	6823      	ldr	r3, [r4, #0]
 80086f6:	681b      	ldr	r3, [r3, #0]
 *
 * @api
 */
void spiReleaseBus(SPIDriver *spip) {

  osalDbgCheck(spip != NULL);
 80086f8:	b913      	cbnz	r3, 8008700 <max2870SpiState.part.0+0x20>
 80086fa:	f7fc f82b 	bl	8004754 <vTaskEndScheduler>
 80086fe:	e7fe      	b.n	80086fe <max2870SpiState.part.0+0x1e>
 8008700:	68d8      	ldr	r0, [r3, #12]
}
 8008702:	e8bd 4010 	ldmia.w	sp!, {r4, lr}
 8008706:	f7ff becb 	b.w	80084a0 <xQueueGenericSend.constprop.0>

0800870a <prvInitialiseMutex.part.0>:
 800870a:	2200      	movs	r2, #0
 800870c:	e9c0 2200 	strd	r2, r2, [r0]
 8008710:	60c2      	str	r2, [r0, #12]
 8008712:	f7ff bec5 	b.w	80084a0 <xQueueGenericSend.constprop.0>

08008716 <xQueueGenericReset.constprop.0.isra.0>:
 8008716:	b510      	push	{r4, lr}
 8008718:	b900      	cbnz	r0, 800871c <xQueueGenericReset.constprop.0.isra.0+0x6>
 800871a:	e7fe      	b.n	800871a <xQueueGenericReset.constprop.0.isra.0+0x4>
 800871c:	f7fc f80a 	bl	8004734 <vPortEnterCritical>
 8008720:	e9d0 340f 	ldrd	r3, r4, [r0, #60]	; 0x3c
 8008724:	4363      	muls	r3, r4
 8008726:	6802      	ldr	r2, [r0, #0]
 8008728:	18d1      	adds	r1, r2, r3
 800872a:	1b1b      	subs	r3, r3, r4
 800872c:	4413      	add	r3, r2
 800872e:	6041      	str	r1, [r0, #4]
 8008730:	60c3      	str	r3, [r0, #12]
 8008732:	2100      	movs	r1, #0
 8008734:	e8bd 4010 	ldmia.w	sp!, {r4, lr}
 8008738:	23ff      	movs	r3, #255	; 0xff
 800873a:	6082      	str	r2, [r0, #8]
 800873c:	f04f 32ff 	mov.w	r2, #4294967295	; 0xffffffff
 8008740:	6381      	str	r1, [r0, #56]	; 0x38
 8008742:	f880 3044 	strb.w	r3, [r0, #68]	; 0x44
 8008746:	f880 3045 	strb.w	r3, [r0, #69]	; 0x45
 800874a:	f100 0318 	add.w	r3, r0, #24
 800874e:	e9c0 2306 	strd	r2, r3, [r0, #24]
 8008752:	6143      	str	r3, [r0, #20]
 8008754:	6203      	str	r3, [r0, #32]
 8008756:	f100 032c 	add.w	r3, r0, #44	; 0x2c
 800875a:	6101      	str	r1, [r0, #16]
 800875c:	e9c0 320a 	strd	r3, r2, [r0, #40]	; 0x28
 8008760:	e9c0 330c 	strd	r3, r3, [r0, #48]	; 0x30
 8008764:	6241      	str	r1, [r0, #36]	; 0x24
 8008766:	f7fc b9fd 	b.w	8004b64 <vPortExitCritical>

0800876a <chprintf>:
 * @param[in] chp       pointer to a @p BaseSequentialStream implementing object
 * @param[in] fmt       formatting string
 *
 * @api
 */
int chprintf(BaseSequentialStream *chp, const char *fmt, ...) {
 800876a:	b40e      	push	{r1, r2, r3}
 800876c:	b503      	push	{r0, r1, lr}
 800876e:	aa03      	add	r2, sp, #12
 8008770:	f852 1b04 	ldr.w	r1, [r2], #4
  va_list ap;
  int formatted_bytes;

  va_start(ap, fmt);
 8008774:	9201      	str	r2, [sp, #4]
  formatted_bytes = chvprintf(chp, fmt, ap);
 8008776:	f7fe f9c3 	bl	8006b00 <chvprintf>
  va_end(ap);

  return formatted_bytes;
}
 800877a:	b002      	add	sp, #8
 800877c:	f85d eb04 	ldr.w	lr, [sp], #4
 8008780:	b003      	add	sp, #12
 8008782:	4770      	bx	lr

08008784 <cmd_exit>:
#if ((SHELL_CMD_EXIT_ENABLED == TRUE) && !defined(_CHIBIOS_NIL_)) ||        \
    defined(__DOXYGEN__)
static void cmd_exit(void* user, BaseSequentialStream *chp, int argc, char *argv[]) {
  (void)user;
  (void)argv;
  if (argc > 0) {
 8008784:	2a00      	cmp	r2, #0
static void cmd_exit(void* user, BaseSequentialStream *chp, int argc, char *argv[]) {
 8008786:	4608      	mov	r0, r1
 8008788:	b508      	push	{r3, lr}
  if (argc > 0) {
 800878a:	dd05      	ble.n	8008798 <cmd_exit+0x14>
    shellUsage(chp, "exit");
    return;
  }

  shellExit(MSG_OK);
}
 800878c:	e8bd 4008 	ldmia.w	sp!, {r3, lr}
    shellUsage(chp, "exit");
 8008790:	4a06      	ldr	r2, [pc, #24]	; (80087ac <cmd_exit+0x28>)
 8008792:	4907      	ldr	r1, [pc, #28]	; (80087b0 <cmd_exit+0x2c>)
 8008794:	f7ff bfe9 	b.w	800876a <chprintf>
 */
void shellExit(msg_t msg) {

  /* Atomically broadcasting the event source and terminating the thread,
     there is not a chSysUnlock() because the thread terminates upon return.*/
  chSysLock();
 8008798:	f7fb ffcc 	bl	8004734 <vPortEnterCritical>
}
static inline void chEvtBroadcast(event_source_t* event_source){
    osalEventBroadcastFlags(event_source, 1);
}
static inline void chEvtBroadcastI(event_source_t* event_source){
    osalEventBroadcastFlagsI(event_source, 1);
 800879c:	4805      	ldr	r0, [pc, #20]	; (80087b4 <cmd_exit+0x30>)
 800879e:	2101      	movs	r1, #1
 80087a0:	f7fe fba2 	bl	8006ee8 <osalEventBroadcastFlagsI>
}
 80087a4:	e8bd 4008 	ldmia.w	sp!, {r3, lr}
    vTaskDelete(NULL);
 80087a8:	f7fd bc6c 	b.w	8006084 <vTaskDelete.constprop.0>
 80087ac:	0800bae1 	.word	0x0800bae1
 80087b0:	0800bae6 	.word	0x0800bae6
 80087b4:	200012b8 	.word	0x200012b8

080087b8 <cmd_info>:

#if (SHELL_CMD_INFO_ENABLED == TRUE) || defined(__DOXYGEN__)
static void cmd_info(void* user, BaseSequentialStream *chp, int argc, char *argv[]) {
  (void)user;
  (void)argv;
  if (argc > 0) {
 80087b8:	2a00      	cmp	r2, #0
static void cmd_info(void* user, BaseSequentialStream *chp, int argc, char *argv[]) {
 80087ba:	b5f7      	push	{r0, r1, r2, r4, r5, r6, r7, lr}
 80087bc:	460c      	mov	r4, r1
  if (argc > 0) {
 80087be:	dd07      	ble.n	80087d0 <cmd_info+0x18>
    shellUsage(chp, "info");
 80087c0:	4620      	mov	r0, r4
 80087c2:	4a1d      	ldr	r2, [pc, #116]	; (8008838 <cmd_info+0x80>)
 80087c4:	491d      	ldr	r1, [pc, #116]	; (800883c <cmd_info+0x84>)
  for(uint8_t* i=&__buildid_base__+16; i<&__buildid_end__; i++){
    chprintf(chp, "%02x", *i);
  }
  chprintf(chp, SHELL_NEWLINE_STR);
#endif
}
 80087c6:	b003      	add	sp, #12
 80087c8:	e8bd 40f0 	ldmia.w	sp!, {r4, r5, r6, r7, lr}
    shellUsage(chp, "info");
 80087cc:	f7ff bfcd 	b.w	800876a <chprintf>
  chprintf(chp, "Kernel:       %s"SHELL_NEWLINE_STR, CH_KERNEL_VERSION);
 80087d0:	4a1b      	ldr	r2, [pc, #108]	; (8008840 <cmd_info+0x88>)
 80087d2:	491c      	ldr	r1, [pc, #112]	; (8008844 <cmd_info+0x8c>)
 80087d4:	4620      	mov	r0, r4
 80087d6:	f7ff ffc8 	bl	800876a <chprintf>
  chprintf(chp, "Architecture: %s"SHELL_NEWLINE_STR, PORT_ARCHITECTURE_NAME);
 80087da:	4a1b      	ldr	r2, [pc, #108]	; (8008848 <cmd_info+0x90>)
 80087dc:	491b      	ldr	r1, [pc, #108]	; (800884c <cmd_info+0x94>)
 80087de:	4620      	mov	r0, r4
 80087e0:	f7ff ffc3 	bl	800876a <chprintf>
  chprintf(chp, "Platform:     %s"SHELL_NEWLINE_STR, PLATFORM_NAME);
 80087e4:	4a1a      	ldr	r2, [pc, #104]	; (8008850 <cmd_info+0x98>)
 80087e6:	491b      	ldr	r1, [pc, #108]	; (8008854 <cmd_info+0x9c>)
 80087e8:	4620      	mov	r0, r4
 80087ea:	f7ff ffbe 	bl	800876a <chprintf>
  chprintf(chp, "Board:        %s"SHELL_NEWLINE_STR, BOARD_NAME);
 80087ee:	4a1a      	ldr	r2, [pc, #104]	; (8008858 <cmd_info+0xa0>)
 80087f0:	491a      	ldr	r1, [pc, #104]	; (800885c <cmd_info+0xa4>)
 80087f2:	4620      	mov	r0, r4
 80087f4:	f7ff ffb9 	bl	800876a <chprintf>
  chprintf(chp, "Build time:   %s%s%s"SHELL_NEWLINE_STR, __DATE__, " - ", __TIME__);
 80087f8:	4b19      	ldr	r3, [pc, #100]	; (8008860 <cmd_info+0xa8>)
 80087fa:	4a1a      	ldr	r2, [pc, #104]	; (8008864 <cmd_info+0xac>)
 80087fc:	491a      	ldr	r1, [pc, #104]	; (8008868 <cmd_info+0xb0>)
 80087fe:	9300      	str	r3, [sp, #0]
 8008800:	4620      	mov	r0, r4
 8008802:	4b1a      	ldr	r3, [pc, #104]	; (800886c <cmd_info+0xb4>)
 8008804:	f7ff ffb1 	bl	800876a <chprintf>
  chprintf(chp, "Build ID:     ");
 8008808:	4620      	mov	r0, r4
 800880a:	4919      	ldr	r1, [pc, #100]	; (8008870 <cmd_info+0xb8>)
 800880c:	f7ff ffad 	bl	800876a <chprintf>
  for(uint8_t* i=&__buildid_base__+16; i<&__buildid_end__; i++){
 8008810:	4d18      	ldr	r5, [pc, #96]	; (8008874 <cmd_info+0xbc>)
 8008812:	4e19      	ldr	r6, [pc, #100]	; (8008878 <cmd_info+0xc0>)
    chprintf(chp, "%02x", *i);
 8008814:	4f19      	ldr	r7, [pc, #100]	; (800887c <cmd_info+0xc4>)
  for(uint8_t* i=&__buildid_base__+16; i<&__buildid_end__; i++){
 8008816:	42b5      	cmp	r5, r6
 8008818:	d306      	bcc.n	8008828 <cmd_info+0x70>
  chprintf(chp, SHELL_NEWLINE_STR);
 800881a:	4620      	mov	r0, r4
 800881c:	4918      	ldr	r1, [pc, #96]	; (8008880 <cmd_info+0xc8>)
}
 800881e:	b003      	add	sp, #12
 8008820:	e8bd 40f0 	ldmia.w	sp!, {r4, r5, r6, r7, lr}
  chprintf(chp, SHELL_NEWLINE_STR);
 8008824:	f7ff bfa1 	b.w	800876a <chprintf>
    chprintf(chp, "%02x", *i);
 8008828:	4639      	mov	r1, r7
 800882a:	4620      	mov	r0, r4
 800882c:	f815 2b01 	ldrb.w	r2, [r5], #1
 8008830:	f7ff ff9b 	bl	800876a <chprintf>
  for(uint8_t* i=&__buildid_base__+16; i<&__buildid_end__; i++){
 8008834:	e7ef      	b.n	8008816 <cmd_info+0x5e>
 8008836:	bf00      	nop
 8008838:	0800baf2 	.word	0x0800baf2
 800883c:	0800bae6 	.word	0x0800bae6
 8008840:	0800baf7 	.word	0x0800baf7
 8008844:	0800bb04 	.word	0x0800bb04
 8008848:	0800bb17 	.word	0x0800bb17
 800884c:	0800bb24 	.word	0x0800bb24
 8008850:	0800bb37 	.word	0x0800bb37
 8008854:	0800bb61 	.word	0x0800bb61
 8008858:	0800bb74 	.word	0x0800bb74
 800885c:	0800bb9b 	.word	0x0800bb9b
 8008860:	0800bbd5 	.word	0x0800bbd5
 8008864:	0800bbb2 	.word	0x0800bbb2
 8008868:	0800bbbe 	.word	0x0800bbbe
 800886c:	0800bbae 	.word	0x0800bbae
 8008870:	0800bbde 	.word	0x0800bbde
 8008874:	0800cd84 	.word	0x0800cd84
 8008878:	0800cd98 	.word	0x0800cd98
 800887c:	0800bbed 	.word	0x0800bbed
 8008880:	0800be7c 	.word	0x0800be7c

08008884 <cmd_echo>:

#if (SHELL_CMD_ECHO_ENABLED == TRUE) || defined(__DOXYGEN__)
static void cmd_echo(void* user, BaseSequentialStream *chp, int argc, char *argv[]) {
  (void)argv;
  (void)user;
  if (argc != 1) {
 8008884:	2a01      	cmp	r2, #1
static void cmd_echo(void* user, BaseSequentialStream *chp, int argc, char *argv[]) {
 8008886:	4608      	mov	r0, r1
    shellUsage(chp, "echo \"message\"");
 8008888:	bf19      	ittee	ne
 800888a:	4a03      	ldrne	r2, [pc, #12]	; (8008898 <cmd_echo+0x14>)
 800888c:	4903      	ldrne	r1, [pc, #12]	; (800889c <cmd_echo+0x18>)
    return;
  }
  chprintf(chp, "%s"SHELL_NEWLINE_STR, argv[0]);
 800888e:	681a      	ldreq	r2, [r3, #0]
 8008890:	4903      	ldreq	r1, [pc, #12]	; (80088a0 <cmd_echo+0x1c>)
 8008892:	f7ff bf6a 	b.w	800876a <chprintf>
 8008896:	bf00      	nop
 8008898:	0800bbf2 	.word	0x0800bbf2
 800889c:	0800bae6 	.word	0x0800bae6
 80088a0:	0800bba9 	.word	0x0800bba9

080088a4 <cmd_systime>:

#if (SHELL_CMD_SYSTIME_ENABLED == TRUE) || defined(__DOXYGEN__)
static void cmd_systime(void* user, BaseSequentialStream *chp, int argc, char *argv[]) {
  (void)argv;
  (void)user;
  if (argc > 0) {
 80088a4:	2a00      	cmp	r2, #0
static void cmd_systime(void* user, BaseSequentialStream *chp, int argc, char *argv[]) {
 80088a6:	4608      	mov	r0, r1
 80088a8:	b508      	push	{r3, lr}
  if (argc > 0) {
 80088aa:	dd05      	ble.n	80088b8 <cmd_systime+0x14>
    shellUsage(chp, "systime");
 80088ac:	4a05      	ldr	r2, [pc, #20]	; (80088c4 <cmd_systime+0x20>)
 80088ae:	4906      	ldr	r1, [pc, #24]	; (80088c8 <cmd_systime+0x24>)
    return;
  }
  chprintf(chp, "%lu"SHELL_NEWLINE_STR, (unsigned long)chVTGetSystemTime());
}
 80088b0:	e8bd 4008 	ldmia.w	sp!, {r3, lr}
  chprintf(chp, "%lu"SHELL_NEWLINE_STR, (unsigned long)chVTGetSystemTime());
 80088b4:	f7ff bf59 	b.w	800876a <chprintf>
 80088b8:	f7fc fd2a 	bl	8005310 <vPortValidateInterruptPriority>
 80088bc:	4b03      	ldr	r3, [pc, #12]	; (80088cc <cmd_systime+0x28>)
 80088be:	4904      	ldr	r1, [pc, #16]	; (80088d0 <cmd_systime+0x2c>)
 80088c0:	681a      	ldr	r2, [r3, #0]
 80088c2:	e7f5      	b.n	80088b0 <cmd_systime+0xc>
 80088c4:	0800bc01 	.word	0x0800bc01
 80088c8:	0800bae6 	.word	0x0800bae6
 80088cc:	20001648 	.word	0x20001648
 80088d0:	0800bc09 	.word	0x0800bc09

080088d4 <cmd_mem>:
#if (SHELL_CMD_MEM_ENABLED == TRUE) || defined(__DOXYGEN__)
static void cmd_mem(void* user, BaseSequentialStream *chp, int argc, char *argv[]) {
  size_t n, total, largest;
  (void)argv;
  (void)user;
  if (argc > 0) {
 80088d4:	2a00      	cmp	r2, #0
static void cmd_mem(void* user, BaseSequentialStream *chp, int argc, char *argv[]) {
 80088d6:	b5f8      	push	{r3, r4, r5, r6, r7, lr}
 80088d8:	460c      	mov	r4, r1
  if (argc > 0) {
 80088da:	dd06      	ble.n	80088ea <cmd_mem+0x16>
    shellUsage(chp, "mem");
 80088dc:	4a14      	ldr	r2, [pc, #80]	; (8008930 <cmd_mem+0x5c>)
 80088de:	4915      	ldr	r1, [pc, #84]	; (8008934 <cmd_mem+0x60>)
  }
  n = chHeapStatus(NULL, &total, &largest);
  chprintf(chp, "core free memory : %u bytes"SHELL_NEWLINE_STR, chCoreGetStatusX());
  chprintf(chp, "heap fragments   : %u"SHELL_NEWLINE_STR, n);
  chprintf(chp, "heap free total  : %u bytes"SHELL_NEWLINE_STR, total);
  chprintf(chp, "heap free largest: %u bytes"SHELL_NEWLINE_STR, largest);
 80088e0:	4620      	mov	r0, r4
}
 80088e2:	e8bd 40f8 	ldmia.w	sp!, {r3, r4, r5, r6, r7, lr}
  chprintf(chp, "heap free largest: %u bytes"SHELL_NEWLINE_STR, largest);
 80088e6:	f7ff bf40 	b.w	800876a <chprintf>
 80088ea:	2500      	movs	r5, #0
 80088ec:	462e      	mov	r6, r5
 80088ee:	4b12      	ldr	r3, [pc, #72]	; (8008938 <cmd_mem+0x64>)
 80088f0:	681f      	ldr	r7, [r3, #0]
 80088f2:	4b12      	ldr	r3, [pc, #72]	; (800893c <cmd_mem+0x68>)
 80088f4:	681b      	ldr	r3, [r3, #0]
 80088f6:	681a      	ldr	r2, [r3, #0]
 80088f8:	b98a      	cbnz	r2, 800891e <cmd_mem+0x4a>
  chprintf(chp, "core free memory : %u bytes"SHELL_NEWLINE_STR, chCoreGetStatusX());
 80088fa:	463a      	mov	r2, r7
 80088fc:	4910      	ldr	r1, [pc, #64]	; (8008940 <cmd_mem+0x6c>)
 80088fe:	4620      	mov	r0, r4
 8008900:	f7ff ff33 	bl	800876a <chprintf>
  chprintf(chp, "heap fragments   : %u"SHELL_NEWLINE_STR, n);
 8008904:	4632      	mov	r2, r6
 8008906:	490f      	ldr	r1, [pc, #60]	; (8008944 <cmd_mem+0x70>)
 8008908:	4620      	mov	r0, r4
 800890a:	f7ff ff2e 	bl	800876a <chprintf>
  chprintf(chp, "heap free total  : %u bytes"SHELL_NEWLINE_STR, total);
 800890e:	463a      	mov	r2, r7
 8008910:	490d      	ldr	r1, [pc, #52]	; (8008948 <cmd_mem+0x74>)
 8008912:	4620      	mov	r0, r4
 8008914:	f7ff ff29 	bl	800876a <chprintf>
  chprintf(chp, "heap free largest: %u bytes"SHELL_NEWLINE_STR, largest);
 8008918:	462a      	mov	r2, r5
 800891a:	490c      	ldr	r1, [pc, #48]	; (800894c <cmd_mem+0x78>)
 800891c:	e7e0      	b.n	80088e0 <cmd_mem+0xc>
 800891e:	685b      	ldr	r3, [r3, #4]
 8008920:	b103      	cbz	r3, 8008924 <cmd_mem+0x50>
 8008922:	3601      	adds	r6, #1
 8008924:	429d      	cmp	r5, r3
 8008926:	bf38      	it	cc
 8008928:	461d      	movcc	r5, r3
static void cmd_mem(void* user, BaseSequentialStream *chp, int argc, char *argv[]) {
 800892a:	4613      	mov	r3, r2
 800892c:	e7e3      	b.n	80088f6 <cmd_mem+0x22>
 800892e:	bf00      	nop
 8008930:	0800bc0f 	.word	0x0800bc0f
 8008934:	0800bae6 	.word	0x0800bae6
 8008938:	200013a4 	.word	0x200013a4
 800893c:	20001618 	.word	0x20001618
 8008940:	0800bc13 	.word	0x0800bc13
 8008944:	0800bc31 	.word	0x0800bc31
 8008948:	0800bc49 	.word	0x0800bc49
 800894c:	0800bc67 	.word	0x0800bc67

08008950 <cmdMco>:
    if(argc != 1) {
 8008950:	2a01      	cmp	r2, #1
{
 8008952:	b510      	push	{r4, lr}
 8008954:	460c      	mov	r4, r1
    if(argc != 1) {
 8008956:	d009      	beq.n	800896c <cmdMco+0x1c>
        chprintf(chp,"Usage:"SHELL_NEWLINE_STR);
 8008958:	4620      	mov	r0, r4
 800895a:	4909      	ldr	r1, [pc, #36]	; (8008980 <cmdMco+0x30>)
 800895c:	f7ff ff05 	bl	800876a <chprintf>
        chprintf(chp,"\t mco [1/0]"SHELL_NEWLINE_STR);
 8008960:	4620      	mov	r0, r4
}
 8008962:	e8bd 4010 	ldmia.w	sp!, {r4, lr}
        chprintf(chp,"\t mco [1/0]"SHELL_NEWLINE_STR);
 8008966:	4907      	ldr	r1, [pc, #28]	; (8008984 <cmdMco+0x34>)
 8008968:	f7ff beff 	b.w	800876a <chprintf>
        systemEnableMCO(argv[0][0] == '1');
 800896c:	681b      	ldr	r3, [r3, #0]
}
 800896e:	e8bd 4010 	ldmia.w	sp!, {r4, lr}
        systemEnableMCO(argv[0][0] == '1');
 8008972:	7818      	ldrb	r0, [r3, #0]
 8008974:	f1a0 0331 	sub.w	r3, r0, #49	; 0x31
 8008978:	4258      	negs	r0, r3
 800897a:	4158      	adcs	r0, r3
 800897c:	f7fb bc82 	b.w	8004284 <systemEnableMCO>
 8008980:	0800bc85 	.word	0x0800bc85
 8008984:	0800bc8e 	.word	0x0800bc8e

08008988 <cmdLicense>:
{
 8008988:	4608      	mov	r0, r1
    chprintf(chp,"%s", &_binary_data_license_bin_start);
 800898a:	4a02      	ldr	r2, [pc, #8]	; (8008994 <cmdLicense+0xc>)
 800898c:	4902      	ldr	r1, [pc, #8]	; (8008998 <cmdLicense+0x10>)
 800898e:	f7ff beec 	b.w	800876a <chprintf>
 8008992:	bf00      	nop
 8008994:	08002234 	.word	0x08002234
 8008998:	0800bc9c 	.word	0x0800bc9c

0800899c <cmdMaxUsage>:
#include <string.h>
#include <stdlib.h>


static void cmdMaxUsage(BaseSequentialStream* chp)
{
 800899c:	b510      	push	{r4, lr}
 800899e:	4604      	mov	r4, r0
    chprintf(chp, "Usage:"SHELL_NEWLINE_STR);
 80089a0:	490e      	ldr	r1, [pc, #56]	; (80089dc <cmdMaxUsage+0x40>)
 80089a2:	f7ff fee2 	bl	800876a <chprintf>
    chprintf(chp, "\tmax tune [freqkHz] [power] [forceVAS]"SHELL_NEWLINE_STR);
 80089a6:	4620      	mov	r0, r4
 80089a8:	490d      	ldr	r1, [pc, #52]	; (80089e0 <cmdMaxUsage+0x44>)
 80089aa:	f7ff fede 	bl	800876a <chprintf>
    chprintf(chp, "\tmax status"SHELL_NEWLINE_STR);
 80089ae:	4620      	mov	r0, r4
 80089b0:	490c      	ldr	r1, [pc, #48]	; (80089e4 <cmdMaxUsage+0x48>)
 80089b2:	f7ff feda 	bl	800876a <chprintf>
    chprintf(chp, "\tmax vcocache"SHELL_NEWLINE_STR);
 80089b6:	4620      	mov	r0, r4
 80089b8:	490b      	ldr	r1, [pc, #44]	; (80089e8 <cmdMaxUsage+0x4c>)
 80089ba:	f7ff fed6 	bl	800876a <chprintf>
    chprintf(chp, "\tmax vcocache calibrate"SHELL_NEWLINE_STR);
 80089be:	4620      	mov	r0, r4
 80089c0:	490a      	ldr	r1, [pc, #40]	; (80089ec <cmdMaxUsage+0x50>)
 80089c2:	f7ff fed2 	bl	800876a <chprintf>
    chprintf(chp, "\tmax vcocache set index value"SHELL_NEWLINE_STR);
 80089c6:	4620      	mov	r0, r4
 80089c8:	4909      	ldr	r1, [pc, #36]	; (80089f0 <cmdMaxUsage+0x54>)
 80089ca:	f7ff fece 	bl	800876a <chprintf>
    chprintf(chp, "\tmax dld"SHELL_NEWLINE_STR);
 80089ce:	4620      	mov	r0, r4
}
 80089d0:	e8bd 4010 	ldmia.w	sp!, {r4, lr}
    chprintf(chp, "\tmax dld"SHELL_NEWLINE_STR);
 80089d4:	4907      	ldr	r1, [pc, #28]	; (80089f4 <cmdMaxUsage+0x58>)
 80089d6:	f7ff bec8 	b.w	800876a <chprintf>
 80089da:	bf00      	nop
 80089dc:	0800bc85 	.word	0x0800bc85
 80089e0:	0800bc9f 	.word	0x0800bc9f
 80089e4:	0800bcc8 	.word	0x0800bcc8
 80089e8:	0800bcd6 	.word	0x0800bcd6
 80089ec:	0800bce6 	.word	0x0800bce6
 80089f0:	0800bd00 	.word	0x0800bd00
 80089f4:	0800bd20 	.word	0x0800bd20

080089f8 <cmdI2CUsage>:

#include <string.h>
#include <stdlib.h>

static void cmdI2CUsage(BaseSequentialStream *chp)
{
 80089f8:	b510      	push	{r4, lr}
 80089fa:	4604      	mov	r4, r0
    chprintf(chp, "Usage:"SHELL_NEWLINE_STR);
 80089fc:	490c      	ldr	r1, [pc, #48]	; (8008a30 <cmdI2CUsage+0x38>)
 80089fe:	f7ff feb4 	bl	800876a <chprintf>
    chprintf(chp, "\ti2c test"SHELL_NEWLINE_STR);
 8008a02:	4620      	mov	r0, r4
 8008a04:	490b      	ldr	r1, [pc, #44]	; (8008a34 <cmdI2CUsage+0x3c>)
 8008a06:	f7ff feb0 	bl	800876a <chprintf>
    chprintf(chp, "\ti2c scan"SHELL_NEWLINE_STR);
 8008a0a:	4620      	mov	r0, r4
 8008a0c:	490a      	ldr	r1, [pc, #40]	; (8008a38 <cmdI2CUsage+0x40>)
 8008a0e:	f7ff feac 	bl	800876a <chprintf>
    chprintf(chp, "\ti2c errors"SHELL_NEWLINE_STR);
 8008a12:	4620      	mov	r0, r4
 8008a14:	4909      	ldr	r1, [pc, #36]	; (8008a3c <cmdI2CUsage+0x44>)
 8008a16:	f7ff fea8 	bl	800876a <chprintf>
    chprintf(chp, "\ti2c get devAddr regAddr [stress]"SHELL_NEWLINE_STR);
 8008a1a:	4620      	mov	r0, r4
 8008a1c:	4908      	ldr	r1, [pc, #32]	; (8008a40 <cmdI2CUsage+0x48>)
 8008a1e:	f7ff fea4 	bl	800876a <chprintf>
    chprintf(chp, "\ti2c set devAddr regAddr regValue [stress]"SHELL_NEWLINE_STR);
 8008a22:	4620      	mov	r0, r4
}
 8008a24:	e8bd 4010 	ldmia.w	sp!, {r4, lr}
    chprintf(chp, "\ti2c set devAddr regAddr regValue [stress]"SHELL_NEWLINE_STR);
 8008a28:	4906      	ldr	r1, [pc, #24]	; (8008a44 <cmdI2CUsage+0x4c>)
 8008a2a:	f7ff be9e 	b.w	800876a <chprintf>
 8008a2e:	bf00      	nop
 8008a30:	0800bc85 	.word	0x0800bc85
 8008a34:	0800bd2b 	.word	0x0800bd2b
 8008a38:	0800bd37 	.word	0x0800bd37
 8008a3c:	0800bd43 	.word	0x0800bd43
 8008a40:	0800bd51 	.word	0x0800bd51
 8008a44:	0800bd75 	.word	0x0800bd75

08008a48 <cmdGPIOUsage>:

#include <string.h>
#include <stdlib.h>

static void cmdGPIOUsage(BaseSequentialStream *chp)
{
 8008a48:	b510      	push	{r4, lr}
 8008a4a:	4604      	mov	r4, r0
    chprintf(chp, "Usage:"SHELL_NEWLINE_STR);
 8008a4c:	4910      	ldr	r1, [pc, #64]	; (8008a90 <cmdGPIOUsage+0x48>)
 8008a4e:	f7ff fe8c 	bl	800876a <chprintf>
    chprintf(chp, "\tgpio status"SHELL_NEWLINE_STR);
 8008a52:	4620      	mov	r0, r4
 8008a54:	490f      	ldr	r1, [pc, #60]	; (8008a94 <cmdGPIOUsage+0x4c>)
 8008a56:	f7ff fe88 	bl	800876a <chprintf>
    chprintf(chp, "\tgpio [port] [pin] output"SHELL_NEWLINE_STR);
 8008a5a:	4620      	mov	r0, r4
 8008a5c:	490e      	ldr	r1, [pc, #56]	; (8008a98 <cmdGPIOUsage+0x50>)
 8008a5e:	f7ff fe84 	bl	800876a <chprintf>
    chprintf(chp, "\tgpio [port] [pin] input"SHELL_NEWLINE_STR);
 8008a62:	4620      	mov	r0, r4
 8008a64:	490d      	ldr	r1, [pc, #52]	; (8008a9c <cmdGPIOUsage+0x54>)
 8008a66:	f7ff fe80 	bl	800876a <chprintf>
    chprintf(chp, "\tgpio [port] [pin] set"SHELL_NEWLINE_STR);
 8008a6a:	4620      	mov	r0, r4
 8008a6c:	490c      	ldr	r1, [pc, #48]	; (8008aa0 <cmdGPIOUsage+0x58>)
 8008a6e:	f7ff fe7c 	bl	800876a <chprintf>
    chprintf(chp, "\tgpio [port] [pin] clear"SHELL_NEWLINE_STR);
 8008a72:	4620      	mov	r0, r4
 8008a74:	490b      	ldr	r1, [pc, #44]	; (8008aa4 <cmdGPIOUsage+0x5c>)
 8008a76:	f7ff fe78 	bl	800876a <chprintf>
    chprintf(chp, "\tgpio [port] [pin] get"SHELL_NEWLINE_STR);
 8008a7a:	4620      	mov	r0, r4
 8008a7c:	490a      	ldr	r1, [pc, #40]	; (8008aa8 <cmdGPIOUsage+0x60>)
 8008a7e:	f7ff fe74 	bl	800876a <chprintf>
    chprintf(chp, "\tgpio [port] bus [on/off]"SHELL_NEWLINE_STR);
 8008a82:	4620      	mov	r0, r4

}
 8008a84:	e8bd 4010 	ldmia.w	sp!, {r4, lr}
    chprintf(chp, "\tgpio [port] bus [on/off]"SHELL_NEWLINE_STR);
 8008a88:	4908      	ldr	r1, [pc, #32]	; (8008aac <cmdGPIOUsage+0x64>)
 8008a8a:	f7ff be6e 	b.w	800876a <chprintf>
 8008a8e:	bf00      	nop
 8008a90:	0800bc85 	.word	0x0800bc85
 8008a94:	0800bda2 	.word	0x0800bda2
 8008a98:	0800bdb1 	.word	0x0800bdb1
 8008a9c:	0800bdcd 	.word	0x0800bdcd
 8008aa0:	0800bde8 	.word	0x0800bde8
 8008aa4:	0800be01 	.word	0x0800be01
 8008aa8:	0800be1c 	.word	0x0800be1c
 8008aac:	0800be35 	.word	0x0800be35

08008ab0 <gpioDummyStatus>:

    return false;
}

void gpioDummyStatus(const GPIOPort* driver, BaseSequentialStream* chp)
{
 8008ab0:	4608      	mov	r0, r1
    (void)driver;

    chprintf(chp, "\tDriver: Dummy"SHELL_NEWLINE_STR);
 8008ab2:	4901      	ldr	r1, [pc, #4]	; (8008ab8 <gpioDummyStatus+0x8>)
 8008ab4:	f7ff be59 	b.w	800876a <chprintf>
 8008ab8:	0800be51 	.word	0x0800be51

08008abc <printfFixed>:
{
 8008abc:	b40c      	push	{r2, r3}
 8008abe:	e92d 41f3 	stmdb	sp!, {r0, r1, r4, r5, r6, r7, r8, lr}
 8008ac2:	aa08      	add	r2, sp, #32
 8008ac4:	460d      	mov	r5, r1
 8008ac6:	f852 1b04 	ldr.w	r1, [r2], #4
 8008aca:	4606      	mov	r6, r0
    va_start(args, format);
 8008acc:	9201      	str	r2, [sp, #4]
    int result = chvprintf(chn, format, args);
 8008ace:	f7fe f817 	bl	8006b00 <chvprintf>
 8008ad2:	4604      	mov	r4, r0
 8008ad4:	4607      	mov	r7, r0
        chnWrite(chn, (unsigned char*)" ", 1);
 8008ad6:	f8df 802c 	ldr.w	r8, [pc, #44]	; 8008b04 <printfFixed+0x48>
    for(; result<minLength; result++) {
 8008ada:	42af      	cmp	r7, r5
 8008adc:	db09      	blt.n	8008af2 <printfFixed+0x36>
 8008ade:	1b28      	subs	r0, r5, r4
 8008ae0:	42ac      	cmp	r4, r5
 8008ae2:	bfc8      	it	gt
 8008ae4:	2000      	movgt	r0, #0
}
 8008ae6:	4420      	add	r0, r4
 8008ae8:	b002      	add	sp, #8
 8008aea:	e8bd 41f0 	ldmia.w	sp!, {r4, r5, r6, r7, r8, lr}
 8008aee:	b002      	add	sp, #8
 8008af0:	4770      	bx	lr
        chnWrite(chn, (unsigned char*)" ", 1);
 8008af2:	6833      	ldr	r3, [r6, #0]
 8008af4:	2201      	movs	r2, #1
 8008af6:	4641      	mov	r1, r8
 8008af8:	4630      	mov	r0, r6
 8008afa:	681b      	ldr	r3, [r3, #0]
 8008afc:	4798      	blx	r3
    for(; result<minLength; result++) {
 8008afe:	3701      	adds	r7, #1
 8008b00:	e7eb      	b.n	8008ada <printfFixed+0x1e>
 8008b02:	bf00      	nop
 8008b04:	0800bbeb 	.word	0x0800bbeb

08008b08 <max2870StatusPrint>:

    return allGood;
}

void max2870StatusPrint(MAX2870Driver* driver, BaseSequentialStream* stdout)
{
 8008b08:	e92d 41f0 	stmdb	sp!, {r4, r5, r6, r7, r8, lr}
 8008b0c:	4605      	mov	r5, r0
 8008b0e:	460c      	mov	r4, r1
    max2870SpiState(driver, true);
 8008b10:	f7ff fb18 	bl	8008144 <max2870SpiState.constprop.0>
    if(driver->enabled) {
 8008b14:	792b      	ldrb	r3, [r5, #4]
 8008b16:	2b00      	cmp	r3, #0
 8008b18:	f000 80c8 	beq.w	8008cac <max2870StatusPrint+0x1a4>
        if(driver->currentTune.isLocked) {
 8008b1c:	7f2b      	ldrb	r3, [r5, #28]
 8008b1e:	2b00      	cmp	r3, #0
 8008b20:	f000 8092 	beq.w	8008c48 <max2870StatusPrint+0x140>
            chprintf(stdout, "PLL Locked"SHELL_NEWLINE_STR);
 8008b24:	4964      	ldr	r1, [pc, #400]	; (8008cb8 <max2870StatusPrint+0x1b0>)
        } else {
            chprintf(stdout, "PLL UNLOCK!!!"SHELL_NEWLINE_STR);
 8008b26:	4620      	mov	r0, r4
 8008b28:	f7ff fe1f 	bl	800876a <chprintf>
        }

        printfFixed(stdout, 30, "Divided VCO Frequency:");
 8008b2c:	211e      	movs	r1, #30
 8008b2e:	4a63      	ldr	r2, [pc, #396]	; (8008cbc <max2870StatusPrint+0x1b4>)
 8008b30:	4620      	mov	r0, r4
 8008b32:	f7ff ffc3 	bl	8008abc <printfFixed>
        chprintf(stdout, "%u kHz"SHELL_NEWLINE_STR, driver->currentTune.frequency/1000);
 8008b36:	e9d5 0102 	ldrd	r0, r1, [r5, #8]
 8008b3a:	f44f 727a 	mov.w	r2, #1000	; 0x3e8
 8008b3e:	2300      	movs	r3, #0
 8008b40:	f7fa fe44 	bl	80037cc <__aeabi_uldivmod>
 8008b44:	4602      	mov	r2, r0
 8008b46:	460b      	mov	r3, r1
 8008b48:	4620      	mov	r0, r4
 8008b4a:	495d      	ldr	r1, [pc, #372]	; (8008cc0 <max2870StatusPrint+0x1b8>)
 8008b4c:	f7ff fe0d 	bl	800876a <chprintf>
        printfFixed(stdout, 30, "Output A Power:");
 8008b50:	4a5c      	ldr	r2, [pc, #368]	; (8008cc4 <max2870StatusPrint+0x1bc>)
 8008b52:	211e      	movs	r1, #30
 8008b54:	4620      	mov	r0, r4
 8008b56:	f7ff ffb1 	bl	8008abc <printfFixed>
        if(driver->currentTune.powerA != -127) {
 8008b5a:	f995 2010 	ldrsb.w	r2, [r5, #16]
 8008b5e:	f112 0f7f 	cmn.w	r2, #127	; 0x7f
 8008b62:	d073      	beq.n	8008c4c <max2870StatusPrint+0x144>
            chprintf(stdout, "%d dBm"SHELL_NEWLINE_STR, driver->currentTune.powerA);
 8008b64:	4620      	mov	r0, r4
 8008b66:	4958      	ldr	r1, [pc, #352]	; (8008cc8 <max2870StatusPrint+0x1c0>)
 8008b68:	f7ff fdff 	bl	800876a <chprintf>
        } else {
            chprintf(stdout, "Off"SHELL_NEWLINE_STR);
        }
        printfFixed(stdout, 30, "Output B Power:");
 8008b6c:	4a57      	ldr	r2, [pc, #348]	; (8008ccc <max2870StatusPrint+0x1c4>)
 8008b6e:	211e      	movs	r1, #30
 8008b70:	4620      	mov	r0, r4
 8008b72:	f7ff ffa3 	bl	8008abc <printfFixed>
        if(driver->currentTune.powerB != -127) {
 8008b76:	f995 2011 	ldrsb.w	r2, [r5, #17]
 8008b7a:	f112 0f7f 	cmn.w	r2, #127	; 0x7f
 8008b7e:	d06a      	beq.n	8008c56 <max2870StatusPrint+0x14e>
            chprintf(stdout, "%d dBm"SHELL_NEWLINE_STR, driver->currentTune.powerB);
 8008b80:	4620      	mov	r0, r4
 8008b82:	4951      	ldr	r1, [pc, #324]	; (8008cc8 <max2870StatusPrint+0x1c0>)
 8008b84:	f7ff fdf1 	bl	800876a <chprintf>
        } else {
            chprintf(stdout, "Off"SHELL_NEWLINE_STR);
        }
        if(driver->currentTune.isLocked) {
 8008b88:	7f2b      	ldrb	r3, [r5, #28]
 8008b8a:	b14b      	cbz	r3, 8008ba0 <max2870StatusPrint+0x98>
            printfFixed(stdout, 30, "Lock Time:");
 8008b8c:	211e      	movs	r1, #30
 8008b8e:	4a50      	ldr	r2, [pc, #320]	; (8008cd0 <max2870StatusPrint+0x1c8>)
 8008b90:	4620      	mov	r0, r4
 8008b92:	f7ff ff93 	bl	8008abc <printfFixed>
            chprintf(stdout, "%u cycles"SHELL_NEWLINE_STR, driver->currentTune.lockTime);
 8008b96:	4620      	mov	r0, r4
 8008b98:	7eea      	ldrb	r2, [r5, #27]
 8008b9a:	494e      	ldr	r1, [pc, #312]	; (8008cd4 <max2870StatusPrint+0x1cc>)
 8008b9c:	f7ff fde5 	bl	800876a <chprintf>
        }
        printfFixed(stdout, 30, "PFD Frequency:");
 8008ba0:	211e      	movs	r1, #30
 8008ba2:	4a4d      	ldr	r2, [pc, #308]	; (8008cd8 <max2870StatusPrint+0x1d0>)
 8008ba4:	4620      	mov	r0, r4
 8008ba6:	f7ff ff89 	bl	8008abc <printfFixed>
        chprintf(stdout, "%u kHz"SHELL_NEWLINE_STR, driver->pfdFrequency/1000);
 8008baa:	f44f 737a 	mov.w	r3, #1000	; 0x3e8
 8008bae:	f8d5 20b8 	ldr.w	r2, [r5, #184]	; 0xb8
 8008bb2:	4943      	ldr	r1, [pc, #268]	; (8008cc0 <max2870StatusPrint+0x1b8>)
 8008bb4:	fbb2 f2f3 	udiv	r2, r2, r3
 8008bb8:	4620      	mov	r0, r4
 8008bba:	f7ff fdd6 	bl	800876a <chprintf>
        printfFixed(stdout, 30, "Step Frequency:");
 8008bbe:	211e      	movs	r1, #30
 8008bc0:	4a46      	ldr	r2, [pc, #280]	; (8008cdc <max2870StatusPrint+0x1d4>)
 8008bc2:	4620      	mov	r0, r4
 8008bc4:	f7ff ff7a 	bl	8008abc <printfFixed>
        chprintf(stdout, "%u Hz"SHELL_NEWLINE_STR, driver->config->stepFrequency);
 8008bc8:	682b      	ldr	r3, [r5, #0]
 8008bca:	4945      	ldr	r1, [pc, #276]	; (8008ce0 <max2870StatusPrint+0x1d8>)
 8008bcc:	699a      	ldr	r2, [r3, #24]
 8008bce:	4620      	mov	r0, r4
 8008bd0:	f7ff fdcb 	bl	800876a <chprintf>
        printfFixed(stdout, 30, "BS Divider:");
 8008bd4:	211e      	movs	r1, #30
 8008bd6:	4a43      	ldr	r2, [pc, #268]	; (8008ce4 <max2870StatusPrint+0x1dc>)
 8008bd8:	4620      	mov	r0, r4
 8008bda:	f7ff ff6f 	bl	8008abc <printfFixed>
        chprintf(stdout, "%u"SHELL_NEWLINE_STR, driver->bsValue);
 8008bde:	f8b5 20c4 	ldrh.w	r2, [r5, #196]	; 0xc4
 8008be2:	4941      	ldr	r1, [pc, #260]	; (8008ce8 <max2870StatusPrint+0x1e0>)
 8008be4:	4620      	mov	r0, r4
 8008be6:	f7ff fdc0 	bl	800876a <chprintf>
        printfFixed(stdout, 30, "Reload Counter:");
 8008bea:	211e      	movs	r1, #30
 8008bec:	4a3f      	ldr	r2, [pc, #252]	; (8008cec <max2870StatusPrint+0x1e4>)
 8008bee:	4620      	mov	r0, r4
 8008bf0:	f7ff ff64 	bl	8008abc <printfFixed>
        chprintf(stdout, "%u"SHELL_NEWLINE_STR, driver->pllMonReloadCounter);
 8008bf4:	f895 20e4 	ldrb.w	r2, [r5, #228]	; 0xe4
 8008bf8:	493b      	ldr	r1, [pc, #236]	; (8008ce8 <max2870StatusPrint+0x1e0>)
 8008bfa:	4620      	mov	r0, r4
 8008bfc:	f7ff fdb5 	bl	800876a <chprintf>

        printfFixed(stdout, 30, "Current VCO Band From Cache:");
 8008c00:	211e      	movs	r1, #30
 8008c02:	4a3b      	ldr	r2, [pc, #236]	; (8008cf0 <max2870StatusPrint+0x1e8>)
 8008c04:	4620      	mov	r0, r4
 8008c06:	f7ff ff59 	bl	8008abc <printfFixed>
        chprintf(stdout, "%u"SHELL_NEWLINE_STR, !driver->currentTune.usedVCOAutotune);
 8008c0a:	7f6a      	ldrb	r2, [r5, #29]
 8008c0c:	4936      	ldr	r1, [pc, #216]	; (8008ce8 <max2870StatusPrint+0x1e0>)
 8008c0e:	f082 0201 	eor.w	r2, r2, #1
 8008c12:	4620      	mov	r0, r4
 8008c14:	f7ff fda9 	bl	800876a <chprintf>
        printfFixed(stdout, 30, "Current VCO Band:");
 8008c18:	211e      	movs	r1, #30
 8008c1a:	4a36      	ldr	r2, [pc, #216]	; (8008cf4 <max2870StatusPrint+0x1ec>)
 8008c1c:	4620      	mov	r0, r4
 8008c1e:	f7ff ff4d 	bl	8008abc <printfFixed>
        chprintf(stdout, "%u"SHELL_NEWLINE_STR, driver->currentTune.usedVCO);
 8008c22:	7e6a      	ldrb	r2, [r5, #25]
 8008c24:	4930      	ldr	r1, [pc, #192]	; (8008ce8 <max2870StatusPrint+0x1e0>)
 8008c26:	4620      	mov	r0, r4
 8008c28:	f7ff fd9f 	bl	800876a <chprintf>

        printfFixed(stdout, 30, "Current VCO Tuning Voltage:");
 8008c2c:	211e      	movs	r1, #30
 8008c2e:	4620      	mov	r0, r4
 8008c30:	4a31      	ldr	r2, [pc, #196]	; (8008cf8 <max2870StatusPrint+0x1f0>)
 8008c32:	f7ff ff43 	bl	8008abc <printfFixed>
        switch(driver->currentTune.adcVoltage) {
 8008c36:	7eab      	ldrb	r3, [r5, #26]
 8008c38:	2b06      	cmp	r3, #6
 8008c3a:	d835      	bhi.n	8008ca8 <max2870StatusPrint+0x1a0>
 8008c3c:	e8df f003 	tbb	[pc, r3]
 8008c40:	2e2e2c10 	.word	0x2e2e2c10
 8008c44:	3030      	.short	0x3030
 8008c46:	32          	.byte	0x32
 8008c47:	00          	.byte	0x00
            chprintf(stdout, "PLL UNLOCK!!!"SHELL_NEWLINE_STR);
 8008c48:	492c      	ldr	r1, [pc, #176]	; (8008cfc <max2870StatusPrint+0x1f4>)
 8008c4a:	e76c      	b.n	8008b26 <max2870StatusPrint+0x1e>
            chprintf(stdout, "Off"SHELL_NEWLINE_STR);
 8008c4c:	4620      	mov	r0, r4
 8008c4e:	492c      	ldr	r1, [pc, #176]	; (8008d00 <max2870StatusPrint+0x1f8>)
 8008c50:	f7ff fd8b 	bl	800876a <chprintf>
 8008c54:	e78a      	b.n	8008b6c <max2870StatusPrint+0x64>
            chprintf(stdout, "Off"SHELL_NEWLINE_STR);
 8008c56:	4620      	mov	r0, r4
 8008c58:	4929      	ldr	r1, [pc, #164]	; (8008d00 <max2870StatusPrint+0x1f8>)
 8008c5a:	f7ff fd86 	bl	800876a <chprintf>
 8008c5e:	e793      	b.n	8008b88 <max2870StatusPrint+0x80>
            case 0:
                chprintf(stdout, "0.2");
 8008c60:	4928      	ldr	r1, [pc, #160]	; (8008d04 <max2870StatusPrint+0x1fc>)
                break;
            case 6:
                chprintf(stdout, "2.3");
                break;
            default:
                chprintf(stdout, "3");
 8008c62:	4620      	mov	r0, r4
 8008c64:	f7ff fd81 	bl	800876a <chprintf>
                break;
        }
        chprintf(stdout, "V"SHELL_NEWLINE_STR"Registers:"SHELL_NEWLINE_STR);
 8008c68:	4620      	mov	r0, r4
 8008c6a:	4927      	ldr	r1, [pc, #156]	; (8008d08 <max2870StatusPrint+0x200>)
 8008c6c:	f7ff fd7d 	bl	800876a <chprintf>
        for(int i=0; i<7; i++) {
 8008c70:	2600      	movs	r6, #0
            chprintf(stdout, "\t%u: %08x"SHELL_NEWLINE_STR, i, driver->registers[i]);
 8008c72:	f8df 8098 	ldr.w	r8, [pc, #152]	; 8008d0c <max2870StatusPrint+0x204>
 8008c76:	f105 07c8 	add.w	r7, r5, #200	; 0xc8
 8008c7a:	4632      	mov	r2, r6
 8008c7c:	4641      	mov	r1, r8
 8008c7e:	4620      	mov	r0, r4
 8008c80:	f857 3b04 	ldr.w	r3, [r7], #4
        for(int i=0; i<7; i++) {
 8008c84:	3601      	adds	r6, #1
            chprintf(stdout, "\t%u: %08x"SHELL_NEWLINE_STR, i, driver->registers[i]);
 8008c86:	f7ff fd70 	bl	800876a <chprintf>
        for(int i=0; i<7; i++) {
 8008c8a:	2e07      	cmp	r6, #7
 8008c8c:	d1f5      	bne.n	8008c7a <max2870StatusPrint+0x172>
    if(enable) {
 8008c8e:	4628      	mov	r0, r5
        }
    } else {
        chprintf(stdout, "Low power mode"SHELL_NEWLINE_STR);
    }
    max2870SpiState(driver, false);
}
 8008c90:	e8bd 41f0 	ldmia.w	sp!, {r4, r5, r6, r7, r8, lr}
 8008c94:	f7ff bd24 	b.w	80086e0 <max2870SpiState.part.0>
                chprintf(stdout, "0.6");
 8008c98:	491d      	ldr	r1, [pc, #116]	; (8008d10 <max2870StatusPrint+0x208>)
 8008c9a:	e7e2      	b.n	8008c62 <max2870StatusPrint+0x15a>
                chprintf(stdout, "1");
 8008c9c:	491d      	ldr	r1, [pc, #116]	; (8008d14 <max2870StatusPrint+0x20c>)
 8008c9e:	e7e0      	b.n	8008c62 <max2870StatusPrint+0x15a>
                chprintf(stdout, "1.7");
 8008ca0:	491d      	ldr	r1, [pc, #116]	; (8008d18 <max2870StatusPrint+0x210>)
 8008ca2:	e7de      	b.n	8008c62 <max2870StatusPrint+0x15a>
                chprintf(stdout, "2.3");
 8008ca4:	491d      	ldr	r1, [pc, #116]	; (8008d1c <max2870StatusPrint+0x214>)
 8008ca6:	e7dc      	b.n	8008c62 <max2870StatusPrint+0x15a>
                chprintf(stdout, "3");
 8008ca8:	491d      	ldr	r1, [pc, #116]	; (8008d20 <max2870StatusPrint+0x218>)
 8008caa:	e7da      	b.n	8008c62 <max2870StatusPrint+0x15a>
        chprintf(stdout, "Low power mode"SHELL_NEWLINE_STR);
 8008cac:	4620      	mov	r0, r4
 8008cae:	491d      	ldr	r1, [pc, #116]	; (8008d24 <max2870StatusPrint+0x21c>)
 8008cb0:	f7ff fd5b 	bl	800876a <chprintf>
 8008cb4:	e7eb      	b.n	8008c8e <max2870StatusPrint+0x186>
 8008cb6:	bf00      	nop
 8008cb8:	0800be62 	.word	0x0800be62
 8008cbc:	0800be7f 	.word	0x0800be7f
 8008cc0:	0800c156 	.word	0x0800c156
 8008cc4:	0800be96 	.word	0x0800be96
 8008cc8:	0800bea6 	.word	0x0800bea6
 8008ccc:	0800beb5 	.word	0x0800beb5
 8008cd0:	0800bec5 	.word	0x0800bec5
 8008cd4:	0800bed0 	.word	0x0800bed0
 8008cd8:	0800bedc 	.word	0x0800bedc
 8008cdc:	0800beeb 	.word	0x0800beeb
 8008ce0:	0800befb 	.word	0x0800befb
 8008ce4:	0800bf03 	.word	0x0800bf03
 8008ce8:	0800c1a9 	.word	0x0800c1a9
 8008cec:	0800bf0f 	.word	0x0800bf0f
 8008cf0:	0800bf1f 	.word	0x0800bf1f
 8008cf4:	0800bf3c 	.word	0x0800bf3c
 8008cf8:	0800bf4e 	.word	0x0800bf4e
 8008cfc:	0800be6f 	.word	0x0800be6f
 8008d00:	0800beaf 	.word	0x0800beaf
 8008d04:	0800bf6a 	.word	0x0800bf6a
 8008d08:	0800bf7a 	.word	0x0800bf7a
 8008d0c:	0800bf8a 	.word	0x0800bf8a
 8008d10:	0800bf6e 	.word	0x0800bf6e
 8008d14:	0800bbbc 	.word	0x0800bbbc
 8008d18:	0800bf72 	.word	0x0800bf72
 8008d1c:	0800bf76 	.word	0x0800bf76
 8008d20:	0800bf78 	.word	0x0800bf78
 8008d24:	0800bf96 	.word	0x0800bf96

08008d28 <gpioCPUStatus>:
{
 8008d28:	e92d 43f7 	stmdb	sp!, {r0, r1, r2, r4, r5, r6, r7, r8, r9, lr}
 8008d2c:	460d      	mov	r5, r1
    chprintf(chp, "\tDriver: HAL (MM 0x%08x)"SHELL_NEWLINE_STR, (uint32_t)driver->driver);
 8008d2e:	6802      	ldr	r2, [r0, #0]
{
 8008d30:	4606      	mov	r6, r0
    chprintf(chp, "\tDriver: HAL (MM 0x%08x)"SHELL_NEWLINE_STR, (uint32_t)driver->driver);
 8008d32:	4915      	ldr	r1, [pc, #84]	; (8008d88 <gpioCPUStatus+0x60>)
 8008d34:	4628      	mov	r0, r5
 8008d36:	f7ff fd18 	bl	800876a <chprintf>
 8008d3a:	2400      	movs	r4, #0
    uint8_t mode = gpioCPUGetPinMode(driver, pin);
 8008d3c:	f8df 804c 	ldr.w	r8, [pc, #76]	; 8008d8c <gpioCPUStatus+0x64>
 8008d40:	f8df 904c 	ldr.w	r9, [pc, #76]	; 8008d90 <gpioCPUStatus+0x68>
        printfFixed(chp, 32, "\tPin %u (%s):",
 8008d44:	4f13      	ldr	r7, [pc, #76]	; (8008d94 <gpioCPUStatus+0x6c>)
    uint8_t mode = gpioCPUGetPinMode(driver, pin);
 8008d46:	4621      	mov	r1, r4
 8008d48:	4630      	mov	r0, r6
 8008d4a:	f7fc fa89 	bl	8005260 <gpioCPUGetPinMode>
    switch(mode) {
 8008d4e:	1e43      	subs	r3, r0, #1
 8008d50:	b2db      	uxtb	r3, r3
 8008d52:	2b10      	cmp	r3, #16
    uint8_t mode = gpioCPUGetPinMode(driver, pin);
 8008d54:	bf8c      	ite	hi
 8008d56:	4643      	movhi	r3, r8
 8008d58:	f859 3023 	ldrls.w	r3, [r9, r3, lsl #2]
        printfFixed(chp, 32, "\tPin %u (%s):",
 8008d5c:	463a      	mov	r2, r7
 8008d5e:	2120      	movs	r1, #32
 8008d60:	9300      	str	r3, [sp, #0]
 8008d62:	4628      	mov	r0, r5
 8008d64:	4623      	mov	r3, r4
 8008d66:	f7ff fea9 	bl	8008abc <printfFixed>
        chprintf(chp,  "%u"SHELL_NEWLINE_STR, palReadPad((ioportid_t)driver->driver, i));
 8008d6a:	6833      	ldr	r3, [r6, #0]
 8008d6c:	4628      	mov	r0, r5
 8008d6e:	689a      	ldr	r2, [r3, #8]
 8008d70:	4909      	ldr	r1, [pc, #36]	; (8008d98 <gpioCPUStatus+0x70>)
 8008d72:	40e2      	lsrs	r2, r4
 8008d74:	f002 0201 	and.w	r2, r2, #1
    for(uint8_t i=0; i<16; i++) {
 8008d78:	3401      	adds	r4, #1
        chprintf(chp,  "%u"SHELL_NEWLINE_STR, palReadPad((ioportid_t)driver->driver, i));
 8008d7a:	f7ff fcf6 	bl	800876a <chprintf>
    for(uint8_t i=0; i<16; i++) {
 8008d7e:	2c10      	cmp	r4, #16
 8008d80:	d1e1      	bne.n	8008d46 <gpioCPUStatus+0x1e>
}
 8008d82:	b003      	add	sp, #12
 8008d84:	e8bd 83f0 	ldmia.w	sp!, {r4, r5, r6, r7, r8, r9, pc}
 8008d88:	0800bfa7 	.word	0x0800bfa7
 8008d8c:	0800bad2 	.word	0x0800bad2
 8008d90:	0800c818 	.word	0x0800c818
 8008d94:	0800bfc2 	.word	0x0800bfc2
 8008d98:	0800c1a9 	.word	0x0800c1a9

08008d9c <syslog>:
};
static const BaseSequentialStream syslogStream = {.vmt = &syslogVMT};


void syslog(const char *format, ...)
{
 8008d9c:	b40f      	push	{r0, r1, r2, r3}
 8008d9e:	b573      	push	{r0, r1, r4, r5, r6, lr}
    va_list args;
    va_start(args, format);

    xSemaphoreTake(syslogSemaphore, portMAX_DELAY);
 8008da0:	4d16      	ldr	r5, [pc, #88]	; (8008dfc <syslog+0x60>)
{
 8008da2:	ab06      	add	r3, sp, #24
 8008da4:	f853 6b04 	ldr.w	r6, [r3], #4
    queue->lenHeaderStart = queue->writePtr;
 8008da8:	4c15      	ldr	r4, [pc, #84]	; (8008e00 <syslog+0x64>)
    xSemaphoreTake(syslogSemaphore, portMAX_DELAY);
 8008daa:	f04f 31ff 	mov.w	r1, #4294967295	; 0xffffffff
 8008dae:	6828      	ldr	r0, [r5, #0]
    va_start(args, format);
 8008db0:	9301      	str	r3, [sp, #4]
    xSemaphoreTake(syslogSemaphore, portMAX_DELAY);
 8008db2:	f7fc ff1f 	bl	8005bf4 <xQueueSemaphoreTake>
 8008db6:	6923      	ldr	r3, [r4, #16]
    packetQueueWriteByte(queue, 0x00);
 8008db8:	2000      	movs	r0, #0
    queue->lenHeaderStart = queue->writePtr;
 8008dba:	61e3      	str	r3, [r4, #28]
    packetQueueWriteByte(queue, 0x00);
 8008dbc:	f7fd f8e4 	bl	8005f88 <packetQueueWriteByte.constprop.0>
    packetQueueWriteByte(queue, 0x00);
 8008dc0:	2000      	movs	r0, #0
 8008dc2:	f7fd f8e1 	bl	8005f88 <packetQueueWriteByte.constprop.0>
    queue->pktLen = 0;
 8008dc6:	2300      	movs	r3, #0
 8008dc8:	61a3      	str	r3, [r4, #24]
 8008dca:	f7fc faa1 	bl	8005310 <vPortValidateInterruptPriority>
    packetQueueStartWritePacket(&syslogQueue);
    chprintf((BaseSequentialStream*)&syslogStream, "[%-11u] ", osalOsGetSystemTimeX());
 8008dce:	4c0d      	ldr	r4, [pc, #52]	; (8008e04 <syslog+0x68>)
 8008dd0:	4b0d      	ldr	r3, [pc, #52]	; (8008e08 <syslog+0x6c>)
 8008dd2:	4620      	mov	r0, r4
 8008dd4:	681a      	ldr	r2, [r3, #0]
 8008dd6:	490d      	ldr	r1, [pc, #52]	; (8008e0c <syslog+0x70>)
 8008dd8:	f7ff fcc7 	bl	800876a <chprintf>
    chvprintf((BaseSequentialStream*)&syslogStream, format, args);
 8008ddc:	4631      	mov	r1, r6
 8008dde:	9a01      	ldr	r2, [sp, #4]
 8008de0:	4620      	mov	r0, r4
 8008de2:	f7fd fe8d 	bl	8006b00 <chvprintf>
    packetQueueEndWritePacket(&syslogQueue);
 8008de6:	f7fd f923 	bl	8006030 <packetQueueEndWritePacket.constprop.0>
    xSemaphoreGive(syslogSemaphore);
 8008dea:	6828      	ldr	r0, [r5, #0]
 8008dec:	f7ff fb58 	bl	80084a0 <xQueueGenericSend.constprop.0>

    va_end(args);
}
 8008df0:	b002      	add	sp, #8
 8008df2:	e8bd 4070 	ldmia.w	sp!, {r4, r5, r6, lr}
 8008df6:	b004      	add	sp, #16
 8008df8:	4770      	bx	lr
 8008dfa:	bf00      	nop
 8008dfc:	20001334 	.word	0x20001334
 8008e00:	20001310 	.word	0x20001310
 8008e04:	0800cbd8 	.word	0x0800cbd8
 8008e08:	20001648 	.word	0x20001648
 8008e0c:	0800bfd0 	.word	0x0800bfd0

08008e10 <shellTerminationCallback>:
 8008e10:	4b0e      	ldr	r3, [pc, #56]	; (8008e4c <shellTerminationCallback+0x3c>)
{
 8008e12:	b570      	push	{r4, r5, r6, lr}
 8008e14:	681b      	ldr	r3, [r3, #0]
 8008e16:	6ddc      	ldr	r4, [r3, #92]	; 0x5c
    if(activeShell) {
 8008e18:	b1bc      	cbz	r4, 8008e4a <shellTerminationCallback+0x3a>
        if(activeShell->shellCfg.sc_histbuf) {
 8008e1a:	68e0      	ldr	r0, [r4, #12]
 8008e1c:	b108      	cbz	r0, 8008e22 <shellTerminationCallback+0x12>
            vPortFree(activeShell->shellCfg.sc_histbuf);
 8008e1e:	f7fc fd75 	bl	800590c <vPortFree>
        chprintf(activeShell->stream, "Shell 0x%08x closed.", activeShell);
 8008e22:	4622      	mov	r2, r4
 8008e24:	490a      	ldr	r1, [pc, #40]	; (8008e50 <shellTerminationCallback+0x40>)
 8008e26:	6960      	ldr	r0, [r4, #20]
 8008e28:	f7ff fc9f 	bl	800876a <chprintf>
        syslog("Shell 0x%08x closed.", activeShell);
 8008e2c:	4808      	ldr	r0, [pc, #32]	; (8008e50 <shellTerminationCallback+0x40>)
 8008e2e:	4621      	mov	r1, r4
 8008e30:	f7ff ffb4 	bl	8008d9c <syslog>
        void *param = activeShell->param;
 8008e34:	e9d4 5606 	ldrd	r5, r6, [r4, #24]
        vPortFree(activeShell);
 8008e38:	4620      	mov	r0, r4
 8008e3a:	f7fc fd67 	bl	800590c <vPortFree>
        if(callback) {
 8008e3e:	b125      	cbz	r5, 8008e4a <shellTerminationCallback+0x3a>
            callback(param);
 8008e40:	4630      	mov	r0, r6
 8008e42:	462b      	mov	r3, r5
}
 8008e44:	e8bd 4070 	ldmia.w	sp!, {r4, r5, r6, lr}
            callback(param);
 8008e48:	4718      	bx	r3
}
 8008e4a:	bd70      	pop	{r4, r5, r6, pc}
 8008e4c:	200011a8 	.word	0x200011a8
 8008e50:	0800bfd9 	.word	0x0800bfd9
 8008e54:	00000000 	.word	0x00000000

08008e58 <max2870TuneNoLock>:
{
 8008e58:	e92d 4ff0 	stmdb	sp!, {r4, r5, r6, r7, r8, r9, sl, fp, lr}
 8008e5c:	460c      	mov	r4, r1
 8008e5e:	b08b      	sub	sp, #44	; 0x2c
 8008e60:	4605      	mov	r5, r0
    uint32_t registers[6] = {};
 8008e62:	2218      	movs	r2, #24
 8008e64:	2100      	movs	r1, #0
 8008e66:	a804      	add	r0, sp, #16
 8008e68:	f002 fcdc 	bl	800b824 <memset>
    uint64_t frequency = tune->frequency;
 8008e6c:	e9d4 6800 	ldrd	r6, r8, [r4]
    if(frequency == 0) {
 8008e70:	ea56 0308 	orrs.w	r3, r6, r8
 8008e74:	d107      	bne.n	8008e86 <max2870TuneNoLock+0x2e>
        max2870Disable(driver);
 8008e76:	4628      	mov	r0, r5
 8008e78:	f7ff fad8 	bl	800842c <max2870Disable>
        return TUNE_OK;
 8008e7c:	2700      	movs	r7, #0
}
 8008e7e:	4638      	mov	r0, r7
 8008e80:	b00b      	add	sp, #44	; 0x2c
 8008e82:	e8bd 8ff0 	ldmia.w	sp!, {r4, r5, r6, r7, r8, r9, sl, fp, pc}
    if(frequency > MAX2870_VCO_MAX_FREQUENCY || frequency < MAX2870_VCO_MIN_FREQUENCY/128) {
 8008e86:	4bae      	ldr	r3, [pc, #696]	; (8009140 <max2870TuneNoLock+0x2e8>)
 8008e88:	49ae      	ldr	r1, [pc, #696]	; (8009144 <max2870TuneNoLock+0x2ec>)
 8008e8a:	18f3      	adds	r3, r6, r3
 8008e8c:	f168 0200 	sbc.w	r2, r8, #0
 8008e90:	4299      	cmp	r1, r3
 8008e92:	f04f 0301 	mov.w	r3, #1
 8008e96:	4193      	sbcs	r3, r2
 8008e98:	f0c0 81c5 	bcc.w	8009226 <max2870TuneNoLock+0x3ce>
 8008e9c:	2700      	movs	r7, #0
    while(frequency < MAX2870_VCO_MIN_FREQUENCY) {
 8008e9e:	463b      	mov	r3, r7
 8008ea0:	4aa9      	ldr	r2, [pc, #676]	; (8009148 <max2870TuneNoLock+0x2f0>)
 8008ea2:	42b2      	cmp	r2, r6
 8008ea4:	eb73 0008 	sbcs.w	r0, r3, r8
 8008ea8:	f107 0101 	add.w	r1, r7, #1
 8008eac:	f080 80fd 	bcs.w	80090aa <max2870TuneNoLock+0x252>
    uint32_t steps = frequency / driver->config->stepFrequency;
 8008eb0:	f8d5 a000 	ldr.w	sl, [r5]
 8008eb4:	2300      	movs	r3, #0
 8008eb6:	f8da 2018 	ldr.w	r2, [sl, #24]
 8008eba:	4630      	mov	r0, r6
 8008ebc:	4641      	mov	r1, r8
 8008ebe:	f7fa fc85 	bl	80037cc <__aeabi_uldivmod>
    uint32_t pllN = steps / driver->fracDivider;
 8008ec2:	f8b5 90bc 	ldrh.w	r9, [r5, #188]	; 0xbc
    if(pllN < 16 || pllN > 4091) {
 8008ec6:	f640 73eb 	movw	r3, #4075	; 0xfeb
    uint32_t pllN = steps / driver->fracDivider;
 8008eca:	fbb0 f1f9 	udiv	r1, r0, r9
    if(pllN < 16 || pllN > 4091) {
 8008ece:	f1a1 0c10 	sub.w	ip, r1, #16
 8008ed2:	459c      	cmp	ip, r3
    uint32_t pllN = steps / driver->fracDivider;
 8008ed4:	464a      	mov	r2, r9
    uint32_t steps = frequency / driver->config->stepFrequency;
 8008ed6:	9001      	str	r0, [sp, #4]
    if(pllN < 16 || pllN > 4091) {
 8008ed8:	f200 81a8 	bhi.w	800922c <max2870TuneNoLock+0x3d4>
    uint16_t pllFracF = steps - (pllN * driver->fracDivider);
 8008edc:	fb01 0019 	mls	r0, r1, r9, r0
 8008ee0:	b280      	uxth	r0, r0
    if(pllFracF) {
 8008ee2:	2800      	cmp	r0, #0
 8008ee4:	f000 80ef 	beq.w	80090c6 <max2870TuneNoLock+0x26e>
        uint16_t pllFracGcd = gcd(pllFracF, pllFracM);
 8008ee8:	4603      	mov	r3, r0
    if (v == 0) return u;
 8008eea:	f1b9 0f00 	cmp.w	r9, #0
 8008eee:	d018      	beq.n	8008f22 <max2870TuneNoLock+0xca>
    for (shift = 0; ((u | v) & 1) == 0; ++shift) {
 8008ef0:	f04f 0c00 	mov.w	ip, #0
 8008ef4:	ea43 0e02 	orr.w	lr, r3, r2
 8008ef8:	f01e 0f01 	tst.w	lr, #1
 8008efc:	f000 80da 	beq.w	80090b4 <max2870TuneNoLock+0x25c>
    while ((u & 1) == 0) {
 8008f00:	f013 0f01 	tst.w	r3, #1
 8008f04:	f000 80db 	beq.w	80090be <max2870TuneNoLock+0x266>
        while ((v & 1) == 0) {
 8008f08:	f012 0f01 	tst.w	r2, #1
 8008f0c:	f000 80d9 	beq.w	80090c2 <max2870TuneNoLock+0x26a>
        if (u > v) {
 8008f10:	429a      	cmp	r2, r3
 8008f12:	bf3e      	ittt	cc
 8008f14:	469e      	movcc	lr, r3
 8008f16:	4613      	movcc	r3, r2
 8008f18:	4672      	movcc	r2, lr
    } while (v != 0);
 8008f1a:	1ad2      	subs	r2, r2, r3
 8008f1c:	d1f4      	bne.n	8008f08 <max2870TuneNoLock+0xb0>
    return u << shift;
 8008f1e:	fa03 f30c 	lsl.w	r3, r3, ip
 8008f22:	b29b      	uxth	r3, r3
        pllFracM /= pllFracGcd;
 8008f24:	fbb9 f9f3 	udiv	r9, r9, r3
        pllFracF /= pllFracGcd;
 8008f28:	fbb0 f0f3 	udiv	r0, r0, r3
        registers[1] |= _BV(MAX2870_REG1_CPL_OFFSET);
 8008f2c:	f04f 5300 	mov.w	r3, #536870912	; 0x20000000
 8008f30:	9305      	str	r3, [sp, #20]
    registers[0] |= pllN << MAX2870_REG0_N_OFFSET;
 8008f32:	9b04      	ldr	r3, [sp, #16]
    registers[2] |= driver->refDividerRegister2;
 8008f34:	f8d5 20c0 	ldr.w	r2, [r5, #192]	; 0xc0
    registers[0] |= pllN << MAX2870_REG0_N_OFFSET;
 8008f38:	ea43 33c1 	orr.w	r3, r3, r1, lsl #15
    registers[0] |= pllFracF << MAX2870_REG0_FRAC_OFFSET;
 8008f3c:	ea43 00c0 	orr.w	r0, r3, r0, lsl #3
    registers[1] |= pllFracM << MAX2870_REG1_M_OFFSET;
 8008f40:	9b05      	ldr	r3, [sp, #20]
    registers[4] |= outDivide << MAX2870_REG4_DIVA_OFFSET;
 8008f42:	b2ff      	uxtb	r7, r7
    registers[1] |= pllFracM << MAX2870_REG1_M_OFFSET;
 8008f44:	ea43 03c9 	orr.w	r3, r3, r9, lsl #3
 8008f48:	f443 4300 	orr.w	r3, r3, #32768	; 0x8000
 8008f4c:	9305      	str	r3, [sp, #20]
    registers[2] |= driver->refDividerRegister2;
 8008f4e:	9b06      	ldr	r3, [sp, #24]
    registers[4] |= outDivide << MAX2870_REG4_DIVA_OFFSET;
 8008f50:	ea4f 5b07 	mov.w	fp, r7, lsl #20
    registers[2] |= driver->refDividerRegister2;
 8008f54:	4313      	orrs	r3, r2
    registers[2] |= 0x6 <<  MAX2870_REG2_MUX_OFFSET;
 8008f56:	f043 52c0 	orr.w	r2, r3, #402653184	; 0x18000000
 8008f5a:	9206      	str	r2, [sp, #24]
    if(!driver->config->invertingLoopFilter) {
 8008f5c:	f89a 200a 	ldrb.w	r2, [sl, #10]
    registers[0] |= pllFracF << MAX2870_REG0_FRAC_OFFSET;
 8008f60:	9004      	str	r0, [sp, #16]
    registers[4] |= outDivide << MAX2870_REG4_DIVA_OFFSET;
 8008f62:	f8cd b020 	str.w	fp, [sp, #32]
    if(!driver->config->invertingLoopFilter) {
 8008f66:	b922      	cbnz	r2, 8008f72 <max2870TuneNoLock+0x11a>
        registers[2] |= _BV(MAX2870_REG2_PDP_OFFSET);
 8008f68:	f043 53c0 	orr.w	r3, r3, #402653184	; 0x18000000
 8008f6c:	f043 0340 	orr.w	r3, r3, #64	; 0x40
 8008f70:	9306      	str	r3, [sp, #24]
    registers[2] |= driver->config->chargePumpCurrent << MAX2870_REG2_CP_OFFSET;
 8008f72:	f89a 200b 	ldrb.w	r2, [sl, #11]
    registers[2] |= driver->config->spurMode << MAX2870_REG2_SDN_OFFSET;
 8008f76:	f89a 100c 	ldrb.w	r1, [sl, #12]
    registers[2] |= driver->config->chargePumpCurrent << MAX2870_REG2_CP_OFFSET;
 8008f7a:	0253      	lsls	r3, r2, #9
    registers[2] |= driver->config->spurMode << MAX2870_REG2_SDN_OFFSET;
 8008f7c:	ea43 7341 	orr.w	r3, r3, r1, lsl #29
 8008f80:	9906      	ldr	r1, [sp, #24]
    if(driver->pfdFrequency > 32000000) {
 8008f82:	4872      	ldr	r0, [pc, #456]	; (800914c <max2870TuneNoLock+0x2f4>)
    registers[2] |= driver->config->spurMode << MAX2870_REG2_SDN_OFFSET;
 8008f84:	430b      	orrs	r3, r1
    if(driver->pfdFrequency > 32000000) {
 8008f86:	f8d5 10b8 	ldr.w	r1, [r5, #184]	; 0xb8
    registers[2] |= driver->config->spurMode << MAX2870_REG2_SDN_OFFSET;
 8008f8a:	9306      	str	r3, [sp, #24]
    if(driver->pfdFrequency > 32000000) {
 8008f8c:	4281      	cmp	r1, r0
    if(tune->fastLockDurationMicroseconds) {
 8008f8e:	68e0      	ldr	r0, [r4, #12]
        registers[2] |= _BV(MAX2870_REG2_LDS_OFFSET);
 8008f90:	bf84      	itt	hi
 8008f92:	f043 4300 	orrhi.w	r3, r3, #2147483648	; 0x80000000
 8008f96:	9306      	strhi	r3, [sp, #24]
    if(tune->fastLockDurationMicroseconds) {
 8008f98:	b1a0      	cbz	r0, 8008fc4 <max2870TuneNoLock+0x16c>
        if(driver->config->chargePumpCurrent) {
 8008f9a:	2a00      	cmp	r2, #0
 8008f9c:	f040 8149 	bne.w	8009232 <max2870TuneNoLock+0x3da>
        uint32_t tmp = (uint64_t)driver->pfdFrequency * (uint64_t)tune->fastLockDurationMicroseconds / 1000000;
 8008fa0:	2300      	movs	r3, #0
 8008fa2:	fba1 0100 	umull	r0, r1, r1, r0
 8008fa6:	4a6a      	ldr	r2, [pc, #424]	; (8009150 <max2870TuneNoLock+0x2f8>)
 8008fa8:	f7fa fc10 	bl	80037cc <__aeabi_uldivmod>
        tmp /= pllFracM;
 8008fac:	fbb0 f3f9 	udiv	r3, r0, r9
        if(tmp>4095) {
 8008fb0:	f5b3 5f80 	cmp.w	r3, #4096	; 0x1000
 8008fb4:	f080 808f 	bcs.w	80090d6 <max2870TuneNoLock+0x27e>
        if(tmp) {
 8008fb8:	4581      	cmp	r9, r0
 8008fba:	d803      	bhi.n	8008fc4 <max2870TuneNoLock+0x16c>
            registers[3] |= tmp << MAX2870_REG3_CDIV_OFFSET;
 8008fbc:	00db      	lsls	r3, r3, #3
 8008fbe:	f443 4300 	orr.w	r3, r3, #32768	; 0x8000
 8008fc2:	9307      	str	r3, [sp, #28]
    if(!tune->outBfundamental) {
 8008fc4:	7aa3      	ldrb	r3, [r4, #10]
 8008fc6:	b913      	cbnz	r3, 8008fce <max2870TuneNoLock+0x176>
        registers[4] |= _BV(MAX2870_REG4_BDIV_OFFSET);
 8008fc8:	f44b 7300 	orr.w	r3, fp, #512	; 0x200
 8008fcc:	9308      	str	r3, [sp, #32]
    registers[4] |= (driver->bsValue & 0xFF) << MAX2870_REG4_BS_OFFSET;
 8008fce:	f8b5 20c4 	ldrh.w	r2, [r5, #196]	; 0xc4
    uint16_t vcoIndex = (frequency - MAX2870_VCO_MIN_FREQUENCY) / MAX2870_VCO_INCREMENT;
 8008fd2:	4860      	ldr	r0, [pc, #384]	; (8009154 <max2870TuneNoLock+0x2fc>)
    registers[4] |= (driver->bsValue & 0xFF) << MAX2870_REG4_BS_OFFSET;
 8008fd4:	0313      	lsls	r3, r2, #12
 8008fd6:	f403 237f 	and.w	r3, r3, #1044480	; 0xff000
    registers[4] |= (driver->bsValue >> 8) << MAX2870_REG4_BS_MSB_OFFSET;
 8008fda:	0a12      	lsrs	r2, r2, #8
 8008fdc:	ea43 6302 	orr.w	r3, r3, r2, lsl #24
 8008fe0:	9a08      	ldr	r2, [sp, #32]
    uint16_t vcoIndex = (frequency - MAX2870_VCO_MIN_FREQUENCY) / MAX2870_VCO_INCREMENT;
 8008fe2:	1830      	adds	r0, r6, r0
    registers[4] |= (driver->bsValue >> 8) << MAX2870_REG4_BS_MSB_OFFSET;
 8008fe4:	ea43 0302 	orr.w	r3, r3, r2
    registers[4] |= _BV(MAX2870_REG4_FB_OFFSET);
 8008fe8:	f443 0300 	orr.w	r3, r3, #8388608	; 0x800000
 8008fec:	9308      	str	r3, [sp, #32]
    uint16_t vcoIndex = (frequency - MAX2870_VCO_MIN_FREQUENCY) / MAX2870_VCO_INCREMENT;
 8008fee:	f168 0100 	sbc.w	r1, r8, #0
 8008ff2:	a351      	add	r3, pc, #324	; (adr r3, 8009138 <max2870TuneNoLock+0x2e0>)
 8008ff4:	e9d3 2300 	ldrd	r2, r3, [r3]
 8008ff8:	f7fa fbe8 	bl	80037cc <__aeabi_uldivmod>
    if((driver->vcoCache[vcoIndex] & 0x80) && !tune->useVCOAutotune) {
 8008ffc:	eb05 0900 	add.w	r9, r5, r0
 8009000:	f999 3020 	ldrsb.w	r3, [r9, #32]
 8009004:	f899 2020 	ldrb.w	r2, [r9, #32]
 8009008:	2b00      	cmp	r3, #0
 800900a:	da67      	bge.n	80090dc <max2870TuneNoLock+0x284>
 800900c:	7c26      	ldrb	r6, [r4, #16]
 800900e:	b92e      	cbnz	r6, 800901c <max2870TuneNoLock+0x1c4>
        registers[3] |= (driver->vcoCache[vcoIndex] & 0x3F) << MAX2870_REG3_VCO_OFFSET;
 8009010:	9b07      	ldr	r3, [sp, #28]
 8009012:	ea43 6382 	orr.w	r3, r3, r2, lsl #26
        registers[3] |= _BV(MAX2870_REG3_VAS_SHDN_OFFSET);
 8009016:	f043 7300 	orr.w	r3, r3, #33554432	; 0x2000000
 800901a:	9307      	str	r3, [sp, #28]
    if(!driver->enabled) {
 800901c:	792b      	ldrb	r3, [r5, #4]
 800901e:	b99b      	cbnz	r3, 8009048 <max2870TuneNoLock+0x1f0>
        if(driver->config->gpioChipEnable != 0xffff) {
 8009020:	f64f 73ff 	movw	r3, #65535	; 0xffff
 8009024:	f8ba 0008 	ldrh.w	r0, [sl, #8]
 8009028:	4298      	cmp	r0, r3
 800902a:	d005      	beq.n	8009038 <max2870TuneNoLock+0x1e0>
            gpioSetPin(driver->config->gpioChipEnable, true);
 800902c:	2101      	movs	r1, #1
 800902e:	f7fe fa87 	bl	8007540 <gpioSetPin.isra.0>
            osalThreadSleepMilliseconds(20);
 8009032:	2014      	movs	r0, #20
 8009034:	f7fc ff66 	bl	8005f04 <vTaskDelay>
        max2870WriteAllRegisters(driver, registers, true);
 8009038:	4628      	mov	r0, r5
 800903a:	2201      	movs	r2, #1
 800903c:	a904      	add	r1, sp, #16
 800903e:	f7ff fa0f 	bl	8008460 <max2870WriteAllRegisters.isra.0>
        osalThreadSleepMilliseconds(20);
 8009042:	2014      	movs	r0, #20
 8009044:	f7fc ff5e 	bl	8005f04 <vTaskDelay>
        *power = -4;
 8009048:	f04f 0afc 	mov.w	sl, #252	; 0xfc
        *power = 2;
 800904c:	f04f 0b02 	mov.w	fp, #2
    if(*power < -4) {
 8009050:	f994 3008 	ldrsb.w	r3, [r4, #8]
 8009054:	1d18      	adds	r0, r3, #4
 8009056:	da43      	bge.n	80090e0 <max2870TuneNoLock+0x288>
        *power = -127;
 8009058:	2381      	movs	r3, #129	; 0x81
        return registerValue;
 800905a:	2200      	movs	r2, #0
        *power = -127;
 800905c:	7223      	strb	r3, [r4, #8]
        registers[4] |= max2870PowerToRegister(&tune->powerA) << MAX2870_REG4_APWR_OFFSET;
 800905e:	9b08      	ldr	r3, [sp, #32]
 8009060:	ea43 03c2 	orr.w	r3, r3, r2, lsl #3
    if(*power < -4) {
 8009064:	f994 2009 	ldrsb.w	r2, [r4, #9]
 8009068:	1d11      	adds	r1, r2, #4
 800906a:	da4f      	bge.n	800910c <max2870TuneNoLock+0x2b4>
        *power = -127;
 800906c:	2281      	movs	r2, #129	; 0x81
 800906e:	7262      	strb	r2, [r4, #9]
        return registerValue;
 8009070:	2200      	movs	r2, #0
        registers[4] |= max2870PowerToRegister(&tune->powerB) << MAX2870_REG4_BPWR_OFFSET;
 8009072:	ea43 1382 	orr.w	r3, r3, r2, lsl #6
 8009076:	9308      	str	r3, [sp, #32]
        if(driver->pllMonReloadCounter >= 20) {
 8009078:	f895 30e4 	ldrb.w	r3, [r5, #228]	; 0xe4
            max2870WriteAllRegisters(driver, registers, !driver->enabled);
 800907c:	4628      	mov	r0, r5
        if(driver->pllMonReloadCounter >= 20) {
 800907e:	2b13      	cmp	r3, #19
            driver->pllMonReloadCounter = 0;
 8009080:	bf89      	itett	hi
 8009082:	2300      	movhi	r3, #0
            max2870WriteAllRegisters(driver, registers, !driver->enabled);
 8009084:	792a      	ldrbls	r2, [r5, #4]
            max2870WriteAllRegisters(driver, registers, true);
 8009086:	2201      	movhi	r2, #1
            driver->pllMonReloadCounter = 0;
 8009088:	f885 30e4 	strbhi.w	r3, [r5, #228]	; 0xe4
            max2870WriteAllRegisters(driver, registers, !driver->enabled);
 800908c:	bf98      	it	ls
 800908e:	f082 0201 	eorls.w	r2, r2, #1
 8009092:	a904      	add	r1, sp, #16
 8009094:	f7ff f9e4 	bl	8008460 <max2870WriteAllRegisters.isra.0>
    registerValue = _BV(2); /* Output enabled */
 8009098:	f04f 0800 	mov.w	r8, #0
            spiReceive(driver->config->spiPort, sizeof(lock), &lock);
 800909c:	682a      	ldr	r2, [r5, #0]
 800909e:	6810      	ldr	r0, [r2, #0]
  osalDbgCheck((spip != NULL) && (n > 0U) && (rxbuf != NULL));
 80090a0:	2800      	cmp	r0, #0
 80090a2:	d159      	bne.n	8009158 <max2870TuneNoLock+0x300>
 80090a4:	f7fb fb56 	bl	8004754 <vTaskEndScheduler>
 80090a8:	e7fe      	b.n	80090a8 <max2870TuneNoLock+0x250>
        frequency *= 2;
 80090aa:	19b6      	adds	r6, r6, r6
 80090ac:	460f      	mov	r7, r1
 80090ae:	eb48 0808 	adc.w	r8, r8, r8
        outDivide++;
 80090b2:	e6f6      	b.n	8008ea2 <max2870TuneNoLock+0x4a>
        u >>= 1;
 80090b4:	085b      	lsrs	r3, r3, #1
        v >>= 1;
 80090b6:	0852      	lsrs	r2, r2, #1
    for (shift = 0; ((u | v) & 1) == 0; ++shift) {
 80090b8:	f10c 0c01 	add.w	ip, ip, #1
 80090bc:	e71a      	b.n	8008ef4 <max2870TuneNoLock+0x9c>
        u >>= 1;
 80090be:	085b      	lsrs	r3, r3, #1
 80090c0:	e71e      	b.n	8008f00 <max2870TuneNoLock+0xa8>
            v >>= 1;
 80090c2:	0852      	lsrs	r2, r2, #1
 80090c4:	e720      	b.n	8008f08 <max2870TuneNoLock+0xb0>
        registers[0] |= _BV(MAX2870_REG0_INT_OFFSET);
 80090c6:	f04f 4300 	mov.w	r3, #2147483648	; 0x80000000
        registers[1] |= _BV(MAX2870_REG1_CPOC_OFFSET);
 80090ca:	e9cd 3304 	strd	r3, r3, [sp, #16]
        registers[2] |= _BV(MAX2870_REG2_LDF_OFFSET);
 80090ce:	f44f 7380 	mov.w	r3, #256	; 0x100
 80090d2:	9306      	str	r3, [sp, #24]
 80090d4:	e72d      	b.n	8008f32 <max2870TuneNoLock+0xda>
            tmp = 4095;
 80090d6:	f640 73ff 	movw	r3, #4095	; 0xfff
 80090da:	e76f      	b.n	8008fbc <max2870TuneNoLock+0x164>
    bool vcoAutoTune = true;
 80090dc:	2601      	movs	r6, #1
 80090de:	e79d      	b.n	800901c <max2870TuneNoLock+0x1c4>
    if(*power >= 5) {
 80090e0:	2b04      	cmp	r3, #4
 80090e2:	dd03      	ble.n	80090ec <max2870TuneNoLock+0x294>
        *power = 5;
 80090e4:	2305      	movs	r3, #5
        registerValue |= 3;
 80090e6:	2207      	movs	r2, #7
        *power = 5;
 80090e8:	7223      	strb	r3, [r4, #8]
        registerValue |= 3;
 80090ea:	e7b8      	b.n	800905e <max2870TuneNoLock+0x206>
    } else if(*power >= 2) {
 80090ec:	2b01      	cmp	r3, #1
 80090ee:	dd03      	ble.n	80090f8 <max2870TuneNoLock+0x2a0>
        registerValue |= 2;
 80090f0:	2206      	movs	r2, #6
        *power = 2;
 80090f2:	f884 b008 	strb.w	fp, [r4, #8]
        registerValue |= 2;
 80090f6:	e7b2      	b.n	800905e <max2870TuneNoLock+0x206>
    } else if(*power >= -1) {
 80090f8:	3301      	adds	r3, #1
        *power = -1;
 80090fa:	bfa5      	ittet	ge
 80090fc:	23ff      	movge	r3, #255	; 0xff
        registerValue |= 1;
 80090fe:	2205      	movge	r2, #5
    registerValue = _BV(2); /* Output enabled */
 8009100:	2204      	movlt	r2, #4
        *power = -1;
 8009102:	7223      	strbge	r3, [r4, #8]
        *power = -4;
 8009104:	bfb8      	it	lt
 8009106:	f884 a008 	strblt.w	sl, [r4, #8]
 800910a:	e7a8      	b.n	800905e <max2870TuneNoLock+0x206>
    if(*power >= 5) {
 800910c:	2a04      	cmp	r2, #4
 800910e:	dd03      	ble.n	8009118 <max2870TuneNoLock+0x2c0>
        *power = 5;
 8009110:	2205      	movs	r2, #5
 8009112:	7262      	strb	r2, [r4, #9]
        registerValue |= 3;
 8009114:	2207      	movs	r2, #7
 8009116:	e7ac      	b.n	8009072 <max2870TuneNoLock+0x21a>
    } else if(*power >= 2) {
 8009118:	2a01      	cmp	r2, #1
 800911a:	dd03      	ble.n	8009124 <max2870TuneNoLock+0x2cc>
        registerValue |= 2;
 800911c:	2206      	movs	r2, #6
        *power = 2;
 800911e:	f884 b009 	strb.w	fp, [r4, #9]
        registerValue |= 2;
 8009122:	e7a6      	b.n	8009072 <max2870TuneNoLock+0x21a>
    } else if(*power >= -1) {
 8009124:	3201      	adds	r2, #1
        *power = -1;
 8009126:	bfab      	itete	ge
 8009128:	22ff      	movge	r2, #255	; 0xff
    registerValue = _BV(2); /* Output enabled */
 800912a:	2204      	movlt	r2, #4
        *power = -1;
 800912c:	7262      	strbge	r2, [r4, #9]
        *power = -4;
 800912e:	f884 a009 	strblt.w	sl, [r4, #9]
        registerValue |= 1;
 8009132:	bfa8      	it	ge
 8009134:	2205      	movge	r2, #5
        *power = -4;
 8009136:	e79c      	b.n	8009072 <max2870TuneNoLock+0x21a>
 8009138:	01312d00 	.word	0x01312d00
 800913c:	00000000 	.word	0x00000000
 8009140:	fe9a5f44 	.word	0xfe9a5f44
 8009144:	643b1b44 	.word	0x643b1b44
 8009148:	b2d05dff 	.word	0xb2d05dff
 800914c:	01e84800 	.word	0x01e84800
 8009150:	000f4240 	.word	0x000f4240
 8009154:	4d2fa200 	.word	0x4d2fa200
 8009158:	2102      	movs	r1, #2
 800915a:	f10d 020e 	add.w	r2, sp, #14
 800915e:	f7fd fa61 	bl	8006624 <spiReceive.part.0>
            if(timeoutCnt == 255) {
 8009162:	f1b8 0fff 	cmp.w	r8, #255	; 0xff
 8009166:	f64f 73ff 	movw	r3, #65535	; 0xffff
 800916a:	d148      	bne.n	80091fe <max2870TuneNoLock+0x3a6>
                if(!vcoAutoTune) {
 800916c:	b9d6      	cbnz	r6, 80091a4 <max2870TuneNoLock+0x34c>
                    registers[3] &=~ _BV(MAX2870_REG3_VAS_SHDN_OFFSET);
 800916e:	9b07      	ldr	r3, [sp, #28]
    } while(lock != 0xFFFF);
 8009170:	f8bd 200e 	ldrh.w	r2, [sp, #14]
                    registers[3] &=~ _BV(MAX2870_REG3_VAS_SHDN_OFFSET);
 8009174:	f023 7300 	bic.w	r3, r3, #33554432	; 0x2000000
 8009178:	9307      	str	r3, [sp, #28]
    } while(lock != 0xFFFF);
 800917a:	f64f 73ff 	movw	r3, #65535	; 0xffff
 800917e:	429a      	cmp	r2, r3
                    driver->vcoCache[vcoIndex] = 0;
 8009180:	f889 6020 	strb.w	r6, [r9, #32]
                    vcoAutoTune = true;
 8009184:	f04f 0601 	mov.w	r6, #1
    } while(lock != 0xFFFF);
 8009188:	f47f af62 	bne.w	8009050 <max2870TuneNoLock+0x1f8>
    for(int i=0; i<outDivide; i++) {
 800918c:	2100      	movs	r1, #0
    tune->frequency = ((uint64_t)steps * (uint64_t)driver->config->stepFrequency);
 800918e:	682b      	ldr	r3, [r5, #0]
 8009190:	9a01      	ldr	r2, [sp, #4]
 8009192:	699b      	ldr	r3, [r3, #24]
 8009194:	fba3 2302 	umull	r2, r3, r3, r2
 8009198:	e9c4 2300 	strd	r2, r3, [r4]
    for(int i=0; i<outDivide; i++) {
 800919c:	428f      	cmp	r7, r1
 800919e:	dc38      	bgt.n	8009212 <max2870TuneNoLock+0x3ba>
    MAX2870TuneResult result = TUNE_OK;
 80091a0:	2700      	movs	r7, #0
 80091a2:	e004      	b.n	80091ae <max2870TuneNoLock+0x356>
                    syslog("MAX2870 Tuning failed.");
 80091a4:	4824      	ldr	r0, [pc, #144]	; (8009238 <max2870TuneNoLock+0x3e0>)
 80091a6:	f7ff fdf9 	bl	8008d9c <syslog>
                    result = TUNE_NOT_LOCKED;
 80091aa:	f06f 0703 	mvn.w	r7, #3
    reg6 = max2870ReadRegister6(driver);
 80091ae:	4628      	mov	r0, r5
 80091b0:	f7ff f8e8 	bl	8008384 <max2870ReadRegister6>
    if(vcoAutoTune && result==TUNE_OK) {
 80091b4:	0843      	lsrs	r3, r0, #1
 80091b6:	b136      	cbz	r6, 80091c6 <max2870TuneNoLock+0x36e>
 80091b8:	b92f      	cbnz	r7, 80091c6 <max2870TuneNoLock+0x36e>
        driver->vcoCache[vcoIndex] = 0x80 | ((reg6 >> MAX2870_REG6_V_OFFSET) & 0x3F);
 80091ba:	f003 023f 	and.w	r2, r3, #63	; 0x3f
 80091be:	f062 027f 	orn	r2, r2, #127	; 0x7f
 80091c2:	f889 2020 	strb.w	r2, [r9, #32]
    tune->adcVoltage = (reg6 >>MAX2870_REG6_ADC_OFFSET) & 7;
 80091c6:	f3c0 4082 	ubfx	r0, r0, #18, #3
 80091ca:	74a0      	strb	r0, [r4, #18]
    tune->isLocked = (result == TUNE_OK);
 80091cc:	fab7 f087 	clz	r0, r7
    tune->usedVCO = (reg6 >> MAX2870_REG6_V_OFFSET) & 0x3F;
 80091d0:	f003 033f 	and.w	r3, r3, #63	; 0x3f
 80091d4:	7463      	strb	r3, [r4, #17]
    tune->lockTime = timeoutCnt;
 80091d6:	f884 8013 	strb.w	r8, [r4, #19]
    if(driver->config->lockStatus) {
 80091da:	682b      	ldr	r3, [r5, #0]
    tune->isLocked = (result == TUNE_OK);
 80091dc:	0940      	lsrs	r0, r0, #5
    if(driver->config->lockStatus) {
 80091de:	69db      	ldr	r3, [r3, #28]
    tune->usedVCOAutotune = vcoAutoTune;
 80091e0:	7566      	strb	r6, [r4, #21]
    tune->isLocked = (result == TUNE_OK);
 80091e2:	7520      	strb	r0, [r4, #20]
    if(driver->config->lockStatus) {
 80091e4:	b103      	cbz	r3, 80091e8 <max2870TuneNoLock+0x390>
        driver->config->lockStatus(tune->isLocked);
 80091e6:	4798      	blx	r3
    driver->enabled = true;
 80091e8:	2301      	movs	r3, #1
    driver->currentTune = *tune;
 80091ea:	3508      	adds	r5, #8
    driver->enabled = true;
 80091ec:	f805 3c04 	strb.w	r3, [r5, #-4]
    driver->currentTune = *tune;
 80091f0:	cc0f      	ldmia	r4!, {r0, r1, r2, r3}
 80091f2:	c50f      	stmia	r5!, {r0, r1, r2, r3}
 80091f4:	e894 0003 	ldmia.w	r4, {r0, r1}
 80091f8:	e885 0003 	stmia.w	r5, {r0, r1}
    return result;
 80091fc:	e63f      	b.n	8008e7e <max2870TuneNoLock+0x26>
        } while(lock != 0xFFFF);
 80091fe:	f8bd 200e 	ldrh.w	r2, [sp, #14]
            timeoutCnt++;
 8009202:	f108 0801 	add.w	r8, r8, #1
        } while(lock != 0xFFFF);
 8009206:	429a      	cmp	r2, r3
            timeoutCnt++;
 8009208:	fa5f f888 	uxtb.w	r8, r8
        } while(lock != 0xFFFF);
 800920c:	f47f af46 	bne.w	800909c <max2870TuneNoLock+0x244>
 8009210:	e7bc      	b.n	800918c <max2870TuneNoLock+0x334>
        tune->frequency /= 2;
 8009212:	e9d4 3200 	ldrd	r3, r2, [r4]
 8009216:	085b      	lsrs	r3, r3, #1
 8009218:	ea43 73c2 	orr.w	r3, r3, r2, lsl #31
 800921c:	0852      	lsrs	r2, r2, #1
 800921e:	e9c4 3200 	strd	r3, r2, [r4]
    for(int i=0; i<outDivide; i++) {
 8009222:	3101      	adds	r1, #1
 8009224:	e7ba      	b.n	800919c <max2870TuneNoLock+0x344>
        return TUNE_FREQUENCY_OUT_OF_RANGE;
 8009226:	f04f 37ff 	mov.w	r7, #4294967295	; 0xffffffff
 800922a:	e628      	b.n	8008e7e <max2870TuneNoLock+0x26>
        return TUNE_PLL_N_OUT_OF_RANGE;
 800922c:	f06f 0701 	mvn.w	r7, #1
 8009230:	e625      	b.n	8008e7e <max2870TuneNoLock+0x26>
            return TUNE_CANT_FASTLOCK;
 8009232:	f06f 0702 	mvn.w	r7, #2
 8009236:	e622      	b.n	8008e7e <max2870TuneNoLock+0x26>
 8009238:	0800bfee 	.word	0x0800bfee

0800923c <max2870DoMonitorTask>:
{
 800923c:	b538      	push	{r3, r4, r5, lr}
 800923e:	4604      	mov	r4, r0
    max2870SpiState(driver, true);
 8009240:	f7fe ff80 	bl	8008144 <max2870SpiState.constprop.0>
    if(driver->enabled) {
 8009244:	7925      	ldrb	r5, [r4, #4]
 8009246:	b165      	cbz	r5, 8009262 <max2870DoMonitorTask+0x26>
        if(driver->pllMonReloadCounter >= 29) {
 8009248:	f894 30e4 	ldrb.w	r3, [r4, #228]	; 0xe4
 800924c:	2b1c      	cmp	r3, #28
 800924e:	d90d      	bls.n	800926c <max2870DoMonitorTask+0x30>
            max2870WriteAllRegisters(driver, driver->registers, true);
 8009250:	2201      	movs	r2, #1
 8009252:	4620      	mov	r0, r4
 8009254:	f104 01c8 	add.w	r1, r4, #200	; 0xc8
 8009258:	f7ff f902 	bl	8008460 <max2870WriteAllRegisters.isra.0>
            driver->pllMonReloadCounter = 0;
 800925c:	2300      	movs	r3, #0
 800925e:	f884 30e4 	strb.w	r3, [r4, #228]	; 0xe4
    if(enable) {
 8009262:	4620      	mov	r0, r4
 8009264:	f7ff fa3c 	bl	80086e0 <max2870SpiState.part.0>
}
 8009268:	4628      	mov	r0, r5
 800926a:	bd38      	pop	{r3, r4, r5, pc}
            driver->pllMonReloadCounter++;
 800926c:	3301      	adds	r3, #1
 800926e:	f884 30e4 	strb.w	r3, [r4, #228]	; 0xe4
            uint32_t reg6 = max2870ReadRegister6(driver);
 8009272:	4620      	mov	r0, r4
 8009274:	f7ff f886 	bl	8008384 <max2870ReadRegister6>
            driver->currentTune.adcVoltage = (reg6 >>MAX2870_REG6_ADC_OFFSET) & 7;
 8009278:	f3c0 4382 	ubfx	r3, r0, #18, #3
            driver->currentTune.usedVCO = (reg6 >> MAX2870_REG6_V_OFFSET) & 0x3F;
 800927c:	f3c0 0045 	ubfx	r0, r0, #1, #6
            driver->currentTune.adcVoltage = (reg6 >>MAX2870_REG6_ADC_OFFSET) & 7;
 8009280:	76a3      	strb	r3, [r4, #26]
            driver->currentTune.usedVCO = (reg6 >> MAX2870_REG6_V_OFFSET) & 0x3F;
 8009282:	7660      	strb	r0, [r4, #25]
            if(driver->currentTune.adcVoltage == 0 ||
 8009284:	b11b      	cbz	r3, 800928e <max2870DoMonitorTask+0x52>
 8009286:	2b07      	cmp	r3, #7
 8009288:	d001      	beq.n	800928e <max2870DoMonitorTask+0x52>
                    !driver->currentTune.isLocked) {
 800928a:	7f23      	ldrb	r3, [r4, #28]
                    driver->currentTune.adcVoltage == 7 ||
 800928c:	b953      	cbnz	r3, 80092a4 <max2870DoMonitorTask+0x68>
                syslog("MAX2870 Lost lock, retuning.");
 800928e:	4806      	ldr	r0, [pc, #24]	; (80092a8 <max2870DoMonitorTask+0x6c>)
 8009290:	f7ff fd84 	bl	8008d9c <syslog>
                driver->currentTune.useVCOAutotune = true;
 8009294:	2301      	movs	r3, #1
                max2870TuneNoLock(driver, &driver->currentTune);
 8009296:	4620      	mov	r0, r4
                driver->currentTune.useVCOAutotune = true;
 8009298:	7623      	strb	r3, [r4, #24]
                max2870TuneNoLock(driver, &driver->currentTune);
 800929a:	f104 0108 	add.w	r1, r4, #8
 800929e:	f7ff fddb 	bl	8008e58 <max2870TuneNoLock>
 80092a2:	e7de      	b.n	8009262 <max2870DoMonitorTask+0x26>
        didWork = true;
 80092a4:	461d      	mov	r5, r3
 80092a6:	e7dc      	b.n	8009262 <max2870DoMonitorTask+0x26>
 80092a8:	0800c005 	.word	0x0800c005

080092ac <max2870Tune>:
{
 80092ac:	b538      	push	{r3, r4, r5, lr}
 80092ae:	4604      	mov	r4, r0
 80092b0:	460d      	mov	r5, r1
    max2870SpiState(driver, true);
 80092b2:	f7fe ff47 	bl	8008144 <max2870SpiState.constprop.0>
    MAX2870TuneResult result = max2870TuneNoLock(driver, tune);
 80092b6:	4629      	mov	r1, r5
 80092b8:	4620      	mov	r0, r4
 80092ba:	f7ff fdcd 	bl	8008e58 <max2870TuneNoLock>
 80092be:	4605      	mov	r5, r0
    if(enable) {
 80092c0:	4620      	mov	r0, r4
 80092c2:	f7ff fa0d 	bl	80086e0 <max2870SpiState.part.0>
}
 80092c6:	4628      	mov	r0, r5
 80092c8:	bd38      	pop	{r3, r4, r5, pc}
	...

080092cc <converterSHFLoTune>:
{
 80092cc:	b57f      	push	{r0, r1, r2, r3, r4, r5, r6, lr}
    tune.fastLockDurationMicroseconds = 0;
 80092ce:	2300      	movs	r3, #0
 80092d0:	9303      	str	r3, [sp, #12]
    tune.useVCOAutotune = false;
 80092d2:	f88d 3010 	strb.w	r3, [sp, #16]
    tune.powerB = -127;
 80092d6:	2381      	movs	r3, #129	; 0x81
 80092d8:	f88d 3009 	strb.w	r3, [sp, #9]
    tune.frequency = (uint64_t)freqKHz * 1000;
 80092dc:	f44f 737a 	mov.w	r3, #1000	; 0x3e8
 80092e0:	fba0 0303 	umull	r0, r3, r0, r3
    tune.powerA = power;
 80092e4:	f88d 1008 	strb.w	r1, [sp, #8]
    tune.frequency = (uint64_t)freqKHz * 1000;
 80092e8:	e9cd 0300 	strd	r0, r3, [sp]
    return max2870Tune(&loPLL, &tune) == TUNE_OK;
 80092ec:	4669      	mov	r1, sp
 80092ee:	4804      	ldr	r0, [pc, #16]	; (8009300 <converterSHFLoTune+0x34>)
 80092f0:	f7ff ffdc 	bl	80092ac <max2870Tune>
}
 80092f4:	fab0 f080 	clz	r0, r0
 80092f8:	0940      	lsrs	r0, r0, #5
 80092fa:	b007      	add	sp, #28
 80092fc:	f85d fb04 	ldr.w	pc, [sp], #4
 8009300:	20001098 	.word	0x20001098
 8009304:	00000000 	.word	0x00000000

08009308 <max2870VcoPrecal>:
{
 8009308:	e92d 43f0 	stmdb	sp!, {r4, r5, r6, r7, r8, r9, lr}
 800930c:	b08d      	sub	sp, #52	; 0x34
    MAX2870TuneRequest previousTune = driver->currentTune;
 800930e:	ad06      	add	r5, sp, #24
 8009310:	f100 0608 	add.w	r6, r0, #8
{
 8009314:	4604      	mov	r4, r0
    bool pllWasEnabled = driver->enabled;
 8009316:	7907      	ldrb	r7, [r0, #4]
    MAX2870TuneRequest previousTune = driver->currentTune;
 8009318:	ce0f      	ldmia	r6!, {r0, r1, r2, r3}
 800931a:	c50f      	stmia	r5!, {r0, r1, r2, r3}
 800931c:	e896 0003 	ldmia.w	r6, {r0, r1}
 8009320:	e885 0003 	stmia.w	r5, {r0, r1}
    tune.useVCOAutotune = true;
 8009324:	2501      	movs	r5, #1
    MAX2870TuneRequest tune = {};
 8009326:	2218      	movs	r2, #24
 8009328:	2100      	movs	r1, #0
 800932a:	4668      	mov	r0, sp
 800932c:	f002 fa7a 	bl	800b824 <memset>
    tune.powerA = -127;
 8009330:	f248 1381 	movw	r3, #33153	; 0x8181
    for(tune.frequency = MAX2870_VCO_MIN_FREQUENCY + MAX2870_VCO_INCREMENT/2;
 8009334:	46a8      	mov	r8, r5
    max2870SpiState(driver, true);
 8009336:	4620      	mov	r0, r4
    tune.powerA = -127;
 8009338:	f8ad 3008 	strh.w	r3, [sp, #8]
    tune.useVCOAutotune = true;
 800933c:	f88d 5010 	strb.w	r5, [sp, #16]
    max2870SpiState(driver, true);
 8009340:	f7fe ff00 	bl	8008144 <max2870SpiState.constprop.0>
    for(tune.frequency = MAX2870_VCO_MIN_FREQUENCY + MAX2870_VCO_INCREMENT/2;
 8009344:	a31c      	add	r3, pc, #112	; (adr r3, 80093b8 <max2870VcoPrecal+0xb0>)
 8009346:	e9d3 2300 	ldrd	r2, r3, [r3]
 800934a:	e9cd 2300 	strd	r2, r3, [sp]
            tune.frequency += MAX2870_VCO_INCREMENT) {
 800934e:	4e18      	ldr	r6, [pc, #96]	; (80093b0 <max2870VcoPrecal+0xa8>)
    for(tune.frequency = MAX2870_VCO_MIN_FREQUENCY + MAX2870_VCO_INCREMENT/2;
 8009350:	f8df 9060 	ldr.w	r9, [pc, #96]	; 80093b4 <max2870VcoPrecal+0xac>
        if(max2870TuneNoLock(driver, &tune)) {
 8009354:	4669      	mov	r1, sp
 8009356:	4620      	mov	r0, r4
 8009358:	f7ff fd7e 	bl	8008e58 <max2870TuneNoLock>
            tune.frequency += MAX2870_VCO_INCREMENT) {
 800935c:	9b00      	ldr	r3, [sp, #0]
 800935e:	9a01      	ldr	r2, [sp, #4]
            allGood = false;
 8009360:	2800      	cmp	r0, #0
 8009362:	bf18      	it	ne
 8009364:	2500      	movne	r5, #0
            tune.frequency += MAX2870_VCO_INCREMENT) {
 8009366:	199b      	adds	r3, r3, r6
 8009368:	f142 0200 	adc.w	r2, r2, #0
    for(tune.frequency = MAX2870_VCO_MIN_FREQUENCY + MAX2870_VCO_INCREMENT/2;
 800936c:	4599      	cmp	r9, r3
            tune.frequency += MAX2870_VCO_INCREMENT) {
 800936e:	e9cd 3200 	strd	r3, r2, [sp]
    for(tune.frequency = MAX2870_VCO_MIN_FREQUENCY + MAX2870_VCO_INCREMENT/2;
 8009372:	eb78 0302 	sbcs.w	r3, r8, r2
 8009376:	d2ed      	bcs.n	8009354 <max2870VcoPrecal+0x4c>
    if(!pllWasEnabled) {
 8009378:	b997      	cbnz	r7, 80093a0 <max2870VcoPrecal+0x98>
        max2870Disable(driver);
 800937a:	4620      	mov	r0, r4
 800937c:	f7ff f856 	bl	800842c <max2870Disable>
    if(driver->vcoCache[0] >= 0x9f ||
 8009380:	f894 3020 	ldrb.w	r3, [r4, #32]
 8009384:	2b9e      	cmp	r3, #158	; 0x9e
 8009386:	d810      	bhi.n	80093aa <max2870VcoPrecal+0xa2>
 8009388:	f894 30b5 	ldrb.w	r3, [r4, #181]	; 0xb5
    	allGood = false;
 800938c:	2b9f      	cmp	r3, #159	; 0x9f
 800938e:	bf98      	it	ls
 8009390:	2500      	movls	r5, #0
    if(enable) {
 8009392:	4620      	mov	r0, r4
 8009394:	f7ff f9a4 	bl	80086e0 <max2870SpiState.part.0>
}
 8009398:	4628      	mov	r0, r5
 800939a:	b00d      	add	sp, #52	; 0x34
 800939c:	e8bd 83f0 	ldmia.w	sp!, {r4, r5, r6, r7, r8, r9, pc}
        max2870TuneNoLock(driver, &previousTune);
 80093a0:	4620      	mov	r0, r4
 80093a2:	a906      	add	r1, sp, #24
 80093a4:	f7ff fd58 	bl	8008e58 <max2870TuneNoLock>
 80093a8:	e7ea      	b.n	8009380 <max2870VcoPrecal+0x78>
    	allGood = false;
 80093aa:	2500      	movs	r5, #0
 80093ac:	e7f1      	b.n	8009392 <max2870VcoPrecal+0x8a>
 80093ae:	bf00      	nop
 80093b0:	01312d00 	.word	0x01312d00
 80093b4:	65a0bbff 	.word	0x65a0bbff
 80093b8:	b368f480 	.word	0xb368f480
 80093bc:	00000000 	.word	0x00000000

080093c0 <gpioDummySetPinMode>:
{
 80093c0:	b508      	push	{r3, lr}
    syslog("Use of dummy GPIO %u!", (uint32_t)driver->driver);
 80093c2:	6801      	ldr	r1, [r0, #0]
 80093c4:	4802      	ldr	r0, [pc, #8]	; (80093d0 <gpioDummySetPinMode+0x10>)
 80093c6:	f7ff fce9 	bl	8008d9c <syslog>
}
 80093ca:	2000      	movs	r0, #0
 80093cc:	bd08      	pop	{r3, pc}
 80093ce:	bf00      	nop
 80093d0:	0800c022 	.word	0x0800c022

080093d4 <gpioDummyGetPinMode>:
{
 80093d4:	b508      	push	{r3, lr}
    syslog("Use of dummy GPIO %u!", (uint32_t)driver->driver);
 80093d6:	6801      	ldr	r1, [r0, #0]
 80093d8:	4802      	ldr	r0, [pc, #8]	; (80093e4 <gpioDummyGetPinMode+0x10>)
 80093da:	f7ff fcdf 	bl	8008d9c <syslog>
}
 80093de:	2002      	movs	r0, #2
 80093e0:	bd08      	pop	{r3, pc}
 80093e2:	bf00      	nop
 80093e4:	0800c022 	.word	0x0800c022

080093e8 <gpioDummySetValue>:
{
 80093e8:	b508      	push	{r3, lr}
    syslog("Use of dummy GPIO %u!", (uint32_t)driver->driver);
 80093ea:	6801      	ldr	r1, [r0, #0]
 80093ec:	4802      	ldr	r0, [pc, #8]	; (80093f8 <gpioDummySetValue+0x10>)
 80093ee:	f7ff fcd5 	bl	8008d9c <syslog>
}
 80093f2:	2000      	movs	r0, #0
 80093f4:	bd08      	pop	{r3, pc}
 80093f6:	bf00      	nop
 80093f8:	0800c022 	.word	0x0800c022

080093fc <gpioDummyGetValue>:
{
 80093fc:	b508      	push	{r3, lr}
    syslog("Use of dummy GPIO %u!", (uint32_t)driver->driver);
 80093fe:	6801      	ldr	r1, [r0, #0]
 8009400:	4802      	ldr	r0, [pc, #8]	; (800940c <gpioDummyGetValue+0x10>)
 8009402:	f7ff fccb 	bl	8008d9c <syslog>
}
 8009406:	2000      	movs	r0, #0
 8009408:	bd08      	pop	{r3, pc}
 800940a:	bf00      	nop
 800940c:	0800c022 	.word	0x0800c022

08009410 <i2cSafeMasterTransmitTimeoutWithRetry.constprop.0>:
i2c_result i2cSafeMasterTransmitTimeoutWithRetry (
 8009410:	e92d 4ff7 	stmdb	sp!, {r0, r1, r2, r4, r5, r6, r7, r8, r9, sl, fp, lr}
 8009414:	4604      	mov	r4, r0
 8009416:	4617      	mov	r7, r2
    if(!devAddr) return MSG_RESET;
 8009418:	460d      	mov	r5, r1
i2c_result i2cSafeMasterTransmitTimeoutWithRetry (
 800941a:	9301      	str	r3, [sp, #4]
    if(!devAddr) return MSG_RESET;
 800941c:	2900      	cmp	r1, #0
 800941e:	d07f      	beq.n	8009520 <i2cSafeMasterTransmitTimeoutWithRetry.constprop.0+0x110>
    memset(rxbuf, 0xFE, rxbytes);
 8009420:	21fe      	movs	r1, #254	; 0xfe
 8009422:	9a0d      	ldr	r2, [sp, #52]	; 0x34
 8009424:	980c      	ldr	r0, [sp, #48]	; 0x30
 8009426:	f002 f9fd 	bl	800b824 <memset>

  /* Resetting error flags for this transfer.*/
  i2cp->errors = I2C_NO_ERROR;

  /* Initializes driver fields, LSB = 0 -> transmit.*/
  i2cp->addr = (addr << 1);
 800942a:	2603      	movs	r6, #3
  i2cp->errors = I2C_NO_ERROR;
 800942c:	f04f 0900 	mov.w	r9, #0
 8009430:	006d      	lsls	r5, r5, #1
 8009432:	f8df a0f8 	ldr.w	sl, [pc, #248]	; 800952c <i2cSafeMasterTransmitTimeoutWithRetry.constprop.0+0x11c>
 8009436:	fa1f f885 	uxth.w	r8, r5
  osalDbgCheck((i2cp != NULL) && (addr != 0U) &&
 800943a:	b914      	cbnz	r4, 8009442 <i2cSafeMasterTransmitTimeoutWithRetry.constprop.0+0x32>
 800943c:	f7fb f98a 	bl	8004754 <vTaskEndScheduler>
 8009440:	e7fe      	b.n	8009440 <i2cSafeMasterTransmitTimeoutWithRetry.constprop.0+0x30>
  osalDbgAssert(i2cp->state == I2C_READY, "not ready");
 8009442:	7825      	ldrb	r5, [r4, #0]
 8009444:	2d02      	cmp	r5, #2
 8009446:	d002      	beq.n	800944e <i2cSafeMasterTransmitTimeoutWithRetry.constprop.0+0x3e>
 8009448:	f7fb f984 	bl	8004754 <vTaskEndScheduler>
 800944c:	e7fe      	b.n	800944c <i2cSafeMasterTransmitTimeoutWithRetry.constprop.0+0x3c>
  osalSysLock();
 800944e:	f7fb f971 	bl	8004734 <vPortEnterCritical>
  i2cp->state = I2C_ACTIVE_TX;
 8009452:	2303      	movs	r3, #3
  i2cp->errors = I2C_NO_ERROR;
 8009454:	f8c4 9008 	str.w	r9, [r4, #8]
  i2cp->state = I2C_ACTIVE_TX;
 8009458:	7023      	strb	r3, [r4, #0]
  i2cp->numInterrupts = 0;
 800945a:	f8c4 9080 	str.w	r9, [r4, #128]	; 0x80
  i2cp->addr = (addr << 1);
 800945e:	f8a4 8064 	strh.w	r8, [r4, #100]	; 0x64
  I2C_TypeDef *dp = i2cp->i2c;
 8009462:	6fa0      	ldr	r0, [r4, #120]	; 0x78

  /* Releases the lock from high level driver.*/
  osalSysUnlock();
 8009464:	f7fb fb8a 	bl	8004b7c <osalSysUnlock.lto_priv.0>

  /* TX DMA setup.*/
  dmaStreamSetMode(i2cp->dmatx, i2cp->txdmamode);
 8009468:	6f63      	ldr	r3, [r4, #116]	; 0x74
 800946a:	6ee2      	ldr	r2, [r4, #108]	; 0x6c
 800946c:	685b      	ldr	r3, [r3, #4]
 800946e:	601a      	str	r2, [r3, #0]
  dmaStreamSetMemory0(i2cp->dmatx, txbuf);
  dmaStreamSetTransactionSize(i2cp->dmatx, txbytes);
 8009470:	9a01      	ldr	r2, [sp, #4]
  dmaStreamSetMemory0(i2cp->dmatx, txbuf);
 8009472:	60df      	str	r7, [r3, #12]
  dmaStreamSetTransactionSize(i2cp->dmatx, txbytes);
 8009474:	605a      	str	r2, [r3, #4]

  /* RX DMA setup.*/
  dmaStreamSetMode(i2cp->dmarx, i2cp->rxdmamode);
 8009476:	6f23      	ldr	r3, [r4, #112]	; 0x70
 8009478:	6ea2      	ldr	r2, [r4, #104]	; 0x68
 800947a:	685b      	ldr	r3, [r3, #4]
 800947c:	601a      	str	r2, [r3, #0]
  dmaStreamSetMemory0(i2cp->dmarx, rxbuf);
 800947e:	9a0c      	ldr	r2, [sp, #48]	; 0x30
 8009480:	60da      	str	r2, [r3, #12]
  dmaStreamSetTransactionSize(i2cp->dmarx, rxbytes);
 8009482:	9a0d      	ldr	r2, [sp, #52]	; 0x34
 8009484:	605a      	str	r2, [r3, #4]
 8009486:	f7fb ff43 	bl	8005310 <vPortValidateInterruptPriority>
 800948a:	f8da b000 	ldr.w	fp, [sl]
  end = start + OSAL_MS2ST(STM32_I2C_BUSY_TIMEOUT);

  /* Waits until BUSY flag is reset or, alternatively, for a timeout
     condition.*/
  while (true) {
    osalSysLock();
 800948e:	f7fb f951 	bl	8004734 <vPortEnterCritical>

    /* If the bus is not busy then the operation can continue, note, the
       loop is exited in the locked state.*/
    if (!(dp->SR2 & I2C_SR2_BUSY) && !(dp->CR1 & I2C_CR1_STOP))
 8009492:	6983      	ldr	r3, [r0, #24]
 8009494:	0799      	lsls	r1, r3, #30
 8009496:	d402      	bmi.n	800949e <i2cSafeMasterTransmitTimeoutWithRetry.constprop.0+0x8e>
 8009498:	6803      	ldr	r3, [r0, #0]
 800949a:	059a      	lsls	r2, r3, #22
 800949c:	d50a      	bpl.n	80094b4 <i2cSafeMasterTransmitTimeoutWithRetry.constprop.0+0xa4>
 800949e:	f7fb ff37 	bl	8005310 <vPortValidateInterruptPriority>
 80094a2:	f8da 3000 	ldr.w	r3, [sl]
    systime_t past = now - begin;
 80094a6:	eba3 030b 	sub.w	r3, r3, fp
    if(past < duration) return true;
 80094aa:	2b31      	cmp	r3, #49	; 0x31
 80094ac:	d82e      	bhi.n	800950c <i2cSafeMasterTransmitTimeoutWithRetry.constprop.0+0xfc>
    /* If the system time went outside the allowed window then a timeout
       condition is returned.*/
    if (!osalOsIsTimeWithinX(osalOsGetSystemTimeX(), start, end))
      return MSG_TIMEOUT;

    osalSysUnlock();
 80094ae:	f7fb fb65 	bl	8004b7c <osalSysUnlock.lto_priv.0>
 80094b2:	e7ec      	b.n	800948e <i2cSafeMasterTransmitTimeoutWithRetry.constprop.0+0x7e>
  }

  /* Starts the operation.*/
  dp->CR2 |= I2C_CR2_ITEVTEN;
 80094b4:	6843      	ldr	r3, [r0, #4]
  dp->CR1 |= I2C_CR1_START;

  /* Waits for the operation completion or a timeout.*/
  return osalThreadSuspendTimeoutS(&i2cp->thread, timeout);
 80094b6:	2105      	movs	r1, #5
  dp->CR2 |= I2C_CR2_ITEVTEN;
 80094b8:	f443 7300 	orr.w	r3, r3, #512	; 0x200
 80094bc:	6043      	str	r3, [r0, #4]
  dp->CR1 |= I2C_CR1_START;
 80094be:	6803      	ldr	r3, [r0, #0]
 80094c0:	f443 7380 	orr.w	r3, r3, #256	; 0x100
 80094c4:	6003      	str	r3, [r0, #0]
  return osalThreadSuspendTimeoutS(&i2cp->thread, timeout);
 80094c6:	f104 0060 	add.w	r0, r4, #96	; 0x60
 80094ca:	f7fd f881 	bl	80065d0 <osalThreadSuspendTimeoutS>
    i2cp->state = I2C_LOCKED;
 80094ce:	1c43      	adds	r3, r0, #1
 80094d0:	bf08      	it	eq
 80094d2:	2505      	moveq	r5, #5
 80094d4:	7025      	strb	r5, [r4, #0]
  osalSysUnlock();
 80094d6:	f7fb fb51 	bl	8004b7c <osalSysUnlock.lto_priv.0>
        if(status == MSG_OK){
 80094da:	b320      	cbz	r0, 8009526 <i2cSafeMasterTransmitTimeoutWithRetry.constprop.0+0x116>
        osalSysLock();
 80094dc:	f7fb f92a 	bl	8004734 <vPortEnterCritical>
        i2c->i2cErrors++;
 80094e0:	f8d4 3084 	ldr.w	r3, [r4, #132]	; 0x84
        if((retVal = i2cSafeRawUnclogBus(i2c))) {
 80094e4:	4620      	mov	r0, r4
        i2c->i2cErrors++;
 80094e6:	3301      	adds	r3, #1
 80094e8:	f8c4 3084 	str.w	r3, [r4, #132]	; 0x84
        osalSysUnlock();
 80094ec:	f7fb fb46 	bl	8004b7c <osalSysUnlock.lto_priv.0>
        if((retVal = i2cSafeRawUnclogBus(i2c))) {
 80094f0:	f7fe fd68 	bl	8007fc4 <i2cSafeRawUnclogBus>
 80094f4:	4605      	mov	r5, r0
 80094f6:	b168      	cbz	r0, 8009514 <i2cSafeMasterTransmitTimeoutWithRetry.constprop.0+0x104>
            syslog("I2C error, bus failure: %s.", i2cSafeResultToString(retVal));
 80094f8:	f7fa ff3a 	bl	8004370 <i2cSafeResultToString>
 80094fc:	4601      	mov	r1, r0
 80094fe:	480c      	ldr	r0, [pc, #48]	; (8009530 <i2cSafeMasterTransmitTimeoutWithRetry.constprop.0+0x120>)
 8009500:	f7ff fc4c 	bl	8008d9c <syslog>
}
 8009504:	4628      	mov	r0, r5
 8009506:	b003      	add	sp, #12
 8009508:	e8bd 8ff0 	ldmia.w	sp!, {r4, r5, r6, r7, r8, r9, sl, fp, pc}
    i2cp->state = I2C_LOCKED;
 800950c:	2505      	movs	r5, #5
      return MSG_TIMEOUT;
 800950e:	f04f 30ff 	mov.w	r0, #4294967295	; 0xffffffff
 8009512:	e7df      	b.n	80094d4 <i2cSafeMasterTransmitTimeoutWithRetry.constprop.0+0xc4>
    for(i=0; i<maxTries; i++) {
 8009514:	3e01      	subs	r6, #1
 8009516:	d190      	bne.n	800943a <i2cSafeMasterTransmitTimeoutWithRetry.constprop.0+0x2a>
    syslog("I2C error, %u failed attempts.", maxTries);
 8009518:	2103      	movs	r1, #3
 800951a:	4806      	ldr	r0, [pc, #24]	; (8009534 <i2cSafeMasterTransmitTimeoutWithRetry.constprop.0+0x124>)
 800951c:	f7ff fc3e 	bl	8008d9c <syslog>
    if(!devAddr) return MSG_RESET;
 8009520:	f06f 0501 	mvn.w	r5, #1
 8009524:	e7ee      	b.n	8009504 <i2cSafeMasterTransmitTimeoutWithRetry.constprop.0+0xf4>
            retVal = status;
 8009526:	4605      	mov	r5, r0
 8009528:	e7ec      	b.n	8009504 <i2cSafeMasterTransmitTimeoutWithRetry.constprop.0+0xf4>
 800952a:	bf00      	nop
 800952c:	20001648 	.word	0x20001648
 8009530:	0800c038 	.word	0x0800c038
 8009534:	0800c054 	.word	0x0800c054

08009538 <i2cSafeReadRegBulkStandard.constprop.0>:
i2c_result i2cSafeReadRegBulkStandard(I2CDriver* i2c,
 8009538:	b57f      	push	{r0, r1, r2, r3, r4, r5, r6, lr}
 800953a:	460d      	mov	r5, r1
 800953c:	461e      	mov	r6, r3
    osalDbgAssert(i2c != NULL, "i2c == NULL");
 800953e:	4604      	mov	r4, r0
 8009540:	b910      	cbnz	r0, 8009548 <i2cSafeReadRegBulkStandard.constprop.0+0x10>
 8009542:	f7fb f907 	bl	8004754 <vTaskEndScheduler>
 8009546:	e7fe      	b.n	8009546 <i2cSafeReadRegBulkStandard.constprop.0+0xe>
    uint8_t txBuf[1] = {addr};
 8009548:	f88d 200c 	strb.w	r2, [sp, #12]
    i2cAcquireBus(i2c);
 800954c:	f7fc fcce 	bl	8005eec <i2cAcquireBus>
    i2c_status = i2cSafeMasterTransmitTimeoutWithRetry(i2c, devAddr, txBuf,
 8009550:	2302      	movs	r3, #2
 8009552:	4629      	mov	r1, r5
 8009554:	e9cd 6300 	strd	r6, r3, [sp]
 8009558:	aa03      	add	r2, sp, #12
 800955a:	2301      	movs	r3, #1
 800955c:	4620      	mov	r0, r4
 800955e:	f7ff ff57 	bl	8009410 <i2cSafeMasterTransmitTimeoutWithRetry.constprop.0>
 8009562:	4605      	mov	r5, r0
    i2cReleaseBus(i2c);
 8009564:	4620      	mov	r0, r4
 8009566:	f7ff f8b1 	bl	80086cc <i2cReleaseBus>
}
 800956a:	4628      	mov	r0, r5
 800956c:	b004      	add	sp, #16
 800956e:	bd70      	pop	{r4, r5, r6, pc}

08009570 <i2cSafeReadRegStandard>:
{
 8009570:	b513      	push	{r0, r1, r4, lr}
 8009572:	461c      	mov	r4, r3
    osalDbgAssert(i2c != NULL, "i2c == NULL");
 8009574:	b910      	cbnz	r0, 800957c <i2cSafeReadRegStandard+0xc>
 8009576:	f7fb f8ed 	bl	8004754 <vTaskEndScheduler>
 800957a:	e7fe      	b.n	800957a <i2cSafeReadRegStandard+0xa>
    i2c_result result = i2cSafeReadRegBulkStandard(i2c, devAddr, addr, values, sizeof(values));
 800957c:	ab01      	add	r3, sp, #4
 800957e:	f7ff ffdb 	bl	8009538 <i2cSafeReadRegBulkStandard.constprop.0>
    *value=values[0];
 8009582:	f89d 3004 	ldrb.w	r3, [sp, #4]
 8009586:	7023      	strb	r3, [r4, #0]
}
 8009588:	b002      	add	sp, #8
 800958a:	bd10      	pop	{r4, pc}

0800958c <MCP9804MeasureTemperature.part.0>:
#include "mcp9804.h"
#include "../i2csafe/i2csafe.h"
#include <string.h>
#include "../system.h"

int16_t MCP9804MeasureTemperature(MCP9804Driver* driver, bool newMeasurement)
 800958c:	b513      	push	{r0, r1, r4, lr}
 800958e:	4604      	mov	r4, r0
    if(!newMeasurement) {
        return driver->temperature;
    }

    uint8_t data[2];
    i2c_result result = i2cSafeReadRegBulkStandard(driver->config->i2cPort, driver->config->i2cAddr, 0x5, data, 2);
 8009590:	6800      	ldr	r0, [r0, #0]
 8009592:	2205      	movs	r2, #5
 8009594:	7901      	ldrb	r1, [r0, #4]
 8009596:	ab01      	add	r3, sp, #4
 8009598:	6800      	ldr	r0, [r0, #0]
 800959a:	f7ff ffcd 	bl	8009538 <i2cSafeReadRegBulkStandard.constprop.0>

    if(result != I2C_BUS_OK) {
 800959e:	b130      	cbz	r0, 80095ae <MCP9804MeasureTemperature.part.0+0x22>
        driver->temperature = 0x7FFF;
 80095a0:	f647 73ff 	movw	r3, #32767	; 0x7fff

        driver->temperature = temp;

        /* Check sign */
        if(data[0] & 0x10) {
            driver->temperature = 4096 - temp;
 80095a4:	80a3      	strh	r3, [r4, #4]
        }
    }

    return driver->temperature;
}
 80095a6:	f9b4 0004 	ldrsh.w	r0, [r4, #4]
 80095aa:	b002      	add	sp, #8
 80095ac:	bd10      	pop	{r4, pc}
        uint16_t temp = ((data[0] & 0xF) << 8) | data[1];
 80095ae:	f89d 1004 	ldrb.w	r1, [sp, #4]
 80095b2:	020b      	lsls	r3, r1, #8
 80095b4:	f403 6270 	and.w	r2, r3, #3840	; 0xf00
 80095b8:	f89d 3005 	ldrb.w	r3, [sp, #5]
 80095bc:	4313      	orrs	r3, r2
        if(data[0] & 0x10) {
 80095be:	06ca      	lsls	r2, r1, #27
            driver->temperature = 4096 - temp;
 80095c0:	bf48      	it	mi
 80095c2:	f5c3 5380 	rsbmi	r3, r3, #4096	; 0x1000
 80095c6:	e7ed      	b.n	80095a4 <MCP9804MeasureTemperature.part.0+0x18>

080095c8 <cmdTemp>:

#include <string.h>


void cmdTemp(void* user, BaseSequentialStream *chp, int argc, char *argv[])
{
 80095c8:	b510      	push	{r4, lr}
 80095ca:	460c      	mov	r4, r1
 80095cc:	f7ff ffde 	bl	800958c <MCP9804MeasureTemperature.part.0>
    (void)argv;
    MCP9804Driver* tempSens = (MCP9804Driver*)user;

    int32_t temp = MCP9804MeasureTemperature(tempSens, true);

    chprintf(chp, "Temperature: %d mC"SHELL_NEWLINE_STR, temp*1000/16);
 80095d0:	f44f 727a 	mov.w	r2, #1000	; 0x3e8
 80095d4:	4342      	muls	r2, r0
 80095d6:	bf48      	it	mi
 80095d8:	320f      	addmi	r2, #15
 80095da:	4620      	mov	r0, r4
}
 80095dc:	e8bd 4010 	ldmia.w	sp!, {r4, lr}
    chprintf(chp, "Temperature: %d mC"SHELL_NEWLINE_STR, temp*1000/16);
 80095e0:	4901      	ldr	r1, [pc, #4]	; (80095e8 <cmdTemp+0x20>)
 80095e2:	1112      	asrs	r2, r2, #4
 80095e4:	f7ff b8c1 	b.w	800876a <chprintf>
 80095e8:	0800c073 	.word	0x0800c073

080095ec <parse_arguments>:
static char *parse_arguments(char *str, char **saveptr) {
 80095ec:	b570      	push	{r4, r5, r6, lr}
 80095ee:	460d      	mov	r5, r1
  if (str != NULL)
 80095f0:	b100      	cbz	r0, 80095f4 <parse_arguments+0x8>
    *saveptr = str;
 80095f2:	6008      	str	r0, [r1, #0]
  p = *saveptr;
 80095f4:	682e      	ldr	r6, [r5, #0]
  if (!p) {
 80095f6:	b17e      	cbz	r6, 8009618 <parse_arguments+0x2c>
  p += strspn(p, " \t");
 80095f8:	490e      	ldr	r1, [pc, #56]	; (8009634 <parse_arguments+0x48>)
 80095fa:	4630      	mov	r0, r6
 80095fc:	f002 fa16 	bl	800ba2c <strspn>
  if (*p == '"') {
 8009600:	5c31      	ldrb	r1, [r6, r0]
  p += strspn(p, " \t");
 8009602:	1834      	adds	r4, r6, r0
  if (*p == '"') {
 8009604:	2922      	cmp	r1, #34	; 0x22
 8009606:	d10a      	bne.n	800961e <parse_arguments+0x32>
    p++;
 8009608:	3401      	adds	r4, #1
    *saveptr = strpbrk(p, "\"");
 800960a:	4620      	mov	r0, r4
 800960c:	f002 f95c 	bl	800b8c8 <strchr>
  if (*saveptr != NULL) {
 8009610:	b950      	cbnz	r0, 8009628 <parse_arguments+0x3c>
 8009612:	6028      	str	r0, [r5, #0]
  return *p != '\0' ? p : NULL;
 8009614:	7823      	ldrb	r3, [r4, #0]
 8009616:	b903      	cbnz	r3, 800961a <parse_arguments+0x2e>
 8009618:	2400      	movs	r4, #0
}
 800961a:	4620      	mov	r0, r4
 800961c:	bd70      	pop	{r4, r5, r6, pc}
    *saveptr = strpbrk(p, " \t");
 800961e:	4620      	mov	r0, r4
 8009620:	4904      	ldr	r1, [pc, #16]	; (8009634 <parse_arguments+0x48>)
 8009622:	f002 f9e7 	bl	800b9f4 <strpbrk>
 8009626:	e7f3      	b.n	8009610 <parse_arguments+0x24>
    *(*saveptr)++ = '\0';
 8009628:	1c43      	adds	r3, r0, #1
 800962a:	602b      	str	r3, [r5, #0]
 800962c:	2300      	movs	r3, #0
 800962e:	7003      	strb	r3, [r0, #0]
 8009630:	e7f0      	b.n	8009614 <parse_arguments+0x28>
 8009632:	bf00      	nop
 8009634:	0800c088 	.word	0x0800c088

08009638 <cmdexec>:
                      char *name, int argc, char *argv[]) {
 8009638:	e92d 41f0 	stmdb	sp!, {r4, r5, r6, r7, r8, lr}
 800963c:	4605      	mov	r5, r0
 800963e:	460e      	mov	r6, r1
 8009640:	4617      	mov	r7, r2
 8009642:	4698      	mov	r8, r3
  while (scp->sc_name != NULL) {
 8009644:	6828      	ldr	r0, [r5, #0]
 8009646:	b908      	cbnz	r0, 800964c <cmdexec+0x14>
  return true;
 8009648:	2001      	movs	r0, #1
 800964a:	e00b      	b.n	8009664 <cmdexec+0x2c>
    if (strcmp(scp->sc_name, name) == 0) {
 800964c:	4639      	mov	r1, r7
 800964e:	f7fa fabb 	bl	8003bc8 <strcmp>
 8009652:	4604      	mov	r4, r0
 8009654:	b940      	cbnz	r0, 8009668 <cmdexec+0x30>
      scp->sc_function(scp->sc_user, chp, argc, argv);
 8009656:	68a8      	ldr	r0, [r5, #8]
 8009658:	4642      	mov	r2, r8
 800965a:	4631      	mov	r1, r6
 800965c:	686f      	ldr	r7, [r5, #4]
 800965e:	9b06      	ldr	r3, [sp, #24]
 8009660:	47b8      	blx	r7
      return false;
 8009662:	4620      	mov	r0, r4
}
 8009664:	e8bd 81f0 	ldmia.w	sp!, {r4, r5, r6, r7, r8, pc}
    scp++;
 8009668:	350c      	adds	r5, #12
 800966a:	e7eb      	b.n	8009644 <cmdexec+0xc>

0800966c <cmdGPIO>:

void cmdGPIO(void* user, BaseSequentialStream *chp, int argc, char *argv[])
{
 800966c:	e92d 47f0 	stmdb	sp!, {r4, r5, r6, r7, r8, r9, sl, lr}
    (void) user;

    if(argc < 1) {
 8009670:	1e16      	subs	r6, r2, #0
{
 8009672:	460d      	mov	r5, r1
 8009674:	461f      	mov	r7, r3
    if(argc < 1) {
 8009676:	dc04      	bgt.n	8009682 <cmdGPIO+0x16>
        cmdGPIOUsage(chp);
 8009678:	4628      	mov	r0, r5
    } else {
        cmdGPIOUsage(chp);
    }

    //TXA6408PrintStatus(&mixerControllerIO, chp);
}
 800967a:	e8bd 47f0 	ldmia.w	sp!, {r4, r5, r6, r7, r8, r9, sl, lr}
        cmdGPIOUsage(chp);
 800967e:	f7ff b9e3 	b.w	8008a48 <cmdGPIOUsage>
    if(!strcmp(argv[0], "status")) {
 8009682:	f8d3 8000 	ldr.w	r8, [r3]
 8009686:	4944      	ldr	r1, [pc, #272]	; (8009798 <cmdGPIO+0x12c>)
 8009688:	4640      	mov	r0, r8
 800968a:	f7fa fa9d 	bl	8003bc8 <strcmp>
 800968e:	4604      	mov	r4, r0
 8009690:	bb78      	cbnz	r0, 80096f2 <cmdGPIO+0x86>

void gpioPrintStatus(BaseSequentialStream* chp)
{
    for(uint8_t i=0; i<GPIODriverData.numPorts; i++) {
 8009692:	f8df 8108 	ldr.w	r8, [pc, #264]	; 800979c <cmdGPIO+0x130>
        const GPIOPort* port = gpioGetPortDriver(i);

        chprintf(chp, "Port %u: ", i);
 8009696:	f8df 9108 	ldr.w	r9, [pc, #264]	; 80097a0 <cmdGPIO+0x134>
        if(GPIODriverData.registeredPorts & _BV(i)) {
            chprintf(chp, "(Active, %u pins)", port->numPins);
 800969a:	f8df a108 	ldr.w	sl, [pc, #264]	; 80097a4 <cmdGPIO+0x138>
 800969e:	e021      	b.n	80096e4 <cmdGPIO+0x78>
        const GPIOPort* port = gpioGetPortDriver(i);
 80096a0:	4630      	mov	r0, r6
 80096a2:	f7fa fe99 	bl	80043d8 <gpioGetPortDriver>
        chprintf(chp, "Port %u: ", i);
 80096a6:	4649      	mov	r1, r9
        const GPIOPort* port = gpioGetPortDriver(i);
 80096a8:	4607      	mov	r7, r0
        chprintf(chp, "Port %u: ", i);
 80096aa:	4632      	mov	r2, r6
 80096ac:	4628      	mov	r0, r5
 80096ae:	f7ff f85c 	bl	800876a <chprintf>
        if(GPIODriverData.registeredPorts & _BV(i)) {
 80096b2:	f8d8 3008 	ldr.w	r3, [r8, #8]
 80096b6:	40f3      	lsrs	r3, r6
 80096b8:	07db      	lsls	r3, r3, #31
 80096ba:	d504      	bpl.n	80096c6 <cmdGPIO+0x5a>
            chprintf(chp, "(Active, %u pins)", port->numPins);
 80096bc:	4651      	mov	r1, sl
 80096be:	4628      	mov	r0, r5
 80096c0:	687a      	ldr	r2, [r7, #4]
 80096c2:	f7ff f852 	bl	800876a <chprintf>
        }
        chprintf(chp, SHELL_NEWLINE_STR);
 80096c6:	4628      	mov	r0, r5
 80096c8:	4937      	ldr	r1, [pc, #220]	; (80097a8 <cmdGPIO+0x13c>)
 80096ca:	f7ff f84e 	bl	800876a <chprintf>

        if(port->functions->status) {
 80096ce:	68bb      	ldr	r3, [r7, #8]
 80096d0:	695b      	ldr	r3, [r3, #20]
 80096d2:	b113      	cbz	r3, 80096da <cmdGPIO+0x6e>
            port->functions->status(port, chp);
 80096d4:	4629      	mov	r1, r5
 80096d6:	4638      	mov	r0, r7
 80096d8:	4798      	blx	r3
        }
        chprintf(chp, SHELL_NEWLINE_STR);
 80096da:	4628      	mov	r0, r5
 80096dc:	4932      	ldr	r1, [pc, #200]	; (80097a8 <cmdGPIO+0x13c>)
 80096de:	f7ff f844 	bl	800876a <chprintf>
    for(uint8_t i=0; i<GPIODriverData.numPorts; i++) {
 80096e2:	3401      	adds	r4, #1
 80096e4:	f898 3004 	ldrb.w	r3, [r8, #4]
 80096e8:	b2e6      	uxtb	r6, r4
 80096ea:	42b3      	cmp	r3, r6
 80096ec:	d8d8      	bhi.n	80096a0 <cmdGPIO+0x34>
}
 80096ee:	e8bd 87f0 	ldmia.w	sp!, {r4, r5, r6, r7, r8, r9, sl, pc}
    if(argc == 3) {
 80096f2:	2e03      	cmp	r6, #3
 80096f4:	d1c0      	bne.n	8009678 <cmdGPIO+0xc>
        uint8_t portId = strToInt(argv[0], 10);
 80096f6:	210a      	movs	r1, #10
 80096f8:	4640      	mov	r0, r8
 80096fa:	f7fa fd6e 	bl	80041da <strToInt>
        if(!strcmp(argv[1], "bus")) {
 80096fe:	687c      	ldr	r4, [r7, #4]
        uint8_t portId = strToInt(argv[0], 10);
 8009700:	4606      	mov	r6, r0
        if(!strcmp(argv[1], "bus")) {
 8009702:	492a      	ldr	r1, [pc, #168]	; (80097ac <cmdGPIO+0x140>)
 8009704:	4620      	mov	r0, r4
 8009706:	f7fa fa5f 	bl	8003bc8 <strcmp>
 800970a:	4680      	mov	r8, r0
 800970c:	b968      	cbnz	r0, 800972a <cmdGPIO+0xbe>
            if(!strcmp(argv[2], "off")) {
 800970e:	4928      	ldr	r1, [pc, #160]	; (80097b0 <cmdGPIO+0x144>)
 8009710:	68b8      	ldr	r0, [r7, #8]
        uint8_t portId = strToInt(argv[0], 10);
 8009712:	b2f6      	uxtb	r6, r6
            if(!strcmp(argv[2], "off")) {
 8009714:	f7fa fa58 	bl	8003bc8 <strcmp>
 8009718:	b928      	cbnz	r0, 8009726 <cmdGPIO+0xba>
                gpioPortIoDisable(portId, true);
 800971a:	2101      	movs	r1, #1
                gpioPortIoDisable(portId, false);
 800971c:	4630      	mov	r0, r6
}
 800971e:	e8bd 47f0 	ldmia.w	sp!, {r4, r5, r6, r7, r8, r9, sl, lr}
                gpioPortIoDisable(portId, false);
 8009722:	f7fa be79 	b.w	8004418 <gpioPortIoDisable>
 8009726:	4641      	mov	r1, r8
 8009728:	e7f8      	b.n	800971c <cmdGPIO+0xb0>
            uint8_t pinId = strToInt(argv[1], 10);
 800972a:	210a      	movs	r1, #10
 800972c:	4620      	mov	r0, r4
 800972e:	f7fa fd54 	bl	80041da <strToInt>
            uint16_t pin = MAKE_GPIO(portId, pinId);
 8009732:	b2c4      	uxtb	r4, r0
 8009734:	ea44 2406 	orr.w	r4, r4, r6, lsl #8
            if(!strcmp(argv[2], "output")) {
 8009738:	68be      	ldr	r6, [r7, #8]
 800973a:	491e      	ldr	r1, [pc, #120]	; (80097b4 <cmdGPIO+0x148>)
 800973c:	4630      	mov	r0, r6
            uint16_t pin = MAKE_GPIO(portId, pinId);
 800973e:	b2a4      	uxth	r4, r4
            if(!strcmp(argv[2], "output")) {
 8009740:	f7fa fa42 	bl	8003bc8 <strcmp>
 8009744:	b928      	cbnz	r0, 8009752 <cmdGPIO+0xe6>
                gpioSetPinMode(pin, PAL_MODE_OUTPUT_PUSHPULL);
 8009746:	2106      	movs	r1, #6
                gpioSetPinMode(pin, PAL_MODE_INPUT);
 8009748:	4620      	mov	r0, r4
}
 800974a:	e8bd 47f0 	ldmia.w	sp!, {r4, r5, r6, r7, r8, r9, sl, lr}
                gpioSetPinMode(pin, PAL_MODE_INPUT);
 800974e:	f7fd bde3 	b.w	8007318 <gpioSetPinMode.isra.0>
            } else if(!strcmp(argv[2], "input")) {
 8009752:	4630      	mov	r0, r6
 8009754:	4918      	ldr	r1, [pc, #96]	; (80097b8 <cmdGPIO+0x14c>)
 8009756:	f7fa fa37 	bl	8003bc8 <strcmp>
 800975a:	b908      	cbnz	r0, 8009760 <cmdGPIO+0xf4>
                gpioSetPinMode(pin, PAL_MODE_INPUT);
 800975c:	2102      	movs	r1, #2
 800975e:	e7f3      	b.n	8009748 <cmdGPIO+0xdc>
            } else if(!strcmp(argv[2], "set")) {
 8009760:	4630      	mov	r0, r6
 8009762:	4916      	ldr	r1, [pc, #88]	; (80097bc <cmdGPIO+0x150>)
 8009764:	f7fa fa30 	bl	8003bc8 <strcmp>
 8009768:	b928      	cbnz	r0, 8009776 <cmdGPIO+0x10a>
                gpioSetPin(pin, true);
 800976a:	2101      	movs	r1, #1
 800976c:	4620      	mov	r0, r4
}
 800976e:	e8bd 47f0 	ldmia.w	sp!, {r4, r5, r6, r7, r8, r9, sl, lr}
                gpioSetPin(pin, false);
 8009772:	f7fd bee5 	b.w	8007540 <gpioSetPin.isra.0>
            } else if(!strcmp(argv[2], "clear")) {
 8009776:	4912      	ldr	r1, [pc, #72]	; (80097c0 <cmdGPIO+0x154>)
 8009778:	4630      	mov	r0, r6
 800977a:	f7fa fa25 	bl	8003bc8 <strcmp>
 800977e:	4601      	mov	r1, r0
                gpioSetPin(pin, false);
 8009780:	4620      	mov	r0, r4
            } else if(!strcmp(argv[2], "clear")) {
 8009782:	2900      	cmp	r1, #0
 8009784:	d0f3      	beq.n	800976e <cmdGPIO+0x102>
                chprintf(chp, "Value: %u"SHELL_NEWLINE_STR, gpioGetPin(pin));
 8009786:	f7fa fe35 	bl	80043f4 <gpioGetPin>
 800978a:	490e      	ldr	r1, [pc, #56]	; (80097c4 <cmdGPIO+0x158>)
 800978c:	4602      	mov	r2, r0
 800978e:	4628      	mov	r0, r5
}
 8009790:	e8bd 47f0 	ldmia.w	sp!, {r4, r5, r6, r7, r8, r9, sl, lr}
                chprintf(chp, "Value: %u"SHELL_NEWLINE_STR, gpioGetPin(pin));
 8009794:	f7fe bfe9 	b.w	800876a <chprintf>
 8009798:	0800c08b 	.word	0x0800c08b
 800979c:	20000928 	.word	0x20000928
 80097a0:	0800c092 	.word	0x0800c092
 80097a4:	0800c09c 	.word	0x0800c09c
 80097a8:	0800be7c 	.word	0x0800be7c
 80097ac:	0800c0ae 	.word	0x0800c0ae
 80097b0:	0800c0b2 	.word	0x0800c0b2
 80097b4:	0800c0b6 	.word	0x0800c0b6
 80097b8:	0800c0bd 	.word	0x0800c0bd
 80097bc:	0800c0c3 	.word	0x0800c0c3
 80097c0:	0800c0c7 	.word	0x0800c0c7
 80097c4:	0800c0cd 	.word	0x0800c0cd

080097c8 <cmdConvert>:
    chprintf(chp, "\tconvert hs [shfband] [1/0]"SHELL_NEWLINE_STR);
    chprintf(chp, "\tconvert status"SHELL_NEWLINE_STR);
}

void cmdConvert(void* user, BaseSequentialStream *chp, int argc, char *argv[])
{
 80097c8:	e92d 47f0 	stmdb	sp!, {r4, r5, r6, r7, r8, r9, sl, lr}
    ConverterManager* converter = (ConverterManager*)user;

    if(argc == 1) {
 80097cc:	2a01      	cmp	r2, #1
{
 80097ce:	4605      	mov	r5, r0
 80097d0:	460c      	mov	r4, r1
 80097d2:	4690      	mov	r8, r2
 80097d4:	461e      	mov	r6, r3
 80097d6:	b088      	sub	sp, #32
    if(argc == 1) {
 80097d8:	d177      	bne.n	80098ca <cmdConvert+0x102>
        if(!strcmp(argv[0], "status")) {
 80097da:	4968      	ldr	r1, [pc, #416]	; (800997c <cmdConvert+0x1b4>)
 80097dc:	6818      	ldr	r0, [r3, #0]
 80097de:	f7fa f9f3 	bl	8003bc8 <strcmp>
 80097e2:	4606      	mov	r6, r0
 80097e4:	2800      	cmp	r0, #0
 80097e6:	f040 80bb 	bne.w	8009960 <cmdConvert+0x198>
    return true;
}

void converterStatus(BaseSequentialStream* chp, ConverterManager* converter)
{
    chprintf(chp, "Bands: [Disable mask: 0x%08x]"SHELL_NEWLINE_STR, converter->disabledBands);
 80097ea:	69ea      	ldr	r2, [r5, #28]
 80097ec:	4964      	ldr	r1, [pc, #400]	; (8009980 <cmdConvert+0x1b8>)
 80097ee:	4620      	mov	r0, r4
 80097f0:	f7fe ffbb 	bl	800876a <chprintf>
    printfFixed(chp, 9, "\tBand ID");
 80097f4:	2109      	movs	r1, #9
 80097f6:	4a63      	ldr	r2, [pc, #396]	; (8009984 <cmdConvert+0x1bc>)
 80097f8:	4620      	mov	r0, r4
 80097fa:	f7ff f95f 	bl	8008abc <printfFixed>
    printfFixed(chp, 7, "Name");
 80097fe:	2107      	movs	r1, #7
 8009800:	4a61      	ldr	r2, [pc, #388]	; (8009988 <cmdConvert+0x1c0>)
 8009802:	4620      	mov	r0, r4
 8009804:	f7ff f95a 	bl	8008abc <printfFixed>
    printfFixed(chp, 14, "FreqMin [kHz]");
 8009808:	210e      	movs	r1, #14
 800980a:	4a60      	ldr	r2, [pc, #384]	; (800998c <cmdConvert+0x1c4>)
 800980c:	4620      	mov	r0, r4
 800980e:	f7ff f955 	bl	8008abc <printfFixed>
    chprintf(chp,	     "FreqMax [kHz]"SHELL_NEWLINE_STR);
 8009812:	4620      	mov	r0, r4
 8009814:	495e      	ldr	r1, [pc, #376]	; (8009990 <cmdConvert+0x1c8>)
 8009816:	f7fe ffa8 	bl	800876a <chprintf>
        if(i == converter->activeBand) {
            printfFixed(chp, 9, "\t%u [*]", i);
        } else {
            printfFixed(chp, 9, "\t%u", i);
        }
        printfFixed(chp, 7, "%s", converter->bands[i].bandName);
 800981a:	f8df 8178 	ldr.w	r8, [pc, #376]	; 8009994 <cmdConvert+0x1cc>
        printfFixed(chp, 14, "%u", converter->bands[i].minFrequencyKHz);
 800981e:	f8df 9178 	ldr.w	r9, [pc, #376]	; 8009998 <cmdConvert+0x1d0>
        chprintf(chp,	     "%u"SHELL_NEWLINE_STR, converter->bands[i].maxFrequencyKHz);
 8009822:	f8df a178 	ldr.w	sl, [pc, #376]	; 800999c <cmdConvert+0x1d4>
    for(uint8_t i=0; converter->bands[i].functions; i++) {
 8009826:	2714      	movs	r7, #20
 8009828:	b2f3      	uxtb	r3, r6
 800982a:	435f      	muls	r7, r3
 800982c:	696a      	ldr	r2, [r5, #20]
 800982e:	443a      	add	r2, r7
 8009830:	6912      	ldr	r2, [r2, #16]
 8009832:	b96a      	cbnz	r2, 8009850 <cmdConvert+0x88>
    }

    chprintf(chp, SHELL_NEWLINE_STR);
 8009834:	4620      	mov	r0, r4
 8009836:	495a      	ldr	r1, [pc, #360]	; (80099a0 <cmdConvert+0x1d8>)
 8009838:	f7fe ff97 	bl	800876a <chprintf>

    if(converter->activeBand == 0xff) {
 800983c:	7e2b      	ldrb	r3, [r5, #24]
 800983e:	2bff      	cmp	r3, #255	; 0xff
 8009840:	d12c      	bne.n	800989c <cmdConvert+0xd4>
        chprintf(chp, "Converter disabled." SHELL_NEWLINE_STR);
 8009842:	4958      	ldr	r1, [pc, #352]	; (80099a4 <cmdConvert+0x1dc>)
    chprintf(chp, "\tconvert status"SHELL_NEWLINE_STR);
 8009844:	4620      	mov	r0, r4
            return;
        }
    }

    cmdConvertUsage(chp);
}
 8009846:	b008      	add	sp, #32
 8009848:	e8bd 47f0 	ldmia.w	sp!, {r4, r5, r6, r7, r8, r9, sl, lr}
    chprintf(chp, "\tconvert status"SHELL_NEWLINE_STR);
 800984c:	f7fe bf8d 	b.w	800876a <chprintf>
        if(_BV(i) & converter-> disabledBands) {
 8009850:	69ea      	ldr	r2, [r5, #28]
 8009852:	40da      	lsrs	r2, r3
 8009854:	07d1      	lsls	r1, r2, #31
 8009856:	d41f      	bmi.n	8009898 <cmdConvert+0xd0>
        if(i == converter->activeBand) {
 8009858:	7e2a      	ldrb	r2, [r5, #24]
            printfFixed(chp, 9, "\t%u", i);
 800985a:	2109      	movs	r1, #9
        if(i == converter->activeBand) {
 800985c:	429a      	cmp	r2, r3
            printfFixed(chp, 9, "\t%u [*]", i);
 800985e:	bf0a      	itet	eq
 8009860:	4613      	moveq	r3, r2
            printfFixed(chp, 9, "\t%u", i);
 8009862:	4a51      	ldrne	r2, [pc, #324]	; (80099a8 <cmdConvert+0x1e0>)
            printfFixed(chp, 9, "\t%u [*]", i);
 8009864:	4a51      	ldreq	r2, [pc, #324]	; (80099ac <cmdConvert+0x1e4>)
            printfFixed(chp, 9, "\t%u", i);
 8009866:	4620      	mov	r0, r4
 8009868:	f7ff f928 	bl	8008abc <printfFixed>
        printfFixed(chp, 7, "%s", converter->bands[i].bandName);
 800986c:	696b      	ldr	r3, [r5, #20]
 800986e:	4642      	mov	r2, r8
 8009870:	2107      	movs	r1, #7
 8009872:	59db      	ldr	r3, [r3, r7]
 8009874:	4620      	mov	r0, r4
 8009876:	f7ff f921 	bl	8008abc <printfFixed>
        printfFixed(chp, 14, "%u", converter->bands[i].minFrequencyKHz);
 800987a:	696b      	ldr	r3, [r5, #20]
 800987c:	464a      	mov	r2, r9
 800987e:	443b      	add	r3, r7
 8009880:	210e      	movs	r1, #14
 8009882:	685b      	ldr	r3, [r3, #4]
 8009884:	4620      	mov	r0, r4
 8009886:	f7ff f919 	bl	8008abc <printfFixed>
        chprintf(chp,	     "%u"SHELL_NEWLINE_STR, converter->bands[i].maxFrequencyKHz);
 800988a:	696b      	ldr	r3, [r5, #20]
 800988c:	4651      	mov	r1, sl
 800988e:	443b      	add	r3, r7
 8009890:	4620      	mov	r0, r4
 8009892:	689a      	ldr	r2, [r3, #8]
 8009894:	f7fe ff69 	bl	800876a <chprintf>
    for(uint8_t i=0; converter->bands[i].functions; i++) {
 8009898:	3601      	adds	r6, #1
 800989a:	e7c4      	b.n	8009826 <cmdConvert+0x5e>
    } else {
        chprintf(chp, "Input Frequency:    %u kHz" SHELL_NEWLINE_STR, converter->currentTune.inputFrequencyKHz);
 800989c:	682a      	ldr	r2, [r5, #0]
 800989e:	4620      	mov	r0, r4
 80098a0:	4943      	ldr	r1, [pc, #268]	; (80099b0 <cmdConvert+0x1e8>)
 80098a2:	f7fe ff62 	bl	800876a <chprintf>
        chprintf(chp, "Output Frequency:   %u kHz" SHELL_NEWLINE_STR, converter->currentTune.outputFrequencyKHz);
 80098a6:	68ea      	ldr	r2, [r5, #12]
 80098a8:	4620      	mov	r0, r4
 80098aa:	4942      	ldr	r1, [pc, #264]	; (80099b4 <cmdConvert+0x1ec>)
 80098ac:	f7fe ff5d 	bl	800876a <chprintf>
        chprintf(chp, "Spectral inversion: %u" SHELL_NEWLINE_STR, converter->currentTune.spectrumInversion);
 80098b0:	7c2a      	ldrb	r2, [r5, #16]
 80098b2:	4620      	mov	r0, r4
 80098b4:	4940      	ldr	r1, [pc, #256]	; (80099b8 <cmdConvert+0x1f0>)
 80098b6:	f7fe ff58 	bl	800876a <chprintf>
        chprintf(chp, "Selected antenna:   %u" SHELL_NEWLINE_STR , converter->currentTune.antennaInput);
 80098ba:	4620      	mov	r0, r4
 80098bc:	686a      	ldr	r2, [r5, #4]
 80098be:	493f      	ldr	r1, [pc, #252]	; (80099bc <cmdConvert+0x1f4>)
}
 80098c0:	b008      	add	sp, #32
 80098c2:	e8bd 47f0 	ldmia.w	sp!, {r4, r5, r6, r7, r8, r9, sl, lr}
 80098c6:	f7fe bf50 	b.w	800876a <chprintf>
    } else if (argc >= 2) {
 80098ca:	dd49      	ble.n	8009960 <cmdConvert+0x198>
        if(argc == 3 && !strcmp(argv[0], "hs")) {
 80098cc:	2a03      	cmp	r2, #3
        if(!strcmp(argv[0], "status")) {
 80098ce:	681f      	ldr	r7, [r3, #0]
        if(argc == 3 && !strcmp(argv[0], "hs")) {
 80098d0:	d117      	bne.n	8009902 <cmdConvert+0x13a>
 80098d2:	4638      	mov	r0, r7
 80098d4:	493a      	ldr	r1, [pc, #232]	; (80099c0 <cmdConvert+0x1f8>)
 80098d6:	f7fa f977 	bl	8003bc8 <strcmp>
 80098da:	b990      	cbnz	r0, 8009902 <cmdConvert+0x13a>
            uint32_t band = strToInt(argv[1], 10);
 80098dc:	210a      	movs	r1, #10
 80098de:	6870      	ldr	r0, [r6, #4]
 80098e0:	f7fa fc7b 	bl	80041da <strToInt>
            if(band < sizeof(converterSHFBandConfig)/sizeof(ConverterSHFConfig)) {
 80098e4:	2803      	cmp	r0, #3
 80098e6:	d80c      	bhi.n	8009902 <cmdConvert+0x13a>
                converterSHFBandConfig[band].useHighSideMixing = (argv[2][0] == '1');
 80098e8:	230c      	movs	r3, #12
 80098ea:	4358      	muls	r0, r3
 80098ec:	68b3      	ldr	r3, [r6, #8]
 80098ee:	781b      	ldrb	r3, [r3, #0]
 80098f0:	f1a3 0231 	sub.w	r2, r3, #49	; 0x31
 80098f4:	4253      	negs	r3, r2
 80098f6:	4153      	adcs	r3, r2
 80098f8:	4a32      	ldr	r2, [pc, #200]	; (80099c4 <cmdConvert+0x1fc>)
 80098fa:	5413      	strb	r3, [r2, r0]
}
 80098fc:	b008      	add	sp, #32
 80098fe:	e8bd 87f0 	ldmia.w	sp!, {r4, r5, r6, r7, r8, r9, sl, pc}
        if(!strcmp(argv[0], "setup")) {
 8009902:	4638      	mov	r0, r7
 8009904:	4930      	ldr	r1, [pc, #192]	; (80099c8 <cmdConvert+0x200>)
 8009906:	f7fa f95f 	bl	8003bc8 <strcmp>
 800990a:	4607      	mov	r7, r0
 800990c:	bb40      	cbnz	r0, 8009960 <cmdConvert+0x198>
            uint32_t frequency = strToInt(argv[1], 10);
 800990e:	210a      	movs	r1, #10
 8009910:	6870      	ldr	r0, [r6, #4]
 8009912:	f7fa fc62 	bl	80041da <strToInt>
            if(argc >= 3) {
 8009916:	f1b8 0f02 	cmp.w	r8, #2
            tuneRequest.antennaInput = 0;
 800991a:	e9cd 0703 	strd	r0, r7, [sp, #12]
            if(argc >= 3) {
 800991e:	d111      	bne.n	8009944 <cmdConvert+0x17c>
            tuneRequest.forceBand = false;
 8009920:	f88d 7014 	strb.w	r7, [sp, #20]
            bool result = converterTune(converter, &tuneRequest);
 8009924:	4628      	mov	r0, r5
 8009926:	a903      	add	r1, sp, #12
 8009928:	f7fa fde4 	bl	80044f4 <converterTune>
            if(result) {
 800992c:	b198      	cbz	r0, 8009956 <cmdConvert+0x18e>
                chprintf(chp, "IF Frequency: %u kHz, inversion: %u (band %u)"SHELL_NEWLINE_STR, tuneRequest.outputFrequencyKHz, tuneRequest.spectrumInversion, tuneRequest.bandId);
 800992e:	f89d 3015 	ldrb.w	r3, [sp, #21]
 8009932:	4620      	mov	r0, r4
 8009934:	9300      	str	r3, [sp, #0]
 8009936:	9a06      	ldr	r2, [sp, #24]
 8009938:	f89d 301c 	ldrb.w	r3, [sp, #28]
 800993c:	4923      	ldr	r1, [pc, #140]	; (80099cc <cmdConvert+0x204>)
 800993e:	f7fe ff14 	bl	800876a <chprintf>
 8009942:	e7db      	b.n	80098fc <cmdConvert+0x134>
                tuneRequest.forceBand = true;
 8009944:	2301      	movs	r3, #1
                tuneRequest.bandId = strToInt(argv[2], 10);
 8009946:	68b0      	ldr	r0, [r6, #8]
                tuneRequest.forceBand = true;
 8009948:	f88d 3014 	strb.w	r3, [sp, #20]
                tuneRequest.bandId = strToInt(argv[2], 10);
 800994c:	f7fa fc45 	bl	80041da <strToInt>
 8009950:	f88d 0015 	strb.w	r0, [sp, #21]
 8009954:	e7e6      	b.n	8009924 <cmdConvert+0x15c>
                chprintf(chp, "Error!"SHELL_NEWLINE_STR);
 8009956:	4620      	mov	r0, r4
 8009958:	491d      	ldr	r1, [pc, #116]	; (80099d0 <cmdConvert+0x208>)
 800995a:	f7fe ff06 	bl	800876a <chprintf>
            return;
 800995e:	e7cd      	b.n	80098fc <cmdConvert+0x134>
    chprintf(chp, "Usage:"SHELL_NEWLINE_STR);
 8009960:	491c      	ldr	r1, [pc, #112]	; (80099d4 <cmdConvert+0x20c>)
 8009962:	4620      	mov	r0, r4
 8009964:	f7fe ff01 	bl	800876a <chprintf>
    chprintf(chp, "\tconvert setup [freqkHz] [forceBand]"SHELL_NEWLINE_STR);
 8009968:	491b      	ldr	r1, [pc, #108]	; (80099d8 <cmdConvert+0x210>)
 800996a:	4620      	mov	r0, r4
 800996c:	f7fe fefd 	bl	800876a <chprintf>
    chprintf(chp, "\tconvert hs [shfband] [1/0]"SHELL_NEWLINE_STR);
 8009970:	491a      	ldr	r1, [pc, #104]	; (80099dc <cmdConvert+0x214>)
 8009972:	4620      	mov	r0, r4
 8009974:	f7fe fef9 	bl	800876a <chprintf>
    chprintf(chp, "\tconvert status"SHELL_NEWLINE_STR);
 8009978:	4919      	ldr	r1, [pc, #100]	; (80099e0 <cmdConvert+0x218>)
 800997a:	e763      	b.n	8009844 <cmdConvert+0x7c>
 800997c:	0800c08b 	.word	0x0800c08b
 8009980:	0800c0d9 	.word	0x0800c0d9
 8009984:	0800c0f9 	.word	0x0800c0f9
 8009988:	0800c36e 	.word	0x0800c36e
 800998c:	0800c102 	.word	0x0800c102
 8009990:	0800c110 	.word	0x0800c110
 8009994:	0800bc9c 	.word	0x0800bc9c
 8009998:	0800c129 	.word	0x0800c129
 800999c:	0800c1a9 	.word	0x0800c1a9
 80099a0:	0800be7c 	.word	0x0800be7c
 80099a4:	0800c12c 	.word	0x0800c12c
 80099a8:	0800c128 	.word	0x0800c128
 80099ac:	0800c120 	.word	0x0800c120
 80099b0:	0800c142 	.word	0x0800c142
 80099b4:	0800c15f 	.word	0x0800c15f
 80099b8:	0800c17c 	.word	0x0800c17c
 80099bc:	0800c195 	.word	0x0800c195
 80099c0:	0800c1ae 	.word	0x0800c1ae
 80099c4:	2000080c 	.word	0x2000080c
 80099c8:	0800c1b1 	.word	0x0800c1b1
 80099cc:	0800c1b7 	.word	0x0800c1b7
 80099d0:	0800c1e7 	.word	0x0800c1e7
 80099d4:	0800bc85 	.word	0x0800bc85
 80099d8:	0800c1f0 	.word	0x0800c1f0
 80099dc:	0800c217 	.word	0x0800c217
 80099e0:	0800c235 	.word	0x0800c235

080099e4 <cmdReboot>:
{
 80099e4:	b538      	push	{r3, r4, r5, lr}
 80099e6:	460c      	mov	r4, r1
    if(argc == 0) {
 80099e8:	b9ca      	cbnz	r2, 8009a1e <cmdReboot+0x3a>
        chprintf(chp,"Usage:"SHELL_NEWLINE_STR);
 80099ea:	4927      	ldr	r1, [pc, #156]	; (8009a88 <cmdReboot+0xa4>)
 80099ec:	4620      	mov	r0, r4
 80099ee:	f7fe febc 	bl	800876a <chprintf>
        chprintf(chp,"\t reboot nvic"SHELL_NEWLINE_STR);
 80099f2:	4926      	ldr	r1, [pc, #152]	; (8009a8c <cmdReboot+0xa8>)
 80099f4:	4620      	mov	r0, r4
 80099f6:	f7fe feb8 	bl	800876a <chprintf>
        chprintf(chp,"\t reboot loader"SHELL_NEWLINE_STR);
 80099fa:	4925      	ldr	r1, [pc, #148]	; (8009a90 <cmdReboot+0xac>)
 80099fc:	4620      	mov	r0, r4
 80099fe:	f7fe feb4 	bl	800876a <chprintf>
        chprintf(chp,"\t reboot loaderp"SHELL_NEWLINE_STR);
 8009a02:	4924      	ldr	r1, [pc, #144]	; (8009a94 <cmdReboot+0xb0>)
 8009a04:	4620      	mov	r0, r4
 8009a06:	f7fe feb0 	bl	800876a <chprintf>
        chprintf(chp,"\t reboot crash"SHELL_NEWLINE_STR);
 8009a0a:	4923      	ldr	r1, [pc, #140]	; (8009a98 <cmdReboot+0xb4>)
 8009a0c:	4620      	mov	r0, r4
 8009a0e:	f7fe feac 	bl	800876a <chprintf>
        chprintf(chp,"\t reboot memexec"SHELL_NEWLINE_STR);
 8009a12:	4922      	ldr	r1, [pc, #136]	; (8009a9c <cmdReboot+0xb8>)
            chprintf(chp, "Wrong result!"SHELL_NEWLINE_STR);
 8009a14:	4620      	mov	r0, r4
}
 8009a16:	e8bd 4038 	ldmia.w	sp!, {r3, r4, r5, lr}
            chprintf(chp, "Wrong result!"SHELL_NEWLINE_STR);
 8009a1a:	f7fe bea6 	b.w	800876a <chprintf>
    } else if(argc == 1 && !strcmp(argv[0], "loaderp")) {
 8009a1e:	2a01      	cmp	r2, #1
 8009a20:	d12f      	bne.n	8009a82 <cmdReboot+0x9e>
 8009a22:	681d      	ldr	r5, [r3, #0]
 8009a24:	491e      	ldr	r1, [pc, #120]	; (8009aa0 <cmdReboot+0xbc>)
 8009a26:	4628      	mov	r0, r5
 8009a28:	f7fa f8ce 	bl	8003bc8 <strcmp>
 8009a2c:	b1f0      	cbz	r0, 8009a6c <cmdReboot+0x88>
    } else if(argc == 1 && !strcmp(argv[0], "loader")) {
 8009a2e:	4628      	mov	r0, r5
 8009a30:	491c      	ldr	r1, [pc, #112]	; (8009aa4 <cmdReboot+0xc0>)
 8009a32:	f7fa f8c9 	bl	8003bc8 <strcmp>
 8009a36:	b1d8      	cbz	r0, 8009a70 <cmdReboot+0x8c>
    } else if(argc == 1 && !strcmp(argv[0], "crash")) {
 8009a38:	4628      	mov	r0, r5
 8009a3a:	491b      	ldr	r1, [pc, #108]	; (8009aa8 <cmdReboot+0xc4>)
 8009a3c:	f7fa f8c4 	bl	8003bc8 <strcmp>
 8009a40:	b910      	cbnz	r0, 8009a48 <cmdReboot+0x64>
        osalSysHalt("crash");
 8009a42:	f7fa fe87 	bl	8004754 <vTaskEndScheduler>
 8009a46:	e7fe      	b.n	8009a46 <cmdReboot+0x62>
    } else if(argc == 1 && !strcmp(argv[0], "memexec")) {
 8009a48:	4628      	mov	r0, r5
 8009a4a:	4918      	ldr	r1, [pc, #96]	; (8009aac <cmdReboot+0xc8>)
 8009a4c:	f7fa f8bc 	bl	8003bc8 <strcmp>
 8009a50:	b9b8      	cbnz	r0, 8009a82 <cmdReboot+0x9e>
        if(callIt(4) == 5 && callIt(54) == 55) {
 8009a52:	2004      	movs	r0, #4
        uint32_t (*callIt)(uint32_t) = (uint32_t(*)(uint32_t))(incr0bxlr+1); /* +1 for thumb mode */
 8009a54:	4d16      	ldr	r5, [pc, #88]	; (8009ab0 <cmdReboot+0xcc>)
        if(callIt(4) == 5 && callIt(54) == 55) {
 8009a56:	47a8      	blx	r5
 8009a58:	2805      	cmp	r0, #5
 8009a5a:	d105      	bne.n	8009a68 <cmdReboot+0x84>
 8009a5c:	2036      	movs	r0, #54	; 0x36
 8009a5e:	47a8      	blx	r5
 8009a60:	2837      	cmp	r0, #55	; 0x37
 8009a62:	d101      	bne.n	8009a68 <cmdReboot+0x84>
            chprintf(chp, "Success!"SHELL_NEWLINE_STR);
 8009a64:	4913      	ldr	r1, [pc, #76]	; (8009ab4 <cmdReboot+0xd0>)
 8009a66:	e7d5      	b.n	8009a14 <cmdReboot+0x30>
            chprintf(chp, "Wrong result!"SHELL_NEWLINE_STR);
 8009a68:	4913      	ldr	r1, [pc, #76]	; (8009ab8 <cmdReboot+0xd4>)
 8009a6a:	e7d3      	b.n	8009a14 <cmdReboot+0x30>
        rebootCode = 0x424C;
 8009a6c:	f244 204c 	movw	r0, #16972	; 0x424c
    RCC->APB1ENR |= (RCC_APB1ENR_PWREN | RCC_APB1ENR_BKPEN);
 8009a70:	4a12      	ldr	r2, [pc, #72]	; (8009abc <cmdReboot+0xd8>)
 8009a72:	69d3      	ldr	r3, [r2, #28]
 8009a74:	f043 53c0 	orr.w	r3, r3, #402653184	; 0x18000000
 8009a78:	61d3      	str	r3, [r2, #28]
    BKP->DR10 = rebootCode;
 8009a7a:	4b11      	ldr	r3, [pc, #68]	; (8009ac0 <cmdReboot+0xdc>)
 8009a7c:	6298      	str	r0, [r3, #40]	; 0x28
    NVIC_SystemReset();
 8009a7e:	f7fa fbdb 	bl	8004238 <NVIC_SystemReset.lto_priv.0>
        rebootCode = 0x424D;
 8009a82:	f244 204d 	movw	r0, #16973	; 0x424d
 8009a86:	e7f3      	b.n	8009a70 <cmdReboot+0x8c>
 8009a88:	0800bc85 	.word	0x0800bc85
 8009a8c:	0800c247 	.word	0x0800c247
 8009a90:	0800c257 	.word	0x0800c257
 8009a94:	0800c269 	.word	0x0800c269
 8009a98:	0800c27c 	.word	0x0800c27c
 8009a9c:	0800c28d 	.word	0x0800c28d
 8009aa0:	0800c2a0 	.word	0x0800c2a0
 8009aa4:	0800c2a8 	.word	0x0800c2a8
 8009aa8:	0800c2af 	.word	0x0800c2af
 8009aac:	0800c2b5 	.word	0x0800c2b5
 8009ab0:	2000084d 	.word	0x2000084d
 8009ab4:	0800c2bd 	.word	0x0800c2bd
 8009ab8:	0800c2c8 	.word	0x0800c2c8
 8009abc:	40021000 	.word	0x40021000
 8009ac0:	40006c00 	.word	0x40006c00

08009ac4 <cmdSyslog>:
{
 8009ac4:	e92d 4ff0 	stmdb	sp!, {r4, r5, r6, r7, r8, r9, sl, fp, lr}
    if(argc == 1 && !strcmp(argv[0], "clear")) {
 8009ac8:	2a01      	cmp	r2, #1
{
 8009aca:	460d      	mov	r5, r1
 8009acc:	461c      	mov	r4, r3
 8009ace:	b087      	sub	sp, #28
    if(argc == 1 && !strcmp(argv[0], "clear")) {
 8009ad0:	d117      	bne.n	8009b02 <cmdSyslog+0x3e>
 8009ad2:	4942      	ldr	r1, [pc, #264]	; (8009bdc <cmdSyslog+0x118>)
 8009ad4:	6818      	ldr	r0, [r3, #0]
 8009ad6:	f7fa f877 	bl	8003bc8 <strcmp>
 8009ada:	4604      	mov	r4, r0
 8009adc:	b9f8      	cbnz	r0, 8009b1e <cmdSyslog+0x5a>
    xSemaphoreTake(syslogSemaphore, portMAX_DELAY);
 8009ade:	4b40      	ldr	r3, [pc, #256]	; (8009be0 <cmdSyslog+0x11c>)
 8009ae0:	f04f 31ff 	mov.w	r1, #4294967295	; 0xffffffff
 8009ae4:	681d      	ldr	r5, [r3, #0]
 8009ae6:	4628      	mov	r0, r5
 8009ae8:	f7fc f884 	bl	8005bf4 <xQueueSemaphoreTake>
    }
}

void packetQueueInit(PacketQueue_t* queue, void* buffer, uint32_t bufferSize)
{
    memset(queue, 0, sizeof(*queue));
 8009aec:	221c      	movs	r2, #28
 8009aee:	4621      	mov	r1, r4
 8009af0:	483c      	ldr	r0, [pc, #240]	; (8009be4 <cmdSyslog+0x120>)
 8009af2:	f001 fe97 	bl	800b824 <memset>
    xSemaphoreGive(syslogSemaphore);
 8009af6:	4628      	mov	r0, r5
}
 8009af8:	b007      	add	sp, #28
 8009afa:	e8bd 4ff0 	ldmia.w	sp!, {r4, r5, r6, r7, r8, r9, sl, fp, lr}
            i += readBytes;
        }
        chnWrite(chp, (uint8_t*)SHELL_NEWLINE_STR, strlen(SHELL_NEWLINE_STR));
    }
    packetQueueEndReadTransaction(&syslogQueue, true);
    xSemaphoreGive(syslogSemaphore);
 8009afe:	f7fe bccf 	b.w	80084a0 <xQueueGenericSend.constprop.0>
    } else if(argc == 2 && !strcmp(argv[0], "add")) {
 8009b02:	2a02      	cmp	r2, #2
 8009b04:	d10b      	bne.n	8009b1e <cmdSyslog+0x5a>
 8009b06:	4938      	ldr	r1, [pc, #224]	; (8009be8 <cmdSyslog+0x124>)
 8009b08:	6818      	ldr	r0, [r3, #0]
 8009b0a:	f7fa f85d 	bl	8003bc8 <strcmp>
 8009b0e:	b930      	cbnz	r0, 8009b1e <cmdSyslog+0x5a>
        syslog("%s", argv[1]);
 8009b10:	6861      	ldr	r1, [r4, #4]
 8009b12:	4836      	ldr	r0, [pc, #216]	; (8009bec <cmdSyslog+0x128>)
}
 8009b14:	b007      	add	sp, #28
 8009b16:	e8bd 4ff0 	ldmia.w	sp!, {r4, r5, r6, r7, r8, r9, sl, fp, lr}
        syslog("%s", argv[1]);
 8009b1a:	f7ff b93f 	b.w	8008d9c <syslog>
    xSemaphoreTake(syslogSemaphore, portMAX_DELAY);
 8009b1e:	f8df 80c0 	ldr.w	r8, [pc, #192]	; 8009be0 <cmdSyslog+0x11c>
    if(syslogQueue.numDropped) {
 8009b22:	4c33      	ldr	r4, [pc, #204]	; (8009bf0 <cmdSyslog+0x12c>)
    xSemaphoreTake(syslogSemaphore, portMAX_DELAY);
 8009b24:	f04f 31ff 	mov.w	r1, #4294967295	; 0xffffffff
 8009b28:	f8d8 0000 	ldr.w	r0, [r8]
 8009b2c:	f7fc f862 	bl	8005bf4 <xQueueSemaphoreTake>
    if(syslogQueue.numDropped) {
 8009b30:	6a22      	ldr	r2, [r4, #32]
 8009b32:	b11a      	cbz	r2, 8009b3c <cmdSyslog+0x78>
        chprintf(chp, "... %u dropped ..."SHELL_NEWLINE_STR, syslogQueue.numDropped);
 8009b34:	4628      	mov	r0, r5
 8009b36:	492f      	ldr	r1, [pc, #188]	; (8009bf4 <cmdSyslog+0x130>)
 8009b38:	f7fe fe17 	bl	800876a <chprintf>
    queue->readPtrStored = queue->readPtr;
 8009b3c:	68a3      	ldr	r3, [r4, #8]
        chnWrite(chp, (uint8_t*)SHELL_NEWLINE_STR, strlen(SHELL_NEWLINE_STR));
 8009b3e:	f8df a0b8 	ldr.w	sl, [pc, #184]	; 8009bf8 <cmdSyslog+0x134>
 8009b42:	60e3      	str	r3, [r4, #12]
    queue->pktCountStored = queue->pktCount;
 8009b44:	8aa3      	ldrh	r3, [r4, #20]
 8009b46:	82e3      	strh	r3, [r4, #22]
    if(!queue->pktCount) {
 8009b48:	8aa3      	ldrh	r3, [r4, #20]
 8009b4a:	b943      	cbnz	r3, 8009b5e <cmdSyslog+0x9a>
        queue->readPtr = queue->readPtrStored;
 8009b4c:	68e3      	ldr	r3, [r4, #12]
    xSemaphoreGive(syslogSemaphore);
 8009b4e:	f8d8 0000 	ldr.w	r0, [r8]
 8009b52:	60a3      	str	r3, [r4, #8]
        queue->pktCount = queue->pktCountStored;
 8009b54:	8ae3      	ldrh	r3, [r4, #22]
 8009b56:	82a3      	strh	r3, [r4, #20]
 8009b58:	e7ce      	b.n	8009af8 <cmdSyslog+0x34>
        return 0;
 8009b5a:	463e      	mov	r6, r7
 8009b5c:	e02a      	b.n	8009bb4 <cmdSyslog+0xf0>
    queue->pktLen = (packetQueueReadByte(queue) << 8) |
 8009b5e:	f7fc fa05 	bl	8005f6c <packetQueueReadByte.constprop.0>
 8009b62:	4606      	mov	r6, r0
                    (packetQueueReadByte(queue));
 8009b64:	f7fc fa02 	bl	8005f6c <packetQueueReadByte.constprop.0>
    queue->pktLen = (packetQueueReadByte(queue) << 8) |
 8009b68:	ea40 2006 	orr.w	r0, r0, r6, lsl #8
    return queue->pktLen;
 8009b6c:	b283      	uxth	r3, r0
    queue->pktLen = (packetQueueReadByte(queue) << 8) |
 8009b6e:	61a0      	str	r0, [r4, #24]
    return queue->pktLen;
 8009b70:	9300      	str	r3, [sp, #0]
    while((len = packetQueueReadPacket(&syslogQueue))) {
 8009b72:	2800      	cmp	r0, #0
 8009b74:	d0ea      	beq.n	8009b4c <cmdSyslog+0x88>
        uint16_t i = 0;
 8009b76:	f04f 0900 	mov.w	r9, #0
    if(!queue->pktLen) {
 8009b7a:	69a7      	ldr	r7, [r4, #24]
 8009b7c:	2f00      	cmp	r7, #0
 8009b7e:	d0ec      	beq.n	8009b5a <cmdSyslog+0x96>
    if(bufLen > queue->pktLen) {
 8009b80:	2f0c      	cmp	r7, #12
 8009b82:	bf28      	it	cs
 8009b84:	270c      	movcs	r7, #12
        for(uint16_t i=0; i<bufLen; i++) {
 8009b86:	f04f 0b00 	mov.w	fp, #0
 8009b8a:	b2be      	uxth	r6, r7
 8009b8c:	aa03      	add	r2, sp, #12
 8009b8e:	9201      	str	r2, [sp, #4]
            buffer[i] = packetQueueReadByte(queue);
 8009b90:	f7fc f9ec 	bl	8005f6c <packetQueueReadByte.constprop.0>
        for(uint16_t i=0; i<bufLen; i++) {
 8009b94:	f10b 0b01 	add.w	fp, fp, #1
            buffer[i] = packetQueueReadByte(queue);
 8009b98:	9a01      	ldr	r2, [sp, #4]
        for(uint16_t i=0; i<bufLen; i++) {
 8009b9a:	fa1f fb8b 	uxth.w	fp, fp
 8009b9e:	45b3      	cmp	fp, r6
            buffer[i] = packetQueueReadByte(queue);
 8009ba0:	f802 0b01 	strb.w	r0, [r2], #1
        for(uint16_t i=0; i<bufLen; i++) {
 8009ba4:	d3f3      	bcc.n	8009b8e <cmdSyslog+0xca>
    queue->pktLen -= bufLen;
 8009ba6:	69a2      	ldr	r2, [r4, #24]
 8009ba8:	1bd7      	subs	r7, r2, r7
 8009baa:	61a7      	str	r7, [r4, #24]
    if(!queue->pktLen) {
 8009bac:	b917      	cbnz	r7, 8009bb4 <cmdSyslog+0xf0>
        queue->pktCount--;
 8009bae:	8aa2      	ldrh	r2, [r4, #20]
 8009bb0:	3a01      	subs	r2, #1
 8009bb2:	82a2      	strh	r2, [r4, #20]
            chnWrite(chp, tmpBuf, readBytes);
 8009bb4:	682a      	ldr	r2, [r5, #0]
 8009bb6:	4628      	mov	r0, r5
 8009bb8:	6817      	ldr	r7, [r2, #0]
 8009bba:	a903      	add	r1, sp, #12
 8009bbc:	4632      	mov	r2, r6
 8009bbe:	47b8      	blx	r7
            i += readBytes;
 8009bc0:	444e      	add	r6, r9
        while(i < len) {
 8009bc2:	9b00      	ldr	r3, [sp, #0]
            i += readBytes;
 8009bc4:	fa1f f986 	uxth.w	r9, r6
        while(i < len) {
 8009bc8:	4599      	cmp	r9, r3
 8009bca:	d3d6      	bcc.n	8009b7a <cmdSyslog+0xb6>
        chnWrite(chp, (uint8_t*)SHELL_NEWLINE_STR, strlen(SHELL_NEWLINE_STR));
 8009bcc:	682b      	ldr	r3, [r5, #0]
 8009bce:	2202      	movs	r2, #2
 8009bd0:	4651      	mov	r1, sl
 8009bd2:	4628      	mov	r0, r5
 8009bd4:	681b      	ldr	r3, [r3, #0]
 8009bd6:	4798      	blx	r3
 8009bd8:	e7b6      	b.n	8009b48 <cmdSyslog+0x84>
 8009bda:	bf00      	nop
 8009bdc:	0800c0c7 	.word	0x0800c0c7
 8009be0:	20001334 	.word	0x20001334
 8009be4:	20001318 	.word	0x20001318
 8009be8:	0800c2d8 	.word	0x0800c2d8
 8009bec:	0800bc9c 	.word	0x0800bc9c
 8009bf0:	20001310 	.word	0x20001310
 8009bf4:	0800c2dc 	.word	0x0800c2dc
 8009bf8:	0800be7c 	.word	0x0800be7c

08009bfc <shellStartThread>:
{
 8009bfc:	e92d 4ff0 	stmdb	sp!, {r4, r5, r6, r7, r8, r9, sl, fp, lr}
 8009c00:	4681      	mov	r9, r0
  *(scfg->sc_histbuf) = 0;
 8009c02:	f04f 0b00 	mov.w	fp, #0
 8009c06:	4bb6      	ldr	r3, [pc, #728]	; (8009ee0 <shellStartThread+0x2e4>)
 8009c08:	b0a3      	sub	sp, #140	; 0x8c
 8009c0a:	681b      	ldr	r3, [r3, #0]
    syslog("Shell 0x%08x started (%s).", activeShell, activeShell->taskName);
 8009c0c:	4601      	mov	r1, r0
 8009c0e:	65d8      	str	r0, [r3, #92]	; 0x5c
 8009c10:	6802      	ldr	r2, [r0, #0]
 8009c12:	48b4      	ldr	r0, [pc, #720]	; (8009ee4 <shellStartThread+0x2e8>)
 8009c14:	f7ff f8c2 	bl	8008d9c <syslog>
  const ShellCommand *scp = scfg->sc_commands;
 8009c18:	e9d9 7301 	ldrd	r7, r3, [r9, #4]
 8009c1c:	9302      	str	r3, [sp, #8]
  *(scfg->sc_histbuf) = 0;
 8009c1e:	f8d9 300c 	ldr.w	r3, [r9, #12]
 8009c22:	f883 b000 	strb.w	fp, [r3]
  ShellHistory hist = {
 8009c26:	f8d9 300c 	ldr.w	r3, [r9, #12]
 8009c2a:	e9cd bb0a 	strd	fp, fp, [sp, #40]	; 0x28
 8009c2e:	9307      	str	r3, [sp, #28]
 8009c30:	f8d9 3010 	ldr.w	r3, [r9, #16]
 8009c34:	e9cd 3b08 	strd	r3, fp, [sp, #32]
  chprintf(chp, SHELL_NEWLINE_STR);
 8009c38:	49ab      	ldr	r1, [pc, #684]	; (8009ee8 <shellStartThread+0x2ec>)
 8009c3a:	4638      	mov	r0, r7
 8009c3c:	f7fe fd95 	bl	800876a <chprintf>
bool shellGetLine(ShellConfig *scfg, char *line, unsigned size, ShellHistory *shp) {
  char *p = line;
  BaseSequentialStream *chp = scfg->sc_channel;
#if SHELL_USE_ESC_SEQ == TRUE
  bool escape = false;
  bool bracket = false;
 8009c40:	f04f 0800 	mov.w	r8, #0
  char *p = line;
 8009c44:	ad12      	add	r5, sp, #72	; 0x48
  bool escape = false;
 8009c46:	46c2      	mov	sl, r8
 8009c48:	462e      	mov	r6, r5
    chprintf(chp, SHELL_PROMPT_STR);
 8009c4a:	4638      	mov	r0, r7
 8009c4c:	49a7      	ldr	r1, [pc, #668]	; (8009eec <shellStartThread+0x2f0>)
 8009c4e:	f7fe fd8c 	bl	800876a <chprintf>
    if (shellGetLine(scfg, line, sizeof(line), shp)) {
 8009c52:	f8d9 4004 	ldr.w	r4, [r9, #4]
#endif

  while (true) {
    char c;

    if (streamRead(chp, (uint8_t *)&c, 1) == 0)
 8009c56:	6823      	ldr	r3, [r4, #0]
 8009c58:	2201      	movs	r2, #1
 8009c5a:	4620      	mov	r0, r4
 8009c5c:	685b      	ldr	r3, [r3, #4]
 8009c5e:	f10d 0117 	add.w	r1, sp, #23
 8009c62:	4798      	blx	r3
 8009c64:	2800      	cmp	r0, #0
 8009c66:	d041      	beq.n	8009cec <shellStartThread+0xf0>
      return true;
#if SHELL_USE_ESC_SEQ == TRUE
    if (c == 27) {
 8009c68:	f89d 1017 	ldrb.w	r1, [sp, #23]
 8009c6c:	291b      	cmp	r1, #27
 8009c6e:	f000 8129 	beq.w	8009ec4 <shellStartThread+0x2c8>
      escape = true;
      continue;
    }
    if (escape) {
 8009c72:	f1ba 0f00 	cmp.w	sl, #0
 8009c76:	d033      	beq.n	8009ce0 <shellStartThread+0xe4>
      escape = false;
      if (c == '[') {
 8009c78:	295b      	cmp	r1, #91	; 0x5b
 8009c7a:	f000 8126 	beq.w	8009eca <shellStartThread+0x2ce>
        escape = true;
        bracket = true;
        continue;
      }
      if (bracket) {
 8009c7e:	f1b8 0f00 	cmp.w	r8, #0
 8009c82:	d02b      	beq.n	8009cdc <shellStartThread+0xe0>
        bracket = false;
#if SHELL_USE_HISTORY == TRUE
        if (c == 'A') {
 8009c84:	2941      	cmp	r1, #65	; 0x41
 8009c86:	d119      	bne.n	8009cbc <shellStartThread+0xc0>
          int len = get_history(shp, line, SHELL_HIST_DIR_BK);
 8009c88:	2200      	movs	r2, #0
 8009c8a:	4631      	mov	r1, r6
 8009c8c:	a807      	add	r0, sp, #28
 8009c8e:	f7fd ff8a 	bl	8007ba6 <get_history>

          if (len > 0) {
 8009c92:	f1b0 0800 	subs.w	r8, r0, #0
 8009c96:	dd1f      	ble.n	8009cd8 <shellStartThread+0xdc>

          if (len == 0)
            *line = 0;

          if (len >= 0) {
            _shell_reset_cur(chp);
 8009c98:	2308      	movs	r3, #8
 8009c9a:	224a      	movs	r2, #74	; 0x4a
 8009c9c:	4994      	ldr	r1, [pc, #592]	; (8009ef0 <shellStartThread+0x2f4>)
 8009c9e:	4620      	mov	r0, r4
 8009ca0:	f7fe fd63 	bl	800876a <chprintf>
            _shell_clr_line(chp);
 8009ca4:	4993      	ldr	r1, [pc, #588]	; (8009ef4 <shellStartThread+0x2f8>)
 8009ca6:	4620      	mov	r0, r4
 8009ca8:	f7fe fd5f 	bl	800876a <chprintf>
            chprintf(chp, "%s", line);
 8009cac:	4632      	mov	r2, r6
 8009cae:	4620      	mov	r0, r4
 8009cb0:	4991      	ldr	r1, [pc, #580]	; (8009ef8 <shellStartThread+0x2fc>)
 8009cb2:	f7fe fd5a 	bl	800876a <chprintf>
            p = line + len;
 8009cb6:	eb06 0508 	add.w	r5, r6, r8
 8009cba:	e00d      	b.n	8009cd8 <shellStartThread+0xdc>
        if (c == 'B') {
 8009cbc:	2942      	cmp	r1, #66	; 0x42
 8009cbe:	d10b      	bne.n	8009cd8 <shellStartThread+0xdc>
          int len = get_history(shp, line, SHELL_HIST_DIR_FW);
 8009cc0:	2201      	movs	r2, #1
 8009cc2:	4631      	mov	r1, r6
 8009cc4:	a807      	add	r0, sp, #28
 8009cc6:	f7fd ff6e 	bl	8007ba6 <get_history>
          if (len == 0)
 8009cca:	f1b0 0800 	subs.w	r8, r0, #0
 8009cce:	d102      	bne.n	8009cd6 <shellStartThread+0xda>
            *line = 0;
 8009cd0:	f88d 8048 	strb.w	r8, [sp, #72]	; 0x48
 8009cd4:	e7e0      	b.n	8009c98 <shellStartThread+0x9c>
          if (len >= 0) {
 8009cd6:	dadf      	bge.n	8009c98 <shellStartThread+0x9c>
        bracket = false;
 8009cd8:	f04f 0800 	mov.w	r8, #0
      escape = false;
 8009cdc:	46c2      	mov	sl, r8
 8009cde:	e7ba      	b.n	8009c56 <shellStartThread+0x5a>
      }
      continue;
    }
#endif
#if (SHELL_CMD_EXIT_ENABLED == TRUE) && !defined(_CHIBIOS_NIL_)
    if (c == 4) {
 8009ce0:	2904      	cmp	r1, #4
 8009ce2:	d116      	bne.n	8009d12 <shellStartThread+0x116>
      chprintf(chp, "^D");
 8009ce4:	4620      	mov	r0, r4
 8009ce6:	4985      	ldr	r1, [pc, #532]	; (8009efc <shellStartThread+0x300>)
 8009ce8:	f7fe fd3f 	bl	800876a <chprintf>
      chprintf(chp, SHELL_NEWLINE_STR);
 8009cec:	4638      	mov	r0, r7
 8009cee:	497e      	ldr	r1, [pc, #504]	; (8009ee8 <shellStartThread+0x2ec>)
 8009cf0:	f7fe fd3b 	bl	800876a <chprintf>
      chprintf(chp, "logout");
 8009cf4:	4982      	ldr	r1, [pc, #520]	; (8009f00 <shellStartThread+0x304>)
 8009cf6:	4638      	mov	r0, r7
 8009cf8:	f7fe fd37 	bl	800876a <chprintf>
  chSysLock();
 8009cfc:	f7fa fd1a 	bl	8004734 <vPortEnterCritical>
    osalEventBroadcastFlagsI(event_source, 1);
 8009d00:	4880      	ldr	r0, [pc, #512]	; (8009f04 <shellStartThread+0x308>)
 8009d02:	2101      	movs	r1, #1
 8009d04:	f7fd f8f0 	bl	8006ee8 <osalEventBroadcastFlagsI>
    vTaskDelete(NULL);
 8009d08:	f7fc f9bc 	bl	8006084 <vTaskDelete.constprop.0>
}
 8009d0c:	b023      	add	sp, #140	; 0x8c
 8009d0e:	e8bd 8ff0 	ldmia.w	sp!, {r4, r5, r6, r7, r8, r9, sl, fp, pc}
      return true;
    }
#endif
    if ((c == 8) || (c == 127)) {
 8009d12:	2908      	cmp	r1, #8
 8009d14:	d001      	beq.n	8009d1a <shellStartThread+0x11e>
 8009d16:	297f      	cmp	r1, #127	; 0x7f
 8009d18:	d112      	bne.n	8009d40 <shellStartThread+0x144>
      if (p != line) {
 8009d1a:	42b5      	cmp	r5, r6
 8009d1c:	d09b      	beq.n	8009c56 <shellStartThread+0x5a>
        streamPut(chp, 0x08);
 8009d1e:	6823      	ldr	r3, [r4, #0]
 8009d20:	2108      	movs	r1, #8
 8009d22:	689b      	ldr	r3, [r3, #8]
 8009d24:	4620      	mov	r0, r4
 8009d26:	4798      	blx	r3
        streamPut(chp, 0x20);
 8009d28:	6823      	ldr	r3, [r4, #0]
 8009d2a:	2120      	movs	r1, #32
 8009d2c:	689b      	ldr	r3, [r3, #8]
 8009d2e:	4620      	mov	r0, r4
 8009d30:	4798      	blx	r3
        streamPut(chp, 0x08);
 8009d32:	6823      	ldr	r3, [r4, #0]
 8009d34:	2108      	movs	r1, #8
 8009d36:	4620      	mov	r0, r4
 8009d38:	689b      	ldr	r3, [r3, #8]
 8009d3a:	4798      	blx	r3
        p--;
 8009d3c:	3d01      	subs	r5, #1
 8009d3e:	e78a      	b.n	8009c56 <shellStartThread+0x5a>
      }
      continue;
    }
    if (c == '\r') {
 8009d40:	290d      	cmp	r1, #13
 8009d42:	f040 8081 	bne.w	8009e48 <shellStartThread+0x24c>
      chprintf(chp, SHELL_NEWLINE_STR);
 8009d46:	4620      	mov	r0, r4
 8009d48:	4967      	ldr	r1, [pc, #412]	; (8009ee8 <shellStartThread+0x2ec>)
 8009d4a:	f7fe fd0e 	bl	800876a <chprintf>
  if (length > shp->sh_size - 2)
 8009d4e:	9908      	ldr	r1, [sp, #32]
#if SHELL_USE_HISTORY == TRUE
      save_history(shp, line, p - line);
 8009d50:	1bac      	subs	r4, r5, r6
  if (length > shp->sh_size - 2)
 8009d52:	1e4b      	subs	r3, r1, #1
 8009d54:	429c      	cmp	r4, r3
 8009d56:	da06      	bge.n	8009d66 <shellStartThread+0x16a>
 8009d58:	462b      	mov	r3, r5
  while ((*(line + length -1) == ' ') && (length > 0))
 8009d5a:	f813 2d01 	ldrb.w	r2, [r3, #-1]!
 8009d5e:	2a20      	cmp	r2, #32
 8009d60:	d12d      	bne.n	8009dbe <shellStartThread+0x1c2>
 8009d62:	2c00      	cmp	r4, #0
 8009d64:	dc29      	bgt.n	8009dba <shellStartThread+0x1be>
    lp = parse_arguments(line, &tokp);
 8009d66:	4630      	mov	r0, r6
#endif
      *p = 0;
 8009d68:	f885 b000 	strb.w	fp, [r5]
    lp = parse_arguments(line, &tokp);
 8009d6c:	a906      	add	r1, sp, #24
 8009d6e:	f7ff fc3d 	bl	80095ec <parse_arguments>
 8009d72:	f10d 0830 	add.w	r8, sp, #48	; 0x30
 8009d76:	4604      	mov	r4, r0
    n = 0;
 8009d78:	2600      	movs	r6, #0
 8009d7a:	4645      	mov	r5, r8
    while ((lp = parse_arguments(NULL, &tokp)) != NULL) {
 8009d7c:	2000      	movs	r0, #0
 8009d7e:	a906      	add	r1, sp, #24
 8009d80:	f7ff fc34 	bl	80095ec <parse_arguments>
 8009d84:	2800      	cmp	r0, #0
 8009d86:	f040 80a2 	bne.w	8009ece <shellStartThread+0x2d2>
    args[n] = NULL;
 8009d8a:	ab22      	add	r3, sp, #136	; 0x88
 8009d8c:	eb03 0386 	add.w	r3, r3, r6, lsl #2
 8009d90:	f843 0c58 	str.w	r0, [r3, #-88]
    if (cmd != NULL) {
 8009d94:	2c00      	cmp	r4, #0
 8009d96:	f43f af53 	beq.w	8009c40 <shellStartThread+0x44>
      if (strcmp(cmd, "help") == 0) {
 8009d9a:	4620      	mov	r0, r4
 8009d9c:	495a      	ldr	r1, [pc, #360]	; (8009f08 <shellStartThread+0x30c>)
 8009d9e:	f7f9 ff13 	bl	8003bc8 <strcmp>
 8009da2:	2800      	cmp	r0, #0
 8009da4:	f040 80da 	bne.w	8009f5c <shellStartThread+0x360>
        if (n > 0) {
 8009da8:	2e00      	cmp	r6, #0
 8009daa:	f000 80b7 	beq.w	8009f1c <shellStartThread+0x320>
          shellUsage(chp, "help");
 8009dae:	4638      	mov	r0, r7
 8009db0:	4a55      	ldr	r2, [pc, #340]	; (8009f08 <shellStartThread+0x30c>)
 8009db2:	4956      	ldr	r1, [pc, #344]	; (8009f0c <shellStartThread+0x310>)
 8009db4:	f7fe fcd9 	bl	800876a <chprintf>
          continue;
 8009db8:	e742      	b.n	8009c40 <shellStartThread+0x44>
    length--;
 8009dba:	3c01      	subs	r4, #1
 8009dbc:	e7cd      	b.n	8009d5a <shellStartThread+0x15e>
  if (length <= 0)
 8009dbe:	2c00      	cmp	r4, #0
 8009dc0:	ddd1      	ble.n	8009d66 <shellStartThread+0x16a>
  if (shp->sh_end >= shp->sh_beg) {
 8009dc2:	9a0a      	ldr	r2, [sp, #40]	; 0x28
  int pos = shp->sh_beg + *(shp->sh_buffer + shp->sh_beg) + 1;
 8009dc4:	9807      	ldr	r0, [sp, #28]
  if (shp->sh_end >= shp->sh_beg) {
 8009dc6:	f8dd c024 	ldr.w	ip, [sp, #36]	; 0x24
 8009dca:	4562      	cmp	r2, ip
    if (length < (shp->sh_size - (shp->sh_end - shp->sh_beg + 1)))
 8009dcc:	bfa5      	ittet	ge
 8009dce:	eba2 030c 	subge.w	r3, r2, ip
 8009dd2:	3301      	addge	r3, #1
    if (length < (shp->sh_beg - shp->sh_end - 1))
 8009dd4:	ebac 0302 	sublt.w	r3, ip, r2
    if (length < (shp->sh_size - (shp->sh_end - shp->sh_beg + 1)))
 8009dd8:	1acb      	subge	r3, r1, r3
    if (length < (shp->sh_beg - shp->sh_end - 1))
 8009dda:	bfb8      	it	lt
 8009ddc:	f103 33ff 	addlt.w	r3, r3, #4294967295	; 0xffffffff
 8009de0:	429c      	cmp	r4, r3
 8009de2:	da1e      	bge.n	8009e22 <shellStartThread+0x226>
  if (length < shp->sh_size - shp->sh_end - 1)
 8009de4:	eba1 0802 	sub.w	r8, r1, r2
 8009de8:	f108 38ff 	add.w	r8, r8, #4294967295	; 0xffffffff
    memcpy(shp->sh_buffer + shp->sh_end + 1, line, length);
 8009dec:	3201      	adds	r2, #1
  if (length < shp->sh_size - shp->sh_end - 1)
 8009dee:	4544      	cmp	r4, r8
    memcpy(shp->sh_buffer + shp->sh_end + 1, line, length);
 8009df0:	4410      	add	r0, r2
  if (length < shp->sh_size - shp->sh_end - 1)
 8009df2:	da1f      	bge.n	8009e34 <shellStartThread+0x238>
    memcpy(shp->sh_buffer + shp->sh_end + 1, line, length);
 8009df4:	4622      	mov	r2, r4
 8009df6:	4631      	mov	r1, r6
    memcpy(shp->sh_buffer, line + part_len, length - part_len);
 8009df8:	f7f9 fe70 	bl	8003adc <memcpy>
  *(shp->sh_buffer + shp->sh_end) = (char)length;
 8009dfc:	9b0a      	ldr	r3, [sp, #40]	; 0x28
 8009dfe:	9a07      	ldr	r2, [sp, #28]
 8009e00:	54d4      	strb	r4, [r2, r3]
  shp->sh_end += length + 1;
 8009e02:	9b0a      	ldr	r3, [sp, #40]	; 0x28
 8009e04:	3401      	adds	r4, #1
 8009e06:	441c      	add	r4, r3
  if (shp->sh_end >= shp->sh_size)
 8009e08:	9b08      	ldr	r3, [sp, #32]
  shp->sh_end += length + 1;
 8009e0a:	940a      	str	r4, [sp, #40]	; 0x28
  if (shp->sh_end >= shp->sh_size)
 8009e0c:	429c      	cmp	r4, r3
    shp->sh_end -= shp->sh_size;
 8009e0e:	bfa4      	itt	ge
 8009e10:	1ae4      	subge	r4, r4, r3
 8009e12:	940a      	strge	r4, [sp, #40]	; 0x28
  *(shp->sh_buffer + shp->sh_end) = 0;
 8009e14:	9a07      	ldr	r2, [sp, #28]
 8009e16:	9b0a      	ldr	r3, [sp, #40]	; 0x28
 8009e18:	f802 b003 	strb.w	fp, [r2, r3]
  shp->sh_cur = 0;
 8009e1c:	f8cd b02c 	str.w	fp, [sp, #44]	; 0x2c
 8009e20:	e7a1      	b.n	8009d66 <shellStartThread+0x16a>
  int pos = shp->sh_beg + *(shp->sh_buffer + shp->sh_beg) + 1;
 8009e22:	f810 300c 	ldrb.w	r3, [r0, ip]
 8009e26:	4463      	add	r3, ip
 8009e28:	3301      	adds	r3, #1
  if (pos >= shp->sh_size)
 8009e2a:	4299      	cmp	r1, r3
    pos -= shp->sh_size;
 8009e2c:	bfd8      	it	le
 8009e2e:	1a5b      	suble	r3, r3, r1
  shp->sh_beg = pos;
 8009e30:	9309      	str	r3, [sp, #36]	; 0x24
 8009e32:	e7c8      	b.n	8009dc6 <shellStartThread+0x1ca>
    memcpy(shp->sh_buffer + shp->sh_end + 1, line, part_len);
 8009e34:	4642      	mov	r2, r8
 8009e36:	4631      	mov	r1, r6
 8009e38:	f7f9 fe50 	bl	8003adc <memcpy>
    memcpy(shp->sh_buffer, line + part_len, length - part_len);
 8009e3c:	9807      	ldr	r0, [sp, #28]
 8009e3e:	eba4 0208 	sub.w	r2, r4, r8
 8009e42:	eb06 0108 	add.w	r1, r6, r8
 8009e46:	e7d7      	b.n	8009df8 <shellStartThread+0x1fc>
      }
      continue;
    }
#endif
#if SHELL_USE_HISTORY == TRUE
    if (c == 14) {
 8009e48:	290e      	cmp	r1, #14
 8009e4a:	d11e      	bne.n	8009e8a <shellStartThread+0x28e>
      int len = get_history(shp, line, SHELL_HIST_DIR_FW);
 8009e4c:	2201      	movs	r2, #1
 8009e4e:	4631      	mov	r1, r6
 8009e50:	a807      	add	r0, sp, #28
 8009e52:	f7fd fea8 	bl	8007ba6 <get_history>

      if (len == 0)
 8009e56:	1e03      	subs	r3, r0, #0
 8009e58:	9303      	str	r3, [sp, #12]
 8009e5a:	d113      	bne.n	8009e84 <shellStartThread+0x288>
        *line = 0;
 8009e5c:	f88d a048 	strb.w	sl, [sp, #72]	; 0x48
    }
    if (c == 16) {
      int len = get_history(shp, line, SHELL_HIST_DIR_BK);

      if (len > 0) {
        _shell_reset_cur(chp);
 8009e60:	2308      	movs	r3, #8
 8009e62:	224a      	movs	r2, #74	; 0x4a
 8009e64:	4922      	ldr	r1, [pc, #136]	; (8009ef0 <shellStartThread+0x2f4>)
 8009e66:	4620      	mov	r0, r4
 8009e68:	f7fe fc7f 	bl	800876a <chprintf>
        _shell_clr_line(chp);
 8009e6c:	4921      	ldr	r1, [pc, #132]	; (8009ef4 <shellStartThread+0x2f8>)
 8009e6e:	4620      	mov	r0, r4
 8009e70:	f7fe fc7b 	bl	800876a <chprintf>
        chprintf(chp, "%s", line);
 8009e74:	4632      	mov	r2, r6
 8009e76:	4620      	mov	r0, r4
 8009e78:	491f      	ldr	r1, [pc, #124]	; (8009ef8 <shellStartThread+0x2fc>)
 8009e7a:	f7fe fc76 	bl	800876a <chprintf>
        p = line + len;
 8009e7e:	9d03      	ldr	r5, [sp, #12]
 8009e80:	4435      	add	r5, r6
 8009e82:	e6e8      	b.n	8009c56 <shellStartThread+0x5a>
      if (len >= 0) {
 8009e84:	f6ff aee7 	blt.w	8009c56 <shellStartThread+0x5a>
 8009e88:	e7ea      	b.n	8009e60 <shellStartThread+0x264>
    if (c == 16) {
 8009e8a:	2910      	cmp	r1, #16
 8009e8c:	d109      	bne.n	8009ea2 <shellStartThread+0x2a6>
      int len = get_history(shp, line, SHELL_HIST_DIR_BK);
 8009e8e:	4652      	mov	r2, sl
 8009e90:	4631      	mov	r1, r6
 8009e92:	a807      	add	r0, sp, #28
 8009e94:	f7fd fe87 	bl	8007ba6 <get_history>
      if (len > 0) {
 8009e98:	1e03      	subs	r3, r0, #0
 8009e9a:	9303      	str	r3, [sp, #12]
 8009e9c:	f77f aedb 	ble.w	8009c56 <shellStartThread+0x5a>
 8009ea0:	e7de      	b.n	8009e60 <shellStartThread+0x264>
      }
      continue;
    }
#endif
    if (c < 0x20)
 8009ea2:	291f      	cmp	r1, #31
 8009ea4:	f67f aed7 	bls.w	8009c56 <shellStartThread+0x5a>
      continue;
    if (p < line + size - 1) {
 8009ea8:	f10d 0387 	add.w	r3, sp, #135	; 0x87
 8009eac:	429d      	cmp	r5, r3
 8009eae:	f4bf aed2 	bcs.w	8009c56 <shellStartThread+0x5a>
      streamPut(chp, c);
 8009eb2:	6823      	ldr	r3, [r4, #0]
 8009eb4:	4620      	mov	r0, r4
 8009eb6:	689b      	ldr	r3, [r3, #8]
 8009eb8:	4798      	blx	r3
      *p++ = (char)c;
 8009eba:	f89d 3017 	ldrb.w	r3, [sp, #23]
 8009ebe:	f805 3b01 	strb.w	r3, [r5], #1
 8009ec2:	e6c8      	b.n	8009c56 <shellStartThread+0x5a>
      escape = true;
 8009ec4:	f04f 0a01 	mov.w	sl, #1
 8009ec8:	e6c5      	b.n	8009c56 <shellStartThread+0x5a>
        bracket = true;
 8009eca:	46d0      	mov	r8, sl
 8009ecc:	e6c3      	b.n	8009c56 <shellStartThread+0x5a>
      if (n >= SHELL_MAX_ARGUMENTS) {
 8009ece:	2e05      	cmp	r6, #5
 8009ed0:	d120      	bne.n	8009f14 <shellStartThread+0x318>
        chprintf(chp, "too many arguments"SHELL_NEWLINE_STR);
 8009ed2:	4638      	mov	r0, r7
 8009ed4:	490e      	ldr	r1, [pc, #56]	; (8009f10 <shellStartThread+0x314>)
 8009ed6:	f7fe fc48 	bl	800876a <chprintf>
    args[n] = NULL;
 8009eda:	f8cd b044 	str.w	fp, [sp, #68]	; 0x44
    if (cmd != NULL) {
 8009ede:	e6af      	b.n	8009c40 <shellStartThread+0x44>
 8009ee0:	200011a8 	.word	0x200011a8
 8009ee4:	0800c2f1 	.word	0x0800c2f1
 8009ee8:	0800be7c 	.word	0x0800be7c
 8009eec:	0800c30c 	.word	0x0800c30c
 8009ef0:	0800c315 	.word	0x0800c315
 8009ef4:	0800c320 	.word	0x0800c320
 8009ef8:	0800bc9c 	.word	0x0800bc9c
 8009efc:	0800c324 	.word	0x0800c324
 8009f00:	0800c327 	.word	0x0800c327
 8009f04:	200012b8 	.word	0x200012b8
 8009f08:	0800c343 	.word	0x0800c343
 8009f0c:	0800bae6 	.word	0x0800bae6
 8009f10:	0800c32e 	.word	0x0800c32e
      args[n++] = lp;
 8009f14:	3601      	adds	r6, #1
 8009f16:	f848 0b04 	str.w	r0, [r8], #4
 8009f1a:	e72f      	b.n	8009d7c <shellStartThread+0x180>
        chprintf(chp, "Commands: help ");
 8009f1c:	4638      	mov	r0, r7
 8009f1e:	491e      	ldr	r1, [pc, #120]	; (8009f98 <shellStartThread+0x39c>)
 8009f20:	f7fe fc23 	bl	800876a <chprintf>
 8009f24:	4c1d      	ldr	r4, [pc, #116]	; (8009f9c <shellStartThread+0x3a0>)
    chprintf(chp, "%s ", scp->sc_name);
 8009f26:	4d1e      	ldr	r5, [pc, #120]	; (8009fa0 <shellStartThread+0x3a4>)
  while (scp->sc_name != NULL) {
 8009f28:	6822      	ldr	r2, [r4, #0]
 8009f2a:	b98a      	cbnz	r2, 8009f50 <shellStartThread+0x354>
        if (scp != NULL)
 8009f2c:	9b02      	ldr	r3, [sp, #8]
 8009f2e:	2b00      	cmp	r3, #0
 8009f30:	f43f ae82 	beq.w	8009c38 <shellStartThread+0x3c>
    chprintf(chp, "%s ", scp->sc_name);
 8009f34:	4d1a      	ldr	r5, [pc, #104]	; (8009fa0 <shellStartThread+0x3a4>)
 8009f36:	f103 040c 	add.w	r4, r3, #12
  while (scp->sc_name != NULL) {
 8009f3a:	f854 2c0c 	ldr.w	r2, [r4, #-12]
 8009f3e:	340c      	adds	r4, #12
 8009f40:	2a00      	cmp	r2, #0
 8009f42:	f43f ae79 	beq.w	8009c38 <shellStartThread+0x3c>
    chprintf(chp, "%s ", scp->sc_name);
 8009f46:	4629      	mov	r1, r5
 8009f48:	4638      	mov	r0, r7
 8009f4a:	f7fe fc0e 	bl	800876a <chprintf>
    scp++;
 8009f4e:	e7f4      	b.n	8009f3a <shellStartThread+0x33e>
    chprintf(chp, "%s ", scp->sc_name);
 8009f50:	4629      	mov	r1, r5
 8009f52:	4638      	mov	r0, r7
 8009f54:	f7fe fc09 	bl	800876a <chprintf>
    scp++;
 8009f58:	340c      	adds	r4, #12
 8009f5a:	e7e5      	b.n	8009f28 <shellStartThread+0x32c>
      else if (cmdexec(shell_local_commands, chp, cmd, n, args) &&
 8009f5c:	4633      	mov	r3, r6
 8009f5e:	4622      	mov	r2, r4
 8009f60:	4639      	mov	r1, r7
 8009f62:	480e      	ldr	r0, [pc, #56]	; (8009f9c <shellStartThread+0x3a0>)
 8009f64:	9500      	str	r5, [sp, #0]
 8009f66:	f7ff fb67 	bl	8009638 <cmdexec>
 8009f6a:	2800      	cmp	r0, #0
 8009f6c:	f43f ae68 	beq.w	8009c40 <shellStartThread+0x44>
 8009f70:	9b02      	ldr	r3, [sp, #8]
 8009f72:	b933      	cbnz	r3, 8009f82 <shellStartThread+0x386>
        chprintf(chp, "%s", cmd);
 8009f74:	490b      	ldr	r1, [pc, #44]	; (8009fa4 <shellStartThread+0x3a8>)
 8009f76:	4622      	mov	r2, r4
 8009f78:	4638      	mov	r0, r7
 8009f7a:	f7fe fbf6 	bl	800876a <chprintf>
        chprintf(chp, " ?"SHELL_NEWLINE_STR);
 8009f7e:	490a      	ldr	r1, [pc, #40]	; (8009fa8 <shellStartThread+0x3ac>)
 8009f80:	e65b      	b.n	8009c3a <shellStartThread+0x3e>
          ((scp == NULL) || cmdexec(scp, chp, cmd, n, args))) {
 8009f82:	4633      	mov	r3, r6
 8009f84:	4622      	mov	r2, r4
 8009f86:	4639      	mov	r1, r7
 8009f88:	9802      	ldr	r0, [sp, #8]
 8009f8a:	9500      	str	r5, [sp, #0]
 8009f8c:	f7ff fb54 	bl	8009638 <cmdexec>
 8009f90:	2800      	cmp	r0, #0
 8009f92:	d1ef      	bne.n	8009f74 <shellStartThread+0x378>
 8009f94:	e654      	b.n	8009c40 <shellStartThread+0x44>
 8009f96:	bf00      	nop
 8009f98:	0800c348 	.word	0x0800c348
 8009f9c:	0800cb90 	.word	0x0800cb90
 8009fa0:	0800c358 	.word	0x0800c358
 8009fa4:	0800bc9c 	.word	0x0800bc9c
 8009fa8:	0800c35c 	.word	0x0800c35c

08009fac <cmdThreadInfo>:
    else if(state == eDeleted) printfFixed(chp, 9, "Deleted");
    else printfFixed(chp, 9, "Invalid");
}

void cmdThreadInfo(void* user, BaseSequentialStream *chp, int argc, char *argv[])
{
 8009fac:	e92d 4ff0 	stmdb	sp!, {r4, r5, r6, r7, r8, r9, sl, fp, lr}
    (void)argc;
    (void)argv;
    (void) user;

    unsigned int numberOfTasks = uxTaskGetNumberOfTasks();
    TaskStatus_t* taskStatusArray = pvPortMalloc(numberOfTasks * sizeof(TaskStatus_t));
 8009fb0:	2624      	movs	r6, #36	; 0x24
 8009fb2:	f8df 8260 	ldr.w	r8, [pc, #608]	; 800a214 <cmdThreadInfo+0x268>
{
 8009fb6:	b085      	sub	sp, #20
 8009fb8:	f8d8 5000 	ldr.w	r5, [r8]
 8009fbc:	460c      	mov	r4, r1
    TaskStatus_t* taskStatusArray = pvPortMalloc(numberOfTasks * sizeof(TaskStatus_t));
 8009fbe:	fb06 f005 	mul.w	r0, r6, r5
 8009fc2:	f7fb fc23 	bl	800580c <pvPortMalloc>
    if(!taskStatusArray) {
 8009fc6:	4607      	mov	r7, r0
 8009fc8:	2800      	cmp	r0, #0
 8009fca:	f000 8096 	beq.w	800a0fa <cmdThreadInfo+0x14e>
 8009fce:	f7fa fb4f 	bl	8004670 <vTaskSuspendAll>
 8009fd2:	f8d8 3000 	ldr.w	r3, [r8]
 8009fd6:	429d      	cmp	r5, r3
 8009fd8:	f0c0 8092 	bcc.w	800a100 <cmdThreadInfo+0x154>
 8009fdc:	f04f 0805 	mov.w	r8, #5
 8009fe0:	2500      	movs	r5, #0
 8009fe2:	f04f 0a14 	mov.w	sl, #20
 8009fe6:	f8df 9230 	ldr.w	r9, [pc, #560]	; 800a218 <cmdThreadInfo+0x26c>
 8009fea:	f108 38ff 	add.w	r8, r8, #4294967295	; 0xffffffff
 8009fee:	fb06 7005 	mla	r0, r6, r5, r7
 8009ff2:	2201      	movs	r2, #1
 8009ff4:	fb0a 9108 	mla	r1, sl, r8, r9
 8009ff8:	f7fb fcc2 	bl	8005980 <prvListTasksWithinSingleList>
 8009ffc:	4405      	add	r5, r0
 8009ffe:	f1b8 0f00 	cmp.w	r8, #0
 800a002:	d1f2      	bne.n	8009fea <cmdThreadInfo+0x3e>
 800a004:	4b85      	ldr	r3, [pc, #532]	; (800a21c <cmdThreadInfo+0x270>)
 800a006:	2202      	movs	r2, #2
 800a008:	6819      	ldr	r1, [r3, #0]
 800a00a:	fb06 7005 	mla	r0, r6, r5, r7
 800a00e:	f7fb fcb7 	bl	8005980 <prvListTasksWithinSingleList>
 800a012:	4b83      	ldr	r3, [pc, #524]	; (800a220 <cmdThreadInfo+0x274>)
 800a014:	4405      	add	r5, r0
 800a016:	6819      	ldr	r1, [r3, #0]
 800a018:	2202      	movs	r2, #2
 800a01a:	fb06 7005 	mla	r0, r6, r5, r7
 800a01e:	f7fb fcaf 	bl	8005980 <prvListTasksWithinSingleList>
 800a022:	4405      	add	r5, r0
 800a024:	2204      	movs	r2, #4
 800a026:	fb06 7005 	mla	r0, r6, r5, r7
 800a02a:	497e      	ldr	r1, [pc, #504]	; (800a224 <cmdThreadInfo+0x278>)
 800a02c:	f7fb fca8 	bl	8005980 <prvListTasksWithinSingleList>
 800a030:	4405      	add	r5, r0
 800a032:	fb06 7005 	mla	r0, r6, r5, r7
 800a036:	2203      	movs	r2, #3
 800a038:	497b      	ldr	r1, [pc, #492]	; (800a228 <cmdThreadInfo+0x27c>)
 800a03a:	f7fb fca1 	bl	8005980 <prvListTasksWithinSingleList>
 800a03e:	4405      	add	r5, r0
 800a040:	f7fb fb60 	bl	8005704 <xTaskResumeAll>
        return;
    }

    uint32_t totalRunTime;
    unsigned int  result = uxTaskGetSystemState(taskStatusArray, numberOfTasks, &totalRunTime);
    printfFixed(chp, 13, "Task ID");
 800a044:	210d      	movs	r1, #13
 800a046:	4a79      	ldr	r2, [pc, #484]	; (800a22c <cmdThreadInfo+0x280>)
 800a048:	4620      	mov	r0, r4
 800a04a:	f7fe fd37 	bl	8008abc <printfFixed>
    printfFixed(chp, 10, "Task Name");
 800a04e:	210a      	movs	r1, #10
 800a050:	4a77      	ldr	r2, [pc, #476]	; (800a230 <cmdThreadInfo+0x284>)
 800a052:	4620      	mov	r0, r4
 800a054:	f7fe fd32 	bl	8008abc <printfFixed>
    printfFixed(chp, 11, "Stack Base");
 800a058:	210b      	movs	r1, #11
 800a05a:	4a76      	ldr	r2, [pc, #472]	; (800a234 <cmdThreadInfo+0x288>)
 800a05c:	4620      	mov	r0, r4
 800a05e:	f7fe fd2d 	bl	8008abc <printfFixed>
    printfFixed(chp, 11, "Free Stack");
 800a062:	210b      	movs	r1, #11
 800a064:	4a74      	ldr	r2, [pc, #464]	; (800a238 <cmdThreadInfo+0x28c>)
 800a066:	4620      	mov	r0, r4
 800a068:	f7fe fd28 	bl	8008abc <printfFixed>
    printfFixed(chp, 6, "PrioB");
 800a06c:	2106      	movs	r1, #6
 800a06e:	4a73      	ldr	r2, [pc, #460]	; (800a23c <cmdThreadInfo+0x290>)
 800a070:	4620      	mov	r0, r4
 800a072:	f7fe fd23 	bl	8008abc <printfFixed>
#if configUSE_MUTEXES
    printfFixed(chp, 6, "PrioC");
 800a076:	2106      	movs	r1, #6
 800a078:	4a71      	ldr	r2, [pc, #452]	; (800a240 <cmdThreadInfo+0x294>)
 800a07a:	4620      	mov	r0, r4
 800a07c:	f7fe fd1e 	bl	8008abc <printfFixed>
#endif
    printfFixed(chp, 9, "State");
 800a080:	2109      	movs	r1, #9
 800a082:	4a70      	ldr	r2, [pc, #448]	; (800a244 <cmdThreadInfo+0x298>)
 800a084:	4620      	mov	r0, r4
 800a086:	f7fe fd19 	bl	8008abc <printfFixed>
    chprintf(chp,SHELL_NEWLINE_STR);
 800a08a:	4620      	mov	r0, r4
 800a08c:	496e      	ldr	r1, [pc, #440]	; (800a248 <cmdThreadInfo+0x29c>)
 800a08e:	f7fe fb6c 	bl	800876a <chprintf>
    for(unsigned int i = 0; i<result; i++) {
 800a092:	463e      	mov	r6, r7
 800a094:	f04f 0800 	mov.w	r8, #0
        printfFixed(chp, 13, "%u=%08x ", taskStatusArray[i].xTaskNumber, taskStatusArray[i].xHandle);
 800a098:	f8df 91b0 	ldr.w	r9, [pc, #432]	; 800a24c <cmdThreadInfo+0x2a0>
        if(!strcmp("IDLE", taskStatusArray[i].pcTaskName)) {
 800a09c:	f8df a1b0 	ldr.w	sl, [pc, #432]	; 800a250 <cmdThreadInfo+0x2a4>
            printfFixed(chp, 10, "Idle");
        } else {
            printfFixed(chp, 10, "%s", taskStatusArray[i].pcTaskName);
 800a0a0:	f8df b1b0 	ldr.w	fp, [pc, #432]	; 800a254 <cmdThreadInfo+0x2a8>
    for(unsigned int i = 0; i<result; i++) {
 800a0a4:	45a8      	cmp	r8, r5
 800a0a6:	d12d      	bne.n	800a104 <cmdThreadInfo+0x158>
    printfFixed(chp, 11, "Descriptor");
    printfFixed(chp, 11, "Callback");
    chprintf(chp, "State"SHELL_NEWLINE_STR);

    MonitorEntry* entry = monThreadFirst;
    unsigned int index = 0;
 800a0a8:	2600      	movs	r6, #0
            cmdThreadPrintState(chp, taskStatusArray[i].eCurrentState);
        }
        chprintf(chp,SHELL_NEWLINE_STR);
    }

    vPortFree(taskStatusArray);
 800a0aa:	4638      	mov	r0, r7
 800a0ac:	f7fb fc2e 	bl	800590c <vPortFree>
    chprintf(chp,SHELL_NEWLINE_STR);
 800a0b0:	4965      	ldr	r1, [pc, #404]	; (800a248 <cmdThreadInfo+0x29c>)
 800a0b2:	4620      	mov	r0, r4
 800a0b4:	f7fe fb59 	bl	800876a <chprintf>
    printfFixed(chp, 13, "Monitor ID");
 800a0b8:	210d      	movs	r1, #13
 800a0ba:	4a67      	ldr	r2, [pc, #412]	; (800a258 <cmdThreadInfo+0x2ac>)
 800a0bc:	4620      	mov	r0, r4
 800a0be:	f7fe fcfd 	bl	8008abc <printfFixed>
    printfFixed(chp, 10, "Task Name");
 800a0c2:	210a      	movs	r1, #10
 800a0c4:	4a5a      	ldr	r2, [pc, #360]	; (800a230 <cmdThreadInfo+0x284>)
 800a0c6:	4620      	mov	r0, r4
 800a0c8:	f7fe fcf8 	bl	8008abc <printfFixed>
    printfFixed(chp, 11, "Descriptor");
 800a0cc:	210b      	movs	r1, #11
 800a0ce:	4a63      	ldr	r2, [pc, #396]	; (800a25c <cmdThreadInfo+0x2b0>)
 800a0d0:	4620      	mov	r0, r4
 800a0d2:	f7fe fcf3 	bl	8008abc <printfFixed>
    printfFixed(chp, 11, "Callback");
 800a0d6:	210b      	movs	r1, #11
 800a0d8:	4a61      	ldr	r2, [pc, #388]	; (800a260 <cmdThreadInfo+0x2b4>)
 800a0da:	4620      	mov	r0, r4
 800a0dc:	f7fe fcee 	bl	8008abc <printfFixed>
    chprintf(chp, "State"SHELL_NEWLINE_STR);
 800a0e0:	4620      	mov	r0, r4
 800a0e2:	4960      	ldr	r1, [pc, #384]	; (800a264 <cmdThreadInfo+0x2b8>)
 800a0e4:	f7fe fb41 	bl	800876a <chprintf>
    MonitorEntry* entry = monThreadFirst;
 800a0e8:	4b5f      	ldr	r3, [pc, #380]	; (800a268 <cmdThreadInfo+0x2bc>)
    while(entry) {
        printfFixed(chp, 13, "%u", index);
 800a0ea:	4f60      	ldr	r7, [pc, #384]	; (800a26c <cmdThreadInfo+0x2c0>)
    MonitorEntry* entry = monThreadFirst;
 800a0ec:	681d      	ldr	r5, [r3, #0]
        if(entry->name) {
            printfFixed(chp, 10, "%s",entry->name);
        } else {
            printfFixed(chp, 10, "");
 800a0ee:	f8df 8180 	ldr.w	r8, [pc, #384]	; 800a270 <cmdThreadInfo+0x2c4>
            printfFixed(chp, 10, "%s",entry->name);
 800a0f2:	f8df 9160 	ldr.w	r9, [pc, #352]	; 800a254 <cmdThreadInfo+0x2a8>
    while(entry) {
 800a0f6:	2d00      	cmp	r5, #0
 800a0f8:	d162      	bne.n	800a1c0 <cmdThreadInfo+0x214>
    monitorPrintStatus(chp);
}
 800a0fa:	b005      	add	sp, #20
 800a0fc:	e8bd 8ff0 	ldmia.w	sp!, {r4, r5, r6, r7, r8, r9, sl, fp, pc}
 800a100:	2500      	movs	r5, #0
 800a102:	e79d      	b.n	800a040 <cmdThreadInfo+0x94>
        printfFixed(chp, 13, "%u=%08x ", taskStatusArray[i].xTaskNumber, taskStatusArray[i].xHandle);
 800a104:	6833      	ldr	r3, [r6, #0]
 800a106:	464a      	mov	r2, r9
 800a108:	9300      	str	r3, [sp, #0]
 800a10a:	210d      	movs	r1, #13
 800a10c:	68b3      	ldr	r3, [r6, #8]
 800a10e:	4620      	mov	r0, r4
 800a110:	f7fe fcd4 	bl	8008abc <printfFixed>
        if(!strcmp("IDLE", taskStatusArray[i].pcTaskName)) {
 800a114:	6873      	ldr	r3, [r6, #4]
 800a116:	4650      	mov	r0, sl
 800a118:	4619      	mov	r1, r3
 800a11a:	9303      	str	r3, [sp, #12]
 800a11c:	f7f9 fd54 	bl	8003bc8 <strcmp>
 800a120:	9b03      	ldr	r3, [sp, #12]
 800a122:	2800      	cmp	r0, #0
 800a124:	d132      	bne.n	800a18c <cmdThreadInfo+0x1e0>
            printfFixed(chp, 10, "Idle");
 800a126:	210a      	movs	r1, #10
 800a128:	4620      	mov	r0, r4
 800a12a:	4a52      	ldr	r2, [pc, #328]	; (800a274 <cmdThreadInfo+0x2c8>)
 800a12c:	f7fe fcc6 	bl	8008abc <printfFixed>
        printfFixed(chp, 11, "%08x", taskStatusArray[i].pxStackBase);
 800a130:	210b      	movs	r1, #11
 800a132:	69f3      	ldr	r3, [r6, #28]
 800a134:	4a50      	ldr	r2, [pc, #320]	; (800a278 <cmdThreadInfo+0x2cc>)
 800a136:	4620      	mov	r0, r4
 800a138:	f7fe fcc0 	bl	8008abc <printfFixed>
        printfFixed(chp, 11, "%u", (uint32_t)taskStatusArray[i].usStackHighWaterMark);
 800a13c:	210b      	movs	r1, #11
 800a13e:	8c33      	ldrh	r3, [r6, #32]
 800a140:	4a4a      	ldr	r2, [pc, #296]	; (800a26c <cmdThreadInfo+0x2c0>)
 800a142:	4620      	mov	r0, r4
 800a144:	f7fe fcba 	bl	8008abc <printfFixed>
        printfFixed(chp, 6, "%u", taskStatusArray[i].uxBasePriority);
 800a148:	2106      	movs	r1, #6
 800a14a:	6973      	ldr	r3, [r6, #20]
 800a14c:	4a47      	ldr	r2, [pc, #284]	; (800a26c <cmdThreadInfo+0x2c0>)
 800a14e:	4620      	mov	r0, r4
 800a150:	f7fe fcb4 	bl	8008abc <printfFixed>
        printfFixed(chp, 6, "%u", taskStatusArray[i].uxCurrentPriority);
 800a154:	2106      	movs	r1, #6
 800a156:	6933      	ldr	r3, [r6, #16]
 800a158:	4a44      	ldr	r2, [pc, #272]	; (800a26c <cmdThreadInfo+0x2c0>)
 800a15a:	4620      	mov	r0, r4
 800a15c:	f7fe fcae 	bl	8008abc <printfFixed>
        if(taskStatusArray[i].xHandle == xGetCurrentTaskHandle()) {
 800a160:	6830      	ldr	r0, [r6, #0]
 800a162:	f7fa fae7 	bl	8004734 <vPortEnterCritical>
 800a166:	4b45      	ldr	r3, [pc, #276]	; (800a27c <cmdThreadInfo+0x2d0>)
 800a168:	6819      	ldr	r1, [r3, #0]
 800a16a:	f7fa fcfb 	bl	8004b64 <vPortExitCritical>
 800a16e:	4288      	cmp	r0, r1
 800a170:	d112      	bne.n	800a198 <cmdThreadInfo+0x1ec>
    if(state == eRunning) printfFixed(chp, 9, "Running");
 800a172:	4a43      	ldr	r2, [pc, #268]	; (800a280 <cmdThreadInfo+0x2d4>)
    else printfFixed(chp, 9, "Invalid");
 800a174:	2109      	movs	r1, #9
 800a176:	4620      	mov	r0, r4
 800a178:	f7fe fca0 	bl	8008abc <printfFixed>
        chprintf(chp,SHELL_NEWLINE_STR);
 800a17c:	4620      	mov	r0, r4
 800a17e:	4932      	ldr	r1, [pc, #200]	; (800a248 <cmdThreadInfo+0x29c>)
 800a180:	f7fe faf3 	bl	800876a <chprintf>
    for(unsigned int i = 0; i<result; i++) {
 800a184:	f108 0801 	add.w	r8, r8, #1
 800a188:	3624      	adds	r6, #36	; 0x24
 800a18a:	e78b      	b.n	800a0a4 <cmdThreadInfo+0xf8>
            printfFixed(chp, 10, "%s", taskStatusArray[i].pcTaskName);
 800a18c:	465a      	mov	r2, fp
 800a18e:	210a      	movs	r1, #10
 800a190:	4620      	mov	r0, r4
 800a192:	f7fe fc93 	bl	8008abc <printfFixed>
 800a196:	e7cb      	b.n	800a130 <cmdThreadInfo+0x184>
            cmdThreadPrintState(chp, taskStatusArray[i].eCurrentState);
 800a198:	7b33      	ldrb	r3, [r6, #12]
    if(state == eRunning) printfFixed(chp, 9, "Running");
 800a19a:	2b00      	cmp	r3, #0
 800a19c:	d0e9      	beq.n	800a172 <cmdThreadInfo+0x1c6>
    else if(state == eReady) printfFixed(chp, 9, "Ready");
 800a19e:	2b01      	cmp	r3, #1
 800a1a0:	d101      	bne.n	800a1a6 <cmdThreadInfo+0x1fa>
 800a1a2:	4a38      	ldr	r2, [pc, #224]	; (800a284 <cmdThreadInfo+0x2d8>)
 800a1a4:	e7e6      	b.n	800a174 <cmdThreadInfo+0x1c8>
    else if(state == eBlocked) printfFixed(chp, 9, "Blocked");
 800a1a6:	2b02      	cmp	r3, #2
 800a1a8:	d101      	bne.n	800a1ae <cmdThreadInfo+0x202>
 800a1aa:	4a37      	ldr	r2, [pc, #220]	; (800a288 <cmdThreadInfo+0x2dc>)
 800a1ac:	e7e2      	b.n	800a174 <cmdThreadInfo+0x1c8>
    else if(state == eSuspended) printfFixed(chp, 9, "Suspended");
 800a1ae:	2b03      	cmp	r3, #3
 800a1b0:	d101      	bne.n	800a1b6 <cmdThreadInfo+0x20a>
 800a1b2:	4a36      	ldr	r2, [pc, #216]	; (800a28c <cmdThreadInfo+0x2e0>)
 800a1b4:	e7de      	b.n	800a174 <cmdThreadInfo+0x1c8>
    else if(state == eDeleted) printfFixed(chp, 9, "Deleted");
 800a1b6:	2b04      	cmp	r3, #4
 800a1b8:	bf0c      	ite	eq
 800a1ba:	4a35      	ldreq	r2, [pc, #212]	; (800a290 <cmdThreadInfo+0x2e4>)
    else printfFixed(chp, 9, "Invalid");
 800a1bc:	4a35      	ldrne	r2, [pc, #212]	; (800a294 <cmdThreadInfo+0x2e8>)
 800a1be:	e7d9      	b.n	800a174 <cmdThreadInfo+0x1c8>
        printfFixed(chp, 13, "%u", index);
 800a1c0:	4633      	mov	r3, r6
 800a1c2:	463a      	mov	r2, r7
 800a1c4:	210d      	movs	r1, #13
 800a1c6:	4620      	mov	r0, r4
 800a1c8:	f7fe fc78 	bl	8008abc <printfFixed>
        if(entry->name) {
 800a1cc:	68eb      	ldr	r3, [r5, #12]
 800a1ce:	b1cb      	cbz	r3, 800a204 <cmdThreadInfo+0x258>
            printfFixed(chp, 10, "%s",entry->name);
 800a1d0:	464a      	mov	r2, r9
 800a1d2:	210a      	movs	r1, #10
 800a1d4:	4620      	mov	r0, r4
 800a1d6:	f7fe fc71 	bl	8008abc <printfFixed>
        }
        printfFixed(chp, 11, "%08x", entry);
 800a1da:	462b      	mov	r3, r5
 800a1dc:	210b      	movs	r1, #11
 800a1de:	4a26      	ldr	r2, [pc, #152]	; (800a278 <cmdThreadInfo+0x2cc>)
 800a1e0:	4620      	mov	r0, r4
 800a1e2:	f7fe fc6b 	bl	8008abc <printfFixed>
        printfFixed(chp, 11, "%08x", entry->callback);
 800a1e6:	682b      	ldr	r3, [r5, #0]
 800a1e8:	210b      	movs	r1, #11
 800a1ea:	4620      	mov	r0, r4
 800a1ec:	4a22      	ldr	r2, [pc, #136]	; (800a278 <cmdThreadInfo+0x2cc>)
 800a1ee:	f7fe fc65 	bl	8008abc <printfFixed>
        if(entry->active) {
 800a1f2:	7c2b      	ldrb	r3, [r5, #16]
 800a1f4:	b163      	cbz	r3, 800a210 <cmdThreadInfo+0x264>
            chprintf(chp, "Active"SHELL_NEWLINE_STR);
 800a1f6:	4928      	ldr	r1, [pc, #160]	; (800a298 <cmdThreadInfo+0x2ec>)
        } else {
            chprintf(chp, "Idle"SHELL_NEWLINE_STR);
 800a1f8:	4620      	mov	r0, r4
 800a1fa:	f7fe fab6 	bl	800876a <chprintf>
        }
        index++;
 800a1fe:	3601      	adds	r6, #1
        entry = entry->next;
 800a200:	68ad      	ldr	r5, [r5, #8]
 800a202:	e778      	b.n	800a0f6 <cmdThreadInfo+0x14a>
            printfFixed(chp, 10, "");
 800a204:	4642      	mov	r2, r8
 800a206:	210a      	movs	r1, #10
 800a208:	4620      	mov	r0, r4
 800a20a:	f7fe fc57 	bl	8008abc <printfFixed>
 800a20e:	e7e4      	b.n	800a1da <cmdThreadInfo+0x22e>
            chprintf(chp, "Idle"SHELL_NEWLINE_STR);
 800a210:	4922      	ldr	r1, [pc, #136]	; (800a29c <cmdThreadInfo+0x2f0>)
 800a212:	e7f1      	b.n	800a1f8 <cmdThreadInfo+0x24c>
 800a214:	2000135c 	.word	0x2000135c
 800a218:	200011b8 	.word	0x200011b8
 800a21c:	200011ac 	.word	0x200011ac
 800a220:	200011b4 	.word	0x200011b4
 800a224:	20001634 	.word	0x20001634
 800a228:	20001620 	.word	0x20001620
 800a22c:	0800c361 	.word	0x0800c361
 800a230:	0800c369 	.word	0x0800c369
 800a234:	0800c373 	.word	0x0800c373
 800a238:	0800c37e 	.word	0x0800c37e
 800a23c:	0800c389 	.word	0x0800c389
 800a240:	0800c38f 	.word	0x0800c38f
 800a244:	0800c395 	.word	0x0800c395
 800a248:	0800be7c 	.word	0x0800be7c
 800a24c:	0800c39b 	.word	0x0800c39b
 800a250:	0800c3a4 	.word	0x0800c3a4
 800a254:	0800bc9c 	.word	0x0800bc9c
 800a258:	0800c3e3 	.word	0x0800c3e3
 800a25c:	0800c3ee 	.word	0x0800c3ee
 800a260:	0800c3f9 	.word	0x0800c3f9
 800a264:	0800c402 	.word	0x0800c402
 800a268:	200011a0 	.word	0x200011a0
 800a26c:	0800c129 	.word	0x0800c129
 800a270:	0800c08a 	.word	0x0800c08a
 800a274:	0800c3a9 	.word	0x0800c3a9
 800a278:	0800c3ae 	.word	0x0800c3ae
 800a27c:	200011a8 	.word	0x200011a8
 800a280:	0800c3b3 	.word	0x0800c3b3
 800a284:	0800c3bb 	.word	0x0800c3bb
 800a288:	0800c3c1 	.word	0x0800c3c1
 800a28c:	0800c3c9 	.word	0x0800c3c9
 800a290:	0800c3d3 	.word	0x0800c3d3
 800a294:	0800c3db 	.word	0x0800c3db
 800a298:	0800c40a 	.word	0x0800c40a
 800a29c:	0800c413 	.word	0x0800c413

0800a2a0 <cmdMax>:
    }
}


void cmdMax(void* user, BaseSequentialStream *chp, int argc, char *argv[])
{
 800a2a0:	e92d 43f0 	stmdb	sp!, {r4, r5, r6, r7, r8, r9, lr}
 800a2a4:	4604      	mov	r4, r0
 800a2a6:	460d      	mov	r5, r1
 800a2a8:	4698      	mov	r8, r3
    MAX2870Driver* pll = (MAX2870Driver*)user;

    if(argc == 0) {
 800a2aa:	4616      	mov	r6, r2
{
 800a2ac:	b087      	sub	sp, #28
    if(argc == 0) {
 800a2ae:	b92a      	cbnz	r2, 800a2bc <cmdMax+0x1c>
        cmdMaxUsage(chp);
 800a2b0:	4628      	mov	r0, r5
        chprintf(chp, "Digital Lock Detect: %u"SHELL_NEWLINE_STR, max2870GetDigitalLockDetect(pll));
    } else {
        cmdMaxUsage(chp);
        return;
    }
}
 800a2b2:	b007      	add	sp, #28
 800a2b4:	e8bd 43f0 	ldmia.w	sp!, {r4, r5, r6, r7, r8, r9, lr}
        cmdMaxUsage(chp);
 800a2b8:	f7fe bb70 	b.w	800899c <cmdMaxUsage>
    if(!strcmp(argv[0], "tune")) {
 800a2bc:	681f      	ldr	r7, [r3, #0]
 800a2be:	497f      	ldr	r1, [pc, #508]	; (800a4bc <cmdMax+0x21c>)
 800a2c0:	4638      	mov	r0, r7
 800a2c2:	f7f9 fc81 	bl	8003bc8 <strcmp>
 800a2c6:	4684      	mov	ip, r0
 800a2c8:	2800      	cmp	r0, #0
 800a2ca:	d158      	bne.n	800a37e <cmdMax+0xde>
        cmdMaxTune(pll, chp, argc-1, argv+1);
 800a2cc:	f106 39ff 	add.w	r9, r6, #4294967295	; 0xffffffff
    MAX2870TuneRequest tune = *max2870getCurrentTuning(pll);
 800a2d0:	466e      	mov	r6, sp
 800a2d2:	f104 0708 	add.w	r7, r4, #8
 800a2d6:	cf0f      	ldmia	r7!, {r0, r1, r2, r3}
 800a2d8:	c60f      	stmia	r6!, {r0, r1, r2, r3}
 800a2da:	e897 0003 	ldmia.w	r7, {r0, r1}
    if(argc >= 1) {
 800a2de:	f1b9 0f00 	cmp.w	r9, #0
    MAX2870TuneRequest tune = *max2870getCurrentTuning(pll);
 800a2e2:	e886 0003 	stmia.w	r6, {r0, r1}
    tune.fastLockDurationMicroseconds = 0;
 800a2e6:	f8cd c00c 	str.w	ip, [sp, #12]
    tune.useVCOAutotune = false;
 800a2ea:	f88d c010 	strb.w	ip, [sp, #16]
    if(argc >= 1) {
 800a2ee:	dd20      	ble.n	800a332 <cmdMax+0x92>
        tune.frequency = (uint64_t)strToInt(argv[0], 10) * 1000;
 800a2f0:	210a      	movs	r1, #10
 800a2f2:	f8d8 0004 	ldr.w	r0, [r8, #4]
 800a2f6:	f7f9 ff70 	bl	80041da <strToInt>
 800a2fa:	f44f 737a 	mov.w	r3, #1000	; 0x3e8
 800a2fe:	fb80 0303 	smull	r0, r3, r0, r3
    if(argc >= 2) {
 800a302:	f1b9 0f01 	cmp.w	r9, #1
        tune.frequency = (uint64_t)strToInt(argv[0], 10) * 1000;
 800a306:	e9cd 0300 	strd	r0, r3, [sp]
    if(argc >= 2) {
 800a30a:	d012      	beq.n	800a332 <cmdMax+0x92>
        tune.powerA = strToInt(argv[1], 10);
 800a30c:	f8d8 0008 	ldr.w	r0, [r8, #8]
 800a310:	f7f9 ff63 	bl	80041da <strToInt>
    if(argc >= 3) {
 800a314:	f1b9 0f02 	cmp.w	r9, #2
        tune.powerA = strToInt(argv[1], 10);
 800a318:	f88d 0008 	strb.w	r0, [sp, #8]
    if(argc >= 3) {
 800a31c:	d009      	beq.n	800a332 <cmdMax+0x92>
        tune.useVCOAutotune = (strToInt(argv[2], 10) > 0);
 800a31e:	f8d8 000c 	ldr.w	r0, [r8, #12]
 800a322:	f7f9 ff5a 	bl	80041da <strToInt>
 800a326:	2800      	cmp	r0, #0
 800a328:	bfd4      	ite	le
 800a32a:	2000      	movle	r0, #0
 800a32c:	2001      	movgt	r0, #1
 800a32e:	f88d 0010 	strb.w	r0, [sp, #16]
    MAX2870TuneResult result = max2870Tune(pll, &tune);
 800a332:	4669      	mov	r1, sp
 800a334:	4620      	mov	r0, r4
 800a336:	f7fe ffb9 	bl	80092ac <max2870Tune>
    if(result == TUNE_OK) {
 800a33a:	2800      	cmp	r0, #0
 800a33c:	f040 80b9 	bne.w	800a4b2 <cmdMax+0x212>
        max2870StatusPrint(pll, chp);
 800a340:	4629      	mov	r1, r5
 800a342:	4620      	mov	r0, r4
 800a344:	f7fe fbe0 	bl	8008b08 <max2870StatusPrint>
        chprintf(chp, SHELL_NEWLINE_STR);
 800a348:	4628      	mov	r0, r5
 800a34a:	495d      	ldr	r1, [pc, #372]	; (800a4c0 <cmdMax+0x220>)
 800a34c:	f7fe fa0d 	bl	800876a <chprintf>
    return lock == 0xFF;
}

const char* max2870TuneResultToString(MAX2870TuneResult result)
{
    if(result == TUNE_OK) return "OK";
 800a350:	4a5c      	ldr	r2, [pc, #368]	; (800a4c4 <cmdMax+0x224>)
    chprintf(chp, "Tuning result: %s"SHELL_NEWLINE_STR, max2870TuneResultToString(result));
 800a352:	4628      	mov	r0, r5
 800a354:	495c      	ldr	r1, [pc, #368]	; (800a4c8 <cmdMax+0x228>)
 800a356:	f7fe fa08 	bl	800876a <chprintf>
}
 800a35a:	b007      	add	sp, #28
 800a35c:	e8bd 83f0 	ldmia.w	sp!, {r4, r5, r6, r7, r8, r9, pc}
    if(result == TUNE_CANT_FASTLOCK) return "Invalid fastlock command";
    if(result == TUNE_NOT_LOCKED) return "Lock failed";
 800a360:	1d06      	adds	r6, r0, #4
 800a362:	d008      	beq.n	800a376 <cmdMax+0xd6>
    if(result == TUNE_PLL_N_OUT_OF_RANGE) return "N out of range";
 800a364:	1c84      	adds	r4, r0, #2
 800a366:	d008      	beq.n	800a37a <cmdMax+0xda>
    if(result == TUNE_FREQUENCY_OUT_OF_RANGE) return "Frequency out of range";
 800a368:	4a58      	ldr	r2, [pc, #352]	; (800a4cc <cmdMax+0x22c>)
 800a36a:	4b59      	ldr	r3, [pc, #356]	; (800a4d0 <cmdMax+0x230>)
 800a36c:	f1b0 3fff 	cmp.w	r0, #4294967295	; 0xffffffff
 800a370:	bf08      	it	eq
 800a372:	461a      	moveq	r2, r3
 800a374:	e7ed      	b.n	800a352 <cmdMax+0xb2>
    if(result == TUNE_NOT_LOCKED) return "Lock failed";
 800a376:	4a57      	ldr	r2, [pc, #348]	; (800a4d4 <cmdMax+0x234>)
 800a378:	e7eb      	b.n	800a352 <cmdMax+0xb2>
    if(result == TUNE_PLL_N_OUT_OF_RANGE) return "N out of range";
 800a37a:	4a57      	ldr	r2, [pc, #348]	; (800a4d8 <cmdMax+0x238>)
 800a37c:	e7e9      	b.n	800a352 <cmdMax+0xb2>
    } else if(!strcmp(argv[0], "status")) {
 800a37e:	4638      	mov	r0, r7
 800a380:	4956      	ldr	r1, [pc, #344]	; (800a4dc <cmdMax+0x23c>)
 800a382:	f7f9 fc21 	bl	8003bc8 <strcmp>
 800a386:	b930      	cbnz	r0, 800a396 <cmdMax+0xf6>
        max2870StatusPrint(pll, chp);
 800a388:	4629      	mov	r1, r5
 800a38a:	4620      	mov	r0, r4
}
 800a38c:	b007      	add	sp, #28
 800a38e:	e8bd 43f0 	ldmia.w	sp!, {r4, r5, r6, r7, r8, r9, lr}
        max2870StatusPrint(pll, chp);
 800a392:	f7fe bbb9 	b.w	8008b08 <max2870StatusPrint>
    } else if(!strcmp(argv[0], "vcocache")) {
 800a396:	4638      	mov	r0, r7
 800a398:	4951      	ldr	r1, [pc, #324]	; (800a4e0 <cmdMax+0x240>)
 800a39a:	f7f9 fc15 	bl	8003bc8 <strcmp>
 800a39e:	2800      	cmp	r0, #0
 800a3a0:	d15f      	bne.n	800a462 <cmdMax+0x1c2>
    if(argc == 0) {
 800a3a2:	1e77      	subs	r7, r6, #1
 800a3a4:	d121      	bne.n	800a3ea <cmdMax+0x14a>
    uint32_t frequency = MAX2870_VCO_MIN_FREQUENCY/1000000 + MAX2870_VCO_INCREMENT/2000000;
 800a3a6:	f640 36c2 	movw	r6, #3010	; 0xbc2
        chprintf(stdout, "Frequency: %u MHz, VCO Band: ", frequency);
 800a3aa:	4f4e      	ldr	r7, [pc, #312]	; (800a4e4 <cmdMax+0x244>)
            chprintf(stdout, "Invalid"SHELL_NEWLINE_STR);
 800a3ac:	f8df 8138 	ldr.w	r8, [pc, #312]	; 800a4e8 <cmdMax+0x248>
            chprintf(stdout, "%u"SHELL_NEWLINE_STR, vco & 0x3f);
 800a3b0:	f8df 9138 	ldr.w	r9, [pc, #312]	; 800a4ec <cmdMax+0x24c>
 800a3b4:	3420      	adds	r4, #32
        chprintf(stdout, "Frequency: %u MHz, VCO Band: ", frequency);
 800a3b6:	4632      	mov	r2, r6
 800a3b8:	4639      	mov	r1, r7
 800a3ba:	4628      	mov	r0, r5
 800a3bc:	f7fe f9d5 	bl	800876a <chprintf>
        uint8_t vco = driver->vcoCache[i];
 800a3c0:	f814 2b01 	ldrb.w	r2, [r4], #1
        if(vco & 0x80) {
 800a3c4:	0610      	lsls	r0, r2, #24
 800a3c6:	d50b      	bpl.n	800a3e0 <cmdMax+0x140>
            chprintf(stdout, "%u"SHELL_NEWLINE_STR, vco & 0x3f);
 800a3c8:	4649      	mov	r1, r9
 800a3ca:	4628      	mov	r0, r5
 800a3cc:	f002 023f 	and.w	r2, r2, #63	; 0x3f
 800a3d0:	f7fe f9cb 	bl	800876a <chprintf>
    for(unsigned int i=0; i<sizeof(driver->vcoCache); i++) {
 800a3d4:	f241 737a 	movw	r3, #6010	; 0x177a
        frequency += MAX2870_VCO_INCREMENT/1000000;
 800a3d8:	3614      	adds	r6, #20
    for(unsigned int i=0; i<sizeof(driver->vcoCache); i++) {
 800a3da:	429e      	cmp	r6, r3
 800a3dc:	d1eb      	bne.n	800a3b6 <cmdMax+0x116>
 800a3de:	e7bc      	b.n	800a35a <cmdMax+0xba>
            chprintf(stdout, "Invalid"SHELL_NEWLINE_STR);
 800a3e0:	4641      	mov	r1, r8
 800a3e2:	4628      	mov	r0, r5
 800a3e4:	f7fe f9c1 	bl	800876a <chprintf>
 800a3e8:	e7f4      	b.n	800a3d4 <cmdMax+0x134>
    } else if(!strcmp(argv[0], "calibrate")) {
 800a3ea:	f8d8 6004 	ldr.w	r6, [r8, #4]
 800a3ee:	4940      	ldr	r1, [pc, #256]	; (800a4f0 <cmdMax+0x250>)
 800a3f0:	4630      	mov	r0, r6
 800a3f2:	f7f9 fbe9 	bl	8003bc8 <strcmp>
 800a3f6:	b948      	cbnz	r0, 800a40c <cmdMax+0x16c>
        max2870VcoPrecal(pll);
 800a3f8:	4620      	mov	r0, r4
 800a3fa:	f7fe ff85 	bl	8009308 <max2870VcoPrecal>
        chprintf(chp, "Done"SHELL_NEWLINE_STR);
 800a3fe:	493d      	ldr	r1, [pc, #244]	; (800a4f4 <cmdMax+0x254>)
            chprintf(chp, "The cow says moo!"SHELL_NEWLINE_STR);
 800a400:	4628      	mov	r0, r5
}
 800a402:	b007      	add	sp, #28
 800a404:	e8bd 43f0 	ldmia.w	sp!, {r4, r5, r6, r7, r8, r9, lr}
            chprintf(chp, "The cow says moo!"SHELL_NEWLINE_STR);
 800a408:	f7fe b9af 	b.w	800876a <chprintf>
    } else if(argc >= 2 && !strcmp(argv[0], "set")) {
 800a40c:	2f01      	cmp	r7, #1
 800a40e:	f77f af4f 	ble.w	800a2b0 <cmdMax+0x10>
 800a412:	4630      	mov	r0, r6
 800a414:	4938      	ldr	r1, [pc, #224]	; (800a4f8 <cmdMax+0x258>)
 800a416:	f7f9 fbd7 	bl	8003bc8 <strcmp>
 800a41a:	4606      	mov	r6, r0
 800a41c:	2800      	cmp	r0, #0
 800a41e:	f47f af47 	bne.w	800a2b0 <cmdMax+0x10>
        unsigned int a = strToInt(argv[1], 10);
 800a422:	210a      	movs	r1, #10
 800a424:	f8d8 0008 	ldr.w	r0, [r8, #8]
 800a428:	f7f9 fed7 	bl	80041da <strToInt>
        if(argc == 3) {
 800a42c:	2f03      	cmp	r7, #3
        unsigned int a = strToInt(argv[1], 10);
 800a42e:	4681      	mov	r9, r0
        if(argc == 3) {
 800a430:	d10a      	bne.n	800a448 <cmdMax+0x1a8>
            b = strToInt(argv[2], 10) | 0x80;
 800a432:	f8d8 000c 	ldr.w	r0, [r8, #12]
 800a436:	f7f9 fed0 	bl	80041da <strToInt>
 800a43a:	f040 0380 	orr.w	r3, r0, #128	; 0x80
    return &driver->currentTune;
}

bool max2870VcoCacheSet(MAX2870Driver* driver, unsigned int vcoIndex, uint8_t value)
{
    if(vcoIndex > sizeof(driver->vcoCache)) {
 800a43e:	f1b9 0f96 	cmp.w	r9, #150	; 0x96
 800a442:	d903      	bls.n	800a44c <cmdMax+0x1ac>
            chprintf(chp, "The cow says moo!"SHELL_NEWLINE_STR);
 800a444:	492d      	ldr	r1, [pc, #180]	; (800a4fc <cmdMax+0x25c>)
 800a446:	e7db      	b.n	800a400 <cmdMax+0x160>
        unsigned int b = 0;
 800a448:	4633      	mov	r3, r6
 800a44a:	e7f8      	b.n	800a43e <cmdMax+0x19e>
            chprintf(chp, "%u=0x%02x"SHELL_NEWLINE_STR,a,b);
 800a44c:	464a      	mov	r2, r9
 800a44e:	4628      	mov	r0, r5
 800a450:	492b      	ldr	r1, [pc, #172]	; (800a500 <cmdMax+0x260>)
        return false;
    }

    driver->vcoCache[vcoIndex] = value;
 800a452:	444c      	add	r4, r9
        if(max2870VcoCacheSet(pll, a , b)) {
 800a454:	f884 3020 	strb.w	r3, [r4, #32]
}
 800a458:	b007      	add	sp, #28
 800a45a:	e8bd 43f0 	ldmia.w	sp!, {r4, r5, r6, r7, r8, r9, lr}
            chprintf(chp, "%u=0x%02x"SHELL_NEWLINE_STR,a,b);
 800a45e:	f7fe b984 	b.w	800876a <chprintf>
    } else if(!strcmp(argv[0], "dld")) {
 800a462:	4638      	mov	r0, r7
 800a464:	4927      	ldr	r1, [pc, #156]	; (800a504 <cmdMax+0x264>)
 800a466:	f7f9 fbaf 	bl	8003bc8 <strcmp>
 800a46a:	2800      	cmp	r0, #0
 800a46c:	f47f af20 	bne.w	800a2b0 <cmdMax+0x10>
    max2870SpiState(driver, true);
 800a470:	4620      	mov	r0, r4
 800a472:	f7fd fe67 	bl	8008144 <max2870SpiState.constprop.0>
    max2870SetMUXOut(driver, 0x6);
 800a476:	4620      	mov	r0, r4
 800a478:	2106      	movs	r1, #6
 800a47a:	f7fd ff65 	bl	8008348 <max2870SetMUXOut>
    spiReceive(driver->config->spiPort, 1, &lock);
 800a47e:	6823      	ldr	r3, [r4, #0]
 800a480:	6818      	ldr	r0, [r3, #0]
 800a482:	b910      	cbnz	r0, 800a48a <cmdMax+0x1ea>
 800a484:	f7fa f966 	bl	8004754 <vTaskEndScheduler>
 800a488:	e7fe      	b.n	800a488 <cmdMax+0x1e8>
 800a48a:	466a      	mov	r2, sp
 800a48c:	2101      	movs	r1, #1
 800a48e:	f7fc f8c9 	bl	8006624 <spiReceive.part.0>
    if(enable) {
 800a492:	4620      	mov	r0, r4
 800a494:	f7fe f924 	bl	80086e0 <max2870SpiState.part.0>
        chprintf(chp, "Digital Lock Detect: %u"SHELL_NEWLINE_STR, max2870GetDigitalLockDetect(pll));
 800a498:	4628      	mov	r0, r5
    return lock == 0xFF;
 800a49a:	f89d 2000 	ldrb.w	r2, [sp]
 800a49e:	f1a2 01ff 	sub.w	r1, r2, #255	; 0xff
 800a4a2:	424a      	negs	r2, r1
 800a4a4:	414a      	adcs	r2, r1
 800a4a6:	4918      	ldr	r1, [pc, #96]	; (800a508 <cmdMax+0x268>)
}
 800a4a8:	b007      	add	sp, #28
 800a4aa:	e8bd 43f0 	ldmia.w	sp!, {r4, r5, r6, r7, r8, r9, lr}
        chprintf(chp, "Digital Lock Detect: %u"SHELL_NEWLINE_STR, max2870GetDigitalLockDetect(pll));
 800a4ae:	f7fe b95c 	b.w	800876a <chprintf>
    if(result == TUNE_CANT_FASTLOCK) return "Invalid fastlock command";
 800a4b2:	1cc3      	adds	r3, r0, #3
 800a4b4:	f47f af54 	bne.w	800a360 <cmdMax+0xc0>
 800a4b8:	4a14      	ldr	r2, [pc, #80]	; (800a50c <cmdMax+0x26c>)
 800a4ba:	e74a      	b.n	800a352 <cmdMax+0xb2>
 800a4bc:	0800c473 	.word	0x0800c473
 800a4c0:	0800be7c 	.word	0x0800be7c
 800a4c4:	0800ba8d 	.word	0x0800ba8d
 800a4c8:	0800c478 	.word	0x0800c478
 800a4cc:	0800c41a 	.word	0x0800c41a
 800a4d0:	0800c443 	.word	0x0800c443
 800a4d4:	0800c437 	.word	0x0800c437
 800a4d8:	0800c428 	.word	0x0800c428
 800a4dc:	0800c08b 	.word	0x0800c08b
 800a4e0:	0800c48c 	.word	0x0800c48c
 800a4e4:	0800c495 	.word	0x0800c495
 800a4e8:	0800c4b3 	.word	0x0800c4b3
 800a4ec:	0800c1a9 	.word	0x0800c1a9
 800a4f0:	0800c4bd 	.word	0x0800c4bd
 800a4f4:	0800c4c7 	.word	0x0800c4c7
 800a4f8:	0800c0c3 	.word	0x0800c0c3
 800a4fc:	0800c4ce 	.word	0x0800c4ce
 800a500:	0800c4e2 	.word	0x0800c4e2
 800a504:	0800c4ee 	.word	0x0800c4ee
 800a508:	0800c4f2 	.word	0x0800c4f2
 800a50c:	0800c45a 	.word	0x0800c45a

0800a510 <cmdSof>:

void cmdSof(void* user, BaseSequentialStream *chp, int argc, char *argv[])
{
    (void) user;

    if(argc > 0) {
 800a510:	2a00      	cmp	r2, #0
{
 800a512:	b538      	push	{r3, r4, r5, lr}
 800a514:	460c      	mov	r4, r1
 800a516:	4d16      	ldr	r5, [pc, #88]	; (800a570 <cmdSof+0x60>)
    if(argc > 0) {
 800a518:	dd06      	ble.n	800a528 <cmdSof+0x18>
        if(!strcmp(argv[0],"1")) {
 800a51a:	4916      	ldr	r1, [pc, #88]	; (800a574 <cmdSof+0x64>)
 800a51c:	6818      	ldr	r0, [r3, #0]
 800a51e:	f7f9 fb53 	bl	8003bc8 <strcmp>
 800a522:	b9f0      	cbnz	r0, 800a562 <cmdSof+0x52>
    sofNeededCallback
};

void usbDisableSOF(bool doIt)
{
    allowDisableSOF = doIt;
 800a524:	2301      	movs	r3, #1
 800a526:	702b      	strb	r3, [r5, #0]
            usbDisableSOF(true);
        } else {
            usbDisableSOF(false);
        }
    }
    printfFixed(chp, 21, "SoF Disable Allowed:");
 800a528:	2115      	movs	r1, #21
 800a52a:	4a13      	ldr	r2, [pc, #76]	; (800a578 <cmdSof+0x68>)
 800a52c:	4620      	mov	r0, r4
 800a52e:	f7fe fac5 	bl	8008abc <printfFixed>
    }
}

uint32_t usbGetSofCounter(bool* sofDisableAllowed)
{
    osalSysLock();
 800a532:	f7fa f8ff 	bl	8004734 <vPortEnterCritical>
    if(sofDisableAllowed) *sofDisableAllowed=allowDisableSOF;

    uint32_t count = sofCounter;
 800a536:	4b11      	ldr	r3, [pc, #68]	; (800a57c <cmdSof+0x6c>)
    if(sofDisableAllowed) *sofDisableAllowed=allowDisableSOF;
 800a538:	7828      	ldrb	r0, [r5, #0]
    uint32_t count = sofCounter;
 800a53a:	681d      	ldr	r5, [r3, #0]
    osalSysUnlock();
 800a53c:	f7fa fb1e 	bl	8004b7c <osalSysUnlock.lto_priv.0>
    bool allowDisable;
    uint32_t cnt = usbGetSofCounter(&allowDisable);
    chprintf(chp, "%u"SHELL_NEWLINE_STR, allowDisable);
 800a540:	4602      	mov	r2, r0
 800a542:	490f      	ldr	r1, [pc, #60]	; (800a580 <cmdSof+0x70>)
 800a544:	4620      	mov	r0, r4
 800a546:	f7fe f910 	bl	800876a <chprintf>
    printfFixed(chp, 21, "SoF Count:");
 800a54a:	2115      	movs	r1, #21
 800a54c:	4620      	mov	r0, r4
 800a54e:	4a0d      	ldr	r2, [pc, #52]	; (800a584 <cmdSof+0x74>)
 800a550:	f7fe fab4 	bl	8008abc <printfFixed>
    chprintf(chp, "%u"SHELL_NEWLINE_STR, cnt);
 800a554:	462a      	mov	r2, r5
 800a556:	4620      	mov	r0, r4
}
 800a558:	e8bd 4038 	ldmia.w	sp!, {r3, r4, r5, lr}
    chprintf(chp, "%u"SHELL_NEWLINE_STR, cnt);
 800a55c:	4908      	ldr	r1, [pc, #32]	; (800a580 <cmdSof+0x70>)
 800a55e:	f7fe b904 	b.w	800876a <chprintf>
    allowDisableSOF = doIt;
 800a562:	2300      	movs	r3, #0
        sofNeededCallback(&USBD1, true);
 800a564:	2101      	movs	r1, #1
 800a566:	4808      	ldr	r0, [pc, #32]	; (800a588 <cmdSof+0x78>)
    allowDisableSOF = doIt;
 800a568:	702b      	strb	r3, [r5, #0]
        sofNeededCallback(&USBD1, true);
 800a56a:	f7fa fe59 	bl	8005220 <sofNeededCallback>
 800a56e:	e7db      	b.n	800a528 <cmdSof+0x18>
 800a570:	20000800 	.word	0x20000800
 800a574:	0800bbbc 	.word	0x0800bbbc
 800a578:	0800c50c 	.word	0x0800c50c
 800a57c:	200012c8 	.word	0x200012c8
 800a580:	0800c1a9 	.word	0x0800c1a9
 800a584:	0800c521 	.word	0x0800c521
 800a588:	20000f54 	.word	0x20000f54

0800a58c <cmdSanity>:

void cmdSanity(void* user, BaseSequentialStream *chp, int argc, char *argv[])
{
    (void)user;

    if(argc == 1) {
 800a58c:	2a01      	cmp	r2, #1
{
 800a58e:	b570      	push	{r4, r5, r6, lr}
 800a590:	460c      	mov	r4, r1
 800a592:	4615      	mov	r5, r2
    if(argc == 1) {
 800a594:	d117      	bne.n	800a5c6 <cmdSanity+0x3a>
        if(sanitySettingsLocked){
 800a596:	4e11      	ldr	r6, [pc, #68]	; (800a5dc <cmdSanity+0x50>)
 800a598:	7832      	ldrb	r2, [r6, #0]
 800a59a:	b12a      	cbz	r2, 800a5a8 <cmdSanity+0x1c>
            chprintf(chp, "Settings locked!"SHELL_NEWLINE_STR);
 800a59c:	4910      	ldr	r1, [pc, #64]	; (800a5e0 <cmdSanity+0x54>)
    chprintf(chp, "\tsanity [delaysec]"SHELL_NEWLINE_STR);
 800a59e:	4620      	mov	r0, r4
        }
        return;
    };

    cmdSanityUsage(chp);
}
 800a5a0:	e8bd 4070 	ldmia.w	sp!, {r4, r5, r6, lr}
    chprintf(chp, "\tsanity [delaysec]"SHELL_NEWLINE_STR);
 800a5a4:	f7fe b8e1 	b.w	800876a <chprintf>
        }else if(!strcmp(argv[0], "lock")) {
 800a5a8:	681c      	ldr	r4, [r3, #0]
 800a5aa:	490e      	ldr	r1, [pc, #56]	; (800a5e4 <cmdSanity+0x58>)
 800a5ac:	4620      	mov	r0, r4
 800a5ae:	f7f9 fb0b 	bl	8003bc8 <strcmp>
 800a5b2:	b908      	cbnz	r0, 800a5b8 <cmdSanity+0x2c>
            sanitySettingsLocked = true;
 800a5b4:	7035      	strb	r5, [r6, #0]
}
 800a5b6:	bd70      	pop	{r4, r5, r6, pc}
            sanityRebootSeconds = strToInt(argv[0], 10);
 800a5b8:	210a      	movs	r1, #10
 800a5ba:	4620      	mov	r0, r4
 800a5bc:	f7f9 fe0d 	bl	80041da <strToInt>
 800a5c0:	4b09      	ldr	r3, [pc, #36]	; (800a5e8 <cmdSanity+0x5c>)
 800a5c2:	6018      	str	r0, [r3, #0]
 800a5c4:	e7f7      	b.n	800a5b6 <cmdSanity+0x2a>
    chprintf(chp, "Usage:"SHELL_NEWLINE_STR);
 800a5c6:	4909      	ldr	r1, [pc, #36]	; (800a5ec <cmdSanity+0x60>)
 800a5c8:	4620      	mov	r0, r4
 800a5ca:	f7fe f8ce 	bl	800876a <chprintf>
    chprintf(chp, "\tsanity lock"SHELL_NEWLINE_STR);
 800a5ce:	4908      	ldr	r1, [pc, #32]	; (800a5f0 <cmdSanity+0x64>)
 800a5d0:	4620      	mov	r0, r4
 800a5d2:	f7fe f8ca 	bl	800876a <chprintf>
    chprintf(chp, "\tsanity [delaysec]"SHELL_NEWLINE_STR);
 800a5d6:	4907      	ldr	r1, [pc, #28]	; (800a5f4 <cmdSanity+0x68>)
 800a5d8:	e7e1      	b.n	800a59e <cmdSanity+0x12>
 800a5da:	bf00      	nop
 800a5dc:	20001230 	.word	0x20001230
 800a5e0:	0800c52c 	.word	0x0800c52c
 800a5e4:	0800c53f 	.word	0x0800c53f
 800a5e8:	20000858 	.word	0x20000858
 800a5ec:	0800bc85 	.word	0x0800bc85
 800a5f0:	0800c544 	.word	0x0800c544
 800a5f4:	0800c553 	.word	0x0800c553

0800a5f8 <i2cSafeWriteRegStandard>:
{
 800a5f8:	b530      	push	{r4, r5, lr}
 800a5fa:	460d      	mov	r5, r1
    osalDbgAssert(i2c != NULL, "i2c == NULL");
 800a5fc:	4604      	mov	r4, r0
{
 800a5fe:	b085      	sub	sp, #20
    osalDbgAssert(i2c != NULL, "i2c == NULL");
 800a600:	b910      	cbnz	r0, 800a608 <i2cSafeWriteRegStandard+0x10>
 800a602:	f7fa f8a7 	bl	8004754 <vTaskEndScheduler>
 800a606:	e7fe      	b.n	800a606 <i2cSafeWriteRegStandard+0xe>
    txBuf[0]=addr;
 800a608:	f88d 200c 	strb.w	r2, [sp, #12]
    memcpy(&txBuf[1], values, len);
 800a60c:	f88d 300d 	strb.w	r3, [sp, #13]
    i2cAcquireBus(i2c);
 800a610:	f7fb fc6c 	bl	8005eec <i2cAcquireBus>
    i2c_status = i2cSafeMasterTransmitTimeoutWithRetry(i2c, devAddr, txBuf,
 800a614:	2300      	movs	r3, #0
 800a616:	4629      	mov	r1, r5
 800a618:	e9cd 3300 	strd	r3, r3, [sp]
 800a61c:	aa03      	add	r2, sp, #12
 800a61e:	2302      	movs	r3, #2
 800a620:	4620      	mov	r0, r4
 800a622:	f7fe fef5 	bl	8009410 <i2cSafeMasterTransmitTimeoutWithRetry.constprop.0>
 800a626:	4605      	mov	r5, r0
    i2cReleaseBus(i2c);
 800a628:	4620      	mov	r0, r4
 800a62a:	f7fe f84f 	bl	80086cc <i2cReleaseBus>
}
 800a62e:	4628      	mov	r0, r5
 800a630:	b005      	add	sp, #20
 800a632:	bd30      	pop	{r4, r5, pc}

0800a634 <main_>:
{
 800a634:	b5f0      	push	{r4, r5, r6, r7, lr}
    void* syslogBuffer = pvPortMalloc(bufferSize);
 800a636:	f44f 6080 	mov.w	r0, #1024	; 0x400
 800a63a:	b085      	sub	sp, #20
 800a63c:	f7fb f8e6 	bl	800580c <pvPortMalloc>
    memset(queue, 0, sizeof(*queue));
 800a640:	4c55      	ldr	r4, [pc, #340]	; (800a798 <main_+0x164>)
 800a642:	4605      	mov	r5, r0
 800a644:	221c      	movs	r2, #28
 800a646:	2100      	movs	r1, #0
 800a648:	f104 0008 	add.w	r0, r4, #8
 800a64c:	f001 f8ea 	bl	800b824 <memset>

    queue->buffer = buffer;
    queue->bufferSize = bufferSize;
 800a650:	f44f 6380 	mov.w	r3, #1024	; 0x400
 800a654:	2050      	movs	r0, #80	; 0x50
    queue->buffer = buffer;
 800a656:	6025      	str	r5, [r4, #0]
    queue->bufferSize = bufferSize;
 800a658:	6063      	str	r3, [r4, #4]
 800a65a:	f7fb f8d7 	bl	800580c <pvPortMalloc>
 800a65e:	4604      	mov	r4, r0
 800a660:	b160      	cbz	r0, 800a67c <main_+0x48>
 800a662:	2300      	movs	r3, #0
 800a664:	2501      	movs	r5, #1
 800a666:	f880 3046 	strb.w	r3, [r0, #70]	; 0x46
 800a66a:	e9c0 530f 	strd	r5, r3, [r0, #60]	; 0x3c
 800a66e:	6000      	str	r0, [r0, #0]
 800a670:	f7fe f851 	bl	8008716 <xQueueGenericReset.constprop.0.isra.0>
 800a674:	f880 504c 	strb.w	r5, [r0, #76]	; 0x4c
 800a678:	f7fe f847 	bl	800870a <prvInitialiseMutex.part.0>
    syslogSemaphore = xSemaphoreCreateMutex();
 800a67c:	4b47      	ldr	r3, [pc, #284]	; (800a79c <main_+0x168>)
    syslog("Syslog started.");
 800a67e:	4848      	ldr	r0, [pc, #288]	; (800a7a0 <main_+0x16c>)
    syslogSemaphore = xSemaphoreCreateMutex();
 800a680:	601c      	str	r4, [r3, #0]
    syslog("Syslog started.");
 800a682:	f7fe fb8b 	bl	8008d9c <syslog>
    usbDisconnectBus(serusbcfg.usbp);
 800a686:	f44f 6380 	mov.w	r3, #1024	; 0x400
    event_source->setEvents = 0;
 800a68a:	2400      	movs	r4, #0
 800a68c:	4d45      	ldr	r5, [pc, #276]	; (800a7a4 <main_+0x170>)
 800a68e:	4846      	ldr	r0, [pc, #280]	; (800a7a8 <main_+0x174>)
 800a690:	616b      	str	r3, [r5, #20]
    event_source->firstRepeater = NULL;
 800a692:	e9c0 4400 	strd	r4, r4, [r0]
    event_source->waitThread = NULL;
 800a696:	6084      	str	r4, [r0, #8]
    osalSysLock();
 800a698:	f7fa f84c 	bl	8004734 <vPortEnterCritical>
 800a69c:	f3ef 8311 	mrs	r3, BASEPRI
 800a6a0:	b1b3      	cbz	r3, 800a6d0 <main_+0x9c>
 800a6a2:	4b42      	ldr	r3, [pc, #264]	; (800a7ac <main_+0x178>)
    GPIODriverData.numPorts = numPorts;
 800a6a4:	4e42      	ldr	r6, [pc, #264]	; (800a7b0 <main_+0x17c>)
 800a6a6:	60c3      	str	r3, [r0, #12]
    osalSysUnlock();
 800a6a8:	f7fa fa68 	bl	8004b7c <osalSysUnlock.lto_priv.0>
 800a6ac:	2304      	movs	r3, #4
    GPIODriverData.ports = pvPortMalloc(sizeof(GPIOPort) * numPorts);
 800a6ae:	2030      	movs	r0, #48	; 0x30
    GPIODriverData.numPorts = numPorts;
 800a6b0:	7133      	strb	r3, [r6, #4]
    GPIODriverData.ports = pvPortMalloc(sizeof(GPIOPort) * numPorts);
 800a6b2:	f7fb f8ab 	bl	800580c <pvPortMalloc>
 800a6b6:	6030      	str	r0, [r6, #0]
    if(!GPIODriverData.ports) {
 800a6b8:	b968      	cbnz	r0, 800a6d6 <main_+0xa2>
        syslog("GPIO subsystem init failed.");
 800a6ba:	483e      	ldr	r0, [pc, #248]	; (800a7b4 <main_+0x180>)
    syslog("USB init done.");
 800a6bc:	f7fe fb6e 	bl	8008d9c <syslog>
    shellStart((BaseSequentialStream*)&SD3, 128, "ShellTTL", NULL, NULL);
 800a6c0:	2200      	movs	r2, #0
 800a6c2:	493d      	ldr	r1, [pc, #244]	; (800a7b8 <main_+0x184>)
 800a6c4:	483d      	ldr	r0, [pc, #244]	; (800a7bc <main_+0x188>)
}
 800a6c6:	b005      	add	sp, #20
 800a6c8:	e8bd 40f0 	ldmia.w	sp!, {r4, r5, r6, r7, lr}
    shellStart((BaseSequentialStream*)&SD3, 128, "ShellTTL", NULL, NULL);
 800a6cc:	f7fd bb46 	b.w	8007d5c <shellStart.constprop.0>
 800a6d0:	f7fa f840 	bl	8004754 <vTaskEndScheduler>
 800a6d4:	e7fe      	b.n	800a6d4 <main_+0xa0>
        GPIODriverData.ports[i].numPins = 0;
 800a6d6:	4623      	mov	r3, r4
        GPIODriverData.ports[i].functions = &gpioDummyFunctions;
 800a6d8:	4a39      	ldr	r2, [pc, #228]	; (800a7c0 <main_+0x18c>)
        GPIODriverData.ports[i].driver = (void*)(unsigned int)i;
 800a6da:	6004      	str	r4, [r0, #0]
    for(uint8_t i=0; i<numPorts; i++) {
 800a6dc:	3401      	adds	r4, #1
 800a6de:	2c04      	cmp	r4, #4
        GPIODriverData.ports[i].numPins = 0;
 800a6e0:	e9c0 3201 	strd	r3, r2, [r0, #4]
    for(uint8_t i=0; i<numPorts; i++) {
 800a6e4:	f100 000c 	add.w	r0, r0, #12
 800a6e8:	d1f7      	bne.n	800a6da <main_+0xa6>
        syslog("GPIO subsystem init done.");
 800a6ea:	4836      	ldr	r0, [pc, #216]	; (800a7c4 <main_+0x190>)
 800a6ec:	f7fe fb56 	bl	8008d9c <syslog>
        gpioCPUInit(GPIO_PORT_GPIOA, GPIOA);
 800a6f0:	492c      	ldr	r1, [pc, #176]	; (800a7a4 <main_+0x170>)
 800a6f2:	2000      	movs	r0, #0
 800a6f4:	f7f9 fee0 	bl	80044b8 <gpioCPUInit>
        gpioCPUInit(GPIO_PORT_GPIOB, GPIOB);
 800a6f8:	2001      	movs	r0, #1
 800a6fa:	f501 6180 	add.w	r1, r1, #1024	; 0x400
 800a6fe:	f7f9 fedb 	bl	80044b8 <gpioCPUInit>
        gpioCPUInit(GPIO_PORT_GPIOC, GPIOC);
 800a702:	2002      	movs	r0, #2
 800a704:	f501 6180 	add.w	r1, r1, #1024	; 0x400
 800a708:	f7f9 fed6 	bl	80044b8 <gpioCPUInit>
        shellCommandRegister("gpio", cmdGPIO, NULL);
 800a70c:	2200      	movs	r2, #0
 800a70e:	492e      	ldr	r1, [pc, #184]	; (800a7c8 <main_+0x194>)
 800a710:	482e      	ldr	r0, [pc, #184]	; (800a7cc <main_+0x198>)
 800a712:	f7f9 fda3 	bl	800425c <shellCommandRegister>
    gpioSetPinMode(gpioPin, PAL_MODE_INPUT_PULLUP);
 800a716:	2103      	movs	r1, #3
 800a718:	f44f 7084 	mov.w	r0, #264	; 0x108
 800a71c:	f7fc fdfc 	bl	8007318 <gpioSetPinMode.isra.0>
    osalThreadSleepMilliseconds(1);
 800a720:	2001      	movs	r0, #1
 800a722:	f7fb fbef 	bl	8005f04 <vTaskDelay>
    if(gpioGetPin(gpioPin) == 0) {
 800a726:	f44f 7084 	mov.w	r0, #264	; 0x108
 800a72a:	f7f9 fe63 	bl	80043f4 <gpioGetPin>
 800a72e:	b158      	cbz	r0, 800a748 <main_+0x114>
    gpioSetPinMode(gpioPin, PAL_MODE_INPUT_PULLDOWN);
 800a730:	4621      	mov	r1, r4
 800a732:	f44f 7084 	mov.w	r0, #264	; 0x108
 800a736:	f7fc fdef 	bl	8007318 <gpioSetPinMode.isra.0>
    osalThreadSleepMilliseconds(1);
 800a73a:	2001      	movs	r0, #1
 800a73c:	f7fb fbe2 	bl	8005f04 <vTaskDelay>
    if(gpioGetPin(gpioPin) == 1) {
 800a740:	f44f 7084 	mov.w	r0, #264	; 0x108
 800a744:	f7f9 fe56 	bl	80043f4 <gpioGetPin>
    uint32_t index = 0;

    for(;;) {
        const GPIOPinInit* pin = &pins[index];

        if(pin->gpioPin == 0xffff) {
 800a748:	f64f 76ff 	movw	r6, #65535	; 0xffff
 800a74c:	4c20      	ldr	r4, [pc, #128]	; (800a7d0 <main_+0x19c>)
 800a74e:	f834 0b04 	ldrh.w	r0, [r4], #4
 800a752:	42b0      	cmp	r0, r6
 800a754:	d00a      	beq.n	800a76c <main_+0x138>
            return;
        }

        gpioSetPinMode(pin->gpioPin, pin->gpioMode);
 800a756:	f814 1c02 	ldrb.w	r1, [r4, #-2]
 800a75a:	f7fc fddd 	bl	8007318 <gpioSetPinMode.isra.0>
        gpioSetPin(pin->gpioPin, pin->defaultValue);
 800a75e:	f814 1c01 	ldrb.w	r1, [r4, #-1]
 800a762:	f834 0c04 	ldrh.w	r0, [r4, #-4]
 800a766:	f7fc feeb 	bl	8007540 <gpioSetPin.isra.0>
 800a76a:	e7f0      	b.n	800a74e <main_+0x11a>
    i2c->i2cSafeConfig = (void*)config;
 800a76c:	4c19      	ldr	r4, [pc, #100]	; (800a7d4 <main_+0x1a0>)
 800a76e:	4b1a      	ldr	r3, [pc, #104]	; (800a7d8 <main_+0x1a4>)
    i2cSafeRawHardwareControl(i2c);
 800a770:	4620      	mov	r0, r4
    i2c->i2cSafeConfig = (void*)config;
 800a772:	67e3      	str	r3, [r4, #124]	; 0x7c
    i2cSafeRawHardwareControl(i2c);
 800a774:	f7fc fddc 	bl	8007330 <i2cSafeRawHardwareControl>
    shellCommandRegister("i2c", cmdI2C, &I2CD1);
 800a778:	4622      	mov	r2, r4
 800a77a:	4918      	ldr	r1, [pc, #96]	; (800a7dc <main_+0x1a8>)
 800a77c:	4818      	ldr	r0, [pc, #96]	; (800a7e0 <main_+0x1ac>)
 800a77e:	f7f9 fd6d 	bl	800425c <shellCommandRegister>
  osalSysLock();
 800a782:	f7f9 ffd7 	bl	8004734 <vPortEnterCritical>
  osalDbgAssert((sdp->state == SD_STOP) || (sdp->state == SD_READY),
 800a786:	490d      	ldr	r1, [pc, #52]	; (800a7bc <main_+0x188>)
 800a788:	7d0b      	ldrb	r3, [r1, #20]
 800a78a:	1e5a      	subs	r2, r3, #1
 800a78c:	2a01      	cmp	r2, #1
 800a78e:	d929      	bls.n	800a7e4 <main_+0x1b0>
 800a790:	f7f9 ffe0 	bl	8004754 <vTaskEndScheduler>
 800a794:	e7fe      	b.n	800a794 <main_+0x160>
 800a796:	bf00      	nop
 800a798:	20001310 	.word	0x20001310
 800a79c:	20001334 	.word	0x20001334
 800a7a0:	0800c568 	.word	0x0800c568
 800a7a4:	40010800 	.word	0x40010800
 800a7a8:	200012b8 	.word	0x200012b8
 800a7ac:	08008e11 	.word	0x08008e11
 800a7b0:	20000928 	.word	0x20000928
 800a7b4:	0800c578 	.word	0x0800c578
 800a7b8:	0800c68a 	.word	0x0800c68a
 800a7bc:	200009bc 	.word	0x200009bc
 800a7c0:	0800ca50 	.word	0x0800ca50
 800a7c4:	0800c594 	.word	0x0800c594
 800a7c8:	0800966d 	.word	0x0800966d
 800a7cc:	0800c5ae 	.word	0x0800c5ae
 800a7d0:	0800caa0 	.word	0x0800caa0
 800a7d4:	20000934 	.word	0x20000934
 800a7d8:	0800c85c 	.word	0x0800c85c
 800a7dc:	0800ab71 	.word	0x0800ab71
 800a7e0:	0800c5b3 	.word	0x0800c5b3
void sd_lld_start(SerialDriver *sdp, const SerialConfig *config) {

  if (config == NULL)
    config = &default_config;

  if (sdp->state == SD_STOP) {
 800a7e4:	2b01      	cmp	r3, #1
 800a7e6:	d10c      	bne.n	800a802 <main_+0x1ce>
      nvicEnableVector(STM32_USART2_NUMBER, STM32_SERIAL_USART2_PRIORITY);
    }
#endif
#if STM32_SERIAL_USE_USART3
    if (&SD3 == sdp) {
      rccEnableUSART3(FALSE);
 800a7e8:	4ab4      	ldr	r2, [pc, #720]	; (800aabc <main_+0x488>)
 800a7ea:	69d3      	ldr	r3, [r2, #28]
 800a7ec:	f443 2380 	orr.w	r3, r3, #262144	; 0x40000
 800a7f0:	61d3      	str	r3, [r2, #28]
  NVIC->IP[n] = NVIC_PRIORITY_MASK(prio);
 800a7f2:	22c0      	movs	r2, #192	; 0xc0
 800a7f4:	4bb2      	ldr	r3, [pc, #712]	; (800aac0 <main_+0x48c>)
 800a7f6:	f883 2327 	strb.w	r2, [r3, #807]	; 0x327
  NVIC->ICPR[n >> 5U] = 1U << (n & 0x1FU);
 800a7fa:	2280      	movs	r2, #128	; 0x80
 800a7fc:	f8c3 2184 	str.w	r2, [r3, #388]	; 0x184
  NVIC->ISER[n >> 5U] = 1U << (n & 0x1FU);
 800a800:	605a      	str	r2, [r3, #4]
static void usart_init(SerialDriver *sdp, const SerialConfig *config) {
 800a802:	f44f 729c 	mov.w	r2, #312	; 0x138
  USART_TypeDef *u = sdp->usart;
 800a806:	f8d1 3080 	ldr.w	r3, [r1, #128]	; 0x80
  u->SR = 0;
 800a80a:	2600      	movs	r6, #0
    u->BRR = STM32_PCLK2 / config->speed;
 800a80c:	609a      	str	r2, [r3, #8]
  u->CR2 = config->cr2 | USART_CR2_LBDIE;
 800a80e:	2040      	movs	r0, #64	; 0x40
  u->CR3 = config->cr3 | USART_CR3_EIE;
 800a810:	2401      	movs	r4, #1
  u->CR1 = config->cr1 | USART_CR1_UE | USART_CR1_PEIE |
 800a812:	f242 122c 	movw	r2, #8492	; 0x212c
  u->CR2 = config->cr2 | USART_CR2_LBDIE;
 800a816:	6118      	str	r0, [r3, #16]
  u->CR3 = config->cr3 | USART_CR3_EIE;
 800a818:	615c      	str	r4, [r3, #20]
  u->CR1 = config->cr1 | USART_CR1_UE | USART_CR1_PEIE |
 800a81a:	60da      	str	r2, [r3, #12]
  u->SR = 0;
 800a81c:	601e      	str	r6, [r3, #0]
  (void)u->SR;  /* SR reset step 1.*/
 800a81e:	681a      	ldr	r2, [r3, #0]
  (void)u->DR;  /* SR reset step 2.*/
 800a820:	685b      	ldr	r3, [r3, #4]
    sdp->rxmask = 0xFF;
 800a822:	23ff      	movs	r3, #255	; 0xff
 800a824:	f881 3084 	strb.w	r3, [r1, #132]	; 0x84
  sdp->state = SD_READY;
 800a828:	2302      	movs	r3, #2
 800a82a:	750b      	strb	r3, [r1, #20]
    osalOsRescheduleS();
 800a82c:	f7fa f808 	bl	8004840 <osalOsRescheduleS.lto_priv.1>
    taskEXIT_CRITICAL();
 800a830:	f7fa f998 	bl	8004b64 <vPortExitCritical>
    xTaskCreate(mixLedTask, "Led", 64, (void*)&mixLedDelay, 1, &mixLedTaskHandle);
 800a834:	4ba3      	ldr	r3, [pc, #652]	; (800aac4 <main_+0x490>)
 800a836:	4602      	mov	r2, r0
 800a838:	e9cd 4300 	strd	r4, r3, [sp]
    memset(driver, 0, sizeof(*driver));
 800a83c:	4ca2      	ldr	r4, [pc, #648]	; (800aac8 <main_+0x494>)
 800a83e:	4ba3      	ldr	r3, [pc, #652]	; (800aacc <main_+0x498>)
 800a840:	49a3      	ldr	r1, [pc, #652]	; (800aad0 <main_+0x49c>)
 800a842:	48a4      	ldr	r0, [pc, #656]	; (800aad4 <main_+0x4a0>)
 800a844:	f7fd fa5a 	bl	8007cfc <xTaskCreate.isra.0>
 800a848:	22fc      	movs	r2, #252	; 0xfc
 800a84a:	4631      	mov	r1, r6
 800a84c:	1d20      	adds	r0, r4, #4
 800a84e:	f000 ffe9 	bl	800b824 <memset>
    driver->config = config;
 800a852:	4ba1      	ldr	r3, [pc, #644]	; (800aad8 <main_+0x4a4>)
    max2870Tune(driver, &driver->currentTune);
 800a854:	f104 0108 	add.w	r1, r4, #8
    driver->config = config;
 800a858:	6023      	str	r3, [r4, #0]
    driver->currentTune.powerA = -127;
 800a85a:	f248 1381 	movw	r3, #33153	; 0x8181
    max2870Tune(driver, &driver->currentTune);
 800a85e:	4620      	mov	r0, r4
    driver->currentTune.powerA = -127;
 800a860:	8223      	strh	r3, [r4, #16]
    max2870Tune(driver, &driver->currentTune);
 800a862:	f7fe fd23 	bl	80092ac <max2870Tune>
    uint16_t pfdDivider = driver->config->referenceToPfdDivider;
 800a866:	6820      	ldr	r0, [r4, #0]
 800a868:	8a83      	ldrh	r3, [r0, #20]
    uint32_t pfdFrequency = driver->config->inputFrequency;
 800a86a:	6902      	ldr	r2, [r0, #16]
    if(!(pfdDivider % 2)) {
 800a86c:	07d9      	lsls	r1, r3, #31
        pfdDivider /= 2;
 800a86e:	bf57      	itett	pl
 800a870:	085b      	lsrpl	r3, r3, #1
    uint32_t register2 = 0;
 800a872:	4631      	movmi	r1, r6
        register2 |= _BV(MAX2870_REG2_RDIV2_OFFSET);
 800a874:	f04f 7180 	movpl.w	r1, #16777216	; 0x1000000
        pfdFrequency /= 2;
 800a878:	0852      	lsrpl	r2, r2, #1
    if(pfdDivider > 1023) {
 800a87a:	f5b3 6f80 	cmp.w	r3, #1024	; 0x400
 800a87e:	4e97      	ldr	r6, [pc, #604]	; (800aadc <main_+0x4a8>)
 800a880:	f080 8099 	bcs.w	800a9b6 <main_+0x382>
    pfdFrequency /= pfdDivider;
 800a884:	fbb2 f2f3 	udiv	r2, r2, r3
    if(pfdFrequency % driver->config->stepFrequency) {
 800a888:	6980      	ldr	r0, [r0, #24]
        pfdDivider = 0;
 800a88a:	2b01      	cmp	r3, #1
    if(pfdFrequency % driver->config->stepFrequency) {
 800a88c:	fbb2 f7f0 	udiv	r7, r2, r0
 800a890:	fb00 2017 	mls	r0, r0, r7, r2
        pfdDivider = 0;
 800a894:	bf08      	it	eq
 800a896:	2300      	moveq	r3, #0
    if(pfdFrequency % driver->config->stepFrequency) {
 800a898:	2800      	cmp	r0, #0
 800a89a:	f040 808c 	bne.w	800a9b6 <main_+0x382>
    if(fracDivider > 4095) {
 800a89e:	f5b7 5f80 	cmp.w	r7, #4096	; 0x1000
 800a8a2:	f080 8088 	bcs.w	800a9b6 <main_+0x382>
    register2 |= pfdDivider << MAX2870_REG2_R_OFFSET;
 800a8a6:	ea41 3383 	orr.w	r3, r1, r3, lsl #14
    driver->bsValue = (pfdFrequency + 49999) / 50000;
 800a8aa:	f24c 3150 	movw	r1, #50000	; 0xc350
    driver->refDividerRegister2 = register2;
 800a8ae:	f8c4 30c0 	str.w	r3, [r4, #192]	; 0xc0
    driver->bsValue = (pfdFrequency + 49999) / 50000;
 800a8b2:	f502 4343 	add.w	r3, r2, #49920	; 0xc300
 800a8b6:	334f      	adds	r3, #79	; 0x4f
 800a8b8:	fbb3 f3f1 	udiv	r3, r3, r1
 800a8bc:	b29b      	uxth	r3, r3
    if(driver->bsValue > 1023) {
 800a8be:	f5b3 6f80 	cmp.w	r3, #1024	; 0x400
    driver->fracDivider = fracDivider;
 800a8c2:	f8a4 70bc 	strh.w	r7, [r4, #188]	; 0xbc
    driver->bsValue = (pfdFrequency + 49999) / 50000;
 800a8c6:	f8a4 30c4 	strh.w	r3, [r4, #196]	; 0xc4
    if(driver->bsValue > 1023) {
 800a8ca:	d274      	bcs.n	800a9b6 <main_+0x382>
    entry->name = name;
 800a8cc:	4b84      	ldr	r3, [pc, #528]	; (800aae0 <main_+0x4ac>)
    driver->pfdFrequency = pfdFrequency;
 800a8ce:	f8c4 20b8 	str.w	r2, [r4, #184]	; 0xb8
 800a8d2:	f8c4 30f4 	str.w	r3, [r4, #244]	; 0xf4
    entry->callback = callback;
 800a8d6:	4b83      	ldr	r3, [pc, #524]	; (800aae4 <main_+0x4b0>)
    entry->param = param;
 800a8d8:	e9c4 343a 	strd	r3, r4, [r4, #232]	; 0xe8
    entry->next = monThreadFirst;
 800a8dc:	6833      	ldr	r3, [r6, #0]
 800a8de:	f8c4 30f0 	str.w	r3, [r4, #240]	; 0xf0
    monThreadFirst = entry;
 800a8e2:	4c81      	ldr	r4, [pc, #516]	; (800aae8 <main_+0x4b4>)
    if(max2870Init(&loPLL, &max2870Config) && max2870VcoPrecal(&loPLL)) {
 800a8e4:	f1a4 00e8 	sub.w	r0, r4, #232	; 0xe8
 800a8e8:	6034      	str	r4, [r6, #0]
 800a8ea:	f7fe fd0d 	bl	8009308 <max2870VcoPrecal>
 800a8ee:	2800      	cmp	r0, #0
 800a8f0:	d061      	beq.n	800a9b6 <main_+0x382>
		shellCommandRegister("max", cmdMax, &loPLL);
 800a8f2:	487e      	ldr	r0, [pc, #504]	; (800aaec <main_+0x4b8>)
 800a8f4:	497e      	ldr	r1, [pc, #504]	; (800aaf0 <main_+0x4bc>)
 800a8f6:	f1a4 02e8 	sub.w	r2, r4, #232	; 0xe8
 800a8fa:	f7f9 fcaf 	bl	800425c <shellCommandRegister>
		syslog("MAX2870 init done.");
 800a8fe:	487d      	ldr	r0, [pc, #500]	; (800aaf4 <main_+0x4c0>)
    	syslog("MAX2870 init failed.");
 800a900:	f7fe fa4c 	bl	8008d9c <syslog>

bool MCP9804Init(MCP9804Driver* driver, const MCP9804Driver_config* config)
{
    memset(driver, 0, sizeof(*driver));
 800a904:	2300      	movs	r3, #0
 800a906:	4c7c      	ldr	r4, [pc, #496]	; (800aaf8 <main_+0x4c4>)

    driver->config = config;

    /* Read device id */
    uint8_t devId;
    if(i2cSafeReadRegStandard(driver->config->i2cPort, driver->config->i2cAddr, 0x7, &devId) != MSG_OK) {
 800a908:	2207      	movs	r2, #7
    memset(driver, 0, sizeof(*driver));
 800a90a:	6063      	str	r3, [r4, #4]
    driver->config = config;
 800a90c:	4b7b      	ldr	r3, [pc, #492]	; (800aafc <main_+0x4c8>)
    if(i2cSafeReadRegStandard(driver->config->i2cPort, driver->config->i2cAddr, 0x7, &devId) != MSG_OK) {
 800a90e:	2118      	movs	r1, #24
    driver->config = config;
 800a910:	6023      	str	r3, [r4, #0]
    if(i2cSafeReadRegStandard(driver->config->i2cPort, driver->config->i2cAddr, 0x7, &devId) != MSG_OK) {
 800a912:	487b      	ldr	r0, [pc, #492]	; (800ab00 <main_+0x4cc>)
 800a914:	f10d 030f 	add.w	r3, sp, #15
 800a918:	f7fe fe2a 	bl	8009570 <i2cSafeReadRegStandard>
 800a91c:	b998      	cbnz	r0, 800a946 <main_+0x312>
        return false;
    }

    if(devId != 0x2) {
 800a91e:	f89d 300f 	ldrb.w	r3, [sp, #15]
 800a922:	2b02      	cmp	r3, #2
 800a924:	d10f      	bne.n	800a946 <main_+0x312>
        return false;
    }

    /* Set resolution to the highest */
    if(i2cSafeWriteRegStandard(driver->config->i2cPort, driver->config->i2cAddr, 0x8, 0x3) != MSG_OK) {
 800a926:	6820      	ldr	r0, [r4, #0]
 800a928:	2303      	movs	r3, #3
 800a92a:	7901      	ldrb	r1, [r0, #4]
 800a92c:	2208      	movs	r2, #8
 800a92e:	6800      	ldr	r0, [r0, #0]
 800a930:	f7ff fe62 	bl	800a5f8 <i2cSafeWriteRegStandard>
 800a934:	b938      	cbnz	r0, 800a946 <main_+0x312>
 800a936:	4620      	mov	r0, r4
 800a938:	f7fe fe28 	bl	800958c <MCP9804MeasureTemperature.part.0>
    if(!MCP9804Init(&tcxoTempSensor, &mcp9804Config)) {
 800a93c:	f647 73ff 	movw	r3, #32767	; 0x7fff
 800a940:	4298      	cmp	r0, r3
        return false;
    }

    driver->temperature = MCP9804MeasureTemperature(driver, true);
 800a942:	80a0      	strh	r0, [r4, #4]
 800a944:	d139      	bne.n	800a9ba <main_+0x386>
        syslog("Temperature sensor init failed.");
 800a946:	486f      	ldr	r0, [pc, #444]	; (800ab04 <main_+0x4d0>)
 800a948:	f7fe fa28 	bl	8008d9c <syslog>
    converter->activeBand = 0xff;
 800a94c:	23ff      	movs	r3, #255	; 0xff
 800a94e:	4a6e      	ldr	r2, [pc, #440]	; (800ab08 <main_+0x4d4>)
        shellCommandRegister("convert", cmdConvert, &converter);
 800a950:	496e      	ldr	r1, [pc, #440]	; (800ab0c <main_+0x4d8>)
 800a952:	7613      	strb	r3, [r2, #24]
    converter->bands = bands;
 800a954:	4b6e      	ldr	r3, [pc, #440]	; (800ab10 <main_+0x4dc>)
 800a956:	486f      	ldr	r0, [pc, #444]	; (800ab14 <main_+0x4e0>)
 800a958:	6153      	str	r3, [r2, #20]
    converter->setConverterGpio = setGpio;
 800a95a:	4b6f      	ldr	r3, [pc, #444]	; (800ab18 <main_+0x4e4>)
 800a95c:	6213      	str	r3, [r2, #32]
 800a95e:	f7f9 fc7d 	bl	800425c <shellCommandRegister>
        if(!converterTune(&converter, &startupTuneRequest)) {
 800a962:	4610      	mov	r0, r2
 800a964:	496d      	ldr	r1, [pc, #436]	; (800ab1c <main_+0x4e8>)
 800a966:	f7f9 fdc5 	bl	80044f4 <converterTune>
 800a96a:	2800      	cmp	r0, #0
 800a96c:	d12e      	bne.n	800a9cc <main_+0x398>
            syslog("Converter startup failed.");
 800a96e:	486c      	ldr	r0, [pc, #432]	; (800ab20 <main_+0x4ec>)
    entry->param = param;
 800a970:	2700      	movs	r7, #0
            syslog("Converter startup done.");
 800a972:	f7fe fa13 	bl	8008d9c <syslog>
    entry->name = name;
 800a976:	486b      	ldr	r0, [pc, #428]	; (800ab24 <main_+0x4f0>)
 800a978:	4b6b      	ldr	r3, [pc, #428]	; (800ab28 <main_+0x4f4>)
    monitorKick(&sanityReboot, true);
 800a97a:	2101      	movs	r1, #1
 800a97c:	60c3      	str	r3, [r0, #12]
    entry->callback = callback;
 800a97e:	4b6b      	ldr	r3, [pc, #428]	; (800ab2c <main_+0x4f8>)
    entry->param = param;
 800a980:	6047      	str	r7, [r0, #4]
    entry->callback = callback;
 800a982:	6003      	str	r3, [r0, #0]
    entry->next = monThreadFirst;
 800a984:	6833      	ldr	r3, [r6, #0]
    monThreadFirst = entry;
 800a986:	6030      	str	r0, [r6, #0]
    entry->next = monThreadFirst;
 800a988:	6083      	str	r3, [r0, #8]
 800a98a:	f7fa fdcf 	bl	800552c <monitorKick>
    xTaskCreate(taskPeriodicMon, "Monitor", stackSize, NULL, 1, &monThreadHandle );
 800a98e:	4b68      	ldr	r3, [pc, #416]	; (800ab30 <main_+0x4fc>)
  osalDbgAssert((usbp->state == USB_STOP) || (usbp->state == USB_READY),
 800a990:	4c68      	ldr	r4, [pc, #416]	; (800ab34 <main_+0x500>)
 800a992:	9301      	str	r3, [sp, #4]
 800a994:	2301      	movs	r3, #1
 800a996:	2280      	movs	r2, #128	; 0x80
 800a998:	4967      	ldr	r1, [pc, #412]	; (800ab38 <main_+0x504>)
 800a99a:	9300      	str	r3, [sp, #0]
 800a99c:	4867      	ldr	r0, [pc, #412]	; (800ab3c <main_+0x508>)
 800a99e:	463b      	mov	r3, r7
 800a9a0:	f7fd f9ac 	bl	8007cfc <xTaskCreate.isra.0>
  osalSysLock();
 800a9a4:	f7f9 fec6 	bl	8004734 <vPortEnterCritical>
  osalDbgAssert((usbp->state == USB_STOP) || (usbp->state == USB_READY),
 800a9a8:	7826      	ldrb	r6, [r4, #0]
 800a9aa:	1e73      	subs	r3, r6, #1
 800a9ac:	2b01      	cmp	r3, #1
 800a9ae:	d90f      	bls.n	800a9d0 <main_+0x39c>
 800a9b0:	f7f9 fed0 	bl	8004754 <vTaskEndScheduler>
 800a9b4:	e7fe      	b.n	800a9b4 <main_+0x380>
    	syslog("MAX2870 init failed.");
 800a9b6:	4862      	ldr	r0, [pc, #392]	; (800ab40 <main_+0x50c>)
 800a9b8:	e7a2      	b.n	800a900 <main_+0x2cc>
        syslog("Temperature sensor init done.");
 800a9ba:	4862      	ldr	r0, [pc, #392]	; (800ab44 <main_+0x510>)
 800a9bc:	f7fe f9ee 	bl	8008d9c <syslog>
        shellCommandRegister("temp", cmdTemp, &tcxoTempSensor);
 800a9c0:	4622      	mov	r2, r4
 800a9c2:	4961      	ldr	r1, [pc, #388]	; (800ab48 <main_+0x514>)
 800a9c4:	4861      	ldr	r0, [pc, #388]	; (800ab4c <main_+0x518>)
 800a9c6:	f7f9 fc49 	bl	800425c <shellCommandRegister>
 800a9ca:	e7bf      	b.n	800a94c <main_+0x318>
            syslog("Converter startup done.");
 800a9cc:	4860      	ldr	r0, [pc, #384]	; (800ab50 <main_+0x51c>)
 800a9ce:	e7cf      	b.n	800a970 <main_+0x33c>
  usbp->config = config;
 800a9d0:	4b60      	ldr	r3, [pc, #384]	; (800ab54 <main_+0x520>)
    usbp->epc[i] = NULL;
 800a9d2:	2220      	movs	r2, #32
 800a9d4:	4639      	mov	r1, r7
 800a9d6:	f104 000c 	add.w	r0, r4, #12
  usbp->config = config;
 800a9da:	6063      	str	r3, [r4, #4]
    usbp->epc[i] = NULL;
 800a9dc:	f000 ff22 	bl	800b824 <memset>
  if (usbp->state == USB_STOP) {
 800a9e0:	2e01      	cmp	r6, #1
 800a9e2:	d11b      	bne.n	800aa1c <main_+0x3e8>
  NVIC->IP[n] = NVIC_PRIORITY_MASK(prio);
 800a9e4:	21d0      	movs	r1, #208	; 0xd0
      rccEnableUSB(FALSE);
 800a9e6:	4b35      	ldr	r3, [pc, #212]	; (800aabc <main_+0x488>)
 800a9e8:	69da      	ldr	r2, [r3, #28]
 800a9ea:	f442 0200 	orr.w	r2, r2, #8388608	; 0x800000
 800a9ee:	61da      	str	r2, [r3, #28]
 800a9f0:	4a33      	ldr	r2, [pc, #204]	; (800aac0 <main_+0x48c>)
      STM32_USB->CNTR = CNTR_FRES;
 800a9f2:	f5a3 33da 	sub.w	r3, r3, #111616	; 0x1b400
 800a9f6:	641e      	str	r6, [r3, #64]	; 0x40
 800a9f8:	f882 1313 	strb.w	r1, [r2, #787]	; 0x313
  NVIC->ICPR[n >> 5U] = 1U << (n & 0x1FU);
 800a9fc:	f44f 2100 	mov.w	r1, #524288	; 0x80000
 800aa00:	f8c2 1180 	str.w	r1, [r2, #384]	; 0x180
  NVIC->ISER[n >> 5U] = 1U << (n & 0x1FU);
 800aa04:	6011      	str	r1, [r2, #0]
  NVIC->IP[n] = NVIC_PRIORITY_MASK(prio);
 800aa06:	21e0      	movs	r1, #224	; 0xe0
 800aa08:	f882 1314 	strb.w	r1, [r2, #788]	; 0x314
  NVIC->ICPR[n >> 5U] = 1U << (n & 0x1FU);
 800aa0c:	f44f 1180 	mov.w	r1, #1048576	; 0x100000
 800aa10:	f8c2 1180 	str.w	r1, [r2, #384]	; 0x180
  NVIC->ISER[n >> 5U] = 1U << (n & 0x1FU);
 800aa14:	6011      	str	r1, [r2, #0]
      STM32_USB->CNTR = 0;
 800aa16:	641f      	str	r7, [r3, #64]	; 0x40
    _usb_reset(usbp);
 800aa18:	f7fb fbb0 	bl	800617c <_usb_reset.constprop.0>
  usbp->state = USB_READY;
 800aa1c:	2702      	movs	r7, #2
  sdup->vmt = &vmt;
 800aa1e:	484e      	ldr	r0, [pc, #312]	; (800ab58 <main_+0x524>)
 800aa20:	7027      	strb	r7, [r4, #0]
    osalOsRescheduleS();
 800aa22:	f7f9 ff0d 	bl	8004840 <osalOsRescheduleS.lto_priv.1>
    taskEXIT_CRITICAL();
 800aa26:	f7fa f89d 	bl	8004b64 <vPortExitCritical>
 800aa2a:	4b4c      	ldr	r3, [pc, #304]	; (800ab5c <main_+0x528>)
  sdup->state = SDU_STOP;
 800aa2c:	2101      	movs	r1, #1
  sdup->vmt = &vmt;
 800aa2e:	6003      	str	r3, [r0, #0]
    event_source->setEvents = 0;
 800aa30:	2300      	movs	r3, #0
  ibqp->bsize     = size + sizeof (size_t);
 800aa32:	f44f 7c82 	mov.w	ip, #260	; 0x104
  ibqp->brdptr    = bp;
 800aa36:	f100 0688 	add.w	r6, r0, #136	; 0x88
  ibqp->ptr       = NULL;
 800aa3a:	e9c0 630f 	strd	r6, r3, [r0, #60]	; 0x3c
  ibqp->bcounter  = 0;
 800aa3e:	6243      	str	r3, [r0, #36]	; 0x24
    event_source->firstRepeater = NULL;
 800aa40:	e9c0 3301 	strd	r3, r3, [r0, #4]
    thread_queue->tail = NULL;
 800aa44:	e9c0 3306 	strd	r3, r3, [r0, #24]
  ibqp->bwrptr    = bp;
 800aa48:	e9c0 660a 	strd	r6, r6, [r0, #40]	; 0x28
 800aa4c:	e9c0 3314 	strd	r3, r3, [r0, #80]	; 0x50
  obqp->top       = NULL;
 800aa50:	e9c0 331e 	strd	r3, r3, [r0, #120]	; 0x78
    event_source->waitThread = NULL;
 800aa54:	60c3      	str	r3, [r0, #12]
  ibqp->top       = NULL;
 800aa56:	6443      	str	r3, [r0, #68]	; 0x44
  ibqp->notify    = infy;
 800aa58:	4e41      	ldr	r6, [pc, #260]	; (800ab60 <main_+0x52c>)
  obqp->notify    = onfy;
 800aa5a:	4b42      	ldr	r3, [pc, #264]	; (800ab64 <main_+0x530>)
  ibqp->btop      = bp + ((size + sizeof (size_t)) * n);
 800aa5c:	f500 7224 	add.w	r2, r0, #656	; 0x290
  sdup->state = SDU_STOP;
 800aa60:	7501      	strb	r1, [r0, #20]
  ibqp->suspended = suspended;
 800aa62:	f880 1020 	strb.w	r1, [r0, #32]
  obqp->suspended = suspended;
 800aa66:	f880 1058 	strb.w	r1, [r0, #88]	; 0x58
  obqp->btop      = bp + ((size + sizeof (size_t)) * n);
 800aa6a:	f500 6193 	add.w	r1, r0, #1176	; 0x498
  ibqp->bn        = n;
 800aa6e:	e9c0 c70d 	strd	ip, r7, [r0, #52]	; 0x34
  obqp->bwrptr    = bp;
 800aa72:	e9c0 2218 	strd	r2, r2, [r0, #96]	; 0x60
  obqp->bsize     = size + sizeof (size_t);
 800aa76:	e9c0 1c1a 	strd	r1, ip, [r0, #104]	; 0x68
  obqp->buffers   = bp;
 800aa7a:	e9c0 721c 	strd	r7, r2, [r0, #112]	; 0x70
  ibqp->btop      = bp + ((size + sizeof (size_t)) * n);
 800aa7e:	6302      	str	r2, [r0, #48]	; 0x30
  ibqp->link      = link;
 800aa80:	e9c0 6012 	strd	r6, r0, [r0, #72]	; 0x48
  obqp->bcounter  = n;
 800aa84:	65c7      	str	r7, [r0, #92]	; 0x5c
  obqp->link      = link;
 800aa86:	e9c0 3020 	strd	r3, r0, [r0, #128]	; 0x80
  osalSysLock();
 800aa8a:	f7f9 fe53 	bl	8004734 <vPortEnterCritical>
  osalDbgAssert((sdup->state == SDU_STOP) || (sdup->state == SDU_READY),
 800aa8e:	7d03      	ldrb	r3, [r0, #20]
 800aa90:	3b01      	subs	r3, #1
 800aa92:	2b01      	cmp	r3, #1
 800aa94:	d902      	bls.n	800aa9c <main_+0x468>
 800aa96:	f7f9 fe5d 	bl	8004754 <vTaskEndScheduler>
 800aa9a:	e7fe      	b.n	800aa9a <main_+0x466>
  sdup->config = config;
 800aa9c:	4b32      	ldr	r3, [pc, #200]	; (800ab68 <main_+0x534>)
  usbp->in_params[config->bulk_in - 1U]   = sdup;
 800aa9e:	62e0      	str	r0, [r4, #44]	; 0x2c
  usbp->out_params[config->bulk_out - 1U] = sdup;
 800aaa0:	64a0      	str	r0, [r4, #72]	; 0x48
    usbp->in_params[config->int_in - 1U]  = sdup;
 800aaa2:	6320      	str	r0, [r4, #48]	; 0x30
  sdup->config = config;
 800aaa4:	f8c0 3498 	str.w	r3, [r0, #1176]	; 0x498
  sdup->state = SDU_READY;
 800aaa8:	7507      	strb	r7, [r0, #20]
    osalOsRescheduleS();
 800aaaa:	f7f9 fec9 	bl	8004840 <osalOsRescheduleS.lto_priv.1>
    taskEXIT_CRITICAL();
 800aaae:	f7fa f859 	bl	8004b64 <vPortExitCritical>
{
    usbStart(&USBD1, &usbcfg);
    sduObjectInit(&SDU1);
    sduStart(&SDU1, &serusbcfg);

    usbConnectBus(serusbcfg.usbp);
 800aab2:	f44f 6380 	mov.w	r3, #1024	; 0x400
    syslog("USB init done.");
 800aab6:	482d      	ldr	r0, [pc, #180]	; (800ab6c <main_+0x538>)
 800aab8:	612b      	str	r3, [r5, #16]
 800aaba:	e5ff      	b.n	800a6bc <main_+0x88>
 800aabc:	40021000 	.word	0x40021000
 800aac0:	e000e100 	.word	0xe000e100
 800aac4:	2000119c 	.word	0x2000119c
 800aac8:	20001098 	.word	0x20001098
 800aacc:	20001198 	.word	0x20001198
 800aad0:	0800c5b7 	.word	0x0800c5b7
 800aad4:	0800b6e5 	.word	0x0800b6e5
 800aad8:	0800ca78 	.word	0x0800ca78
 800aadc:	200011a0 	.word	0x200011a0
 800aae0:	0800c5bb 	.word	0x0800c5bb
 800aae4:	0800923d 	.word	0x0800923d
 800aae8:	20001180 	.word	0x20001180
 800aaec:	0800c5c3 	.word	0x0800c5c3
 800aaf0:	0800a2a1 	.word	0x0800a2a1
 800aaf4:	0800c5c7 	.word	0x0800c5c7
 800aaf8:	20001338 	.word	0x20001338
 800aafc:	0800ca98 	.word	0x0800ca98
 800ab00:	20000934 	.word	0x20000934
 800ab04:	0800c5ef 	.word	0x0800c5ef
 800ab08:	20001020 	.word	0x20001020
 800ab0c:	080097c9 	.word	0x080097c9
 800ab10:	0800c93c 	.word	0x0800c93c
 800ab14:	0800c632 	.word	0x0800c632
 800ab18:	08007561 	.word	0x08007561
 800ab1c:	20000914 	.word	0x20000914
 800ab20:	0800c63a 	.word	0x0800c63a
 800ab24:	2000121c 	.word	0x2000121c
 800ab28:	0800c66c 	.word	0x0800c66c
 800ab2c:	08007f5d 	.word	0x08007f5d
 800ab30:	200011a4 	.word	0x200011a4
 800ab34:	20000f54 	.word	0x20000f54
 800ab38:	0800c673 	.word	0x0800c673
 800ab3c:	08006595 	.word	0x08006595
 800ab40:	0800c5da 	.word	0x0800c5da
 800ab44:	0800c60f 	.word	0x0800c60f
 800ab48:	080095c9 	.word	0x080095c9
 800ab4c:	0800c62d 	.word	0x0800c62d
 800ab50:	0800c654 	.word	0x0800c654
 800ab54:	0800cbec 	.word	0x0800cbec
 800ab58:	20000a44 	.word	0x20000a44
 800ab5c:	0800cd38 	.word	0x0800cd38
 800ab60:	08007869 	.word	0x08007869
 800ab64:	08004961 	.word	0x08004961
 800ab68:	0800cb84 	.word	0x0800cb84
 800ab6c:	0800c67b 	.word	0x0800c67b

0800ab70 <cmdI2C>:
    }
    chprintf(chp, SHELL_NEWLINE_STR);
}

void cmdI2C(void* user, BaseSequentialStream *chp, int argc, char *argv[])
{
 800ab70:	e92d 4ff0 	stmdb	sp!, {r4, r5, r6, r7, r8, r9, sl, fp, lr}
 800ab74:	4606      	mov	r6, r0
 800ab76:	460c      	mov	r4, r1
 800ab78:	4698      	mov	r8, r3
    I2CDriver* i2c = (I2CDriver*)user;

    if(argc == 0) {
 800ab7a:	4615      	mov	r5, r2
{
 800ab7c:	b087      	sub	sp, #28
    if(argc == 0) {
 800ab7e:	b92a      	cbnz	r2, 800ab8c <cmdI2C+0x1c>
        cmdI2CUsage(chp);
 800ab80:	4620      	mov	r0, r4
        cmdI2CScan(i2c, chp);
    } else {
        cmdI2CUsage(chp);
        return;
    }
}
 800ab82:	b007      	add	sp, #28
 800ab84:	e8bd 4ff0 	ldmia.w	sp!, {r4, r5, r6, r7, r8, r9, sl, fp, lr}
        cmdI2CUsage(chp);
 800ab88:	f7fd bf36 	b.w	80089f8 <cmdI2CUsage>
    if(!strcmp(argv[0], "test")) {
 800ab8c:	681f      	ldr	r7, [r3, #0]
 800ab8e:	4966      	ldr	r1, [pc, #408]	; (800ad28 <cmdI2C+0x1b8>)
 800ab90:	4638      	mov	r0, r7
 800ab92:	f7f9 f819 	bl	8003bc8 <strcmp>
 800ab96:	b9a0      	cbnz	r0, 800abc2 <cmdI2C+0x52>
    i2cAcquireBus(i2c);
 800ab98:	4630      	mov	r0, r6
 800ab9a:	f7fb f9a7 	bl	8005eec <i2cAcquireBus>
    i2c_result retVal = i2cSafeRawUnclogBus(i2c);
 800ab9e:	4630      	mov	r0, r6
 800aba0:	f7fd fa10 	bl	8007fc4 <i2cSafeRawUnclogBus>
 800aba4:	4605      	mov	r5, r0
    i2cReleaseBus(i2c);
 800aba6:	4630      	mov	r0, r6
 800aba8:	f7fd fd90 	bl	80086cc <i2cReleaseBus>
        chprintf(chp, "Verdict: %s"SHELL_NEWLINE_STR, i2cSafeResultToString(i2cSafeTestBus(i2c)));
 800abac:	4628      	mov	r0, r5
 800abae:	f7f9 fbdf 	bl	8004370 <i2cSafeResultToString>
 800abb2:	4602      	mov	r2, r0
 800abb4:	495d      	ldr	r1, [pc, #372]	; (800ad2c <cmdI2C+0x1bc>)
        chprintf(chp, "I2C Errors: %u"SHELL_NEWLINE_STR, i2cSafeGetNumberOfErrors(i2c));
 800abb6:	4620      	mov	r0, r4
}
 800abb8:	b007      	add	sp, #28
 800abba:	e8bd 4ff0 	ldmia.w	sp!, {r4, r5, r6, r7, r8, r9, sl, fp, lr}
        chprintf(chp, "I2C Errors: %u"SHELL_NEWLINE_STR, i2cSafeGetNumberOfErrors(i2c));
 800abbe:	f7fd bdd4 	b.w	800876a <chprintf>
    if(!strcmp(argv[0], "set")) {
 800abc2:	4638      	mov	r0, r7
 800abc4:	495a      	ldr	r1, [pc, #360]	; (800ad30 <cmdI2C+0x1c0>)
 800abc6:	f7f8 ffff 	bl	8003bc8 <strcmp>
 800abca:	4681      	mov	r9, r0
 800abcc:	2800      	cmp	r0, #0
 800abce:	d149      	bne.n	800ac64 <cmdI2C+0xf4>
        if(argc<4) return false;
 800abd0:	2d03      	cmp	r5, #3
 800abd2:	dd5b      	ble.n	800ac8c <cmdI2C+0x11c>
        if(argc>4) stress = true;
 800abd4:	3d04      	subs	r5, #4
        regValue = strToInt(argv[3], 16);
 800abd6:	f04f 0110 	mov.w	r1, #16
 800abda:	f8d8 000c 	ldr.w	r0, [r8, #12]
        if(argc>4) stress = true;
 800abde:	bf18      	it	ne
 800abe0:	2501      	movne	r5, #1
        regValue = strToInt(argv[3], 16);
 800abe2:	f7f9 fafa 	bl	80041da <strToInt>
        wantToRead = false;
 800abe6:	464f      	mov	r7, r9
        regValue = strToInt(argv[3], 16);
 800abe8:	f88d 0017 	strb.w	r0, [sp, #23]
    uint8_t devAddr = strToInt(argv[1], 16);
 800abec:	2110      	movs	r1, #16
 800abee:	f8d8 0004 	ldr.w	r0, [r8, #4]
 800abf2:	f7f9 faf2 	bl	80041da <strToInt>
 800abf6:	fa5f f980 	uxtb.w	r9, r0
    uint8_t regAddr = strToInt(argv[2], 16);
 800abfa:	f8d8 0008 	ldr.w	r0, [r8, #8]
 800abfe:	f7f9 faec 	bl	80041da <strToInt>
    uint32_t stressCnt = 0;
 800ac02:	f04f 0a00 	mov.w	sl, #0
    uint8_t regAddr = strToInt(argv[2], 16);
 800ac06:	9003      	str	r0, [sp, #12]
 800ac08:	f89d b00c 	ldrb.w	fp, [sp, #12]
        if(wantToRead) {
 800ac0c:	b3b7      	cbz	r7, 800ac7c <cmdI2C+0x10c>
            result = i2cSafeReadRegStandard(i2c, devAddr, regAddr, &regValue);
 800ac0e:	465a      	mov	r2, fp
 800ac10:	4649      	mov	r1, r9
 800ac12:	4630      	mov	r0, r6
 800ac14:	f10d 0317 	add.w	r3, sp, #23
 800ac18:	f7fe fcaa 	bl	8009570 <i2cSafeReadRegStandard>
            result = i2cSafeWriteRegStandard(i2c, devAddr, regAddr, regValue);
 800ac1c:	4680      	mov	r8, r0
        if(result != I2C_BUS_OK) {
 800ac1e:	b110      	cbz	r0, 800ac26 <cmdI2C+0xb6>
            regValue = 0;
 800ac20:	2300      	movs	r3, #0
 800ac22:	f88d 3017 	strb.w	r3, [sp, #23]
        if(stress) {
 800ac26:	b12d      	cbz	r5, 800ac34 <cmdI2C+0xc4>
            printfFixed(chp, 7, "%u", stressCnt);
 800ac28:	4653      	mov	r3, sl
 800ac2a:	2107      	movs	r1, #7
 800ac2c:	4620      	mov	r0, r4
 800ac2e:	4a41      	ldr	r2, [pc, #260]	; (800ad34 <cmdI2C+0x1c4>)
 800ac30:	f7fd ff44 	bl	8008abc <printfFixed>
        chprintf(chp, "Status: %s, address: 0x%02x, register: 0x%02x, value: 0x%02x"SHELL_NEWLINE_STR,
 800ac34:	4640      	mov	r0, r8
 800ac36:	f7f9 fb9b 	bl	8004370 <i2cSafeResultToString>
 800ac3a:	f89d 3017 	ldrb.w	r3, [sp, #23]
 800ac3e:	4602      	mov	r2, r0
 800ac40:	9301      	str	r3, [sp, #4]
 800ac42:	f89d 300c 	ldrb.w	r3, [sp, #12]
 800ac46:	4620      	mov	r0, r4
 800ac48:	9300      	str	r3, [sp, #0]
 800ac4a:	493b      	ldr	r1, [pc, #236]	; (800ad38 <cmdI2C+0x1c8>)
 800ac4c:	464b      	mov	r3, r9
 800ac4e:	f7fd fd8c 	bl	800876a <chprintf>
        stressCnt++;
 800ac52:	f10a 0a01 	add.w	sl, sl, #1
    } while (stress && stressCnt <= 100000);
 800ac56:	b115      	cbz	r5, 800ac5e <cmdI2C+0xee>
 800ac58:	4b38      	ldr	r3, [pc, #224]	; (800ad3c <cmdI2C+0x1cc>)
 800ac5a:	459a      	cmp	sl, r3
 800ac5c:	d1d6      	bne.n	800ac0c <cmdI2C+0x9c>
}
 800ac5e:	b007      	add	sp, #28
 800ac60:	e8bd 8ff0 	ldmia.w	sp!, {r4, r5, r6, r7, r8, r9, sl, fp, pc}
    } else if(!strcmp(argv[0], "get")) {
 800ac64:	4638      	mov	r0, r7
 800ac66:	4936      	ldr	r1, [pc, #216]	; (800ad40 <cmdI2C+0x1d0>)
 800ac68:	f7f8 ffae 	bl	8003bc8 <strcmp>
 800ac6c:	b970      	cbnz	r0, 800ac8c <cmdI2C+0x11c>
        if(argc<3) return false;
 800ac6e:	2d02      	cmp	r5, #2
 800ac70:	dd0c      	ble.n	800ac8c <cmdI2C+0x11c>
        if(argc>3) stress = true;
 800ac72:	3d03      	subs	r5, #3
 800ac74:	bf18      	it	ne
 800ac76:	2501      	movne	r5, #1
        wantToRead = true;
 800ac78:	2701      	movs	r7, #1
 800ac7a:	e7b7      	b.n	800abec <cmdI2C+0x7c>
            result = i2cSafeWriteRegStandard(i2c, devAddr, regAddr, regValue);
 800ac7c:	465a      	mov	r2, fp
 800ac7e:	4649      	mov	r1, r9
 800ac80:	4630      	mov	r0, r6
 800ac82:	f89d 3017 	ldrb.w	r3, [sp, #23]
 800ac86:	f7ff fcb7 	bl	800a5f8 <i2cSafeWriteRegStandard>
 800ac8a:	e7c7      	b.n	800ac1c <cmdI2C+0xac>
    } else if(!strcmp(argv[0], "errors")) {
 800ac8c:	4638      	mov	r0, r7
 800ac8e:	492d      	ldr	r1, [pc, #180]	; (800ad44 <cmdI2C+0x1d4>)
 800ac90:	f7f8 ff9a 	bl	8003bc8 <strcmp>
 800ac94:	b940      	cbnz	r0, 800aca8 <cmdI2C+0x138>

uint32_t i2cSafeGetNumberOfErrors(I2CDriver* i2c)
{
    osalSysLock();
 800ac96:	f7f9 fd4d 	bl	8004734 <vPortEnterCritical>
    uint32_t result = i2c->i2cErrors;
 800ac9a:	f8d6 0084 	ldr.w	r0, [r6, #132]	; 0x84
    osalSysUnlock();
 800ac9e:	f7f9 ff6d 	bl	8004b7c <osalSysUnlock.lto_priv.0>
        chprintf(chp, "I2C Errors: %u"SHELL_NEWLINE_STR, i2cSafeGetNumberOfErrors(i2c));
 800aca2:	4602      	mov	r2, r0
 800aca4:	4928      	ldr	r1, [pc, #160]	; (800ad48 <cmdI2C+0x1d8>)
 800aca6:	e786      	b.n	800abb6 <cmdI2C+0x46>
    } else if(!strcmp(argv[0], "scan")) {
 800aca8:	4638      	mov	r0, r7
 800acaa:	4928      	ldr	r1, [pc, #160]	; (800ad4c <cmdI2C+0x1dc>)
 800acac:	f7f8 ff8c 	bl	8003bc8 <strcmp>
 800acb0:	4605      	mov	r5, r0
 800acb2:	2800      	cmp	r0, #0
 800acb4:	f47f af64 	bne.w	800ab80 <cmdI2C+0x10>
    chprintf(chp, "   ");
 800acb8:	4620      	mov	r0, r4
 800acba:	4925      	ldr	r1, [pc, #148]	; (800ad50 <cmdI2C+0x1e0>)
 800acbc:	f7fd fd55 	bl	800876a <chprintf>
    for(int addr = 0; addr <= 0xF; addr++) {
 800acc0:	462f      	mov	r7, r5
        chprintf(chp, "%1x  ", addr);
 800acc2:	f8df 8090 	ldr.w	r8, [pc, #144]	; 800ad54 <cmdI2C+0x1e4>
 800acc6:	463a      	mov	r2, r7
 800acc8:	4641      	mov	r1, r8
 800acca:	4620      	mov	r0, r4
    for(int addr = 0; addr <= 0xF; addr++) {
 800accc:	3701      	adds	r7, #1
        chprintf(chp, "%1x  ", addr);
 800acce:	f7fd fd4c 	bl	800876a <chprintf>
    for(int addr = 0; addr <= 0xF; addr++) {
 800acd2:	2f10      	cmp	r7, #16
 800acd4:	d1f7      	bne.n	800acc6 <cmdI2C+0x156>
            chprintf(chp, SHELL_NEWLINE_STR"%1x ", addr/16);
 800acd6:	4f20      	ldr	r7, [pc, #128]	; (800ad58 <cmdI2C+0x1e8>)
            chprintf(chp, "EE ");
 800acd8:	f8df 8080 	ldr.w	r8, [pc, #128]	; 800ad5c <cmdI2C+0x1ec>
            chprintf(chp, "-- ");
 800acdc:	f8df 9080 	ldr.w	r9, [pc, #128]	; 800ad60 <cmdI2C+0x1f0>
        if(addr % 16 == 0) {
 800ace0:	072b      	lsls	r3, r5, #28
 800ace2:	d104      	bne.n	800acee <cmdI2C+0x17e>
            chprintf(chp, SHELL_NEWLINE_STR"%1x ", addr/16);
 800ace4:	4639      	mov	r1, r7
 800ace6:	4620      	mov	r0, r4
 800ace8:	112a      	asrs	r2, r5, #4
 800acea:	f7fd fd3e 	bl	800876a <chprintf>
        i2c_result result = i2cSafeReadRegStandard(i2c, addr, 0, &regValue);
 800acee:	2200      	movs	r2, #0
 800acf0:	4630      	mov	r0, r6
 800acf2:	f10d 0317 	add.w	r3, sp, #23
 800acf6:	b2e9      	uxtb	r1, r5
 800acf8:	f7fe fc3a 	bl	8009570 <i2cSafeReadRegStandard>
        if(result == I2C_BUS_OK) {
 800acfc:	b960      	cbnz	r0, 800ad18 <cmdI2C+0x1a8>
            chprintf(chp, "%02x ", addr);
 800acfe:	462a      	mov	r2, r5
 800ad00:	4620      	mov	r0, r4
 800ad02:	4918      	ldr	r1, [pc, #96]	; (800ad64 <cmdI2C+0x1f4>)
 800ad04:	f7fd fd31 	bl	800876a <chprintf>
    for(int addr = 0; addr <= 0x7F; addr++) {
 800ad08:	3501      	adds	r5, #1
 800ad0a:	2d80      	cmp	r5, #128	; 0x80
 800ad0c:	d1e8      	bne.n	800ace0 <cmdI2C+0x170>
    chprintf(chp, SHELL_NEWLINE_STR);
 800ad0e:	4620      	mov	r0, r4
 800ad10:	4915      	ldr	r1, [pc, #84]	; (800ad68 <cmdI2C+0x1f8>)
 800ad12:	f7fd fd2a 	bl	800876a <chprintf>
 800ad16:	e7a2      	b.n	800ac5e <cmdI2C+0xee>
        } else if(result == I2C_BUS_RESET) {
 800ad18:	3002      	adds	r0, #2
            chprintf(chp, "-- ");
 800ad1a:	bf0c      	ite	eq
 800ad1c:	4649      	moveq	r1, r9
            chprintf(chp, "EE ");
 800ad1e:	4641      	movne	r1, r8
 800ad20:	4620      	mov	r0, r4
 800ad22:	f7fd fd22 	bl	800876a <chprintf>
 800ad26:	e7ef      	b.n	800ad08 <cmdI2C+0x198>
 800ad28:	0800c693 	.word	0x0800c693
 800ad2c:	0800c698 	.word	0x0800c698
 800ad30:	0800c0c3 	.word	0x0800c0c3
 800ad34:	0800c129 	.word	0x0800c129
 800ad38:	0800c6aa 	.word	0x0800c6aa
 800ad3c:	000186a1 	.word	0x000186a1
 800ad40:	0800c6a6 	.word	0x0800c6a6
 800ad44:	0800c6e9 	.word	0x0800c6e9
 800ad48:	0800c6f0 	.word	0x0800c6f0
 800ad4c:	0800c701 	.word	0x0800c701
 800ad50:	0800bbe9 	.word	0x0800bbe9
 800ad54:	0800c706 	.word	0x0800c706
 800ad58:	0800c70c 	.word	0x0800c70c
 800ad5c:	0800c71d 	.word	0x0800c71d
 800ad60:	0800c719 	.word	0x0800c719
 800ad64:	0800c713 	.word	0x0800c713
 800ad68:	0800be7c 	.word	0x0800be7c

0800ad6c <syslogISRUnknownPriority>:

static bool syslogISRHasSomething;
static char syslogISRBuffer[64];

bool syslogISRUnknownPriority(const char *format, ...)
{
 800ad6c:	b40f      	push	{r0, r1, r2, r3}
    if(__atomic_test_and_set(&syslogISRHasSomething, __ATOMIC_ACQUIRE)) {
 800ad6e:	f04f 0201 	mov.w	r2, #1
{
 800ad72:	b530      	push	{r4, r5, lr}
    if(__atomic_test_and_set(&syslogISRHasSomething, __ATOMIC_ACQUIRE)) {
 800ad74:	4b11      	ldr	r3, [pc, #68]	; (800adbc <syslogISRUnknownPriority+0x50>)
{
 800ad76:	b087      	sub	sp, #28
    if(__atomic_test_and_set(&syslogISRHasSomething, __ATOMIC_ACQUIRE)) {
 800ad78:	e8d3 5f4f 	ldrexb	r5, [r3]
 800ad7c:	e8c3 2f41 	strexb	r1, r2, [r3]
 800ad80:	2900      	cmp	r1, #0
 800ad82:	d1f9      	bne.n	800ad78 <syslogISRUnknownPriority+0xc>
 800ad84:	b2eb      	uxtb	r3, r5
 800ad86:	f3bf 8f5b 	dmb	ish
 800ad8a:	b9ab      	cbnz	r3, 800adb8 <syslogISRUnknownPriority+0x4c>
 *                      for ROM streams.
 */
void msObjectInit(MemoryStream *msp, uint8_t *buffer,
                  size_t size, size_t eos) {

  msp->vmt    = &vmt;
 800ad8c:	490c      	ldr	r1, [pc, #48]	; (800adc0 <syslogISRUnknownPriority+0x54>)
  msp->buffer = buffer;
 800ad8e:	4c0d      	ldr	r4, [pc, #52]	; (800adc4 <syslogISRUnknownPriority+0x58>)
  msp->vmt    = &vmt;
 800ad90:	9101      	str	r1, [sp, #4]
  msp->size   = size;
 800ad92:	213f      	movs	r1, #63	; 0x3f
        return false;
    }

    va_list args;
    va_start(args, format);
 800ad94:	aa0b      	add	r2, sp, #44	; 0x2c
  msp->eos    = eos;
 800ad96:	e9cd 1303 	strd	r1, r3, [sp, #12]

    MemoryStream ms;
    msObjectInit(&ms, (uint8_t *)syslogISRBuffer, sizeof(syslogISRBuffer)-1, 0);
    BaseSequentialStream *chp = (BaseSequentialStream *)(void *)&ms;

    chvprintf(chp, format, args);
 800ad9a:	a801      	add	r0, sp, #4
 800ad9c:	990a      	ldr	r1, [sp, #40]	; 0x28
  msp->offset = 0;
 800ad9e:	9305      	str	r3, [sp, #20]
    va_start(args, format);
 800ada0:	9200      	str	r2, [sp, #0]
  msp->buffer = buffer;
 800ada2:	9402      	str	r4, [sp, #8]
    chvprintf(chp, format, args);
 800ada4:	f7fb feac 	bl	8006b00 <chvprintf>
    syslogISRBuffer[ms.eos] = 0;

    va_end(args);

    return true;
 800ada8:	2001      	movs	r0, #1
    syslogISRBuffer[ms.eos] = 0;
 800adaa:	9b04      	ldr	r3, [sp, #16]
 800adac:	54e5      	strb	r5, [r4, r3]
}
 800adae:	b007      	add	sp, #28
 800adb0:	e8bd 4030 	ldmia.w	sp!, {r4, r5, lr}
 800adb4:	b004      	add	sp, #16
 800adb6:	4770      	bx	lr
        return false;
 800adb8:	2000      	movs	r0, #0
 800adba:	e7f8      	b.n	800adae <syslogISRUnknownPriority+0x42>
 800adbc:	2000130c 	.word	0x2000130c
 800adc0:	0800cd58 	.word	0x0800cd58
 800adc4:	200012cc 	.word	0x200012cc

0800adc8 <BusFault_Handler>:
#error "the constant CORTEX_NUM_VECTORS must be between 8 and 240 inclusive"
#endif

extern void unhandledException(void);

void _unhandled_exception(void){
 800adc8:	b508      	push	{r3, lr}
}

void unhandledException(void)
{
    /* Check which vector is active */
    unsigned int vectorId = NVIC_ICSR & 0x1ff;
 800adca:	f04f 23e0 	mov.w	r3, #3758153728	; 0xe000e000
 800adce:	f8d3 1d04 	ldr.w	r1, [r3, #3332]	; 0xd04

    if(vectorId >= 16) {
 800add2:	f411 7ff8 	tst.w	r1, #496	; 0x1f0
 800add6:	d013      	beq.n	800ae00 <BusFault_Handler+0x38>
    *pendReg = _BV(vectorId%32);
 800add8:	2301      	movs	r3, #1
    unsigned int vectorId = NVIC_ICSR & 0x1ff;
 800adda:	f3c1 0108 	ubfx	r1, r1, #0, #9
        /* This can be masked */
        vectorId -= 16;
 800adde:	3910      	subs	r1, #16
    *pendReg = _BV(vectorId%32);
 800ade0:	f001 001f 	and.w	r0, r1, #31
 800ade4:	4083      	lsls	r3, r0
 800ade6:	4808      	ldr	r0, [pc, #32]	; (800ae08 <BusFault_Handler+0x40>)
    volatile uint32_t* pendReg = (&NVIC_CPR) + (vectorId / 32);
 800ade8:	094a      	lsrs	r2, r1, #5
    *pendReg = _BV(vectorId%32);
 800adea:	f840 3022 	str.w	r3, [r0, r2, lsl #2]
        volatile uint32_t* ceReg = (&NVIC_CER) + (vectorId / 32);
 800adee:	f5a0 7080 	sub.w	r0, r0, #256	; 0x100
        *ceReg = _BV(vectorId%32);
 800adf2:	f840 3022 	str.w	r3, [r0, r2, lsl #2]
        clearInterrupt(vectorId, true);

        /* Report it */
        syslogISRUnknownPriority("Unhandled vector %u.", vectorId);
 800adf6:	4805      	ldr	r0, [pc, #20]	; (800ae0c <BusFault_Handler+0x44>)
	unhandledException();
}
 800adf8:	e8bd 4008 	ldmia.w	sp!, {r3, lr}
 800adfc:	f7ff bfb6 	b.w	800ad6c <syslogISRUnknownPriority>
    } else {
        osalSysHalt("Fault");
 800ae00:	f7f9 fca8 	bl	8004754 <vTaskEndScheduler>
 800ae04:	e7fe      	b.n	800ae04 <BusFault_Handler+0x3c>
 800ae06:	bf00      	nop
 800ae08:	e000e280 	.word	0xe000e280
 800ae0c:	0800c721 	.word	0x0800c721

0800ae10 <usb_event>:
{
 800ae10:	b538      	push	{r3, r4, r5, lr}
 800ae12:	4604      	mov	r4, r0
 800ae14:	2905      	cmp	r1, #5
 800ae16:	d878      	bhi.n	800af0a <usb_event+0xfa>
 800ae18:	e8df f001 	tbb	[pc, r1]
 800ae1c:	4e08034e 	.word	0x4e08034e
 800ae20:	6a4e      	.short	0x6a4e
            syslogISRUnknownPriority("USB address assigned.");
 800ae22:	483a      	ldr	r0, [pc, #232]	; (800af0c <usb_event+0xfc>)
}
 800ae24:	e8bd 4038 	ldmia.w	sp!, {r3, r4, r5, lr}
            syslogISRUnknownPriority("USB address assigned.");
 800ae28:	f7ff bfa0 	b.w	800ad6c <syslogISRUnknownPriority>
            osalSysLockFromISR();
 800ae2c:	f7f9 ff18 	bl	8004c60 <osalSysLockFromISR.lto_priv.0>
            usbInitEndpointI(usbp, USBD1_DATA_REQUEST_EP, &ep1config);
 800ae30:	2101      	movs	r1, #1
 800ae32:	4620      	mov	r0, r4
 800ae34:	4a36      	ldr	r2, [pc, #216]	; (800af10 <usb_event+0x100>)
 800ae36:	f7fc fe89 	bl	8007b4c <usbInitEndpointI>
            usbInitEndpointI(usbp, USBD1_INTERRUPT_REQUEST_EP, &ep2config);
 800ae3a:	2102      	movs	r1, #2
 800ae3c:	4620      	mov	r0, r4
 800ae3e:	4a35      	ldr	r2, [pc, #212]	; (800af14 <usb_event+0x104>)
 800ae40:	f7fc fe84 	bl	8007b4c <usbInitEndpointI>
	__asm volatile( "mrs %0, basepri" : "=r"( ulBasePri ) );
 800ae44:	f3ef 8311 	mrs	r3, BASEPRI
	return (ulBasePri > 0)? pdTRUE : pdFALSE;
 800ae48:	b19b      	cbz	r3, 800ae72 <usb_event+0x62>
  ibqp->bcounter  = 0;
 800ae4a:	2500      	movs	r5, #0
 800ae4c:	4c32      	ldr	r4, [pc, #200]	; (800af18 <usb_event+0x108>)
  ibqp->brdptr    = ibqp->buffers;
 800ae4e:	6be3      	ldr	r3, [r4, #60]	; 0x3c
  ibqp->top       = NULL;
 800ae50:	e9c4 5510 	strd	r5, r5, [r4, #64]	; 0x40
  ibqp->bwrptr    = ibqp->buffers;
 800ae54:	e9c4 330a 	strd	r3, r3, [r4, #40]	; 0x28
  ibqp->bcounter  = 0;
 800ae58:	6265      	str	r5, [r4, #36]	; 0x24
  osalThreadDequeueAllI(&ibqp->waiting, MSG_RESET);
 800ae5a:	f104 0018 	add.w	r0, r4, #24
 800ae5e:	f7fc f82f 	bl	8006ec0 <osalThreadDequeueAllI.constprop.0>
  bqResumeX(&sdup->ibqueue);
 800ae62:	f884 5020 	strb.w	r5, [r4, #32]
	__asm volatile( "mrs %0, basepri" : "=r"( ulBasePri ) );
 800ae66:	f3ef 8311 	mrs	r3, BASEPRI
	return (ulBasePri > 0)? pdTRUE : pdFALSE;
 800ae6a:	b92b      	cbnz	r3, 800ae78 <usb_event+0x68>
  osalDbgCheckClassI();
 800ae6c:	f7f9 fc72 	bl	8004754 <vTaskEndScheduler>
 800ae70:	e7fe      	b.n	800ae70 <usb_event+0x60>
  osalDbgCheckClassI();
 800ae72:	f7f9 fc6f 	bl	8004754 <vTaskEndScheduler>
 800ae76:	e7fe      	b.n	800ae76 <usb_event+0x66>
  obqp->bcounter  = bqSizeX(obqp);
 800ae78:	6f23      	ldr	r3, [r4, #112]	; 0x70
  osalThreadDequeueAllI(&obqp->waiting, MSG_RESET);
 800ae7a:	f104 0050 	add.w	r0, r4, #80	; 0x50
  obqp->bcounter  = bqSizeX(obqp);
 800ae7e:	65e3      	str	r3, [r4, #92]	; 0x5c
  obqp->brdptr    = obqp->buffers;
 800ae80:	6f63      	ldr	r3, [r4, #116]	; 0x74
  obqp->top       = NULL;
 800ae82:	e9c4 551e 	strd	r5, r5, [r4, #120]	; 0x78
  obqp->bwrptr    = obqp->buffers;
 800ae86:	e9c4 3318 	strd	r3, r3, [r4, #96]	; 0x60
  osalThreadDequeueAllI(&obqp->waiting, MSG_RESET);
 800ae8a:	f7fc f819 	bl	8006ec0 <osalThreadDequeueAllI.constprop.0>
  chnAddFlagsI(sdup, CHN_CONNECTED);
 800ae8e:	1d20      	adds	r0, r4, #4
 800ae90:	2101      	movs	r1, #1
  bqResumeX(&sdup->obqueue);
 800ae92:	f884 5058 	strb.w	r5, [r4, #88]	; 0x58
  chnAddFlagsI(sdup, CHN_CONNECTED);
 800ae96:	f7fc f827 	bl	8006ee8 <osalEventBroadcastFlagsI>
  (void) sdu_start_receive(sdup);
 800ae9a:	4620      	mov	r0, r4
        if(!usbConnectState) {
 800ae9c:	4c1f      	ldr	r4, [pc, #124]	; (800af1c <usb_event+0x10c>)
 800ae9e:	f7fc fcbd 	bl	800781c <sdu_start_receive.isra.0>
 800aea2:	7823      	ldrb	r3, [r4, #0]
 800aea4:	b913      	cbnz	r3, 800aeac <usb_event+0x9c>
            syslogISRUnknownPriority("USB up.");
 800aea6:	481e      	ldr	r0, [pc, #120]	; (800af20 <usb_event+0x110>)
 800aea8:	f7ff ff60 	bl	800ad6c <syslogISRUnknownPriority>
    usbConnectState = up;
 800aeac:	2301      	movs	r3, #1
 800aeae:	7023      	strb	r3, [r4, #0]
}
 800aeb0:	e8bd 4038 	ldmia.w	sp!, {r3, r4, r5, lr}
            osalSysUnlockFromISR();
 800aeb4:	f7f9 bee8 	b.w	8004c88 <osalSysUnlockFromISR.lto_priv.0>
  bqSuspendI(&sdup->ibqueue);
 800aeb8:	2501      	movs	r5, #1
  chnAddFlagsI(sdup, CHN_DISCONNECTED);
 800aeba:	4c17      	ldr	r4, [pc, #92]	; (800af18 <usb_event+0x108>)
            osalSysLockFromISR();
 800aebc:	f7f9 fed0 	bl	8004c60 <osalSysLockFromISR.lto_priv.0>
 800aec0:	2102      	movs	r1, #2
 800aec2:	1d20      	adds	r0, r4, #4
 800aec4:	f7fc f810 	bl	8006ee8 <osalEventBroadcastFlagsI>
  bqSuspendI(&sdup->ibqueue);
 800aec8:	f104 0018 	add.w	r0, r4, #24
 800aecc:	f884 5020 	strb.w	r5, [r4, #32]
 800aed0:	f7fb fff6 	bl	8006ec0 <osalThreadDequeueAllI.constprop.0>
  bqSuspendI(&sdup->obqueue);
 800aed4:	f884 5058 	strb.w	r5, [r4, #88]	; 0x58
 800aed8:	f104 0050 	add.w	r0, r4, #80	; 0x50
        if(usbConnectState) {
 800aedc:	4c0f      	ldr	r4, [pc, #60]	; (800af1c <usb_event+0x10c>)
 800aede:	f7fb ffef 	bl	8006ec0 <osalThreadDequeueAllI.constprop.0>
 800aee2:	7823      	ldrb	r3, [r4, #0]
 800aee4:	b113      	cbz	r3, 800aeec <usb_event+0xdc>
            syslogISRUnknownPriority("USB down.");
 800aee6:	480f      	ldr	r0, [pc, #60]	; (800af24 <usb_event+0x114>)
 800aee8:	f7ff ff40 	bl	800ad6c <syslogISRUnknownPriority>
    usbConnectState = up;
 800aeec:	2300      	movs	r3, #0
 800aeee:	e7de      	b.n	800aeae <usb_event+0x9e>
  chnAddFlagsI(sdup, CHN_CONNECTED);
 800aef0:	4c09      	ldr	r4, [pc, #36]	; (800af18 <usb_event+0x108>)
            osalSysLockFromISR();
 800aef2:	f7f9 feb5 	bl	8004c60 <osalSysLockFromISR.lto_priv.0>
 800aef6:	2101      	movs	r1, #1
 800aef8:	1d20      	adds	r0, r4, #4
 800aefa:	f7fb fff5 	bl	8006ee8 <osalEventBroadcastFlagsI>
  bqResumeX(&sdup->ibqueue);
 800aefe:	2300      	movs	r3, #0
 800af00:	f884 3020 	strb.w	r3, [r4, #32]
  bqResumeX(&sdup->obqueue);
 800af04:	f884 3058 	strb.w	r3, [r4, #88]	; 0x58
 800af08:	e7d2      	b.n	800aeb0 <usb_event+0xa0>
}
 800af0a:	bd38      	pop	{r3, r4, r5, pc}
 800af0c:	0800c736 	.word	0x0800c736
 800af10:	0800c9f0 	.word	0x0800c9f0
 800af14:	0800ca14 	.word	0x0800ca14
 800af18:	20000a44 	.word	0x20000a44
 800af1c:	20001354 	.word	0x20001354
 800af20:	0800c74c 	.word	0x0800c74c
 800af24:	0800c754 	.word	0x0800c754

0800af28 <prvIdleTask>:
 800af28:	b580      	push	{r7, lr}
 800af2a:	4c97      	ldr	r4, [pc, #604]	; (800b188 <prvIdleTask+0x260>)
 800af2c:	4d97      	ldr	r5, [pc, #604]	; (800b18c <prvIdleTask+0x264>)
 800af2e:	4e98      	ldr	r6, [pc, #608]	; (800b190 <prvIdleTask+0x268>)
 800af30:	6823      	ldr	r3, [r4, #0]
 800af32:	2b00      	cmp	r3, #0
 800af34:	d178      	bne.n	800b028 <prvIdleTask+0x100>
 800af36:	4b97      	ldr	r3, [pc, #604]	; (800b194 <prvIdleTask+0x26c>)
 800af38:	681b      	ldr	r3, [r3, #0]
 800af3a:	2b01      	cmp	r3, #1
 800af3c:	d91c      	bls.n	800af78 <prvIdleTask+0x50>
 800af3e:	f04f 23e0 	mov.w	r3, #3758153728	; 0xe000e000
 800af42:	4a95      	ldr	r2, [pc, #596]	; (800b198 <prvIdleTask+0x270>)
 800af44:	f8d3 1d20 	ldr.w	r1, [r3, #3360]	; 0xd20
 800af48:	6011      	str	r1, [r2, #0]
 800af4a:	4a94      	ldr	r2, [pc, #592]	; (800b19c <prvIdleTask+0x274>)
 800af4c:	6812      	ldr	r2, [r2, #0]
 800af4e:	b14a      	cbz	r2, 800af64 <prvIdleTask+0x3c>
 800af50:	f8d3 2d20 	ldr.w	r2, [r3, #3360]	; 0xd20
 800af54:	f422 027f 	bic.w	r2, r2, #16711680	; 0xff0000
 800af58:	f8c3 2d20 	str.w	r2, [r3, #3360]	; 0xd20
 800af5c:	f8d3 2d20 	ldr.w	r2, [r3, #3360]	; 0xd20
 800af60:	f8c3 2d20 	str.w	r2, [r3, #3360]	; 0xd20
 800af64:	f04f 23e0 	mov.w	r3, #3758153728	; 0xe000e000
 800af68:	f04f 5280 	mov.w	r2, #268435456	; 0x10000000
 800af6c:	f8c3 2d04 	str.w	r2, [r3, #3332]	; 0xd04
 800af70:	f3bf 8f4f 	dsb	sy
 800af74:	f3bf 8f6f 	isb	sy
    /*
     * Some events may happen from IRQs with unknown priority (possibly above kernel),
     * so they are written to a buffer (one entry only) and added to the syslog in
     * the IDLE thread.
     */
    if(__atomic_load_n(&syslogISRHasSomething, __ATOMIC_ACQUIRE)) {
 800af78:	f8df 8224 	ldr.w	r8, [pc, #548]	; 800b1a0 <prvIdleTask+0x278>
 800af7c:	f898 3000 	ldrb.w	r3, [r8]
 800af80:	f3bf 8f5b 	dmb	ish
 800af84:	b373      	cbz	r3, 800afe4 <prvIdleTask+0xbc>
        if(xSemaphoreTake(syslogSemaphore, 0)) {
 800af86:	f8df 921c 	ldr.w	r9, [pc, #540]	; 800b1a4 <prvIdleTask+0x27c>
 800af8a:	2100      	movs	r1, #0
 800af8c:	f8d9 0000 	ldr.w	r0, [r9]
 800af90:	f7fa fe30 	bl	8005bf4 <xQueueSemaphoreTake>
 800af94:	b330      	cbz	r0, 800afe4 <prvIdleTask+0xbc>
    queue->pktLen = 0;
 800af96:	2600      	movs	r6, #0
    queue->lenHeaderStart = queue->writePtr;
 800af98:	4f83      	ldr	r7, [pc, #524]	; (800b1a8 <prvIdleTask+0x280>)
    packetQueueWriteByte(queue, 0x00);
 800af9a:	2000      	movs	r0, #0
    queue->lenHeaderStart = queue->writePtr;
 800af9c:	693b      	ldr	r3, [r7, #16]
 800af9e:	61fb      	str	r3, [r7, #28]
    packetQueueWriteByte(queue, 0x00);
 800afa0:	f7fa fff2 	bl	8005f88 <packetQueueWriteByte.constprop.0>
    packetQueueWriteByte(queue, 0x00);
 800afa4:	2000      	movs	r0, #0
 800afa6:	f7fa ffef 	bl	8005f88 <packetQueueWriteByte.constprop.0>
    queue->pktLen = 0;
 800afaa:	61be      	str	r6, [r7, #24]
 800afac:	f7fa f9b0 	bl	8005310 <vPortValidateInterruptPriority>
 800afb0:	4b7e      	ldr	r3, [pc, #504]	; (800b1ac <prvIdleTask+0x284>)
            packetQueueStartWritePacket(&syslogQueue);
            chprintf((BaseSequentialStream*)&syslogStream, "[%-11u] {ISR} ", osalOsGetSystemTimeX());
            syslogISRBuffer[sizeof(syslogISRBuffer)-1] = 0;
 800afb2:	4f7f      	ldr	r7, [pc, #508]	; (800b1b0 <prvIdleTask+0x288>)
 800afb4:	681a      	ldr	r2, [r3, #0]
            chprintf((BaseSequentialStream*)&syslogStream, "[%-11u] {ISR} ", osalOsGetSystemTimeX());
 800afb6:	497f      	ldr	r1, [pc, #508]	; (800b1b4 <prvIdleTask+0x28c>)
 800afb8:	487f      	ldr	r0, [pc, #508]	; (800b1b8 <prvIdleTask+0x290>)
 800afba:	f7fd fbd6 	bl	800876a <chprintf>
            packetQueuePutBytes(&syslogQueue, (uint8_t*)syslogISRBuffer, strlen(syslogISRBuffer));
 800afbe:	4638      	mov	r0, r7
            syslogISRBuffer[sizeof(syslogISRBuffer)-1] = 0;
 800afc0:	f887 603f 	strb.w	r6, [r7, #63]	; 0x3f
            packetQueuePutBytes(&syslogQueue, (uint8_t*)syslogISRBuffer, strlen(syslogISRBuffer));
 800afc4:	f000 fce8 	bl	800b998 <strlen>
 800afc8:	b281      	uxth	r1, r0
 800afca:	4638      	mov	r0, r7
 800afcc:	f7fb f80a 	bl	8005fe4 <packetQueuePutBytes.constprop.0>
            packetQueueEndWritePacket(&syslogQueue);
 800afd0:	f7fb f82e 	bl	8006030 <packetQueueEndWritePacket.constprop.0>
            xSemaphoreGive(syslogSemaphore);
 800afd4:	f8d9 0000 	ldr.w	r0, [r9]
 800afd8:	f7fd fa62 	bl	80084a0 <xQueueGenericSend.constprop.0>

            __atomic_clear(&syslogISRHasSomething, __ATOMIC_RELEASE);
 800afdc:	f3bf 8f5b 	dmb	ish
 800afe0:	f888 6000 	strb.w	r6, [r8]

void vApplicationIdleHook(void)
{
    syslogIdleHook();

    if(usbConnectState && !usbShellIsUp) {
 800afe4:	4b75      	ldr	r3, [pc, #468]	; (800b1bc <prvIdleTask+0x294>)
 800afe6:	781b      	ldrb	r3, [r3, #0]
 800afe8:	b18b      	cbz	r3, 800b00e <prvIdleTask+0xe6>
 800afea:	4e75      	ldr	r6, [pc, #468]	; (800b1c0 <prvIdleTask+0x298>)
 800afec:	7833      	ldrb	r3, [r6, #0]
 800afee:	f003 01ff 	and.w	r1, r3, #255	; 0xff
 800aff2:	b963      	cbnz	r3, 800b00e <prvIdleTask+0xe6>
        usbShellIsUp = true;
 800aff4:	2301      	movs	r3, #1
        /*
         * Setting the pin from the idle hook requires a non-blocking
         * GPIO driver. In practice this means almost always a native
         * CPU pin.
         */
        gpioSetPin(GPIO_LED_USB, false);
 800aff6:	f240 1003 	movw	r0, #259	; 0x103
        usbShellIsUp = true;
 800affa:	7033      	strb	r3, [r6, #0]
        gpioSetPin(GPIO_LED_USB, false);
 800affc:	f7fc faa0 	bl	8007540 <gpioSetPin.isra.0>

        /* Try to start the shell */
        if(!shellStart((BaseSequentialStream*)&SDU1, 128, "ShellUSB", usbShellTerminated, NULL)) {
 800b000:	4a70      	ldr	r2, [pc, #448]	; (800b1c4 <prvIdleTask+0x29c>)
 800b002:	4971      	ldr	r1, [pc, #452]	; (800b1c8 <prvIdleTask+0x2a0>)
 800b004:	4871      	ldr	r0, [pc, #452]	; (800b1cc <prvIdleTask+0x2a4>)
 800b006:	f7fc fea9 	bl	8007d5c <shellStart.constprop.0>
 800b00a:	b900      	cbnz	r0, 800b00e <prvIdleTask+0xe6>
            /* We are very low on memory. This will keep trying, but priority is IDLE */
            usbShellIsUp = false;
 800b00c:	7030      	strb	r0, [r6, #0]
 800b00e:	f7f9 fb37 	bl	8004680 <prvGetExpectedIdleTime>
 800b012:	2801      	cmp	r0, #1
 800b014:	d98b      	bls.n	800af2e <prvIdleTask+0x6>
 800b016:	4e6e      	ldr	r6, [pc, #440]	; (800b1d0 <prvIdleTask+0x2a8>)
 800b018:	4964      	ldr	r1, [pc, #400]	; (800b1ac <prvIdleTask+0x284>)
 800b01a:	f7f9 fb29 	bl	8004670 <vTaskSuspendAll>
 800b01e:	6832      	ldr	r2, [r6, #0]
 800b020:	680b      	ldr	r3, [r1, #0]
 800b022:	429a      	cmp	r2, r3
 800b024:	d213      	bcs.n	800b04e <prvIdleTask+0x126>
 800b026:	e7fe      	b.n	800b026 <prvIdleTask+0xfe>
 800b028:	f7f9 fb84 	bl	8004734 <vPortEnterCritical>
 800b02c:	68eb      	ldr	r3, [r5, #12]
 800b02e:	68df      	ldr	r7, [r3, #12]
 800b030:	1d38      	adds	r0, r7, #4
 800b032:	f7fa fa6a 	bl	800550a <uxListRemove>
 800b036:	6833      	ldr	r3, [r6, #0]
 800b038:	4638      	mov	r0, r7
 800b03a:	3b01      	subs	r3, #1
 800b03c:	6033      	str	r3, [r6, #0]
 800b03e:	6823      	ldr	r3, [r4, #0]
 800b040:	3b01      	subs	r3, #1
 800b042:	6023      	str	r3, [r4, #0]
 800b044:	f7f9 fd8e 	bl	8004b64 <vPortExitCritical>
 800b048:	f7fa fc86 	bl	8005958 <prvDeleteTCB>
 800b04c:	e770      	b.n	800af30 <prvIdleTask+0x8>
 800b04e:	f7f9 fb17 	bl	8004680 <prvGetExpectedIdleTime>
 800b052:	2801      	cmp	r0, #1
 800b054:	d97a      	bls.n	800b14c <prvIdleTask+0x224>
 800b056:	4b5f      	ldr	r3, [pc, #380]	; (800b1d4 <prvIdleTask+0x2ac>)
 800b058:	4f5f      	ldr	r7, [pc, #380]	; (800b1d8 <prvIdleTask+0x2b0>)
 800b05a:	681b      	ldr	r3, [r3, #0]
 800b05c:	f8df 817c 	ldr.w	r8, [pc, #380]	; 800b1dc <prvIdleTask+0x2b4>
 800b060:	4298      	cmp	r0, r3
 800b062:	bf28      	it	cs
 800b064:	4618      	movcs	r0, r3
 800b066:	f04f 23e0 	mov.w	r3, #3758153728	; 0xe000e000
 800b06a:	691a      	ldr	r2, [r3, #16]
 800b06c:	f022 0201 	bic.w	r2, r2, #1
 800b070:	611a      	str	r2, [r3, #16]
 800b072:	699b      	ldr	r3, [r3, #24]
 800b074:	f8d7 c000 	ldr.w	ip, [r7]
 800b078:	1e42      	subs	r2, r0, #1
 800b07a:	fb0c 3902 	mla	r9, ip, r2, r3
 800b07e:	f8d8 3000 	ldr.w	r3, [r8]
 800b082:	4599      	cmp	r9, r3
 800b084:	bf88      	it	hi
 800b086:	eba9 0903 	subhi.w	r9, r9, r3
 800b08a:	b672      	cpsid	i
 800b08c:	f3bf 8f4f 	dsb	sy
 800b090:	f3bf 8f6f 	isb	sy
 800b094:	4b52      	ldr	r3, [pc, #328]	; (800b1e0 <prvIdleTask+0x2b8>)
 800b096:	681b      	ldr	r3, [r3, #0]
 800b098:	2b00      	cmp	r3, #0
 800b09a:	d14b      	bne.n	800b134 <prvIdleTask+0x20c>
 800b09c:	4b51      	ldr	r3, [pc, #324]	; (800b1e4 <prvIdleTask+0x2bc>)
 800b09e:	681b      	ldr	r3, [r3, #0]
 800b0a0:	2b00      	cmp	r3, #0
 800b0a2:	d147      	bne.n	800b134 <prvIdleTask+0x20c>
 800b0a4:	f8df c140 	ldr.w	ip, [pc, #320]	; 800b1e8 <prvIdleTask+0x2c0>
 800b0a8:	f8dc c000 	ldr.w	ip, [ip]
 800b0ac:	f8df c0e0 	ldr.w	ip, [pc, #224]	; 800b190 <prvIdleTask+0x268>
 800b0b0:	f8dc c000 	ldr.w	ip, [ip]
 800b0b4:	f04f 2ce0 	mov.w	ip, #3758153728	; 0xe000e000
 800b0b8:	f8cc 9014 	str.w	r9, [ip, #20]
 800b0bc:	f8cc 3018 	str.w	r3, [ip, #24]
 800b0c0:	f8dc 3010 	ldr.w	r3, [ip, #16]
 800b0c4:	f043 0301 	orr.w	r3, r3, #1
 800b0c8:	f8cc 3010 	str.w	r3, [ip, #16]
 800b0cc:	2800      	cmp	r0, #0
 800b0ce:	d140      	bne.n	800b152 <prvIdleTask+0x22a>
 800b0d0:	b662      	cpsie	i
 800b0d2:	f3bf 8f4f 	dsb	sy
 800b0d6:	f3bf 8f6f 	isb	sy
 800b0da:	b672      	cpsid	i
 800b0dc:	f3bf 8f4f 	dsb	sy
 800b0e0:	f3bf 8f6f 	isb	sy
 800b0e4:	f04f 2ee0 	mov.w	lr, #3758153728	; 0xe000e000
 800b0e8:	2302      	movs	r3, #2
 800b0ea:	f8ce 3010 	str.w	r3, [lr, #16]
 800b0ee:	f8de 3010 	ldr.w	r3, [lr, #16]
 800b0f2:	03db      	lsls	r3, r3, #15
 800b0f4:	d533      	bpl.n	800b15e <prvIdleTask+0x236>
 800b0f6:	6838      	ldr	r0, [r7, #0]
 800b0f8:	f8de 3018 	ldr.w	r3, [lr, #24]
 800b0fc:	f8d8 c000 	ldr.w	ip, [r8]
 800b100:	4403      	add	r3, r0
 800b102:	3b01      	subs	r3, #1
 800b104:	eba3 0309 	sub.w	r3, r3, r9
 800b108:	4563      	cmp	r3, ip
 800b10a:	d301      	bcc.n	800b110 <prvIdleTask+0x1e8>
 800b10c:	4298      	cmp	r0, r3
 800b10e:	d200      	bcs.n	800b112 <prvIdleTask+0x1ea>
 800b110:	1e43      	subs	r3, r0, #1
 800b112:	f04f 20e0 	mov.w	r0, #3758153728	; 0xe000e000
 800b116:	6143      	str	r3, [r0, #20]
 800b118:	f04f 23e0 	mov.w	r3, #3758153728	; 0xe000e000
 800b11c:	2000      	movs	r0, #0
 800b11e:	6198      	str	r0, [r3, #24]
 800b120:	6918      	ldr	r0, [r3, #16]
 800b122:	f040 0001 	orr.w	r0, r0, #1
 800b126:	6118      	str	r0, [r3, #16]
 800b128:	6808      	ldr	r0, [r1, #0]
 800b12a:	6836      	ldr	r6, [r6, #0]
 800b12c:	4410      	add	r0, r2
 800b12e:	42b0      	cmp	r0, r6
 800b130:	d925      	bls.n	800b17e <prvIdleTask+0x256>
 800b132:	e7fe      	b.n	800b132 <prvIdleTask+0x20a>
 800b134:	f04f 23e0 	mov.w	r3, #3758153728	; 0xe000e000
 800b138:	699a      	ldr	r2, [r3, #24]
 800b13a:	615a      	str	r2, [r3, #20]
 800b13c:	691a      	ldr	r2, [r3, #16]
 800b13e:	f042 0201 	orr.w	r2, r2, #1
 800b142:	611a      	str	r2, [r3, #16]
 800b144:	683a      	ldr	r2, [r7, #0]
 800b146:	3a01      	subs	r2, #1
 800b148:	615a      	str	r2, [r3, #20]
 800b14a:	b662      	cpsie	i
 800b14c:	f7fa fada 	bl	8005704 <xTaskResumeAll>
 800b150:	e6ed      	b.n	800af2e <prvIdleTask+0x6>
 800b152:	f3bf 8f4f 	dsb	sy
 800b156:	bf30      	wfi
 800b158:	f3bf 8f6f 	isb	sy
 800b15c:	e7b8      	b.n	800b0d0 <prvIdleTask+0x1a8>
 800b15e:	683b      	ldr	r3, [r7, #0]
 800b160:	f8de c018 	ldr.w	ip, [lr, #24]
 800b164:	4358      	muls	r0, r3
 800b166:	eba0 020c 	sub.w	r2, r0, ip
 800b16a:	fbb2 f2f3 	udiv	r2, r2, r3
 800b16e:	fb02 3303 	mla	r3, r2, r3, r3
 800b172:	ebac 0000 	sub.w	r0, ip, r0
 800b176:	4403      	add	r3, r0
 800b178:	f8ce 3014 	str.w	r3, [lr, #20]
 800b17c:	e7cc      	b.n	800b118 <prvIdleTask+0x1f0>
 800b17e:	6808      	ldr	r0, [r1, #0]
 800b180:	4402      	add	r2, r0
 800b182:	600a      	str	r2, [r1, #0]
 800b184:	e7de      	b.n	800b144 <prvIdleTask+0x21c>
 800b186:	bf00      	nop
 800b188:	20001360 	.word	0x20001360
 800b18c:	20001634 	.word	0x20001634
 800b190:	2000135c 	.word	0x2000135c
 800b194:	200011b8 	.word	0x200011b8
 800b198:	2000134c 	.word	0x2000134c
 800b19c:	20001358 	.word	0x20001358
 800b1a0:	2000130c 	.word	0x2000130c
 800b1a4:	20001334 	.word	0x20001334
 800b1a8:	20001310 	.word	0x20001310
 800b1ac:	20001648 	.word	0x20001648
 800b1b0:	200012cc 	.word	0x200012cc
 800b1b4:	0800c75e 	.word	0x0800c75e
 800b1b8:	0800cbd8 	.word	0x0800cbd8
 800b1bc:	20001354 	.word	0x20001354
 800b1c0:	20001355 	.word	0x20001355
 800b1c4:	0800773d 	.word	0x0800773d
 800b1c8:	0800c76d 	.word	0x0800c76d
 800b1cc:	20000a44 	.word	0x20000a44
 800b1d0:	200015f8 	.word	0x200015f8
 800b1d4:	200015f0 	.word	0x200015f0
 800b1d8:	20001350 	.word	0x20001350
 800b1dc:	20001348 	.word	0x20001348
 800b1e0:	20001600 	.word	0x20001600
 800b1e4:	2000164c 	.word	0x2000164c
 800b1e8:	20001620 	.word	0x20001620

0800b1ec <__core_init>:

#if CORTEX_MODEL == 7
  SCB_EnableICache();
  SCB_EnableDCache();
#endif
}
 800b1ec:	4770      	bx	lr

0800b1ee <__late_init>:
 800b1ee:	4770      	bx	lr

0800b1f0 <__default_exit>:
#endif
/*lint -save -e9075 [8.4] All symbols are invoked from asm context.*/
void __default_exit(void) {
/*lint -restore*/

  while (true) {
 800b1f0:	e7fe      	b.n	800b1f0 <__default_exit>
	...

0800b1f4 <__init_ram_areas>:
}

/**
 * @brief   Performs the initialization of the various RAM areas.
 */
void __init_ram_areas(void) {
 800b1f4:	b570      	push	{r4, r5, r6, lr}
 800b1f6:	2508      	movs	r5, #8
#if CRT1_AREAS_NUMBER > 0
  const ram_init_area_t *rap = ram_areas;
 800b1f8:	4c13      	ldr	r4, [pc, #76]	; (800b248 <__init_ram_areas+0x54>)
  do {
    uint32_t *tp = rap->init_text_area;
    uint32_t *p = rap->init_area;

    /* Copying initialization data.*/
    while (p < rap->clear_area) {
 800b1fa:	e9d4 0201 	ldrd	r0, r2, [r4, #4]
    uint32_t *p = rap->init_area;
 800b1fe:	4601      	mov	r1, r0
 800b200:	6823      	ldr	r3, [r4, #0]
 800b202:	3b04      	subs	r3, #4
    while (p < rap->clear_area) {
 800b204:	428a      	cmp	r2, r1
 800b206:	d819      	bhi.n	800b23c <__init_ram_areas+0x48>
 800b208:	1cd3      	adds	r3, r2, #3
 800b20a:	1a1b      	subs	r3, r3, r0
 800b20c:	1ec1      	subs	r1, r0, #3
 800b20e:	f023 0303 	bic.w	r3, r3, #3
 800b212:	428a      	cmp	r2, r1
 800b214:	bf38      	it	cc
 800b216:	2300      	movcc	r3, #0
 800b218:	4418      	add	r0, r3
      tp++;
    }

    /* Zeroing clear area.*/
    while (p < rap->no_init_area) {
      *p = 0;
 800b21a:	68e3      	ldr	r3, [r4, #12]
 800b21c:	1ec1      	subs	r1, r0, #3
 800b21e:	1cda      	adds	r2, r3, #3
 800b220:	1a12      	subs	r2, r2, r0
 800b222:	f022 0203 	bic.w	r2, r2, #3
 800b226:	4299      	cmp	r1, r3
 800b228:	bf88      	it	hi
 800b22a:	2200      	movhi	r2, #0
 800b22c:	2100      	movs	r1, #0
 800b22e:	f000 faf9 	bl	800b824 <memset>
      p++;
    }
    rap++;
  }
  while (rap < &ram_areas[CRT1_AREAS_NUMBER]);
 800b232:	3d01      	subs	r5, #1
    rap++;
 800b234:	f104 0410 	add.w	r4, r4, #16
  while (rap < &ram_areas[CRT1_AREAS_NUMBER]);
 800b238:	d1df      	bne.n	800b1fa <__init_ram_areas+0x6>
#endif
}
 800b23a:	bd70      	pop	{r4, r5, r6, pc}
      *p = *tp;
 800b23c:	f853 6f04 	ldr.w	r6, [r3, #4]!
 800b240:	f841 6b04 	str.w	r6, [r1], #4
      tp++;
 800b244:	e7de      	b.n	800b204 <__init_ram_areas+0x10>
 800b246:	bf00      	nop
 800b248:	0800cb04 	.word	0x0800cb04

0800b24c <__early_init>:
void stm32_clock_init(void) {

#if !STM32_NO_INIT
  /* HSI setup, it enforces the reset situation in order to handle possible
     problems with JTAG probes and re-initializations.*/
  RCC->CR |= RCC_CR_HSION;                  /* Make sure HSI is ON.         */
 800b24c:	4b1c      	ldr	r3, [pc, #112]	; (800b2c0 <__early_init+0x74>)
 800b24e:	681a      	ldr	r2, [r3, #0]
 800b250:	f042 0201 	orr.w	r2, r2, #1
 800b254:	601a      	str	r2, [r3, #0]
  while (!(RCC->CR & RCC_CR_HSIRDY))
 800b256:	681a      	ldr	r2, [r3, #0]
 800b258:	0792      	lsls	r2, r2, #30
 800b25a:	d5fc      	bpl.n	800b256 <__early_init+0xa>
    ;                                       /* Wait until HSI is stable.    */
  RCC->CR &= RCC_CR_HSITRIM | RCC_CR_HSION; /* CR Reset value.              */
 800b25c:	681a      	ldr	r2, [r3, #0]
 800b25e:	f002 02f9 	and.w	r2, r2, #249	; 0xf9
 800b262:	601a      	str	r2, [r3, #0]
  RCC->CFGR = 0;                            /* CFGR reset value.            */
 800b264:	2200      	movs	r2, #0
 800b266:	605a      	str	r2, [r3, #4]
  while ((RCC->CFGR & RCC_CFGR_SWS) != RCC_CFGR_SWS_HSI)
 800b268:	685a      	ldr	r2, [r3, #4]
 800b26a:	f012 0f0c 	tst.w	r2, #12
 800b26e:	d1fb      	bne.n	800b268 <__early_init+0x1c>
#if defined(STM32_HSE_BYPASS)
  /* HSE Bypass.*/
  RCC->CR |= RCC_CR_HSEON | RCC_CR_HSEBYP;
#endif
  /* HSE activation.*/
  RCC->CR |= RCC_CR_HSEON;
 800b270:	681a      	ldr	r2, [r3, #0]
 800b272:	f442 3280 	orr.w	r2, r2, #65536	; 0x10000
 800b276:	601a      	str	r2, [r3, #0]
  while (!(RCC->CR & RCC_CR_HSERDY))
 800b278:	681a      	ldr	r2, [r3, #0]
 800b27a:	0390      	lsls	r0, r2, #14
 800b27c:	d5fc      	bpl.n	800b278 <__early_init+0x2c>
    ;                                       /* Waits until HSE is stable.   */
#endif

#if STM32_LSI_ENABLED
  /* LSI activation.*/
  RCC->CSR |= RCC_CSR_LSION;
 800b27e:	6a5a      	ldr	r2, [r3, #36]	; 0x24
 800b280:	f042 0201 	orr.w	r2, r2, #1
 800b284:	625a      	str	r2, [r3, #36]	; 0x24
  while ((RCC->CSR & RCC_CSR_LSIRDY) == 0)
 800b286:	6a5a      	ldr	r2, [r3, #36]	; 0x24
 800b288:	0791      	lsls	r1, r2, #30
 800b28a:	d5fc      	bpl.n	800b286 <__early_init+0x3a>
    ;                                       /* Waits until LSI is stable.   */
#endif

#if STM32_ACTIVATE_PLL
  /* PLL activation.*/
  RCC->CFGR |= STM32_PLLMUL | STM32_PLLXTPRE | STM32_PLLSRC;
 800b28c:	685a      	ldr	r2, [r3, #4]
 800b28e:	f442 12f8 	orr.w	r2, r2, #2031616	; 0x1f0000
 800b292:	605a      	str	r2, [r3, #4]
  RCC->CR   |= RCC_CR_PLLON;
 800b294:	681a      	ldr	r2, [r3, #0]
 800b296:	f042 7280 	orr.w	r2, r2, #16777216	; 0x1000000
 800b29a:	601a      	str	r2, [r3, #0]
  while (!(RCC->CR & RCC_CR_PLLRDY))
 800b29c:	681a      	ldr	r2, [r3, #0]
 800b29e:	0192      	lsls	r2, r2, #6
 800b2a0:	d5fc      	bpl.n	800b29c <__early_init+0x50>
              STM32_PLLSRC | STM32_ADCPRE | STM32_PPRE2  | STM32_PPRE1    |
              STM32_HPRE;
#endif

  /* Flash setup and final clock selection.   */
  FLASH->ACR = STM32_FLASHBITS;
 800b2a2:	2112      	movs	r1, #18
  RCC->CFGR = STM32_MCOSEL | STM32_USBPRE | STM32_PLLMUL | STM32_PLLXTPRE |
 800b2a4:	4a07      	ldr	r2, [pc, #28]	; (800b2c4 <__early_init+0x78>)
 800b2a6:	605a      	str	r2, [r3, #4]
  FLASH->ACR = STM32_FLASHBITS;
 800b2a8:	4a07      	ldr	r2, [pc, #28]	; (800b2c8 <__early_init+0x7c>)
 800b2aa:	6011      	str	r1, [r2, #0]

  /* Switching to the configured clock source if it is different from HSI.*/
#if (STM32_SW != STM32_SW_HSI)
  /* Switches clock source.*/
  RCC->CFGR |= STM32_SW;
 800b2ac:	685a      	ldr	r2, [r3, #4]
 800b2ae:	f042 0202 	orr.w	r2, r2, #2
 800b2b2:	605a      	str	r2, [r3, #4]
  while ((RCC->CFGR & RCC_CFGR_SWS) != (STM32_SW << 2))
 800b2b4:	685a      	ldr	r2, [r3, #4]
 800b2b6:	f002 020c 	and.w	r2, r2, #12
 800b2ba:	2a08      	cmp	r2, #8
 800b2bc:	d1fa      	bne.n	800b2b4 <__early_init+0x68>
 * any other initialization.
 */
void __early_init(void) {

  stm32_clock_init();
}
 800b2be:	4770      	bx	lr
 800b2c0:	40021000 	.word	0x40021000
 800b2c4:	001f6400 	.word	0x001f6400
 800b2c8:	40022000 	.word	0x40022000

0800b2cc <main>:
  rccResetAPB1(0xFFFFFFFF);
 800b2cc:	4bb5      	ldr	r3, [pc, #724]	; (800b5a4 <main+0x2d8>)
 800b2ce:	f04f 31ff 	mov.w	r1, #4294967295	; 0xffffffff
 800b2d2:	691a      	ldr	r2, [r3, #16]
 800b2d4:	2200      	movs	r2, #0
    _stm32_dma_streams[i].channel->CCR = 0U;
 800b2d6:	4614      	mov	r4, r2
/*
 * This main function starts FreeRTOS, we also create one thread that
 * will eventually run main_.
 */
int main(void)
{
 800b2d8:	b580      	push	{r7, lr}
 800b2da:	6119      	str	r1, [r3, #16]
 800b2dc:	611a      	str	r2, [r3, #16]
  rccResetAPB2(0xFFFFFFFF);
 800b2de:	68d8      	ldr	r0, [r3, #12]
 800b2e0:	60d9      	str	r1, [r3, #12]
 800b2e2:	60da      	str	r2, [r3, #12]
  rccEnablePWRInterface(FALSE);
 800b2e4:	69d9      	ldr	r1, [r3, #28]
  PWR->CR |= PWR_CR_DBP;
 800b2e6:	48b0      	ldr	r0, [pc, #704]	; (800b5a8 <main+0x2dc>)
  rccEnablePWRInterface(FALSE);
 800b2e8:	f041 5180 	orr.w	r1, r1, #268435456	; 0x10000000
 800b2ec:	61d9      	str	r1, [r3, #28]
  rccEnableBKPInterface(FALSE);
 800b2ee:	69d9      	ldr	r1, [r3, #28]
 800b2f0:	b08a      	sub	sp, #40	; 0x28
 800b2f2:	f041 6100 	orr.w	r1, r1, #134217728	; 0x8000000
 800b2f6:	61d9      	str	r1, [r3, #28]
  PWR->CR |= PWR_CR_DBP;
 800b2f8:	6801      	ldr	r1, [r0, #0]
 800b2fa:	f441 7180 	orr.w	r1, r1, #256	; 0x100
 800b2fe:	6001      	str	r1, [r0, #0]
  dma_streams_mask = 0U;
 800b300:	49aa      	ldr	r1, [pc, #680]	; (800b5ac <main+0x2e0>)
    _stm32_dma_isr_redir[i].dma_func = NULL;
 800b302:	48ab      	ldr	r0, [pc, #684]	; (800b5b0 <main+0x2e4>)
  dma_streams_mask = 0U;
 800b304:	600a      	str	r2, [r1, #0]
  for (i = 0; i < STM32_DMA_STREAMS; i++) {
 800b306:	49ab      	ldr	r1, [pc, #684]	; (800b5b4 <main+0x2e8>)
    _stm32_dma_streams[i].channel->CCR = 0U;
 800b308:	684d      	ldr	r5, [r1, #4]
  for (i = 0; i < STM32_DMA_STREAMS; i++) {
 800b30a:	3114      	adds	r1, #20
    _stm32_dma_streams[i].channel->CCR = 0U;
 800b30c:	602c      	str	r4, [r5, #0]
    _stm32_dma_isr_redir[i].dma_func = NULL;
 800b30e:	f840 4032 	str.w	r4, [r0, r2, lsl #3]
  for (i = 0; i < STM32_DMA_STREAMS; i++) {
 800b312:	3201      	adds	r2, #1
 800b314:	2a07      	cmp	r2, #7
 800b316:	d1f7      	bne.n	800b308 <main+0x3c>
  DMA1->IFCR = 0xFFFFFFFFU;
 800b318:	f04f 32ff 	mov.w	r2, #4294967295	; 0xffffffff
 800b31c:	49a6      	ldr	r1, [pc, #664]	; (800b5b8 <main+0x2ec>)
  i2cp->state  = I2C_STOP;
 800b31e:	2601      	movs	r6, #1
 800b320:	604a      	str	r2, [r1, #4]
  rccEnableAPB2(APB2_EN_MASK, FALSE);
 800b322:	6999      	ldr	r1, [r3, #24]
 800b324:	4da5      	ldr	r5, [pc, #660]	; (800b5bc <main+0x2f0>)
 800b326:	f041 017d 	orr.w	r1, r1, #125	; 0x7d
 800b32a:	6199      	str	r1, [r3, #24]
  GPIOA->ODR = config->PAData.odr;
 800b32c:	f46f 1340 	mvn.w	r3, #3145728	; 0x300000
 800b330:	49a3      	ldr	r1, [pc, #652]	; (800b5c0 <main+0x2f4>)
 800b332:	60cb      	str	r3, [r1, #12]
  GPIOA->CRH = config->PAData.crh;
 800b334:	4ba3      	ldr	r3, [pc, #652]	; (800b5c4 <main+0x2f8>)
 800b336:	604b      	str	r3, [r1, #4]
  GPIOA->CRL = config->PAData.crl;
 800b338:	f04f 3388 	mov.w	r3, #2290649224	; 0x88888888
 800b33c:	600b      	str	r3, [r1, #0]
  GPIOB->ODR = config->PBData.odr;
 800b33e:	f8c1 240c 	str.w	r2, [r1, #1036]	; 0x40c
  GPIOB->CRH = config->PBData.crh;
 800b342:	f8c1 3404 	str.w	r3, [r1, #1028]	; 0x404
  GPIOB->CRL = config->PBData.crl;
 800b346:	f8c1 3400 	str.w	r3, [r1, #1024]	; 0x400
  GPIOC->ODR = config->PCData.odr;
 800b34a:	f8c1 280c 	str.w	r2, [r1, #2060]	; 0x80c
  GPIOC->CRH = config->PCData.crh;
 800b34e:	f8c1 3804 	str.w	r3, [r1, #2052]	; 0x804
  GPIOC->CRL = config->PCData.crl;
 800b352:	f8c1 3800 	str.w	r3, [r1, #2048]	; 0x800
  GPIOD->ODR = config->PDData.odr;
 800b356:	f8c1 2c0c 	str.w	r2, [r1, #3084]	; 0xc0c
  GPIOD->CRH = config->PDData.crh;
 800b35a:	f8c1 3c04 	str.w	r3, [r1, #3076]	; 0xc04
  GPIOD->CRL = config->PDData.crl;
 800b35e:	f8c1 3c00 	str.w	r3, [r1, #3072]	; 0xc00
  GPIOB->ODR = config->PBData.odr;
 800b362:	f501 6180 	add.w	r1, r1, #1024	; 0x400
  GPIOE->ODR = config->PEData.odr;
 800b366:	f8c1 2c0c 	str.w	r2, [r1, #3084]	; 0xc0c
  GPIOE->CRH = config->PEData.crh;
 800b36a:	f8c1 3c04 	str.w	r3, [r1, #3076]	; 0xc04
  GPIOE->CRL = config->PEData.crl;
 800b36e:	f8c1 3c00 	str.w	r3, [r1, #3072]	; 0xc00
 800b372:	2350      	movs	r3, #80	; 0x50
 800b374:	9306      	str	r3, [sp, #24]
 800b376:	f8dd 8018 	ldr.w	r8, [sp, #24]
 800b37a:	702e      	strb	r6, [r5, #0]
 800b37c:	4598      	cmp	r8, r3
  i2cp->config = NULL;
 800b37e:	606c      	str	r4, [r5, #4]
 800b380:	d000      	beq.n	800b384 <main+0xb8>
 800b382:	e7fe      	b.n	800b382 <main+0xb6>
 800b384:	f105 0710 	add.w	r7, r5, #16
 800b388:	4638      	mov	r0, r7
 800b38a:	612f      	str	r7, [r5, #16]
 800b38c:	e9c5 6413 	strd	r6, r4, [r5, #76]	; 0x4c
 800b390:	f885 6056 	strb.w	r6, [r5, #86]	; 0x56
 800b394:	f7fd f9bf 	bl	8008716 <xQueueGenericReset.constprop.0.isra.0>
 800b398:	f885 605c 	strb.w	r6, [r5, #92]	; 0x5c
 800b39c:	f7fd f9b5 	bl	800870a <prvInitialiseMutex.part.0>
  oqp->q_counter = size;
 800b3a0:	2110      	movs	r1, #16
    mutex->handle = xSemaphoreCreateMutexStatic(&mutex->staticData);
 800b3a2:	60ef      	str	r7, [r5, #12]
  I2CD1.i2c    = I2C1;
 800b3a4:	4b88      	ldr	r3, [pc, #544]	; (800b5c8 <main+0x2fc>)
  I2CD1.dmarx  = STM32_DMA_STREAM(STM32_I2C_I2C1_RX_DMA_STREAM);
 800b3a6:	4f89      	ldr	r7, [pc, #548]	; (800b5cc <main+0x300>)
  I2CD1.i2c    = I2C1;
 800b3a8:	67ab      	str	r3, [r5, #120]	; 0x78
  I2CD1.dmatx  = STM32_DMA_STREAM(STM32_I2C_I2C1_TX_DMA_STREAM);
 800b3aa:	f1a7 0314 	sub.w	r3, r7, #20
 800b3ae:	676b      	str	r3, [r5, #116]	; 0x74
  sdp->vmt = &vmt;
 800b3b0:	4a87      	ldr	r2, [pc, #540]	; (800b5d0 <main+0x304>)
 800b3b2:	4b88      	ldr	r3, [pc, #544]	; (800b5d4 <main+0x308>)
  I2CD1.thread = NULL;
 800b3b4:	662c      	str	r4, [r5, #96]	; 0x60
 800b3b6:	601a      	str	r2, [r3, #0]
  iqp->q_buffer  = bp;
 800b3b8:	f103 0260 	add.w	r2, r3, #96	; 0x60
  iqp->q_wrptr   = bp;
 800b3bc:	e9c3 220b 	strd	r2, r2, [r3, #44]	; 0x2c
  iqp->q_buffer  = bp;
 800b3c0:	625a      	str	r2, [r3, #36]	; 0x24
  iqp->q_top     = bp + size;
 800b3c2:	f103 0270 	add.w	r2, r3, #112	; 0x70
  oqp->q_wrptr   = bp;
 800b3c6:	e9c3 2214 	strd	r2, r2, [r3, #80]	; 0x50
  iqp->q_top     = bp + size;
 800b3ca:	629a      	str	r2, [r3, #40]	; 0x28
  oqp->q_buffer  = bp;
 800b3cc:	649a      	str	r2, [r3, #72]	; 0x48
  oqp->q_top     = bp + size;
 800b3ce:	f103 0280 	add.w	r2, r3, #128	; 0x80
 800b3d2:	64da      	str	r2, [r3, #76]	; 0x4c
  oqp->q_notify  = onfy;
 800b3d4:	4a80      	ldr	r2, [pc, #512]	; (800b5d8 <main+0x30c>)
  I2CD1.dmarx  = STM32_DMA_STREAM(STM32_I2C_I2C1_RX_DMA_STREAM);
 800b3d6:	672f      	str	r7, [r5, #112]	; 0x70
  oqp->q_link    = link;
 800b3d8:	e9c3 2316 	strd	r2, r3, [r3, #88]	; 0x58
  spip->state = SPI_STOP;
 800b3dc:	4d7f      	ldr	r5, [pc, #508]	; (800b5dc <main+0x310>)
  SD3.usart = USART3;
 800b3de:	4a80      	ldr	r2, [pc, #512]	; (800b5e0 <main+0x314>)
  iqp->q_counter = 0;
 800b3e0:	621c      	str	r4, [r3, #32]
    event_source->firstRepeater = NULL;
 800b3e2:	e9c3 4401 	strd	r4, r4, [r3, #4]
    thread_queue->tail = NULL;
 800b3e6:	e9c3 4406 	strd	r4, r4, [r3, #24]
  iqp->q_link    = link;
 800b3ea:	e9c3 430d 	strd	r4, r3, [r3, #52]	; 0x34
 800b3ee:	e9c3 440f 	strd	r4, r4, [r3, #60]	; 0x3c
    event_source->waitThread = NULL;
 800b3f2:	60dc      	str	r4, [r3, #12]
  sdp->state = SD_STOP;
 800b3f4:	751e      	strb	r6, [r3, #20]
  oqp->q_counter = size;
 800b3f6:	6459      	str	r1, [r3, #68]	; 0x44
 800b3f8:	f8c3 2080 	str.w	r2, [r3, #128]	; 0x80
  spip->thread = NULL;
 800b3fc:	e9c5 4401 	strd	r4, r4, [r5, #4]
  spip->state = SPI_STOP;
 800b400:	702e      	strb	r6, [r5, #0]
 800b402:	f8cd 801c 	str.w	r8, [sp, #28]
 800b406:	9b07      	ldr	r3, [sp, #28]
 800b408:	2b50      	cmp	r3, #80	; 0x50
 800b40a:	d000      	beq.n	800b40e <main+0x142>
 800b40c:	e7fe      	b.n	800b40c <main+0x140>
 800b40e:	f105 0810 	add.w	r8, r5, #16
 800b412:	4640      	mov	r0, r8
 800b414:	e9c5 6413 	strd	r6, r4, [r5, #76]	; 0x4c
 800b418:	f885 6056 	strb.w	r6, [r5, #86]	; 0x56
 800b41c:	f8c5 8010 	str.w	r8, [r5, #16]
 800b420:	f7fd f979 	bl	8008716 <xQueueGenericReset.constprop.0.isra.0>
 800b424:	f885 605c 	strb.w	r6, [r5, #92]	; 0x5c
 800b428:	f7fd f96f 	bl	800870a <prvInitialiseMutex.part.0>
  SPID1.spi       = SPI1;
 800b42c:	4b6d      	ldr	r3, [pc, #436]	; (800b5e4 <main+0x318>)
  SPID1.txdmamode = STM32_DMA_CR_CHSEL(SPI1_TX_DMA_CHANNEL) |
 800b42e:	f241 000a 	movw	r0, #4106	; 0x100a
  SPID1.spi       = SPI1;
 800b432:	662b      	str	r3, [r5, #96]	; 0x60
  SPID1.dmarx     = STM32_DMA_STREAM(STM32_SPI_SPI1_RX_DMA_STREAM);
 800b434:	f1a7 0364 	sub.w	r3, r7, #100	; 0x64
 800b438:	666b      	str	r3, [r5, #100]	; 0x64
  SPID1.txdmamode = STM32_DMA_CR_CHSEL(SPI1_TX_DMA_CHANNEL) |
 800b43a:	f241 0318 	movw	r3, #4120	; 0x1018
  SPID1.dmatx     = STM32_DMA_STREAM(STM32_SPI_SPI1_TX_DMA_STREAM);
 800b43e:	3f50      	subs	r7, #80	; 0x50
  SPID1.txdmamode = STM32_DMA_CR_CHSEL(SPI1_TX_DMA_CHANNEL) |
 800b440:	e9c5 031b 	strd	r0, r3, [r5, #108]	; 0x6c
    mutex->handle = xSemaphoreCreateMutexStatic(&mutex->staticData);
 800b444:	f8c5 800c 	str.w	r8, [r5, #12]
  SPID1.dmatx     = STM32_DMA_STREAM(STM32_SPI_SPI1_TX_DMA_STREAM);
 800b448:	66af      	str	r7, [r5, #104]	; 0x68
  usbp->state        = USB_STOP;
 800b44a:	4d67      	ldr	r5, [pc, #412]	; (800b5e8 <main+0x31c>)
    usbp->in_params[i]  = NULL;
 800b44c:	2238      	movs	r2, #56	; 0x38
  usbp->state        = USB_STOP;
 800b44e:	4628      	mov	r0, r5
    usbp->in_params[i]  = NULL;
 800b450:	2100      	movs	r1, #0
  usbp->state        = USB_STOP;
 800b452:	f800 6b2c 	strb.w	r6, [r0], #44
    usbp->in_params[i]  = NULL;
 800b456:	f000 f9e5 	bl	800b824 <memset>
/*
 * Board-specific initialization code.
 */
void boardInit(void) {
    /* Use SWD only */
    AFIO->MAPR = AFIO_MAPR_SWJ_CFG_JTAGDISABLE;
 800b45a:	f04f 7200 	mov.w	r2, #33554432	; 0x2000000
  WDGD1.state = WDG_STOP;
 800b45e:	4863      	ldr	r0, [pc, #396]	; (800b5ec <main+0x320>)
  WDGD1.wdg   = IWDG;
 800b460:	4b63      	ldr	r3, [pc, #396]	; (800b5f0 <main+0x324>)
  usbp->transmitting = 0;
 800b462:	e9c5 4401 	strd	r4, r4, [r5, #4]
 800b466:	6083      	str	r3, [r0, #8]
 800b468:	f503 4350 	add.w	r3, r3, #53248	; 0xd000
  WDGD1.state = WDG_STOP;
 800b46c:	7006      	strb	r6, [r0, #0]
 800b46e:	605a      	str	r2, [r3, #4]
  osalSysLock();
 800b470:	f7f9 f960 	bl	8004734 <vPortEnterCritical>
  osalDbgAssert((wdgp->state == WDG_STOP) || (wdgp->state == WDG_READY),
 800b474:	7803      	ldrb	r3, [r0, #0]
 800b476:	3b01      	subs	r3, #1
 800b478:	2b01      	cmp	r3, #1
 800b47a:	d902      	bls.n	800b482 <main+0x1b6>
 800b47c:	f7f9 f96a 	bl	8004754 <vTaskEndScheduler>
 800b480:	e7fe      	b.n	800b480 <main+0x1b4>
  wdgp->wdg->KR   = KR_KEY_WRITE;
 800b482:	f245 5255 	movw	r2, #21845	; 0x5555
  wdgp->config = config;
 800b486:	4b5b      	ldr	r3, [pc, #364]	; (800b5f4 <main+0x328>)
 800b488:	6043      	str	r3, [r0, #4]
 800b48a:	6883      	ldr	r3, [r0, #8]
 800b48c:	601a      	str	r2, [r3, #0]
  while (wdgp->wdg->SR != 0)
 800b48e:	68dc      	ldr	r4, [r3, #12]
 800b490:	2c00      	cmp	r4, #0
 800b492:	d1fc      	bne.n	800b48e <main+0x1c2>
  wdgp->wdg->PR   = wdgp->config->pr;
 800b494:	2206      	movs	r2, #6
 800b496:	605a      	str	r2, [r3, #4]
  wdgp->wdg->RLR  = wdgp->config->rlr;
 800b498:	f640 72ff 	movw	r2, #4095	; 0xfff
 800b49c:	609a      	str	r2, [r3, #8]
  wdgp->wdg->KR   = KR_KEY_RELOAD;
 800b49e:	f64a 22aa 	movw	r2, #43690	; 0xaaaa
 800b4a2:	601a      	str	r2, [r3, #0]
  wdgp->wdg->KR   = KR_KEY_ENABLE;
 800b4a4:	f64c 42cc 	movw	r2, #52428	; 0xcccc
  wdgp->state = WDG_READY;
 800b4a8:	2702      	movs	r7, #2

    /* Before anything else, start watchdog (~25 seconds timeout) */
    wdgStart(&WDGD1, &watchdogConfig);

    TaskHandle_t handle;
    xTaskCreate(runInThreadBody, "Init", 256, main_, 1, &handle);
 800b4aa:	2601      	movs	r6, #1
 800b4ac:	601a      	str	r2, [r3, #0]
 800b4ae:	7007      	strb	r7, [r0, #0]
  osalSysUnlock();
 800b4b0:	f7f9 fb64 	bl	8004b7c <osalSysUnlock.lto_priv.0>
 800b4b4:	ab05      	add	r3, sp, #20
 800b4b6:	9301      	str	r3, [sp, #4]
 800b4b8:	f44f 7280 	mov.w	r2, #256	; 0x100
 800b4bc:	4b4e      	ldr	r3, [pc, #312]	; (800b5f8 <main+0x32c>)
 800b4be:	494f      	ldr	r1, [pc, #316]	; (800b5fc <main+0x330>)
 800b4c0:	484f      	ldr	r0, [pc, #316]	; (800b600 <main+0x334>)
 800b4c2:	9600      	str	r6, [sp, #0]
 800b4c4:	f7fc fc1a 	bl	8007cfc <xTaskCreate.isra.0>
 800b4c8:	2368      	movs	r3, #104	; 0x68
 800b4ca:	9308      	str	r3, [sp, #32]
 800b4cc:	9b08      	ldr	r3, [sp, #32]
 800b4ce:	2b68      	cmp	r3, #104	; 0x68
 800b4d0:	d000      	beq.n	800b4d4 <main+0x208>
 800b4d2:	e7fe      	b.n	800b4d2 <main+0x206>
 800b4d4:	4d4b      	ldr	r5, [pc, #300]	; (800b604 <main+0x338>)
 800b4d6:	4b4c      	ldr	r3, [pc, #304]	; (800b608 <main+0x33c>)
 800b4d8:	f885 7065 	strb.w	r7, [r5, #101]	; 0x65
 800b4dc:	632b      	str	r3, [r5, #48]	; 0x30
 800b4de:	ab09      	add	r3, sp, #36	; 0x24
 800b4e0:	2278      	movs	r2, #120	; 0x78
 800b4e2:	e9cd 4300 	strd	r4, r3, [sp]
 800b4e6:	4949      	ldr	r1, [pc, #292]	; (800b60c <main+0x340>)
 800b4e8:	4623      	mov	r3, r4
 800b4ea:	4849      	ldr	r0, [pc, #292]	; (800b610 <main+0x344>)
 800b4ec:	9502      	str	r5, [sp, #8]
 800b4ee:	f7fc fbb7 	bl	8007c60 <prvInitialiseNewTask.constprop.0>
 800b4f2:	4628      	mov	r0, r5
 800b4f4:	f7f9 ff3e 	bl	8005374 <prvAddNewTaskToReadyList>
 800b4f8:	9b09      	ldr	r3, [sp, #36]	; 0x24
 800b4fa:	2b00      	cmp	r3, #0
 800b4fc:	f000 80a7 	beq.w	800b64e <main+0x382>
 800b500:	f7f9 f918 	bl	8004734 <vPortEnterCritical>
 800b504:	f04f 31ff 	mov.w	r1, #4294967295	; 0xffffffff
 800b508:	4b42      	ldr	r3, [pc, #264]	; (800b614 <main+0x348>)
 800b50a:	6019      	str	r1, [r3, #0]
 800b50c:	4b42      	ldr	r3, [pc, #264]	; (800b618 <main+0x34c>)
 800b50e:	601e      	str	r6, [r3, #0]
 800b510:	4b42      	ldr	r3, [pc, #264]	; (800b61c <main+0x350>)
 800b512:	601c      	str	r4, [r3, #0]
 800b514:	4b42      	ldr	r3, [pc, #264]	; (800b620 <main+0x354>)
 800b516:	781a      	ldrb	r2, [r3, #0]
 800b518:	b2d2      	uxtb	r2, r2
 800b51a:	9209      	str	r2, [sp, #36]	; 0x24
 800b51c:	7019      	strb	r1, [r3, #0]
 800b51e:	781b      	ldrb	r3, [r3, #0]
 800b520:	4a40      	ldr	r2, [pc, #256]	; (800b624 <main+0x358>)
 800b522:	b2db      	uxtb	r3, r3
 800b524:	f88d 3013 	strb.w	r3, [sp, #19]
 800b528:	f89d 3013 	ldrb.w	r3, [sp, #19]
 800b52c:	f003 03bf 	and.w	r3, r3, #191	; 0xbf
 800b530:	7013      	strb	r3, [r2, #0]
 800b532:	2307      	movs	r3, #7
 800b534:	4a3c      	ldr	r2, [pc, #240]	; (800b628 <main+0x35c>)
 800b536:	6013      	str	r3, [r2, #0]
 800b538:	f89d 1013 	ldrb.w	r1, [sp, #19]
 800b53c:	1e58      	subs	r0, r3, #1
 800b53e:	0609      	lsls	r1, r1, #24
 800b540:	d47c      	bmi.n	800b63c <main+0x370>
 800b542:	b104      	cbz	r4, 800b546 <main+0x27a>
 800b544:	6013      	str	r3, [r2, #0]
 800b546:	6813      	ldr	r3, [r2, #0]
 800b548:	f242 3128 	movw	r1, #9000	; 0x2328
 800b54c:	021b      	lsls	r3, r3, #8
 800b54e:	f403 63e0 	and.w	r3, r3, #1792	; 0x700
 800b552:	6013      	str	r3, [r2, #0]
 800b554:	9b09      	ldr	r3, [sp, #36]	; 0x24
 800b556:	4a32      	ldr	r2, [pc, #200]	; (800b620 <main+0x354>)
 800b558:	b2db      	uxtb	r3, r3
 800b55a:	7013      	strb	r3, [r2, #0]
 800b55c:	f04f 23e0 	mov.w	r3, #3758153728	; 0xe000e000
 800b560:	f8d3 2d20 	ldr.w	r2, [r3, #3360]	; 0xd20
 800b564:	f442 027f 	orr.w	r2, r2, #16711680	; 0xff0000
 800b568:	f8c3 2d20 	str.w	r2, [r3, #3360]	; 0xd20
 800b56c:	f8d3 2d20 	ldr.w	r2, [r3, #3360]	; 0xd20
 800b570:	f042 427f 	orr.w	r2, r2, #4278190080	; 0xff000000
 800b574:	f8c3 2d20 	str.w	r2, [r3, #3360]	; 0xd20
 800b578:	4a2c      	ldr	r2, [pc, #176]	; (800b62c <main+0x360>)
 800b57a:	6011      	str	r1, [r2, #0]
 800b57c:	f44f 61e9 	mov.w	r1, #1864	; 0x748
 800b580:	4a2b      	ldr	r2, [pc, #172]	; (800b630 <main+0x364>)
 800b582:	6011      	str	r1, [r2, #0]
 800b584:	2105      	movs	r1, #5
 800b586:	4a2b      	ldr	r2, [pc, #172]	; (800b634 <main+0x368>)
 800b588:	6011      	str	r1, [r2, #0]
 800b58a:	f242 3227 	movw	r2, #8999	; 0x2327
 800b58e:	615a      	str	r2, [r3, #20]
 800b590:	2203      	movs	r2, #3
 800b592:	611a      	str	r2, [r3, #16]
 800b594:	2200      	movs	r2, #0
 800b596:	4b28      	ldr	r3, [pc, #160]	; (800b638 <main+0x36c>)
 800b598:	601a      	str	r2, [r3, #0]
 800b59a:	f7f9 f8bb 	bl	8004714 <prvPortStartFirstTask>
 800b59e:	f7f9 fad5 	bl	8004b4c <prvTaskExitError>
 800b5a2:	bf00      	nop
 800b5a4:	40021000 	.word	0x40021000
 800b5a8:	40007000 	.word	0x40007000
 800b5ac:	20001044 	.word	0x20001044
 800b5b0:	20000fe8 	.word	0x20000fe8
 800b5b4:	0800c870 	.word	0x0800c870
 800b5b8:	40020000 	.word	0x40020000
 800b5bc:	20000934 	.word	0x20000934
 800b5c0:	40010800 	.word	0x40010800
 800b5c4:	88888288 	.word	0x88888288
 800b5c8:	40005400 	.word	0x40005400
 800b5cc:	0800c8e8 	.word	0x0800c8e8
 800b5d0:	0800cd18 	.word	0x0800cd18
 800b5d4:	200009bc 	.word	0x200009bc
 800b5d8:	08004159 	.word	0x08004159
 800b5dc:	20000ee0 	.word	0x20000ee0
 800b5e0:	40004800 	.word	0x40004800
 800b5e4:	40013000 	.word	0x40013000
 800b5e8:	20000f54 	.word	0x20000f54
 800b5ec:	20000fdc 	.word	0x20000fdc
 800b5f0:	40003000 	.word	0x40003000
 800b5f4:	0800cd68 	.word	0x0800cd68
 800b5f8:	0800a635 	.word	0x0800a635
 800b5fc:	0800c776 	.word	0x0800c776
 800b600:	08006171 	.word	0x08006171
 800b604:	20001588 	.word	0x20001588
 800b608:	200013a8 	.word	0x200013a8
 800b60c:	0800c3a4 	.word	0x0800c3a4
 800b610:	0800af29 	.word	0x0800af29
 800b614:	200015f8 	.word	0x200015f8
 800b618:	20001614 	.word	0x20001614
 800b61c:	20001648 	.word	0x20001648
 800b620:	e000e400 	.word	0xe000e400
 800b624:	20001340 	.word	0x20001340
 800b628:	20001344 	.word	0x20001344
 800b62c:	20001350 	.word	0x20001350
 800b630:	200015f0 	.word	0x200015f0
 800b634:	20001348 	.word	0x20001348
 800b638:	20001358 	.word	0x20001358
 800b63c:	f89d 3013 	ldrb.w	r3, [sp, #19]
 800b640:	2401      	movs	r4, #1
 800b642:	005b      	lsls	r3, r3, #1
 800b644:	b2db      	uxtb	r3, r3
 800b646:	f88d 3013 	strb.w	r3, [sp, #19]
 800b64a:	4603      	mov	r3, r0
 800b64c:	e774      	b.n	800b538 <main+0x26c>

    osalSysEnable();

    /* Does not happen */
    osalSysHalt("Return in main?");
 800b64e:	f7f9 f881 	bl	8004754 <vTaskEndScheduler>
 800b652:	e7fe      	b.n	800b652 <main+0x386>

0800b654 <vTaskSwitchContext>:
 800b654:	4b1e      	ldr	r3, [pc, #120]	; (800b6d0 <vTaskSwitchContext+0x7c>)
 800b656:	b530      	push	{r4, r5, lr}
 800b658:	681a      	ldr	r2, [r3, #0]
 800b65a:	4b1e      	ldr	r3, [pc, #120]	; (800b6d4 <vTaskSwitchContext+0x80>)
 800b65c:	b112      	cbz	r2, 800b664 <vTaskSwitchContext+0x10>
 800b65e:	2201      	movs	r2, #1
 800b660:	601a      	str	r2, [r3, #0]
 800b662:	bd30      	pop	{r4, r5, pc}
 800b664:	481c      	ldr	r0, [pc, #112]	; (800b6d8 <vTaskSwitchContext+0x84>)
 800b666:	601a      	str	r2, [r3, #0]
 800b668:	6803      	ldr	r3, [r0, #0]
 800b66a:	6b1b      	ldr	r3, [r3, #48]	; 0x30
 800b66c:	681a      	ldr	r2, [r3, #0]
 800b66e:	f1b2 3fa5 	cmp.w	r2, #2779096485	; 0xa5a5a5a5
 800b672:	d10b      	bne.n	800b68c <vTaskSwitchContext+0x38>
 800b674:	685a      	ldr	r2, [r3, #4]
 800b676:	f1b2 3fa5 	cmp.w	r2, #2779096485	; 0xa5a5a5a5
 800b67a:	d107      	bne.n	800b68c <vTaskSwitchContext+0x38>
 800b67c:	689a      	ldr	r2, [r3, #8]
 800b67e:	f1b2 3fa5 	cmp.w	r2, #2779096485	; 0xa5a5a5a5
 800b682:	d103      	bne.n	800b68c <vTaskSwitchContext+0x38>
 800b684:	68db      	ldr	r3, [r3, #12]
 800b686:	f1b3 3fa5 	cmp.w	r3, #2779096485	; 0xa5a5a5a5
 800b68a:	d002      	beq.n	800b692 <vTaskSwitchContext+0x3e>
 800b68c:	6803      	ldr	r3, [r0, #0]
 800b68e:	6803      	ldr	r3, [r0, #0]
 800b690:	e7fe      	b.n	800b690 <vTaskSwitchContext+0x3c>
 800b692:	4b12      	ldr	r3, [pc, #72]	; (800b6dc <vTaskSwitchContext+0x88>)
 800b694:	681a      	ldr	r2, [r3, #0]
 800b696:	fab2 f282 	clz	r2, r2
 800b69a:	2314      	movs	r3, #20
 800b69c:	b2d2      	uxtb	r2, r2
 800b69e:	f1c2 021f 	rsb	r2, r2, #31
 800b6a2:	4353      	muls	r3, r2
 800b6a4:	490e      	ldr	r1, [pc, #56]	; (800b6e0 <vTaskSwitchContext+0x8c>)
 800b6a6:	58cd      	ldr	r5, [r1, r3]
 800b6a8:	18cc      	adds	r4, r1, r3
 800b6aa:	b905      	cbnz	r5, 800b6ae <vTaskSwitchContext+0x5a>
 800b6ac:	e7fe      	b.n	800b6ac <vTaskSwitchContext+0x58>
 800b6ae:	6865      	ldr	r5, [r4, #4]
 800b6b0:	3308      	adds	r3, #8
 800b6b2:	686d      	ldr	r5, [r5, #4]
 800b6b4:	440b      	add	r3, r1
 800b6b6:	429d      	cmp	r5, r3
 800b6b8:	bf08      	it	eq
 800b6ba:	686b      	ldreq	r3, [r5, #4]
 800b6bc:	6065      	str	r5, [r4, #4]
 800b6be:	bf08      	it	eq
 800b6c0:	6063      	streq	r3, [r4, #4]
 800b6c2:	2314      	movs	r3, #20
 800b6c4:	fb03 1202 	mla	r2, r3, r2, r1
 800b6c8:	6853      	ldr	r3, [r2, #4]
 800b6ca:	68db      	ldr	r3, [r3, #12]
 800b6cc:	6003      	str	r3, [r0, #0]
 800b6ce:	e7c8      	b.n	800b662 <vTaskSwitchContext+0xe>
 800b6d0:	2000136c 	.word	0x2000136c
 800b6d4:	2000164c 	.word	0x2000164c
 800b6d8:	200011a8 	.word	0x200011a8
 800b6dc:	20001374 	.word	0x20001374
 800b6e0:	200011b8 	.word	0x200011b8

0800b6e4 <mixLedTask>:
{
 800b6e4:	4605      	mov	r5, r0
 800b6e6:	b580      	push	{r7, lr}
 800b6e8:	4e45      	ldr	r6, [pc, #276]	; (800b800 <mixLedTask+0x11c>)
 800b6ea:	4f46      	ldr	r7, [pc, #280]	; (800b804 <mixLedTask+0x120>)
        gpioSetPin(GPIO_LED_MIX, true);
 800b6ec:	2101      	movs	r1, #1
 800b6ee:	f240 1005 	movw	r0, #261	; 0x105
 800b6f2:	f7fb ff25 	bl	8007540 <gpioSetPin.isra.0>
        if(!*delay) {
 800b6f6:	682b      	ldr	r3, [r5, #0]
 800b6f8:	2b00      	cmp	r3, #0
 800b6fa:	d165      	bne.n	800b7c8 <mixLedTask+0xe4>
 800b6fc:	f7f9 f81a 	bl	8004734 <vPortEnterCritical>
 800b700:	6834      	ldr	r4, [r6, #0]
 800b702:	f104 0804 	add.w	r8, r4, #4
 800b706:	4640      	mov	r0, r8
 800b708:	f7f9 feff 	bl	800550a <uxListRemove>
 800b70c:	b978      	cbnz	r0, 800b72e <mixLedTask+0x4a>
 800b70e:	2014      	movs	r0, #20
 800b710:	f8d4 c02c 	ldr.w	ip, [r4, #44]	; 0x2c
 800b714:	4b3c      	ldr	r3, [pc, #240]	; (800b808 <mixLedTask+0x124>)
 800b716:	fb00 f00c 	mul.w	r0, r0, ip
 800b71a:	581b      	ldr	r3, [r3, r0]
 800b71c:	b93b      	cbnz	r3, 800b72e <mixLedTask+0x4a>
 800b71e:	2201      	movs	r2, #1
 800b720:	493a      	ldr	r1, [pc, #232]	; (800b80c <mixLedTask+0x128>)
 800b722:	fa02 f20c 	lsl.w	r2, r2, ip
 800b726:	680b      	ldr	r3, [r1, #0]
 800b728:	ea23 0302 	bic.w	r3, r3, r2
 800b72c:	600b      	str	r3, [r1, #0]
 800b72e:	6aa3      	ldr	r3, [r4, #40]	; 0x28
 800b730:	b11b      	cbz	r3, 800b73a <mixLedTask+0x56>
 800b732:	f104 0018 	add.w	r0, r4, #24
 800b736:	f7f9 fee8 	bl	800550a <uxListRemove>
 800b73a:	4638      	mov	r0, r7
 800b73c:	4641      	mov	r1, r8
 800b73e:	f7f9 fe0c 	bl	800535a <vListInsertEnd>
 800b742:	f894 3064 	ldrb.w	r3, [r4, #100]	; 0x64
 800b746:	4832      	ldr	r0, [pc, #200]	; (800b810 <mixLedTask+0x12c>)
 800b748:	2b01      	cmp	r3, #1
 800b74a:	bf04      	itt	eq
 800b74c:	2300      	moveq	r3, #0
 800b74e:	f884 3064 	strbeq.w	r3, [r4, #100]	; 0x64
 800b752:	f7f9 fa07 	bl	8004b64 <vPortExitCritical>
 800b756:	6803      	ldr	r3, [r0, #0]
 800b758:	b12b      	cbz	r3, 800b766 <mixLedTask+0x82>
 800b75a:	f7f8 ffeb 	bl	8004734 <vPortEnterCritical>
 800b75e:	f7f8 ffad 	bl	80046bc <prvResetNextTaskUnblockTime>
 800b762:	f7f9 f9ff 	bl	8004b64 <vPortExitCritical>
 800b766:	6833      	ldr	r3, [r6, #0]
 800b768:	429c      	cmp	r4, r3
 800b76a:	d1bf      	bne.n	800b6ec <mixLedTask+0x8>
 800b76c:	6803      	ldr	r3, [r0, #0]
 800b76e:	b30b      	cbz	r3, 800b7b4 <mixLedTask+0xd0>
 800b770:	4b28      	ldr	r3, [pc, #160]	; (800b814 <mixLedTask+0x130>)
 800b772:	681b      	ldr	r3, [r3, #0]
 800b774:	b103      	cbz	r3, 800b778 <mixLedTask+0x94>
 800b776:	e7fe      	b.n	800b776 <mixLedTask+0x92>
 800b778:	f04f 23e0 	mov.w	r3, #3758153728	; 0xe000e000
 800b77c:	4a26      	ldr	r2, [pc, #152]	; (800b818 <mixLedTask+0x134>)
 800b77e:	f8d3 1d20 	ldr.w	r1, [r3, #3360]	; 0xd20
 800b782:	6011      	str	r1, [r2, #0]
 800b784:	4a25      	ldr	r2, [pc, #148]	; (800b81c <mixLedTask+0x138>)
 800b786:	6812      	ldr	r2, [r2, #0]
 800b788:	b14a      	cbz	r2, 800b79e <mixLedTask+0xba>
 800b78a:	f8d3 2d20 	ldr.w	r2, [r3, #3360]	; 0xd20
 800b78e:	f422 027f 	bic.w	r2, r2, #16711680	; 0xff0000
 800b792:	f8c3 2d20 	str.w	r2, [r3, #3360]	; 0xd20
 800b796:	f8d3 2d20 	ldr.w	r2, [r3, #3360]	; 0xd20
 800b79a:	f8c3 2d20 	str.w	r2, [r3, #3360]	; 0xd20
 800b79e:	f04f 23e0 	mov.w	r3, #3758153728	; 0xe000e000
 800b7a2:	f04f 5280 	mov.w	r2, #268435456	; 0x10000000
 800b7a6:	f8c3 2d04 	str.w	r2, [r3, #3332]	; 0xd04
 800b7aa:	f3bf 8f4f 	dsb	sy
 800b7ae:	f3bf 8f6f 	isb	sy
 800b7b2:	e79b      	b.n	800b6ec <mixLedTask+0x8>
 800b7b4:	4a1a      	ldr	r2, [pc, #104]	; (800b820 <mixLedTask+0x13c>)
 800b7b6:	6839      	ldr	r1, [r7, #0]
 800b7b8:	6812      	ldr	r2, [r2, #0]
 800b7ba:	4291      	cmp	r1, r2
 800b7bc:	d101      	bne.n	800b7c2 <mixLedTask+0xde>
 800b7be:	6033      	str	r3, [r6, #0]
 800b7c0:	e794      	b.n	800b6ec <mixLedTask+0x8>
 800b7c2:	f7ff ff47 	bl	800b654 <vTaskSwitchContext>
 800b7c6:	e791      	b.n	800b6ec <mixLedTask+0x8>
        osalThreadSleepMilliseconds(*delay);
 800b7c8:	f44f 747a 	mov.w	r4, #1000	; 0x3e8
 800b7cc:	6828      	ldr	r0, [r5, #0]
 800b7ce:	4360      	muls	r0, r4
 800b7d0:	f200 30e7 	addw	r0, r0, #999	; 0x3e7
 800b7d4:	fbb0 f0f4 	udiv	r0, r0, r4
 800b7d8:	f7fa fb94 	bl	8005f04 <vTaskDelay>
        gpioSetPin(GPIO_LED_MIX, false);
 800b7dc:	2100      	movs	r1, #0
 800b7de:	f240 1005 	movw	r0, #261	; 0x105
 800b7e2:	f7fb fead 	bl	8007540 <gpioSetPin.isra.0>
        if(*delay) {
 800b7e6:	682b      	ldr	r3, [r5, #0]
 800b7e8:	2b00      	cmp	r3, #0
 800b7ea:	f43f af7f 	beq.w	800b6ec <mixLedTask+0x8>
            osalThreadSleepMilliseconds(*delay);
 800b7ee:	6828      	ldr	r0, [r5, #0]
 800b7f0:	4360      	muls	r0, r4
 800b7f2:	f200 30e7 	addw	r0, r0, #999	; 0x3e7
 800b7f6:	fbb0 f0f4 	udiv	r0, r0, r4
 800b7fa:	f7fa fb83 	bl	8005f04 <vTaskDelay>
 800b7fe:	e775      	b.n	800b6ec <mixLedTask+0x8>
 800b800:	200011a8 	.word	0x200011a8
 800b804:	20001620 	.word	0x20001620
 800b808:	200011b8 	.word	0x200011b8
 800b80c:	20001374 	.word	0x20001374
 800b810:	20001614 	.word	0x20001614
 800b814:	2000136c 	.word	0x2000136c
 800b818:	2000134c 	.word	0x2000134c
 800b81c:	20001358 	.word	0x20001358
 800b820:	2000135c 	.word	0x2000135c

0800b824 <memset>:
 800b824:	0783      	lsls	r3, r0, #30
 800b826:	b530      	push	{r4, r5, lr}
 800b828:	d048      	beq.n	800b8bc <memset+0x98>
 800b82a:	1e54      	subs	r4, r2, #1
 800b82c:	2a00      	cmp	r2, #0
 800b82e:	d03f      	beq.n	800b8b0 <memset+0x8c>
 800b830:	4603      	mov	r3, r0
 800b832:	b2ca      	uxtb	r2, r1
 800b834:	e001      	b.n	800b83a <memset+0x16>
 800b836:	3c01      	subs	r4, #1
 800b838:	d33a      	bcc.n	800b8b0 <memset+0x8c>
 800b83a:	f803 2b01 	strb.w	r2, [r3], #1
 800b83e:	079d      	lsls	r5, r3, #30
 800b840:	d1f9      	bne.n	800b836 <memset+0x12>
 800b842:	2c03      	cmp	r4, #3
 800b844:	d92d      	bls.n	800b8a2 <memset+0x7e>
 800b846:	b2cd      	uxtb	r5, r1
 800b848:	ea45 2505 	orr.w	r5, r5, r5, lsl #8
 800b84c:	2c0f      	cmp	r4, #15
 800b84e:	ea45 4505 	orr.w	r5, r5, r5, lsl #16
 800b852:	d936      	bls.n	800b8c2 <memset+0x9e>
 800b854:	f1a4 0210 	sub.w	r2, r4, #16
 800b858:	f022 0c0f 	bic.w	ip, r2, #15
 800b85c:	f103 0e20 	add.w	lr, r3, #32
 800b860:	44e6      	add	lr, ip
 800b862:	ea4f 1c12 	mov.w	ip, r2, lsr #4
 800b866:	f103 0210 	add.w	r2, r3, #16
 800b86a:	e942 5504 	strd	r5, r5, [r2, #-16]
 800b86e:	e942 5502 	strd	r5, r5, [r2, #-8]
 800b872:	3210      	adds	r2, #16
 800b874:	4572      	cmp	r2, lr
 800b876:	d1f8      	bne.n	800b86a <memset+0x46>
 800b878:	f10c 0201 	add.w	r2, ip, #1
 800b87c:	f014 0f0c 	tst.w	r4, #12
 800b880:	eb03 1202 	add.w	r2, r3, r2, lsl #4
 800b884:	f004 0c0f 	and.w	ip, r4, #15
 800b888:	d013      	beq.n	800b8b2 <memset+0x8e>
 800b88a:	f1ac 0304 	sub.w	r3, ip, #4
 800b88e:	f023 0303 	bic.w	r3, r3, #3
 800b892:	3304      	adds	r3, #4
 800b894:	4413      	add	r3, r2
 800b896:	f842 5b04 	str.w	r5, [r2], #4
 800b89a:	4293      	cmp	r3, r2
 800b89c:	d1fb      	bne.n	800b896 <memset+0x72>
 800b89e:	f00c 0403 	and.w	r4, ip, #3
 800b8a2:	b12c      	cbz	r4, 800b8b0 <memset+0x8c>
 800b8a4:	b2ca      	uxtb	r2, r1
 800b8a6:	441c      	add	r4, r3
 800b8a8:	f803 2b01 	strb.w	r2, [r3], #1
 800b8ac:	429c      	cmp	r4, r3
 800b8ae:	d1fb      	bne.n	800b8a8 <memset+0x84>
 800b8b0:	bd30      	pop	{r4, r5, pc}
 800b8b2:	4664      	mov	r4, ip
 800b8b4:	4613      	mov	r3, r2
 800b8b6:	2c00      	cmp	r4, #0
 800b8b8:	d1f4      	bne.n	800b8a4 <memset+0x80>
 800b8ba:	e7f9      	b.n	800b8b0 <memset+0x8c>
 800b8bc:	4603      	mov	r3, r0
 800b8be:	4614      	mov	r4, r2
 800b8c0:	e7bf      	b.n	800b842 <memset+0x1e>
 800b8c2:	461a      	mov	r2, r3
 800b8c4:	46a4      	mov	ip, r4
 800b8c6:	e7e0      	b.n	800b88a <memset+0x66>

0800b8c8 <strchr>:
 800b8c8:	f011 01ff 	ands.w	r1, r1, #255	; 0xff
 800b8cc:	4603      	mov	r3, r0
 800b8ce:	f000 0203 	and.w	r2, r0, #3
 800b8d2:	d043      	beq.n	800b95c <strchr+0x94>
 800b8d4:	bb92      	cbnz	r2, 800b93c <strchr+0x74>
 800b8d6:	b510      	push	{r4, lr}
 800b8d8:	6804      	ldr	r4, [r0, #0]
 800b8da:	ea41 2e01 	orr.w	lr, r1, r1, lsl #8
 800b8de:	ea4e 4e0e 	orr.w	lr, lr, lr, lsl #16
 800b8e2:	ea8e 0204 	eor.w	r2, lr, r4
 800b8e6:	f1a2 3301 	sub.w	r3, r2, #16843009	; 0x1010101
 800b8ea:	ea23 0302 	bic.w	r3, r3, r2
 800b8ee:	f1a4 3201 	sub.w	r2, r4, #16843009	; 0x1010101
 800b8f2:	ea22 0204 	bic.w	r2, r2, r4
 800b8f6:	4313      	orrs	r3, r2
 800b8f8:	f013 3f80 	tst.w	r3, #2155905152	; 0x80808080
 800b8fc:	d10f      	bne.n	800b91e <strchr+0x56>
 800b8fe:	f850 4f04 	ldr.w	r4, [r0, #4]!
 800b902:	ea84 0c0e 	eor.w	ip, r4, lr
 800b906:	f1a4 3301 	sub.w	r3, r4, #16843009	; 0x1010101
 800b90a:	f1ac 3201 	sub.w	r2, ip, #16843009	; 0x1010101
 800b90e:	ea23 0304 	bic.w	r3, r3, r4
 800b912:	ea22 020c 	bic.w	r2, r2, ip
 800b916:	4313      	orrs	r3, r2
 800b918:	f013 3f80 	tst.w	r3, #2155905152	; 0x80808080
 800b91c:	d0ef      	beq.n	800b8fe <strchr+0x36>
 800b91e:	7803      	ldrb	r3, [r0, #0]
 800b920:	b923      	cbnz	r3, 800b92c <strchr+0x64>
 800b922:	e036      	b.n	800b992 <strchr+0xca>
 800b924:	f810 3f01 	ldrb.w	r3, [r0, #1]!
 800b928:	2b00      	cmp	r3, #0
 800b92a:	d032      	beq.n	800b992 <strchr+0xca>
 800b92c:	4299      	cmp	r1, r3
 800b92e:	d1f9      	bne.n	800b924 <strchr+0x5c>
 800b930:	bd10      	pop	{r4, pc}
 800b932:	428a      	cmp	r2, r1
 800b934:	d011      	beq.n	800b95a <strchr+0x92>
 800b936:	079a      	lsls	r2, r3, #30
 800b938:	4618      	mov	r0, r3
 800b93a:	d0cc      	beq.n	800b8d6 <strchr+0xe>
 800b93c:	4618      	mov	r0, r3
 800b93e:	f813 2b01 	ldrb.w	r2, [r3], #1
 800b942:	2a00      	cmp	r2, #0
 800b944:	d1f5      	bne.n	800b932 <strchr+0x6a>
 800b946:	4610      	mov	r0, r2
 800b948:	4770      	bx	lr
 800b94a:	0799      	lsls	r1, r3, #30
 800b94c:	4618      	mov	r0, r3
 800b94e:	d007      	beq.n	800b960 <strchr+0x98>
 800b950:	4618      	mov	r0, r3
 800b952:	7802      	ldrb	r2, [r0, #0]
 800b954:	3301      	adds	r3, #1
 800b956:	2a00      	cmp	r2, #0
 800b958:	d1f7      	bne.n	800b94a <strchr+0x82>
 800b95a:	4770      	bx	lr
 800b95c:	2a00      	cmp	r2, #0
 800b95e:	d1f7      	bne.n	800b950 <strchr+0x88>
 800b960:	6802      	ldr	r2, [r0, #0]
 800b962:	f1a2 3301 	sub.w	r3, r2, #16843009	; 0x1010101
 800b966:	ea23 0302 	bic.w	r3, r3, r2
 800b96a:	f013 3f80 	tst.w	r3, #2155905152	; 0x80808080
 800b96e:	d108      	bne.n	800b982 <strchr+0xba>
 800b970:	f850 2f04 	ldr.w	r2, [r0, #4]!
 800b974:	f1a2 3301 	sub.w	r3, r2, #16843009	; 0x1010101
 800b978:	ea23 0302 	bic.w	r3, r3, r2
 800b97c:	f013 3f80 	tst.w	r3, #2155905152	; 0x80808080
 800b980:	d0f6      	beq.n	800b970 <strchr+0xa8>
 800b982:	7803      	ldrb	r3, [r0, #0]
 800b984:	2b00      	cmp	r3, #0
 800b986:	d0e8      	beq.n	800b95a <strchr+0x92>
 800b988:	f810 3f01 	ldrb.w	r3, [r0, #1]!
 800b98c:	2b00      	cmp	r3, #0
 800b98e:	d1fb      	bne.n	800b988 <strchr+0xc0>
 800b990:	4770      	bx	lr
 800b992:	4618      	mov	r0, r3
 800b994:	bd10      	pop	{r4, pc}
 800b996:	bf00      	nop

0800b998 <strlen>:
 800b998:	f020 0103 	bic.w	r1, r0, #3
 800b99c:	f010 0003 	ands.w	r0, r0, #3
 800b9a0:	f1c0 0000 	rsb	r0, r0, #0
 800b9a4:	f851 3b04 	ldr.w	r3, [r1], #4
 800b9a8:	f100 0c04 	add.w	ip, r0, #4
 800b9ac:	ea4f 0ccc 	mov.w	ip, ip, lsl #3
 800b9b0:	f06f 0200 	mvn.w	r2, #0
 800b9b4:	bf1c      	itt	ne
 800b9b6:	fa22 f20c 	lsrne.w	r2, r2, ip
 800b9ba:	4313      	orrne	r3, r2
 800b9bc:	f04f 0c01 	mov.w	ip, #1
 800b9c0:	ea4c 2c0c 	orr.w	ip, ip, ip, lsl #8
 800b9c4:	ea4c 4c0c 	orr.w	ip, ip, ip, lsl #16
 800b9c8:	eba3 020c 	sub.w	r2, r3, ip
 800b9cc:	ea22 0203 	bic.w	r2, r2, r3
 800b9d0:	ea12 12cc 	ands.w	r2, r2, ip, lsl #7
 800b9d4:	bf04      	itt	eq
 800b9d6:	f851 3b04 	ldreq.w	r3, [r1], #4
 800b9da:	3004      	addeq	r0, #4
 800b9dc:	d0f4      	beq.n	800b9c8 <strlen+0x30>
 800b9de:	f1c2 0100 	rsb	r1, r2, #0
 800b9e2:	ea02 0201 	and.w	r2, r2, r1
 800b9e6:	fab2 f282 	clz	r2, r2
 800b9ea:	f1c2 021f 	rsb	r2, r2, #31
 800b9ee:	eb00 00d2 	add.w	r0, r0, r2, lsr #3
 800b9f2:	4770      	bx	lr

0800b9f4 <strpbrk>:
 800b9f4:	4684      	mov	ip, r0
 800b9f6:	7800      	ldrb	r0, [r0, #0]
 800b9f8:	b1b8      	cbz	r0, 800ba2a <strpbrk+0x36>
 800b9fa:	b500      	push	{lr}
 800b9fc:	468e      	mov	lr, r1
 800b9fe:	7809      	ldrb	r1, [r1, #0]
 800ba00:	4672      	mov	r2, lr
 800ba02:	460b      	mov	r3, r1
 800ba04:	b919      	cbnz	r1, 800ba0e <strpbrk+0x1a>
 800ba06:	e00b      	b.n	800ba20 <strpbrk+0x2c>
 800ba08:	f812 3f01 	ldrb.w	r3, [r2, #1]!
 800ba0c:	b143      	cbz	r3, 800ba20 <strpbrk+0x2c>
 800ba0e:	4298      	cmp	r0, r3
 800ba10:	d1fa      	bne.n	800ba08 <strpbrk+0x14>
 800ba12:	7813      	ldrb	r3, [r2, #0]
 800ba14:	2b00      	cmp	r3, #0
 800ba16:	bf14      	ite	ne
 800ba18:	4660      	movne	r0, ip
 800ba1a:	2000      	moveq	r0, #0
 800ba1c:	f85d fb04 	ldr.w	pc, [sp], #4
 800ba20:	f81c 0f01 	ldrb.w	r0, [ip, #1]!
 800ba24:	2800      	cmp	r0, #0
 800ba26:	d1eb      	bne.n	800ba00 <strpbrk+0xc>
 800ba28:	e7f3      	b.n	800ba12 <strpbrk+0x1e>
 800ba2a:	4770      	bx	lr

0800ba2c <strspn>:
 800ba2c:	b510      	push	{r4, lr}
 800ba2e:	468e      	mov	lr, r1
 800ba30:	7801      	ldrb	r1, [r0, #0]
 800ba32:	b199      	cbz	r1, 800ba5c <strspn+0x30>
 800ba34:	4604      	mov	r4, r0
 800ba36:	4684      	mov	ip, r0
 800ba38:	f89e 0000 	ldrb.w	r0, [lr]
 800ba3c:	b158      	cbz	r0, 800ba56 <strspn+0x2a>
 800ba3e:	4672      	mov	r2, lr
 800ba40:	4603      	mov	r3, r0
 800ba42:	e002      	b.n	800ba4a <strspn+0x1e>
 800ba44:	f812 3f01 	ldrb.w	r3, [r2, #1]!
 800ba48:	b12b      	cbz	r3, 800ba56 <strspn+0x2a>
 800ba4a:	428b      	cmp	r3, r1
 800ba4c:	d1fa      	bne.n	800ba44 <strspn+0x18>
 800ba4e:	f81c 1f01 	ldrb.w	r1, [ip, #1]!
 800ba52:	2900      	cmp	r1, #0
 800ba54:	d1f2      	bne.n	800ba3c <strspn+0x10>
 800ba56:	ebac 0004 	sub.w	r0, ip, r4
 800ba5a:	bd10      	pop	{r4, pc}
 800ba5c:	4608      	mov	r0, r1
 800ba5e:	bd10      	pop	{r4, pc}
