
build/esense.elf:     file format elf32-littlearm


Disassembly of section .text:

08002160 <Reset_Handler>:
 8002160:	b672      	cpsid	i
 8002162:	4826      	ldr	r0, [pc, #152]	; (80021fc <endfiniloop+0x6>)
 8002164:	f380 8809 	msr	PSP, r0
 8002168:	4825      	ldr	r0, [pc, #148]	; (8002200 <endfiniloop+0xa>)
 800216a:	f64e 5108 	movw	r1, #60680	; 0xed08
 800216e:	f2ce 0100 	movt	r1, #57344	; 0xe000
 8002172:	6008      	str	r0, [r1, #0]
 8002174:	2002      	movs	r0, #2
 8002176:	f380 8814 	msr	CONTROL, r0
 800217a:	f3bf 8f6f 	isb	sy
 800217e:	f009 fb75 	bl	800b86c <__core_init>
 8002182:	f009 fb0b 	bl	800b79c <__early_init>
 8002186:	f04f 3055 	mov.w	r0, #1431655765	; 0x55555555
 800218a:	491e      	ldr	r1, [pc, #120]	; (8002204 <endfiniloop+0xe>)
 800218c:	4a1e      	ldr	r2, [pc, #120]	; (8002208 <endfiniloop+0x12>)

0800218e <msloop>:
 800218e:	4291      	cmp	r1, r2
 8002190:	bf3c      	itt	cc
 8002192:	f841 0b04 	strcc.w	r0, [r1], #4
 8002196:	e7fa      	bcc.n	800218e <msloop>
 8002198:	491c      	ldr	r1, [pc, #112]	; (800220c <endfiniloop+0x16>)
 800219a:	4a18      	ldr	r2, [pc, #96]	; (80021fc <endfiniloop+0x6>)

0800219c <psloop>:
 800219c:	4291      	cmp	r1, r2
 800219e:	bf3c      	itt	cc
 80021a0:	f841 0b04 	strcc.w	r0, [r1], #4
 80021a4:	e7fa      	bcc.n	800219c <psloop>
 80021a6:	491a      	ldr	r1, [pc, #104]	; (8002210 <endfiniloop+0x1a>)
 80021a8:	4a1a      	ldr	r2, [pc, #104]	; (8002214 <endfiniloop+0x1e>)
 80021aa:	4b1b      	ldr	r3, [pc, #108]	; (8002218 <endfiniloop+0x22>)

080021ac <dloop>:
 80021ac:	429a      	cmp	r2, r3
 80021ae:	bf3e      	ittt	cc
 80021b0:	f851 0b04 	ldrcc.w	r0, [r1], #4
 80021b4:	f842 0b04 	strcc.w	r0, [r2], #4
 80021b8:	e7f8      	bcc.n	80021ac <dloop>
 80021ba:	2000      	movs	r0, #0
 80021bc:	4917      	ldr	r1, [pc, #92]	; (800221c <endfiniloop+0x26>)
 80021be:	4a18      	ldr	r2, [pc, #96]	; (8002220 <endfiniloop+0x2a>)

080021c0 <bloop>:
 80021c0:	4291      	cmp	r1, r2
 80021c2:	bf3c      	itt	cc
 80021c4:	f841 0b04 	strcc.w	r0, [r1], #4
 80021c8:	e7fa      	bcc.n	80021c0 <bloop>
 80021ca:	f009 fb27 	bl	800b81c <__init_ram_areas>
 80021ce:	f009 fb4c 	bl	800b86a <__late_init>
 80021d2:	4c14      	ldr	r4, [pc, #80]	; (8002224 <endfiniloop+0x2e>)
 80021d4:	4d14      	ldr	r5, [pc, #80]	; (8002228 <endfiniloop+0x32>)

080021d6 <initloop>:
 80021d6:	42ac      	cmp	r4, r5
 80021d8:	da03      	bge.n	80021e2 <endinitloop>
 80021da:	f854 1b04 	ldr.w	r1, [r4], #4
 80021de:	4788      	blx	r1
 80021e0:	e7f9      	b.n	80021d6 <initloop>

080021e2 <endinitloop>:
 80021e2:	f009 f935 	bl	800b450 <main>
 80021e6:	4c11      	ldr	r4, [pc, #68]	; (800222c <endfiniloop+0x36>)
 80021e8:	4d11      	ldr	r5, [pc, #68]	; (8002230 <endfiniloop+0x3a>)

080021ea <finiloop>:
 80021ea:	42ac      	cmp	r4, r5
 80021ec:	da03      	bge.n	80021f6 <endfiniloop>
 80021ee:	f854 1b04 	ldr.w	r1, [r4], #4
 80021f2:	4788      	blx	r1
 80021f4:	e7f9      	b.n	80021ea <finiloop>

080021f6 <endfiniloop>:
 80021f6:	f009 bb37 	b.w	800b868 <__default_exit>
 80021fa:	0000      	.short	0x0000
 80021fc:	20000800 	.word	0x20000800
 8002200:	08002000 	.word	0x08002000
 8002204:	20000000 	.word	0x20000000
 8002208:	20000400 	.word	0x20000400
 800220c:	20000400 	.word	0x20000400
 8002210:	0800cbb0 	.word	0x0800cbb0
 8002214:	20000800 	.word	0x20000800
 8002218:	20000928 	.word	0x20000928
 800221c:	20000928 	.word	0x20000928
 8002220:	20001650 	.word	0x20001650
 8002224:	08002160 	.word	0x08002160
 8002228:	08002160 	.word	0x08002160
 800222c:	08002160 	.word	0x08002160
 8002230:	08002160 	.word	0x08002160

08002234 <_binary_data_license_bin_start>:
 8002234:	2a2a2a2a 	.word	0x2a2a2a2a
 8002238:	2a2a2a2a 	.word	0x2a2a2a2a
 800223c:	2a2a2a2a 	.word	0x2a2a2a2a
 8002240:	2a2a2a2a 	.word	0x2a2a2a2a
 8002244:	2a2a2a2a 	.word	0x2a2a2a2a
 8002248:	2a2a2a2a 	.word	0x2a2a2a2a
 800224c:	2a2a2a2a 	.word	0x2a2a2a2a
 8002250:	2a2a2a2a 	.word	0x2a2a2a2a
 8002254:	2a2a2a2a 	.word	0x2a2a2a2a
 8002258:	2a2a2a2a 	.word	0x2a2a2a2a
 800225c:	2a2a2a2a 	.word	0x2a2a2a2a
 8002260:	2a2a2a2a 	.word	0x2a2a2a2a
 8002264:	2a2a2a2a 	.word	0x2a2a2a2a
 8002268:	2a2a2a2a 	.word	0x2a2a2a2a
 800226c:	2a2a2a2a 	.word	0x2a2a2a2a
 8002270:	2a2a2a2a 	.word	0x2a2a2a2a
 8002274:	2a2a2a2a 	.word	0x2a2a2a2a
 8002278:	2a2a2a2a 	.word	0x2a2a2a2a
 800227c:	2a2a2a2a 	.word	0x2a2a2a2a
 8002280:	2a2a2a2a 	.word	0x2a2a2a2a
 8002284:	0a0d2a2a 	.word	0x0a0d2a2a
 8002288:	65657246 	.word	0x65657246
 800228c:	534f5452 	.word	0x534f5452
 8002290:	72654b20 	.word	0x72654b20
 8002294:	206c656e 	.word	0x206c656e
 8002298:	2e303156 	.word	0x2e303156
 800229c:	0d302e30 	.word	0x0d302e30
 80022a0:	706f430a 	.word	0x706f430a
 80022a4:	67697279 	.word	0x67697279
 80022a8:	28207468 	.word	0x28207468
 80022ac:	32202943 	.word	0x32202943
 80022b0:	20373130 	.word	0x20373130
 80022b4:	7a616d41 	.word	0x7a616d41
 80022b8:	632e6e6f 	.word	0x632e6e6f
 80022bc:	202c6d6f 	.word	0x202c6d6f
 80022c0:	2e636e49 	.word	0x2e636e49
 80022c4:	20726f20 	.word	0x20726f20
 80022c8:	20737469 	.word	0x20737469
 80022cc:	69666661 	.word	0x69666661
 80022d0:	7461696c 	.word	0x7461696c
 80022d4:	202e7365 	.word	0x202e7365
 80022d8:	6c6c4120 	.word	0x6c6c4120
 80022dc:	67695220 	.word	0x67695220
 80022e0:	20737468 	.word	0x20737468
 80022e4:	65736552 	.word	0x65736552
 80022e8:	64657672 	.word	0x64657672
 80022ec:	0d0a0d2e 	.word	0x0d0a0d2e
 80022f0:	7265500a 	.word	0x7265500a
 80022f4:	7373696d 	.word	0x7373696d
 80022f8:	206e6f69 	.word	0x206e6f69
 80022fc:	68207369 	.word	0x68207369
 8002300:	62657265 	.word	0x62657265
 8002304:	72672079 	.word	0x72672079
 8002308:	65746e61 	.word	0x65746e61
 800230c:	66202c64 	.word	0x66202c64
 8002310:	20656572 	.word	0x20656572
 8002314:	6320666f 	.word	0x6320666f
 8002318:	67726168 	.word	0x67726168
 800231c:	74202c65 	.word	0x74202c65
 8002320:	6e61206f 	.word	0x6e61206f
 8002324:	65702079 	.word	0x65702079
 8002328:	6e6f7372 	.word	0x6e6f7372
 800232c:	74626f20 	.word	0x74626f20
 8002330:	696e6961 	.word	0x696e6961
 8002334:	6120676e 	.word	0x6120676e
 8002338:	706f6320 	.word	0x706f6320
 800233c:	666f2079 	.word	0x666f2079
 8002340:	68740a0d 	.word	0x68740a0d
 8002344:	73207369 	.word	0x73207369
 8002348:	7774666f 	.word	0x7774666f
 800234c:	20657261 	.word	0x20657261
 8002350:	20646e61 	.word	0x20646e61
 8002354:	6f737361 	.word	0x6f737361
 8002358:	74616963 	.word	0x74616963
 800235c:	64206465 	.word	0x64206465
 8002360:	6d75636f 	.word	0x6d75636f
 8002364:	61746e65 	.word	0x61746e65
 8002368:	6e6f6974 	.word	0x6e6f6974
 800236c:	6c696620 	.word	0x6c696620
 8002370:	28207365 	.word	0x28207365
 8002374:	20656874 	.word	0x20656874
 8002378:	666f5322 	.word	0x666f5322
 800237c:	72617774 	.word	0x72617774
 8002380:	2c292265 	.word	0x2c292265
 8002384:	206f7420 	.word	0x206f7420
 8002388:	6c616564 	.word	0x6c616564
 800238c:	0d6e6920 	.word	0x0d6e6920
 8002390:	6568740a 	.word	0x6568740a
 8002394:	666f5320 	.word	0x666f5320
 8002398:	72617774 	.word	0x72617774
 800239c:	69772065 	.word	0x69772065
 80023a0:	756f6874 	.word	0x756f6874
 80023a4:	65722074 	.word	0x65722074
 80023a8:	69727473 	.word	0x69727473
 80023ac:	6f697463 	.word	0x6f697463
 80023b0:	69202c6e 	.word	0x69202c6e
 80023b4:	756c636e 	.word	0x756c636e
 80023b8:	676e6964 	.word	0x676e6964
 80023bc:	74697720 	.word	0x74697720
 80023c0:	74756f68 	.word	0x74756f68
 80023c4:	6d696c20 	.word	0x6d696c20
 80023c8:	74617469 	.word	0x74617469
 80023cc:	206e6f69 	.word	0x206e6f69
 80023d0:	20656874 	.word	0x20656874
 80023d4:	68676972 	.word	0x68676972
 80023d8:	74207374 	.word	0x74207374
 80023dc:	750a0d6f 	.word	0x750a0d6f
 80023e0:	202c6573 	.word	0x202c6573
 80023e4:	79706f63 	.word	0x79706f63
 80023e8:	6f6d202c 	.word	0x6f6d202c
 80023ec:	79666964 	.word	0x79666964
 80023f0:	656d202c 	.word	0x656d202c
 80023f4:	2c656772 	.word	0x2c656772
 80023f8:	62757020 	.word	0x62757020
 80023fc:	6873696c 	.word	0x6873696c
 8002400:	6964202c 	.word	0x6964202c
 8002404:	69727473 	.word	0x69727473
 8002408:	65747562 	.word	0x65747562
 800240c:	7573202c 	.word	0x7573202c
 8002410:	63696c62 	.word	0x63696c62
 8002414:	65736e65 	.word	0x65736e65
 8002418:	6e61202c 	.word	0x6e61202c
 800241c:	726f2f64 	.word	0x726f2f64
 8002420:	6c657320 	.word	0x6c657320
 8002424:	6f63206c 	.word	0x6f63206c
 8002428:	73656970 	.word	0x73656970
 800242c:	0d666f20 	.word	0x0d666f20
 8002430:	6568740a 	.word	0x6568740a
 8002434:	666f5320 	.word	0x666f5320
 8002438:	72617774 	.word	0x72617774
 800243c:	61202c65 	.word	0x61202c65
 8002440:	7420646e 	.word	0x7420646e
 8002444:	6570206f 	.word	0x6570206f
 8002448:	74696d72 	.word	0x74696d72
 800244c:	72657020 	.word	0x72657020
 8002450:	736e6f73 	.word	0x736e6f73
 8002454:	206f7420 	.word	0x206f7420
 8002458:	6d6f6877 	.word	0x6d6f6877
 800245c:	65687420 	.word	0x65687420
 8002460:	666f5320 	.word	0x666f5320
 8002464:	72617774 	.word	0x72617774
 8002468:	73692065 	.word	0x73692065
 800246c:	72756620 	.word	0x72756620
 8002470:	6873696e 	.word	0x6873696e
 8002474:	74206465 	.word	0x74206465
 8002478:	6f64206f 	.word	0x6f64206f
 800247c:	2c6f7320 	.word	0x2c6f7320
 8002480:	75730a0d 	.word	0x75730a0d
 8002484:	63656a62 	.word	0x63656a62
 8002488:	6f742074 	.word	0x6f742074
 800248c:	65687420 	.word	0x65687420
 8002490:	6c6f6620 	.word	0x6c6f6620
 8002494:	69776f6c 	.word	0x69776f6c
 8002498:	6320676e 	.word	0x6320676e
 800249c:	69646e6f 	.word	0x69646e6f
 80024a0:	6e6f6974 	.word	0x6e6f6974
 80024a4:	0a0d3a73 	.word	0x0a0d3a73
 80024a8:	68540a0d 	.word	0x68540a0d
 80024ac:	62612065 	.word	0x62612065
 80024b0:	2065766f 	.word	0x2065766f
 80024b4:	79706f63 	.word	0x79706f63
 80024b8:	68676972 	.word	0x68676972
 80024bc:	6f6e2074 	.word	0x6f6e2074
 80024c0:	65636974 	.word	0x65636974
 80024c4:	646e6120 	.word	0x646e6120
 80024c8:	69687420 	.word	0x69687420
 80024cc:	65702073 	.word	0x65702073
 80024d0:	73696d72 	.word	0x73696d72
 80024d4:	6e6f6973 	.word	0x6e6f6973
 80024d8:	746f6e20 	.word	0x746f6e20
 80024dc:	20656369 	.word	0x20656369
 80024e0:	6c616873 	.word	0x6c616873
 80024e4:	6562206c 	.word	0x6562206c
 80024e8:	636e6920 	.word	0x636e6920
 80024ec:	6564756c 	.word	0x6564756c
 80024f0:	6e692064 	.word	0x6e692064
 80024f4:	6c6c6120 	.word	0x6c6c6120
 80024f8:	6f630a0d 	.word	0x6f630a0d
 80024fc:	73656970 	.word	0x73656970
 8002500:	20726f20 	.word	0x20726f20
 8002504:	73627573 	.word	0x73627573
 8002508:	746e6174 	.word	0x746e6174
 800250c:	206c6169 	.word	0x206c6169
 8002510:	74726f70 	.word	0x74726f70
 8002514:	736e6f69 	.word	0x736e6f69
 8002518:	20666f20 	.word	0x20666f20
 800251c:	20656874 	.word	0x20656874
 8002520:	74666f53 	.word	0x74666f53
 8002524:	65726177 	.word	0x65726177
 8002528:	6649202e 	.word	0x6649202e
 800252c:	756f7920 	.word	0x756f7920
 8002530:	73697720 	.word	0x73697720
 8002534:	6f742068 	.word	0x6f742068
 8002538:	65737520 	.word	0x65737520
 800253c:	72756f20 	.word	0x72756f20
 8002540:	616d4120 	.word	0x616d4120
 8002544:	0d6e6f7a 	.word	0x0d6e6f7a
 8002548:	6572460a 	.word	0x6572460a
 800254c:	4f545265 	.word	0x4f545265
 8002550:	616e2053 	.word	0x616e2053
 8002554:	202c656d 	.word	0x202c656d
 8002558:	61656c70 	.word	0x61656c70
 800255c:	64206573 	.word	0x64206573
 8002560:	6f73206f 	.word	0x6f73206f
 8002564:	206e6920 	.word	0x206e6920
 8002568:	61662061 	.word	0x61662061
 800256c:	75207269 	.word	0x75207269
 8002570:	77206573 	.word	0x77206573
 8002574:	74207961 	.word	0x74207961
 8002578:	20746168 	.word	0x20746168
 800257c:	73656f64 	.word	0x73656f64
 8002580:	746f6e20 	.word	0x746f6e20
 8002584:	75616320 	.word	0x75616320
 8002588:	63206573 	.word	0x63206573
 800258c:	75666e6f 	.word	0x75666e6f
 8002590:	6e6f6973 	.word	0x6e6f6973
 8002594:	0d0a0d2e 	.word	0x0d0a0d2e
 8002598:	4548540a 	.word	0x4548540a
 800259c:	464f5320 	.word	0x464f5320
 80025a0:	52415754 	.word	0x52415754
 80025a4:	53492045 	.word	0x53492045
 80025a8:	4f525020 	.word	0x4f525020
 80025ac:	45444956 	.word	0x45444956
 80025b0:	41222044 	.word	0x41222044
 80025b4:	53492053 	.word	0x53492053
 80025b8:	57202c22 	.word	0x57202c22
 80025bc:	4f485449 	.word	0x4f485449
 80025c0:	57205455 	.word	0x57205455
 80025c4:	41525241 	.word	0x41525241
 80025c8:	2059544e 	.word	0x2059544e
 80025cc:	4120464f 	.word	0x4120464f
 80025d0:	4b20594e 	.word	0x4b20594e
 80025d4:	2c444e49 	.word	0x2c444e49
 80025d8:	50584520 	.word	0x50584520
 80025dc:	53534552 	.word	0x53534552
 80025e0:	0d524f20 	.word	0x0d524f20
 80025e4:	504d490a 	.word	0x504d490a
 80025e8:	4445494c 	.word	0x4445494c
 80025ec:	4e49202c 	.word	0x4e49202c
 80025f0:	44554c43 	.word	0x44554c43
 80025f4:	20474e49 	.word	0x20474e49
 80025f8:	20545542 	.word	0x20545542
 80025fc:	20544f4e 	.word	0x20544f4e
 8002600:	494d494c 	.word	0x494d494c
 8002604:	20444554 	.word	0x20444554
 8002608:	54204f54 	.word	0x54204f54
 800260c:	57204548 	.word	0x57204548
 8002610:	41525241 	.word	0x41525241
 8002614:	4549544e 	.word	0x4549544e
 8002618:	464f2053 	.word	0x464f2053
 800261c:	52454d20 	.word	0x52454d20
 8002620:	4e414843 	.word	0x4e414843
 8002624:	49424154 	.word	0x49424154
 8002628:	5954494c 	.word	0x5954494c
 800262c:	4946202c 	.word	0x4946202c
 8002630:	53454e54 	.word	0x53454e54
 8002634:	460a0d53 	.word	0x460a0d53
 8002638:	4120524f 	.word	0x4120524f
 800263c:	52415020 	.word	0x52415020
 8002640:	55434954 	.word	0x55434954
 8002644:	2052414c 	.word	0x2052414c
 8002648:	50525550 	.word	0x50525550
 800264c:	2045534f 	.word	0x2045534f
 8002650:	20444e41 	.word	0x20444e41
 8002654:	494e4f4e 	.word	0x494e4f4e
 8002658:	4952464e 	.word	0x4952464e
 800265c:	4d45474e 	.word	0x4d45474e
 8002660:	2e544e45 	.word	0x2e544e45
 8002664:	204e4920 	.word	0x204e4920
 8002668:	45204f4e 	.word	0x45204f4e
 800266c:	544e4556 	.word	0x544e4556
 8002670:	41485320 	.word	0x41485320
 8002674:	54204c4c 	.word	0x54204c4c
 8002678:	41204548 	.word	0x41204548
 800267c:	4f485455 	.word	0x4f485455
 8002680:	4f205352 	.word	0x4f205352
 8002684:	430a0d52 	.word	0x430a0d52
 8002688:	5259504f 	.word	0x5259504f
 800268c:	54484749 	.word	0x54484749
 8002690:	4c4f4820 	.word	0x4c4f4820
 8002694:	53524544 	.word	0x53524544
 8002698:	20454220 	.word	0x20454220
 800269c:	4241494c 	.word	0x4241494c
 80026a0:	4620454c 	.word	0x4620454c
 80026a4:	4120524f 	.word	0x4120524f
 80026a8:	4320594e 	.word	0x4320594e
 80026ac:	4d49414c 	.word	0x4d49414c
 80026b0:	4144202c 	.word	0x4144202c
 80026b4:	4547414d 	.word	0x4547414d
 80026b8:	524f2053 	.word	0x524f2053
 80026bc:	48544f20 	.word	0x48544f20
 80026c0:	4c205245 	.word	0x4c205245
 80026c4:	49424149 	.word	0x49424149
 80026c8:	5954494c 	.word	0x5954494c
 80026cc:	4857202c 	.word	0x4857202c
 80026d0:	45485445 	.word	0x45485445
 80026d4:	490a0d52 	.word	0x490a0d52
 80026d8:	4e41204e 	.word	0x4e41204e
 80026dc:	54434120 	.word	0x54434120
 80026e0:	204e4f49 	.word	0x204e4f49
 80026e4:	4320464f 	.word	0x4320464f
 80026e8:	52544e4f 	.word	0x52544e4f
 80026ec:	2c544341 	.word	0x2c544341
 80026f0:	524f5420 	.word	0x524f5420
 80026f4:	524f2054 	.word	0x524f2054
 80026f8:	48544f20 	.word	0x48544f20
 80026fc:	49575245 	.word	0x49575245
 8002700:	202c4553 	.word	0x202c4553
 8002704:	53495241 	.word	0x53495241
 8002708:	20474e49 	.word	0x20474e49
 800270c:	4d4f5246 	.word	0x4d4f5246
 8002710:	554f202c 	.word	0x554f202c
 8002714:	464f2054 	.word	0x464f2054
 8002718:	20524f20 	.word	0x20524f20
 800271c:	0a0d4e49 	.word	0x0a0d4e49
 8002720:	4e4e4f43 	.word	0x4e4e4f43
 8002724:	49544345 	.word	0x49544345
 8002728:	57204e4f 	.word	0x57204e4f
 800272c:	20485449 	.word	0x20485449
 8002730:	20454854 	.word	0x20454854
 8002734:	54464f53 	.word	0x54464f53
 8002738:	45524157 	.word	0x45524157
 800273c:	20524f20 	.word	0x20524f20
 8002740:	20454854 	.word	0x20454854
 8002744:	20455355 	.word	0x20455355
 8002748:	4f20524f 	.word	0x4f20524f
 800274c:	52454854 	.word	0x52454854
 8002750:	41454420 	.word	0x41454420
 8002754:	474e494c 	.word	0x474e494c
 8002758:	4e492053 	.word	0x4e492053
 800275c:	45485420 	.word	0x45485420
 8002760:	464f5320 	.word	0x464f5320
 8002764:	52415754 	.word	0x52415754
 8002768:	0a0d2e45 	.word	0x0a0d2e45
 800276c:	74680a0d 	.word	0x74680a0d
 8002770:	2f3a7074 	.word	0x2f3a7074
 8002774:	7777772f 	.word	0x7777772f
 8002778:	6572462e 	.word	0x6572462e
 800277c:	4f545265 	.word	0x4f545265
 8002780:	726f2e53 	.word	0x726f2e53
 8002784:	680a0d67 	.word	0x680a0d67
 8002788:	3a707474 	.word	0x3a707474
 800278c:	77612f2f 	.word	0x77612f2f
 8002790:	6d612e73 	.word	0x6d612e73
 8002794:	6e6f7a61 	.word	0x6e6f7a61
 8002798:	6d6f632e 	.word	0x6d6f632e
 800279c:	6572662f 	.word	0x6572662f
 80027a0:	6f747265 	.word	0x6f747265
 80027a4:	2a0a0d73 	.word	0x2a0a0d73
 80027a8:	2a2a2a2a 	.word	0x2a2a2a2a
 80027ac:	2a2a2a2a 	.word	0x2a2a2a2a
 80027b0:	2a2a2a2a 	.word	0x2a2a2a2a
 80027b4:	2a2a2a2a 	.word	0x2a2a2a2a
 80027b8:	2a2a2a2a 	.word	0x2a2a2a2a
 80027bc:	2a2a2a2a 	.word	0x2a2a2a2a
 80027c0:	2a2a2a2a 	.word	0x2a2a2a2a
 80027c4:	2a2a2a2a 	.word	0x2a2a2a2a
 80027c8:	2a2a2a2a 	.word	0x2a2a2a2a
 80027cc:	2a2a2a2a 	.word	0x2a2a2a2a
 80027d0:	2a2a2a2a 	.word	0x2a2a2a2a
 80027d4:	2a2a2a2a 	.word	0x2a2a2a2a
 80027d8:	2a2a2a2a 	.word	0x2a2a2a2a
 80027dc:	2a2a2a2a 	.word	0x2a2a2a2a
 80027e0:	2a2a2a2a 	.word	0x2a2a2a2a
 80027e4:	2a2a2a2a 	.word	0x2a2a2a2a
 80027e8:	2a2a2a2a 	.word	0x2a2a2a2a
 80027ec:	2a2a2a2a 	.word	0x2a2a2a2a
 80027f0:	2a2a2a2a 	.word	0x2a2a2a2a
 80027f4:	2a2a2a2a 	.word	0x2a2a2a2a
 80027f8:	430a0d2a 	.word	0x430a0d2a
 80027fc:	5259504f 	.word	0x5259504f
 8002800:	54484749 	.word	0x54484749
 8002804:	20296328 	.word	0x20296328
 8002808:	36313032 	.word	0x36313032
 800280c:	4d545320 	.word	0x4d545320
 8002810:	6f726369 	.word	0x6f726369
 8002814:	63656c65 	.word	0x63656c65
 8002818:	6e6f7274 	.word	0x6e6f7274
 800281c:	0d736369 	.word	0x0d736369
 8002820:	520a0d0a 	.word	0x520a0d0a
 8002824:	73696465 	.word	0x73696465
 8002828:	62697274 	.word	0x62697274
 800282c:	6f697475 	.word	0x6f697475
 8002830:	6e61206e 	.word	0x6e61206e
 8002834:	73752064 	.word	0x73752064
 8002838:	6e692065 	.word	0x6e692065
 800283c:	756f7320 	.word	0x756f7320
 8002840:	20656372 	.word	0x20656372
 8002844:	20646e61 	.word	0x20646e61
 8002848:	616e6962 	.word	0x616e6962
 800284c:	66207972 	.word	0x66207972
 8002850:	736d726f 	.word	0x736d726f
 8002854:	6977202c 	.word	0x6977202c
 8002858:	6f206874 	.word	0x6f206874
 800285c:	69772072 	.word	0x69772072
 8002860:	756f6874 	.word	0x756f6874
 8002864:	6f6d2074 	.word	0x6f6d2074
 8002868:	69666964 	.word	0x69666964
 800286c:	69746163 	.word	0x69746163
 8002870:	0d2c6e6f 	.word	0x0d2c6e6f
 8002874:	6572610a 	.word	0x6572610a
 8002878:	72657020 	.word	0x72657020
 800287c:	7474696d 	.word	0x7474696d
 8002880:	70206465 	.word	0x70206465
 8002884:	69766f72 	.word	0x69766f72
 8002888:	20646564 	.word	0x20646564
 800288c:	74616874 	.word	0x74616874
 8002890:	65687420 	.word	0x65687420
 8002894:	6c6f6620 	.word	0x6c6f6620
 8002898:	69776f6c 	.word	0x69776f6c
 800289c:	6320676e 	.word	0x6320676e
 80028a0:	69646e6f 	.word	0x69646e6f
 80028a4:	6e6f6974 	.word	0x6e6f6974
 80028a8:	72612073 	.word	0x72612073
 80028ac:	656d2065 	.word	0x656d2065
 80028b0:	0a0d3a74 	.word	0x0a0d3a74
 80028b4:	2e312020 	.word	0x2e312020
 80028b8:	64655220 	.word	0x64655220
 80028bc:	72747369 	.word	0x72747369
 80028c0:	74756269 	.word	0x74756269
 80028c4:	736e6f69 	.word	0x736e6f69
 80028c8:	20666f20 	.word	0x20666f20
 80028cc:	72756f73 	.word	0x72756f73
 80028d0:	63206563 	.word	0x63206563
 80028d4:	2065646f 	.word	0x2065646f
 80028d8:	7473756d 	.word	0x7473756d
 80028dc:	74657220 	.word	0x74657220
 80028e0:	206e6961 	.word	0x206e6961
 80028e4:	20656874 	.word	0x20656874
 80028e8:	766f6261 	.word	0x766f6261
 80028ec:	6f632065 	.word	0x6f632065
 80028f0:	69727970 	.word	0x69727970
 80028f4:	20746867 	.word	0x20746867
 80028f8:	69746f6e 	.word	0x69746f6e
 80028fc:	0d2c6563 	.word	0x0d2c6563
 8002900:	2020200a 	.word	0x2020200a
 8002904:	68742020 	.word	0x68742020
 8002908:	6c207369 	.word	0x6c207369
 800290c:	20747369 	.word	0x20747369
 8002910:	6320666f 	.word	0x6320666f
 8002914:	69646e6f 	.word	0x69646e6f
 8002918:	6e6f6974 	.word	0x6e6f6974
 800291c:	6e612073 	.word	0x6e612073
 8002920:	68742064 	.word	0x68742064
 8002924:	6f662065 	.word	0x6f662065
 8002928:	776f6c6c 	.word	0x776f6c6c
 800292c:	20676e69 	.word	0x20676e69
 8002930:	63736964 	.word	0x63736964
 8002934:	6d69616c 	.word	0x6d69616c
 8002938:	0d2e7265 	.word	0x0d2e7265
 800293c:	3220200a 	.word	0x3220200a
 8002940:	6552202e 	.word	0x6552202e
 8002944:	74736964 	.word	0x74736964
 8002948:	75626972 	.word	0x75626972
 800294c:	6e6f6974 	.word	0x6e6f6974
 8002950:	6e692073 	.word	0x6e692073
 8002954:	6e696220 	.word	0x6e696220
 8002958:	20797261 	.word	0x20797261
 800295c:	6d726f66 	.word	0x6d726f66
 8002960:	73756d20 	.word	0x73756d20
 8002964:	65722074 	.word	0x65722074
 8002968:	646f7270 	.word	0x646f7270
 800296c:	20656375 	.word	0x20656375
 8002970:	20656874 	.word	0x20656874
 8002974:	766f6261 	.word	0x766f6261
 8002978:	6f632065 	.word	0x6f632065
 800297c:	69727970 	.word	0x69727970
 8002980:	20746867 	.word	0x20746867
 8002984:	69746f6e 	.word	0x69746f6e
 8002988:	0d2c6563 	.word	0x0d2c6563
 800298c:	2020200a 	.word	0x2020200a
 8002990:	68742020 	.word	0x68742020
 8002994:	6c207369 	.word	0x6c207369
 8002998:	20747369 	.word	0x20747369
 800299c:	6320666f 	.word	0x6320666f
 80029a0:	69646e6f 	.word	0x69646e6f
 80029a4:	6e6f6974 	.word	0x6e6f6974
 80029a8:	6e612073 	.word	0x6e612073
 80029ac:	68742064 	.word	0x68742064
 80029b0:	6f662065 	.word	0x6f662065
 80029b4:	776f6c6c 	.word	0x776f6c6c
 80029b8:	20676e69 	.word	0x20676e69
 80029bc:	63736964 	.word	0x63736964
 80029c0:	6d69616c 	.word	0x6d69616c
 80029c4:	69207265 	.word	0x69207265
 80029c8:	6874206e 	.word	0x6874206e
 80029cc:	6f642065 	.word	0x6f642065
 80029d0:	656d7563 	.word	0x656d7563
 80029d4:	7461746e 	.word	0x7461746e
 80029d8:	0d6e6f69 	.word	0x0d6e6f69
 80029dc:	2020200a 	.word	0x2020200a
 80029e0:	6e612020 	.word	0x6e612020
 80029e4:	726f2f64 	.word	0x726f2f64
 80029e8:	68746f20 	.word	0x68746f20
 80029ec:	6d207265 	.word	0x6d207265
 80029f0:	72657461 	.word	0x72657461
 80029f4:	736c6169 	.word	0x736c6169
 80029f8:	6f727020 	.word	0x6f727020
 80029fc:	65646976 	.word	0x65646976
 8002a00:	69772064 	.word	0x69772064
 8002a04:	74206874 	.word	0x74206874
 8002a08:	64206568 	.word	0x64206568
 8002a0c:	72747369 	.word	0x72747369
 8002a10:	74756269 	.word	0x74756269
 8002a14:	2e6e6f69 	.word	0x2e6e6f69
 8002a18:	20200a0d 	.word	0x20200a0d
 8002a1c:	4e202e33 	.word	0x4e202e33
 8002a20:	68746965 	.word	0x68746965
 8002a24:	74207265 	.word	0x74207265
 8002a28:	6e206568 	.word	0x6e206568
 8002a2c:	20656d61 	.word	0x20656d61
 8002a30:	5320666f 	.word	0x5320666f
 8002a34:	63694d54 	.word	0x63694d54
 8002a38:	6c656f72 	.word	0x6c656f72
 8002a3c:	72746365 	.word	0x72746365
 8002a40:	63696e6f 	.word	0x63696e6f
 8002a44:	6f6e2073 	.word	0x6f6e2073
 8002a48:	68742072 	.word	0x68742072
 8002a4c:	616e2065 	.word	0x616e2065
 8002a50:	2073656d 	.word	0x2073656d
 8002a54:	6920666f 	.word	0x6920666f
 8002a58:	63207374 	.word	0x63207374
 8002a5c:	72746e6f 	.word	0x72746e6f
 8002a60:	74756269 	.word	0x74756269
 8002a64:	0d73726f 	.word	0x0d73726f
 8002a68:	2020200a 	.word	0x2020200a
 8002a6c:	616d2020 	.word	0x616d2020
 8002a70:	65622079 	.word	0x65622079
 8002a74:	65737520 	.word	0x65737520
 8002a78:	6f742064 	.word	0x6f742064
 8002a7c:	646e6520 	.word	0x646e6520
 8002a80:	6573726f 	.word	0x6573726f
 8002a84:	20726f20 	.word	0x20726f20
 8002a88:	6d6f7270 	.word	0x6d6f7270
 8002a8c:	2065746f 	.word	0x2065746f
 8002a90:	646f7270 	.word	0x646f7270
 8002a94:	73746375 	.word	0x73746375
 8002a98:	72656420 	.word	0x72656420
 8002a9c:	64657669 	.word	0x64657669
 8002aa0:	6f726620 	.word	0x6f726620
 8002aa4:	6874206d 	.word	0x6874206d
 8002aa8:	73207369 	.word	0x73207369
 8002aac:	7774666f 	.word	0x7774666f
 8002ab0:	0d657261 	.word	0x0d657261
 8002ab4:	2020200a 	.word	0x2020200a
 8002ab8:	69772020 	.word	0x69772020
 8002abc:	756f6874 	.word	0x756f6874
 8002ac0:	70732074 	.word	0x70732074
 8002ac4:	66696365 	.word	0x66696365
 8002ac8:	70206369 	.word	0x70206369
 8002acc:	726f6972 	.word	0x726f6972
 8002ad0:	69727720 	.word	0x69727720
 8002ad4:	6e657474 	.word	0x6e657474
 8002ad8:	72657020 	.word	0x72657020
 8002adc:	7373696d 	.word	0x7373696d
 8002ae0:	2e6e6f69 	.word	0x2e6e6f69
 8002ae4:	20200a0d 	.word	0x20200a0d
 8002ae8:	48540a0d 	.word	0x48540a0d
 8002aec:	53205349 	.word	0x53205349
 8002af0:	5754464f 	.word	0x5754464f
 8002af4:	20455241 	.word	0x20455241
 8002af8:	50205349 	.word	0x50205349
 8002afc:	49564f52 	.word	0x49564f52
 8002b00:	20444544 	.word	0x20444544
 8002b04:	54205942 	.word	0x54205942
 8002b08:	43204548 	.word	0x43204548
 8002b0c:	5259504f 	.word	0x5259504f
 8002b10:	54484749 	.word	0x54484749
 8002b14:	4c4f4820 	.word	0x4c4f4820
 8002b18:	53524544 	.word	0x53524544
 8002b1c:	444e4120 	.word	0x444e4120
 8002b20:	4e4f4320 	.word	0x4e4f4320
 8002b24:	42495254 	.word	0x42495254
 8002b28:	524f5455 	.word	0x524f5455
 8002b2c:	41222053 	.word	0x41222053
 8002b30:	53492053 	.word	0x53492053
 8002b34:	410a0d22 	.word	0x410a0d22
 8002b38:	4120444e 	.word	0x4120444e
 8002b3c:	4520594e 	.word	0x4520594e
 8002b40:	45525058 	.word	0x45525058
 8002b44:	4f205353 	.word	0x4f205353
 8002b48:	4d492052 	.word	0x4d492052
 8002b4c:	45494c50 	.word	0x45494c50
 8002b50:	41572044 	.word	0x41572044
 8002b54:	4e415252 	.word	0x4e415252
 8002b58:	53454954 	.word	0x53454954
 8002b5c:	4e49202c 	.word	0x4e49202c
 8002b60:	44554c43 	.word	0x44554c43
 8002b64:	2c474e49 	.word	0x2c474e49
 8002b68:	54554220 	.word	0x54554220
 8002b6c:	544f4e20 	.word	0x544f4e20
 8002b70:	4d494c20 	.word	0x4d494c20
 8002b74:	44455449 	.word	0x44455449
 8002b78:	2c4f5420 	.word	0x2c4f5420
 8002b7c:	45485420 	.word	0x45485420
 8002b80:	4d490a0d 	.word	0x4d490a0d
 8002b84:	45494c50 	.word	0x45494c50
 8002b88:	41572044 	.word	0x41572044
 8002b8c:	4e415252 	.word	0x4e415252
 8002b90:	53454954 	.word	0x53454954
 8002b94:	20464f20 	.word	0x20464f20
 8002b98:	4352454d 	.word	0x4352454d
 8002b9c:	544e4148 	.word	0x544e4148
 8002ba0:	4c494241 	.word	0x4c494241
 8002ba4:	20595449 	.word	0x20595449
 8002ba8:	20444e41 	.word	0x20444e41
 8002bac:	4e544946 	.word	0x4e544946
 8002bb0:	20535345 	.word	0x20535345
 8002bb4:	20524f46 	.word	0x20524f46
 8002bb8:	41502041 	.word	0x41502041
 8002bbc:	43495452 	.word	0x43495452
 8002bc0:	52414c55 	.word	0x52414c55
 8002bc4:	52555020 	.word	0x52555020
 8002bc8:	45534f50 	.word	0x45534f50
 8002bcc:	45524120 	.word	0x45524120
 8002bd0:	49440a0d 	.word	0x49440a0d
 8002bd4:	414c4353 	.word	0x414c4353
 8002bd8:	44454d49 	.word	0x44454d49
 8002bdc:	4e49202e 	.word	0x4e49202e
 8002be0:	204f4e20 	.word	0x204f4e20
 8002be4:	4e455645 	.word	0x4e455645
 8002be8:	48532054 	.word	0x48532054
 8002bec:	204c4c41 	.word	0x204c4c41
 8002bf0:	20454854 	.word	0x20454854
 8002bf4:	59504f43 	.word	0x59504f43
 8002bf8:	48474952 	.word	0x48474952
 8002bfc:	4f482054 	.word	0x4f482054
 8002c00:	5245444c 	.word	0x5245444c
 8002c04:	20524f20 	.word	0x20524f20
 8002c08:	544e4f43 	.word	0x544e4f43
 8002c0c:	55424952 	.word	0x55424952
 8002c10:	53524f54 	.word	0x53524f54
 8002c14:	20454220 	.word	0x20454220
 8002c18:	4241494c 	.word	0x4241494c
 8002c1c:	0a0d454c 	.word	0x0a0d454c
 8002c20:	20524f46 	.word	0x20524f46
 8002c24:	20594e41 	.word	0x20594e41
 8002c28:	45524944 	.word	0x45524944
 8002c2c:	202c5443 	.word	0x202c5443
 8002c30:	49444e49 	.word	0x49444e49
 8002c34:	54434552 	.word	0x54434552
 8002c38:	4e49202c 	.word	0x4e49202c
 8002c3c:	45444943 	.word	0x45444943
 8002c40:	4c41544e 	.word	0x4c41544e
 8002c44:	5053202c 	.word	0x5053202c
 8002c48:	41494345 	.word	0x41494345
 8002c4c:	45202c4c 	.word	0x45202c4c
 8002c50:	504d4558 	.word	0x504d4558
 8002c54:	5952414c 	.word	0x5952414c
 8002c58:	524f202c 	.word	0x524f202c
 8002c5c:	4e4f4320 	.word	0x4e4f4320
 8002c60:	55514553 	.word	0x55514553
 8002c64:	49544e45 	.word	0x49544e45
 8002c68:	0a0d4c41 	.word	0x0a0d4c41
 8002c6c:	414d4144 	.word	0x414d4144
 8002c70:	20534547 	.word	0x20534547
 8002c74:	434e4928 	.word	0x434e4928
 8002c78:	4944554c 	.word	0x4944554c
 8002c7c:	202c474e 	.word	0x202c474e
 8002c80:	20545542 	.word	0x20545542
 8002c84:	20544f4e 	.word	0x20544f4e
 8002c88:	494d494c 	.word	0x494d494c
 8002c8c:	20444554 	.word	0x20444554
 8002c90:	202c4f54 	.word	0x202c4f54
 8002c94:	434f5250 	.word	0x434f5250
 8002c98:	4d455255 	.word	0x4d455255
 8002c9c:	20544e45 	.word	0x20544e45
 8002ca0:	5320464f 	.word	0x5320464f
 8002ca4:	54534255 	.word	0x54534255
 8002ca8:	54555449 	.word	0x54555449
 8002cac:	4f472045 	.word	0x4f472045
 8002cb0:	2053444f 	.word	0x2053444f
 8002cb4:	0a0d524f 	.word	0x0a0d524f
 8002cb8:	56524553 	.word	0x56524553
 8002cbc:	53454349 	.word	0x53454349
 8002cc0:	4f4c203b 	.word	0x4f4c203b
 8002cc4:	4f205353 	.word	0x4f205353
 8002cc8:	53552046 	.word	0x53552046
 8002ccc:	44202c45 	.word	0x44202c45
 8002cd0:	2c415441 	.word	0x2c415441
 8002cd4:	20524f20 	.word	0x20524f20
 8002cd8:	464f5250 	.word	0x464f5250
 8002cdc:	3b535449 	.word	0x3b535449
 8002ce0:	20524f20 	.word	0x20524f20
 8002ce4:	49535542 	.word	0x49535542
 8002ce8:	5353454e 	.word	0x5353454e
 8002cec:	544e4920 	.word	0x544e4920
 8002cf0:	55525245 	.word	0x55525245
 8002cf4:	4f495450 	.word	0x4f495450
 8002cf8:	4820294e 	.word	0x4820294e
 8002cfc:	5645574f 	.word	0x5645574f
 8002d00:	0a0d5245 	.word	0x0a0d5245
 8002d04:	53554143 	.word	0x53554143
 8002d08:	41204445 	.word	0x41204445
 8002d0c:	4f20444e 	.word	0x4f20444e
 8002d10:	4e41204e 	.word	0x4e41204e
 8002d14:	48542059 	.word	0x48542059
 8002d18:	59524f45 	.word	0x59524f45
 8002d1c:	20464f20 	.word	0x20464f20
 8002d20:	4241494c 	.word	0x4241494c
 8002d24:	54494c49 	.word	0x54494c49
 8002d28:	57202c59 	.word	0x57202c59
 8002d2c:	48544548 	.word	0x48544548
 8002d30:	49205245 	.word	0x49205245
 8002d34:	4f43204e 	.word	0x4f43204e
 8002d38:	4152544e 	.word	0x4152544e
 8002d3c:	202c5443 	.word	0x202c5443
 8002d40:	49525453 	.word	0x49525453
 8002d44:	4c205443 	.word	0x4c205443
 8002d48:	49424149 	.word	0x49424149
 8002d4c:	5954494c 	.word	0x5954494c
 8002d50:	4f0a0d2c 	.word	0x4f0a0d2c
 8002d54:	4f542052 	.word	0x4f542052
 8002d58:	28205452 	.word	0x28205452
 8002d5c:	4c434e49 	.word	0x4c434e49
 8002d60:	4e494455 	.word	0x4e494455
 8002d64:	454e2047 	.word	0x454e2047
 8002d68:	47494c47 	.word	0x47494c47
 8002d6c:	45434e45 	.word	0x45434e45
 8002d70:	20524f20 	.word	0x20524f20
 8002d74:	4548544f 	.word	0x4548544f
 8002d78:	53495752 	.word	0x53495752
 8002d7c:	41202945 	.word	0x41202945
 8002d80:	49534952 	.word	0x49534952
 8002d84:	4920474e 	.word	0x4920474e
 8002d88:	4e41204e 	.word	0x4e41204e
 8002d8c:	41572059 	.word	0x41572059
 8002d90:	554f2059 	.word	0x554f2059
 8002d94:	464f2054 	.word	0x464f2054
 8002d98:	45485420 	.word	0x45485420
 8002d9c:	45535520 	.word	0x45535520
 8002da0:	464f0a0d 	.word	0x464f0a0d
 8002da4:	49485420 	.word	0x49485420
 8002da8:	4f532053 	.word	0x4f532053
 8002dac:	41575446 	.word	0x41575446
 8002db0:	202c4552 	.word	0x202c4552
 8002db4:	4e455645 	.word	0x4e455645
 8002db8:	20464920 	.word	0x20464920
 8002dbc:	49564441 	.word	0x49564441
 8002dc0:	20444553 	.word	0x20444553
 8002dc4:	5420464f 	.word	0x5420464f
 8002dc8:	50204548 	.word	0x50204548
 8002dcc:	4953534f 	.word	0x4953534f
 8002dd0:	494c4942 	.word	0x494c4942
 8002dd4:	4f205954 	.word	0x4f205954
 8002dd8:	55532046 	.word	0x55532046
 8002ddc:	44204843 	.word	0x44204843
 8002de0:	47414d41 	.word	0x47414d41
 8002de4:	0a0d2e45 	.word	0x0a0d2e45
 8002de8:	2a2a2a2a 	.word	0x2a2a2a2a
 8002dec:	2a2a2a2a 	.word	0x2a2a2a2a
 8002df0:	2a2a2a2a 	.word	0x2a2a2a2a
 8002df4:	2a2a2a2a 	.word	0x2a2a2a2a
 8002df8:	2a2a2a2a 	.word	0x2a2a2a2a
 8002dfc:	2a2a2a2a 	.word	0x2a2a2a2a
 8002e00:	2a2a2a2a 	.word	0x2a2a2a2a
 8002e04:	2a2a2a2a 	.word	0x2a2a2a2a
 8002e08:	2a2a2a2a 	.word	0x2a2a2a2a
 8002e0c:	2a2a2a2a 	.word	0x2a2a2a2a
 8002e10:	2a2a2a2a 	.word	0x2a2a2a2a
 8002e14:	2a2a2a2a 	.word	0x2a2a2a2a
 8002e18:	2a2a2a2a 	.word	0x2a2a2a2a
 8002e1c:	2a2a2a2a 	.word	0x2a2a2a2a
 8002e20:	2a2a2a2a 	.word	0x2a2a2a2a
 8002e24:	2a2a2a2a 	.word	0x2a2a2a2a
 8002e28:	2a2a2a2a 	.word	0x2a2a2a2a
 8002e2c:	2a2a2a2a 	.word	0x2a2a2a2a
 8002e30:	2a2a2a2a 	.word	0x2a2a2a2a
 8002e34:	2a2a2a2a 	.word	0x2a2a2a2a
 8002e38:	0a0d2a2a 	.word	0x0a0d2a2a
 8002e3c:	62696843 	.word	0x62696843
 8002e40:	20534f69 	.word	0x20534f69
 8002e44:	6f43202d 	.word	0x6f43202d
 8002e48:	69727970 	.word	0x69727970
 8002e4c:	20746867 	.word	0x20746867
 8002e50:	20294328 	.word	0x20294328
 8002e54:	36303032 	.word	0x36303032
 8002e58:	30322e2e 	.word	0x30322e2e
 8002e5c:	47203631 	.word	0x47203631
 8002e60:	61766f69 	.word	0x61766f69
 8002e64:	20696e6e 	.word	0x20696e6e
 8002e68:	53206944 	.word	0x53206944
 8002e6c:	6f697269 	.word	0x6f697269
 8002e70:	0a0d0a0d 	.word	0x0a0d0a0d
 8002e74:	6563694c 	.word	0x6563694c
 8002e78:	6465736e 	.word	0x6465736e
 8002e7c:	646e7520 	.word	0x646e7520
 8002e80:	74207265 	.word	0x74207265
 8002e84:	41206568 	.word	0x41206568
 8002e88:	68636170 	.word	0x68636170
 8002e8c:	694c2065 	.word	0x694c2065
 8002e90:	736e6563 	.word	0x736e6563
 8002e94:	56202c65 	.word	0x56202c65
 8002e98:	69737265 	.word	0x69737265
 8002e9c:	32206e6f 	.word	0x32206e6f
 8002ea0:	2820302e 	.word	0x2820302e
 8002ea4:	20656874 	.word	0x20656874
 8002ea8:	63694c22 	.word	0x63694c22
 8002eac:	65736e65 	.word	0x65736e65
 8002eb0:	0d3b2922 	.word	0x0d3b2922
 8002eb4:	756f790a 	.word	0x756f790a
 8002eb8:	79616d20 	.word	0x79616d20
 8002ebc:	746f6e20 	.word	0x746f6e20
 8002ec0:	65737520 	.word	0x65737520
 8002ec4:	69687420 	.word	0x69687420
 8002ec8:	69662073 	.word	0x69662073
 8002ecc:	6520656c 	.word	0x6520656c
 8002ed0:	70656378 	.word	0x70656378
 8002ed4:	6e692074 	.word	0x6e692074
 8002ed8:	6d6f6320 	.word	0x6d6f6320
 8002edc:	61696c70 	.word	0x61696c70
 8002ee0:	2065636e 	.word	0x2065636e
 8002ee4:	68746977 	.word	0x68746977
 8002ee8:	65687420 	.word	0x65687420
 8002eec:	63694c20 	.word	0x63694c20
 8002ef0:	65736e65 	.word	0x65736e65
 8002ef4:	590a0d2e 	.word	0x590a0d2e
 8002ef8:	6d20756f 	.word	0x6d20756f
 8002efc:	6f207961 	.word	0x6f207961
 8002f00:	69617462 	.word	0x69617462
 8002f04:	2061206e 	.word	0x2061206e
 8002f08:	79706f63 	.word	0x79706f63
 8002f0c:	20666f20 	.word	0x20666f20
 8002f10:	20656874 	.word	0x20656874
 8002f14:	6563694c 	.word	0x6563694c
 8002f18:	2065736e 	.word	0x2065736e
 8002f1c:	0a0d7461 	.word	0x0a0d7461
 8002f20:	20200a0d 	.word	0x20200a0d
 8002f24:	74682020 	.word	0x74682020
 8002f28:	2f3a7074 	.word	0x2f3a7074
 8002f2c:	7777772f 	.word	0x7777772f
 8002f30:	6170612e 	.word	0x6170612e
 8002f34:	2e656863 	.word	0x2e656863
 8002f38:	2f67726f 	.word	0x2f67726f
 8002f3c:	6563696c 	.word	0x6563696c
 8002f40:	7365736e 	.word	0x7365736e
 8002f44:	43494c2f 	.word	0x43494c2f
 8002f48:	45534e45 	.word	0x45534e45
 8002f4c:	302e322d 	.word	0x302e322d
 8002f50:	0a0d0a0d 	.word	0x0a0d0a0d
 8002f54:	656c6e55 	.word	0x656c6e55
 8002f58:	72207373 	.word	0x72207373
 8002f5c:	69757165 	.word	0x69757165
 8002f60:	20646572 	.word	0x20646572
 8002f64:	61207962 	.word	0x61207962
 8002f68:	696c7070 	.word	0x696c7070
 8002f6c:	6c626163 	.word	0x6c626163
 8002f70:	616c2065 	.word	0x616c2065
 8002f74:	726f2077 	.word	0x726f2077
 8002f78:	72676120 	.word	0x72676120
 8002f7c:	20646565 	.word	0x20646565
 8002f80:	69206f74 	.word	0x69206f74
 8002f84:	7277206e 	.word	0x7277206e
 8002f88:	6e697469 	.word	0x6e697469
 8002f8c:	73202c67 	.word	0x73202c67
 8002f90:	7774666f 	.word	0x7774666f
 8002f94:	0d657261 	.word	0x0d657261
 8002f98:	7369640a 	.word	0x7369640a
 8002f9c:	62697274 	.word	0x62697274
 8002fa0:	64657475 	.word	0x64657475
 8002fa4:	646e7520 	.word	0x646e7520
 8002fa8:	74207265 	.word	0x74207265
 8002fac:	4c206568 	.word	0x4c206568
 8002fb0:	6e656369 	.word	0x6e656369
 8002fb4:	69206573 	.word	0x69206573
 8002fb8:	69642073 	.word	0x69642073
 8002fbc:	69727473 	.word	0x69727473
 8002fc0:	65747562 	.word	0x65747562
 8002fc4:	6e6f2064 	.word	0x6e6f2064
 8002fc8:	206e6120 	.word	0x206e6120
 8002fcc:	20534122 	.word	0x20534122
 8002fd0:	20225349 	.word	0x20225349
 8002fd4:	49534142 	.word	0x49534142
 8002fd8:	0a0d2c53 	.word	0x0a0d2c53
 8002fdc:	48544957 	.word	0x48544957
 8002fe0:	2054554f 	.word	0x2054554f
 8002fe4:	52524157 	.word	0x52524157
 8002fe8:	49544e41 	.word	0x49544e41
 8002fec:	4f205345 	.word	0x4f205345
 8002ff0:	4f432052 	.word	0x4f432052
 8002ff4:	5449444e 	.word	0x5449444e
 8002ff8:	534e4f49 	.word	0x534e4f49
 8002ffc:	20464f20 	.word	0x20464f20
 8003000:	20594e41 	.word	0x20594e41
 8003004:	444e494b 	.word	0x444e494b
 8003008:	6965202c 	.word	0x6965202c
 800300c:	72656874 	.word	0x72656874
 8003010:	70786520 	.word	0x70786520
 8003014:	73736572 	.word	0x73736572
 8003018:	20726f20 	.word	0x20726f20
 800301c:	6c706d69 	.word	0x6c706d69
 8003020:	2e646569 	.word	0x2e646569
 8003024:	65530a0d 	.word	0x65530a0d
 8003028:	68742065 	.word	0x68742065
 800302c:	694c2065 	.word	0x694c2065
 8003030:	736e6563 	.word	0x736e6563
 8003034:	6f662065 	.word	0x6f662065
 8003038:	68742072 	.word	0x68742072
 800303c:	70732065 	.word	0x70732065
 8003040:	66696365 	.word	0x66696365
 8003044:	6c206369 	.word	0x6c206369
 8003048:	75676e61 	.word	0x75676e61
 800304c:	20656761 	.word	0x20656761
 8003050:	65766f67 	.word	0x65766f67
 8003054:	6e696e72 	.word	0x6e696e72
 8003058:	65702067 	.word	0x65702067
 800305c:	73696d72 	.word	0x73696d72
 8003060:	6e6f6973 	.word	0x6e6f6973
 8003064:	6e612073 	.word	0x6e612073
 8003068:	6c0a0d64 	.word	0x6c0a0d64
 800306c:	74696d69 	.word	0x74696d69
 8003070:	6f697461 	.word	0x6f697461
 8003074:	7520736e 	.word	0x7520736e
 8003078:	7265646e 	.word	0x7265646e
 800307c:	65687420 	.word	0x65687420
 8003080:	63694c20 	.word	0x63694c20
 8003084:	65736e65 	.word	0x65736e65
 8003088:	2a0a0d2e 	.word	0x2a0a0d2e
 800308c:	2a2a2a2a 	.word	0x2a2a2a2a
 8003090:	2a2a2a2a 	.word	0x2a2a2a2a
 8003094:	2a2a2a2a 	.word	0x2a2a2a2a
 8003098:	2a2a2a2a 	.word	0x2a2a2a2a
 800309c:	2a2a2a2a 	.word	0x2a2a2a2a
 80030a0:	2a2a2a2a 	.word	0x2a2a2a2a
 80030a4:	2a2a2a2a 	.word	0x2a2a2a2a
 80030a8:	2a2a2a2a 	.word	0x2a2a2a2a
 80030ac:	2a2a2a2a 	.word	0x2a2a2a2a
 80030b0:	2a2a2a2a 	.word	0x2a2a2a2a
 80030b4:	2a2a2a2a 	.word	0x2a2a2a2a
 80030b8:	2a2a2a2a 	.word	0x2a2a2a2a
 80030bc:	2a2a2a2a 	.word	0x2a2a2a2a
 80030c0:	2a2a2a2a 	.word	0x2a2a2a2a
 80030c4:	2a2a2a2a 	.word	0x2a2a2a2a
 80030c8:	2a2a2a2a 	.word	0x2a2a2a2a
 80030cc:	2a2a2a2a 	.word	0x2a2a2a2a
 80030d0:	2a2a2a2a 	.word	0x2a2a2a2a
 80030d4:	2a2a2a2a 	.word	0x2a2a2a2a
 80030d8:	2a2a2a2a 	.word	0x2a2a2a2a
 80030dc:	430a0d2a 	.word	0x430a0d2a
 80030e0:	7279706f 	.word	0x7279706f
 80030e4:	74686769 	.word	0x74686769
 80030e8:	29632820 	.word	0x29632820
 80030ec:	31303220 	.word	0x31303220
 80030f0:	30322d37 	.word	0x30322d37
 80030f4:	202c3831 	.word	0x202c3831
 80030f8:	74726542 	.word	0x74726542
 80030fc:	20646c6f 	.word	0x20646c6f
 8003100:	206e6156 	.word	0x206e6156
 8003104:	206e6564 	.word	0x206e6564
 8003108:	67726542 	.word	0x67726542
 800310c:	76282068 	.word	0x76282068
 8003110:	65646e61 	.word	0x65646e61
 8003114:	7265626e 	.word	0x7265626e
 8003118:	62406867 	.word	0x62406867
 800311c:	6f747265 	.word	0x6f747265
 8003120:	6f2e646c 	.word	0x6f2e646c
 8003124:	0d296772 	.word	0x0d296772
 8003128:	6c6c410a 	.word	0x6c6c410a
 800312c:	67697220 	.word	0x67697220
 8003130:	20737468 	.word	0x20737468
 8003134:	65736572 	.word	0x65736572
 8003138:	64657672 	.word	0x64657672
 800313c:	540a0d2e 	.word	0x540a0d2e
 8003140:	20736968 	.word	0x20736968
 8003144:	6b726f77 	.word	0x6b726f77
 8003148:	73616820 	.word	0x73616820
 800314c:	65656220 	.word	0x65656220
 8003150:	6564206e 	.word	0x6564206e
 8003154:	6f6c6576 	.word	0x6f6c6576
 8003158:	20646570 	.word	0x20646570
 800315c:	73206f74 	.word	0x73206f74
 8003160:	6f707075 	.word	0x6f707075
 8003164:	72207472 	.word	0x72207472
 8003168:	61657365 	.word	0x61657365
 800316c:	20686372 	.word	0x20686372
 8003170:	646e7566 	.word	0x646e7566
 8003174:	62206465 	.word	0x62206465
 8003178:	220a0d79 	.word	0x220a0d79
 800317c:	646e7546 	.word	0x646e7546
 8003180:	726f6620 	.word	0x726f6620
 8003184:	69635320 	.word	0x69635320
 8003188:	69746e65 	.word	0x69746e65
 800318c:	20636966 	.word	0x20636966
 8003190:	65736552 	.word	0x65736552
 8003194:	68637261 	.word	0x68637261
 8003198:	6c46202c 	.word	0x6c46202c
 800319c:	65646e61 	.word	0x65646e61
 80031a0:	20227372 	.word	0x20227372
 80031a4:	572e4628 	.word	0x572e4628
 80031a8:	2d2e4f2e 	.word	0x2d2e4f2e
 80031ac:	61616c56 	.word	0x61616c56
 80031b0:	7265646e 	.word	0x7265646e
 80031b4:	2e296e65 	.word	0x2e296e65
 80031b8:	0a0d0a0d 	.word	0x0a0d0a0d
 80031bc:	69646552 	.word	0x69646552
 80031c0:	69727473 	.word	0x69727473
 80031c4:	69747562 	.word	0x69747562
 80031c8:	61206e6f 	.word	0x61206e6f
 80031cc:	7520646e 	.word	0x7520646e
 80031d0:	69206573 	.word	0x69206573
 80031d4:	6f73206e 	.word	0x6f73206e
 80031d8:	65637275 	.word	0x65637275
 80031dc:	646e6120 	.word	0x646e6120
 80031e0:	6e696220 	.word	0x6e696220
 80031e4:	20797261 	.word	0x20797261
 80031e8:	6d726f66 	.word	0x6d726f66
 80031ec:	77202c73 	.word	0x77202c73
 80031f0:	20687469 	.word	0x20687469
 80031f4:	7720726f 	.word	0x7720726f
 80031f8:	6f687469 	.word	0x6f687469
 80031fc:	0a0d7475 	.word	0x0a0d7475
 8003200:	69646f6d 	.word	0x69646f6d
 8003204:	61636966 	.word	0x61636966
 8003208:	6e6f6974 	.word	0x6e6f6974
 800320c:	7261202c 	.word	0x7261202c
 8003210:	65702065 	.word	0x65702065
 8003214:	74696d72 	.word	0x74696d72
 8003218:	20646574 	.word	0x20646574
 800321c:	766f7270 	.word	0x766f7270
 8003220:	64656469 	.word	0x64656469
 8003224:	61687420 	.word	0x61687420
 8003228:	68742074 	.word	0x68742074
 800322c:	6f662065 	.word	0x6f662065
 8003230:	776f6c6c 	.word	0x776f6c6c
 8003234:	20676e69 	.word	0x20676e69
 8003238:	646e6f63 	.word	0x646e6f63
 800323c:	6f697469 	.word	0x6f697469
 8003240:	6120736e 	.word	0x6120736e
 8003244:	6d206572 	.word	0x6d206572
 8003248:	0d3a7465 	.word	0x0d3a7465
 800324c:	2020200a 	.word	0x2020200a
 8003250:	52202a20 	.word	0x52202a20
 8003254:	73696465 	.word	0x73696465
 8003258:	62697274 	.word	0x62697274
 800325c:	6f697475 	.word	0x6f697475
 8003260:	6f20736e 	.word	0x6f20736e
 8003264:	6f732066 	.word	0x6f732066
 8003268:	65637275 	.word	0x65637275
 800326c:	646f6320 	.word	0x646f6320
 8003270:	756d2065 	.word	0x756d2065
 8003274:	72207473 	.word	0x72207473
 8003278:	69617465 	.word	0x69617465
 800327c:	6874206e 	.word	0x6874206e
 8003280:	62612065 	.word	0x62612065
 8003284:	2065766f 	.word	0x2065766f
 8003288:	79706f63 	.word	0x79706f63
 800328c:	68676972 	.word	0x68676972
 8003290:	200a0d74 	.word	0x200a0d74
 8003294:	20202020 	.word	0x20202020
 8003298:	746f6e20 	.word	0x746f6e20
 800329c:	2c656369 	.word	0x2c656369
 80032a0:	69687420 	.word	0x69687420
 80032a4:	696c2073 	.word	0x696c2073
 80032a8:	6f207473 	.word	0x6f207473
 80032ac:	6f632066 	.word	0x6f632066
 80032b0:	7469646e 	.word	0x7469646e
 80032b4:	736e6f69 	.word	0x736e6f69
 80032b8:	646e6120 	.word	0x646e6120
 80032bc:	65687420 	.word	0x65687420
 80032c0:	6c6f6620 	.word	0x6c6f6620
 80032c4:	69776f6c 	.word	0x69776f6c
 80032c8:	6420676e 	.word	0x6420676e
 80032cc:	6c637369 	.word	0x6c637369
 80032d0:	656d6961 	.word	0x656d6961
 80032d4:	0a0d2e72 	.word	0x0a0d2e72
 80032d8:	20202020 	.word	0x20202020
 80032dc:	6552202a 	.word	0x6552202a
 80032e0:	74736964 	.word	0x74736964
 80032e4:	75626972 	.word	0x75626972
 80032e8:	6e6f6974 	.word	0x6e6f6974
 80032ec:	6e692073 	.word	0x6e692073
 80032f0:	6e696220 	.word	0x6e696220
 80032f4:	20797261 	.word	0x20797261
 80032f8:	6d726f66 	.word	0x6d726f66
 80032fc:	73756d20 	.word	0x73756d20
 8003300:	65722074 	.word	0x65722074
 8003304:	646f7270 	.word	0x646f7270
 8003308:	20656375 	.word	0x20656375
 800330c:	20656874 	.word	0x20656874
 8003310:	766f6261 	.word	0x766f6261
 8003314:	6f632065 	.word	0x6f632065
 8003318:	69727970 	.word	0x69727970
 800331c:	0d746867 	.word	0x0d746867
 8003320:	2020200a 	.word	0x2020200a
 8003324:	6e202020 	.word	0x6e202020
 8003328:	6369746f 	.word	0x6369746f
 800332c:	74202c65 	.word	0x74202c65
 8003330:	20736968 	.word	0x20736968
 8003334:	7473696c 	.word	0x7473696c
 8003338:	20666f20 	.word	0x20666f20
 800333c:	646e6f63 	.word	0x646e6f63
 8003340:	6f697469 	.word	0x6f697469
 8003344:	6120736e 	.word	0x6120736e
 8003348:	7420646e 	.word	0x7420646e
 800334c:	66206568 	.word	0x66206568
 8003350:	6f6c6c6f 	.word	0x6f6c6c6f
 8003354:	676e6977 	.word	0x676e6977
 8003358:	73696420 	.word	0x73696420
 800335c:	69616c63 	.word	0x69616c63
 8003360:	2072656d 	.word	0x2072656d
 8003364:	74206e69 	.word	0x74206e69
 8003368:	0a0d6568 	.word	0x0a0d6568
 800336c:	20202020 	.word	0x20202020
 8003370:	6f642020 	.word	0x6f642020
 8003374:	656d7563 	.word	0x656d7563
 8003378:	7461746e 	.word	0x7461746e
 800337c:	206e6f69 	.word	0x206e6f69
 8003380:	2f646e61 	.word	0x2f646e61
 8003384:	6f20726f 	.word	0x6f20726f
 8003388:	72656874 	.word	0x72656874
 800338c:	74616d20 	.word	0x74616d20
 8003390:	61697265 	.word	0x61697265
 8003394:	7020736c 	.word	0x7020736c
 8003398:	69766f72 	.word	0x69766f72
 800339c:	20646564 	.word	0x20646564
 80033a0:	68746977 	.word	0x68746977
 80033a4:	65687420 	.word	0x65687420
 80033a8:	73696420 	.word	0x73696420
 80033ac:	62697274 	.word	0x62697274
 80033b0:	6f697475 	.word	0x6f697475
 80033b4:	0a0d2e6e 	.word	0x0a0d2e6e
 80033b8:	20202020 	.word	0x20202020
 80033bc:	654e202a 	.word	0x654e202a
 80033c0:	65687469 	.word	0x65687469
 80033c4:	68742072 	.word	0x68742072
 80033c8:	616e2065 	.word	0x616e2065
 80033cc:	6f20656d 	.word	0x6f20656d
 80033d0:	68742066 	.word	0x68742066
 80033d4:	75612065 	.word	0x75612065
 80033d8:	726f6874 	.word	0x726f6874
 80033dc:	726f6e20 	.word	0x726f6e20
 80033e0:	65687420 	.word	0x65687420
 80033e4:	20200a0d 	.word	0x20200a0d
 80033e8:	20202020 	.word	0x20202020
 80033ec:	656d616e 	.word	0x656d616e
 80033f0:	666f2073 	.word	0x666f2073
 80033f4:	73746920 	.word	0x73746920
 80033f8:	6e6f6320 	.word	0x6e6f6320
 80033fc:	62697274 	.word	0x62697274
 8003400:	726f7475 	.word	0x726f7475
 8003404:	616d2073 	.word	0x616d2073
 8003408:	65622079 	.word	0x65622079
 800340c:	65737520 	.word	0x65737520
 8003410:	6f742064 	.word	0x6f742064
 8003414:	646e6520 	.word	0x646e6520
 8003418:	6573726f 	.word	0x6573726f
 800341c:	20726f20 	.word	0x20726f20
 8003420:	6d6f7270 	.word	0x6d6f7270
 8003424:	2065746f 	.word	0x2065746f
 8003428:	646f7270 	.word	0x646f7270
 800342c:	73746375 	.word	0x73746375
 8003430:	20200a0d 	.word	0x20200a0d
 8003434:	20202020 	.word	0x20202020
 8003438:	69726564 	.word	0x69726564
 800343c:	20646576 	.word	0x20646576
 8003440:	6d6f7266 	.word	0x6d6f7266
 8003444:	69687420 	.word	0x69687420
 8003448:	6f732073 	.word	0x6f732073
 800344c:	61777466 	.word	0x61777466
 8003450:	77206572 	.word	0x77206572
 8003454:	6f687469 	.word	0x6f687469
 8003458:	73207475 	.word	0x73207475
 800345c:	69636570 	.word	0x69636570
 8003460:	20636966 	.word	0x20636966
 8003464:	6f697270 	.word	0x6f697270
 8003468:	72772072 	.word	0x72772072
 800346c:	65747469 	.word	0x65747469
 8003470:	6570206e 	.word	0x6570206e
 8003474:	73696d72 	.word	0x73696d72
 8003478:	6e6f6973 	.word	0x6e6f6973
 800347c:	0d0a0d2e 	.word	0x0d0a0d2e
 8003480:	4948540a 	.word	0x4948540a
 8003484:	4f532053 	.word	0x4f532053
 8003488:	41575446 	.word	0x41575446
 800348c:	49204552 	.word	0x49204552
 8003490:	52502053 	.word	0x52502053
 8003494:	4449564f 	.word	0x4449564f
 8003498:	42204445 	.word	0x42204445
 800349c:	48542059 	.word	0x48542059
 80034a0:	4f432045 	.word	0x4f432045
 80034a4:	49525950 	.word	0x49525950
 80034a8:	20544847 	.word	0x20544847
 80034ac:	444c4f48 	.word	0x444c4f48
 80034b0:	20535245 	.word	0x20535245
 80034b4:	20444e41 	.word	0x20444e41
 80034b8:	544e4f43 	.word	0x544e4f43
 80034bc:	55424952 	.word	0x55424952
 80034c0:	53524f54 	.word	0x53524f54
 80034c4:	53412220 	.word	0x53412220
 80034c8:	22534920 	.word	0x22534920
 80034cc:	444e4120 	.word	0x444e4120
 80034d0:	4e410a0d 	.word	0x4e410a0d
 80034d4:	58452059 	.word	0x58452059
 80034d8:	53455250 	.word	0x53455250
 80034dc:	524f2053 	.word	0x524f2053
 80034e0:	504d4920 	.word	0x504d4920
 80034e4:	4445494c 	.word	0x4445494c
 80034e8:	52415720 	.word	0x52415720
 80034ec:	544e4152 	.word	0x544e4152
 80034f0:	2c534549 	.word	0x2c534549
 80034f4:	434e4920 	.word	0x434e4920
 80034f8:	4944554c 	.word	0x4944554c
 80034fc:	202c474e 	.word	0x202c474e
 8003500:	20545542 	.word	0x20545542
 8003504:	20544f4e 	.word	0x20544f4e
 8003508:	494d494c 	.word	0x494d494c
 800350c:	20444554 	.word	0x20444554
 8003510:	202c4f54 	.word	0x202c4f54
 8003514:	20454854 	.word	0x20454854
 8003518:	4c504d49 	.word	0x4c504d49
 800351c:	0d444549 	.word	0x0d444549
 8003520:	5241570a 	.word	0x5241570a
 8003524:	544e4152 	.word	0x544e4152
 8003528:	20534549 	.word	0x20534549
 800352c:	4d20464f 	.word	0x4d20464f
 8003530:	48435245 	.word	0x48435245
 8003534:	41544e41 	.word	0x41544e41
 8003538:	494c4942 	.word	0x494c4942
 800353c:	41205954 	.word	0x41205954
 8003540:	4620444e 	.word	0x4620444e
 8003544:	454e5449 	.word	0x454e5449
 8003548:	46205353 	.word	0x46205353
 800354c:	4120524f 	.word	0x4120524f
 8003550:	52415020 	.word	0x52415020
 8003554:	55434954 	.word	0x55434954
 8003558:	2052414c 	.word	0x2052414c
 800355c:	50525550 	.word	0x50525550
 8003560:	2045534f 	.word	0x2045534f
 8003564:	0d455241 	.word	0x0d455241
 8003568:	5349440a 	.word	0x5349440a
 800356c:	49414c43 	.word	0x49414c43
 8003570:	2e44454d 	.word	0x2e44454d
 8003574:	204e4920 	.word	0x204e4920
 8003578:	45204f4e 	.word	0x45204f4e
 800357c:	544e4556 	.word	0x544e4556
 8003580:	41485320 	.word	0x41485320
 8003584:	54204c4c 	.word	0x54204c4c
 8003588:	41204548 	.word	0x41204548
 800358c:	4f485455 	.word	0x4f485455
 8003590:	524f2052 	.word	0x524f2052
 8003594:	53494420 	.word	0x53494420
 8003598:	42495254 	.word	0x42495254
 800359c:	524f5455 	.word	0x524f5455
 80035a0:	20454220 	.word	0x20454220
 80035a4:	4241494c 	.word	0x4241494c
 80035a8:	4620454c 	.word	0x4620454c
 80035ac:	4120524f 	.word	0x4120524f
 80035b0:	0a0d594e 	.word	0x0a0d594e
 80035b4:	45524944 	.word	0x45524944
 80035b8:	202c5443 	.word	0x202c5443
 80035bc:	49444e49 	.word	0x49444e49
 80035c0:	54434552 	.word	0x54434552
 80035c4:	4e49202c 	.word	0x4e49202c
 80035c8:	45444943 	.word	0x45444943
 80035cc:	4c41544e 	.word	0x4c41544e
 80035d0:	5053202c 	.word	0x5053202c
 80035d4:	41494345 	.word	0x41494345
 80035d8:	45202c4c 	.word	0x45202c4c
 80035dc:	504d4558 	.word	0x504d4558
 80035e0:	5952414c 	.word	0x5952414c
 80035e4:	524f202c 	.word	0x524f202c
 80035e8:	4e4f4320 	.word	0x4e4f4320
 80035ec:	55514553 	.word	0x55514553
 80035f0:	49544e45 	.word	0x49544e45
 80035f4:	44204c41 	.word	0x44204c41
 80035f8:	47414d41 	.word	0x47414d41
 80035fc:	0a0d5345 	.word	0x0a0d5345
 8003600:	434e4928 	.word	0x434e4928
 8003604:	4944554c 	.word	0x4944554c
 8003608:	202c474e 	.word	0x202c474e
 800360c:	20545542 	.word	0x20545542
 8003610:	20544f4e 	.word	0x20544f4e
 8003614:	494d494c 	.word	0x494d494c
 8003618:	20444554 	.word	0x20444554
 800361c:	202c4f54 	.word	0x202c4f54
 8003620:	434f5250 	.word	0x434f5250
 8003624:	4d455255 	.word	0x4d455255
 8003628:	20544e45 	.word	0x20544e45
 800362c:	5320464f 	.word	0x5320464f
 8003630:	54534255 	.word	0x54534255
 8003634:	54555449 	.word	0x54555449
 8003638:	4f472045 	.word	0x4f472045
 800363c:	2053444f 	.word	0x2053444f
 8003640:	5320524f 	.word	0x5320524f
 8003644:	49565245 	.word	0x49565245
 8003648:	3b534543 	.word	0x3b534543
 800364c:	4f4c0a0d 	.word	0x4f4c0a0d
 8003650:	4f205353 	.word	0x4f205353
 8003654:	53552046 	.word	0x53552046
 8003658:	44202c45 	.word	0x44202c45
 800365c:	2c415441 	.word	0x2c415441
 8003660:	20524f20 	.word	0x20524f20
 8003664:	464f5250 	.word	0x464f5250
 8003668:	3b535449 	.word	0x3b535449
 800366c:	20524f20 	.word	0x20524f20
 8003670:	49535542 	.word	0x49535542
 8003674:	5353454e 	.word	0x5353454e
 8003678:	544e4920 	.word	0x544e4920
 800367c:	55525245 	.word	0x55525245
 8003680:	4f495450 	.word	0x4f495450
 8003684:	4820294e 	.word	0x4820294e
 8003688:	5645574f 	.word	0x5645574f
 800368c:	43205245 	.word	0x43205245
 8003690:	45535541 	.word	0x45535541
 8003694:	4e412044 	.word	0x4e412044
 8003698:	4f0a0d44 	.word	0x4f0a0d44
 800369c:	4e41204e 	.word	0x4e41204e
 80036a0:	48542059 	.word	0x48542059
 80036a4:	59524f45 	.word	0x59524f45
 80036a8:	20464f20 	.word	0x20464f20
 80036ac:	4241494c 	.word	0x4241494c
 80036b0:	54494c49 	.word	0x54494c49
 80036b4:	57202c59 	.word	0x57202c59
 80036b8:	48544548 	.word	0x48544548
 80036bc:	49205245 	.word	0x49205245
 80036c0:	4f43204e 	.word	0x4f43204e
 80036c4:	4152544e 	.word	0x4152544e
 80036c8:	202c5443 	.word	0x202c5443
 80036cc:	49525453 	.word	0x49525453
 80036d0:	4c205443 	.word	0x4c205443
 80036d4:	49424149 	.word	0x49424149
 80036d8:	5954494c 	.word	0x5954494c
 80036dc:	524f202c 	.word	0x524f202c
 80036e0:	524f5420 	.word	0x524f5420
 80036e4:	280a0d54 	.word	0x280a0d54
 80036e8:	4c434e49 	.word	0x4c434e49
 80036ec:	4e494455 	.word	0x4e494455
 80036f0:	454e2047 	.word	0x454e2047
 80036f4:	47494c47 	.word	0x47494c47
 80036f8:	45434e45 	.word	0x45434e45
 80036fc:	20524f20 	.word	0x20524f20
 8003700:	4548544f 	.word	0x4548544f
 8003704:	53495752 	.word	0x53495752
 8003708:	41202945 	.word	0x41202945
 800370c:	49534952 	.word	0x49534952
 8003710:	4920474e 	.word	0x4920474e
 8003714:	4e41204e 	.word	0x4e41204e
 8003718:	41572059 	.word	0x41572059
 800371c:	554f2059 	.word	0x554f2059
 8003720:	464f2054 	.word	0x464f2054
 8003724:	45485420 	.word	0x45485420
 8003728:	45535520 	.word	0x45535520
 800372c:	20464f20 	.word	0x20464f20
 8003730:	53494854 	.word	0x53494854
 8003734:	4f530a0d 	.word	0x4f530a0d
 8003738:	41575446 	.word	0x41575446
 800373c:	202c4552 	.word	0x202c4552
 8003740:	4e455645 	.word	0x4e455645
 8003744:	20464920 	.word	0x20464920
 8003748:	49564441 	.word	0x49564441
 800374c:	20444553 	.word	0x20444553
 8003750:	5420464f 	.word	0x5420464f
 8003754:	50204548 	.word	0x50204548
 8003758:	4953534f 	.word	0x4953534f
 800375c:	494c4942 	.word	0x494c4942
 8003760:	4f205954 	.word	0x4f205954
 8003764:	55532046 	.word	0x55532046
 8003768:	44204843 	.word	0x44204843
 800376c:	47414d41 	.word	0x47414d41
 8003770:	0a0d2e45 	.word	0x0a0d2e45
 8003774:	2a2a2a2a 	.word	0x2a2a2a2a
 8003778:	2a2a2a2a 	.word	0x2a2a2a2a
 800377c:	2a2a2a2a 	.word	0x2a2a2a2a
 8003780:	2a2a2a2a 	.word	0x2a2a2a2a
 8003784:	2a2a2a2a 	.word	0x2a2a2a2a
 8003788:	2a2a2a2a 	.word	0x2a2a2a2a
 800378c:	2a2a2a2a 	.word	0x2a2a2a2a
 8003790:	2a2a2a2a 	.word	0x2a2a2a2a
 8003794:	2a2a2a2a 	.word	0x2a2a2a2a
 8003798:	2a2a2a2a 	.word	0x2a2a2a2a
 800379c:	2a2a2a2a 	.word	0x2a2a2a2a
 80037a0:	2a2a2a2a 	.word	0x2a2a2a2a
 80037a4:	2a2a2a2a 	.word	0x2a2a2a2a
 80037a8:	2a2a2a2a 	.word	0x2a2a2a2a
 80037ac:	2a2a2a2a 	.word	0x2a2a2a2a
 80037b0:	2a2a2a2a 	.word	0x2a2a2a2a
 80037b4:	2a2a2a2a 	.word	0x2a2a2a2a
 80037b8:	2a2a2a2a 	.word	0x2a2a2a2a
 80037bc:	2a2a2a2a 	.word	0x2a2a2a2a
 80037c0:	2a2a2a2a 	.word	0x2a2a2a2a
 80037c4:	0a0d2a2a 	.word	0x0a0d2a2a
 80037c8:	0d00      	.short	0x0d00
 80037ca:	0a          	.byte	0x0a

080037cb <_binary_data_license_bin_end>:
	...

080037cc <__aeabi_uldivmod>:
 80037cc:	b953      	cbnz	r3, 80037e4 <__aeabi_uldivmod+0x18>
 80037ce:	b94a      	cbnz	r2, 80037e4 <__aeabi_uldivmod+0x18>
 80037d0:	2900      	cmp	r1, #0
 80037d2:	bf08      	it	eq
 80037d4:	2800      	cmpeq	r0, #0
 80037d6:	bf1c      	itt	ne
 80037d8:	f04f 31ff 	movne.w	r1, #4294967295	; 0xffffffff
 80037dc:	f04f 30ff 	movne.w	r0, #4294967295	; 0xffffffff
 80037e0:	f000 b96e 	b.w	8003ac0 <__aeabi_idiv0>
 80037e4:	f1ad 0c08 	sub.w	ip, sp, #8
 80037e8:	e96d ce04 	strd	ip, lr, [sp, #-16]!
 80037ec:	f000 f806 	bl	80037fc <__udivmoddi4>
 80037f0:	f8dd e004 	ldr.w	lr, [sp, #4]
 80037f4:	e9dd 2302 	ldrd	r2, r3, [sp, #8]
 80037f8:	b004      	add	sp, #16
 80037fa:	4770      	bx	lr

080037fc <__udivmoddi4>:
 80037fc:	e92d 47f0 	stmdb	sp!, {r4, r5, r6, r7, r8, r9, sl, lr}
 8003800:	9e08      	ldr	r6, [sp, #32]
 8003802:	460d      	mov	r5, r1
 8003804:	4604      	mov	r4, r0
 8003806:	468e      	mov	lr, r1
 8003808:	2b00      	cmp	r3, #0
 800380a:	f040 8083 	bne.w	8003914 <__udivmoddi4+0x118>
 800380e:	428a      	cmp	r2, r1
 8003810:	4617      	mov	r7, r2
 8003812:	d947      	bls.n	80038a4 <__udivmoddi4+0xa8>
 8003814:	fab2 f382 	clz	r3, r2
 8003818:	b14b      	cbz	r3, 800382e <__udivmoddi4+0x32>
 800381a:	f1c3 0120 	rsb	r1, r3, #32
 800381e:	fa05 fe03 	lsl.w	lr, r5, r3
 8003822:	fa20 f101 	lsr.w	r1, r0, r1
 8003826:	409f      	lsls	r7, r3
 8003828:	ea41 0e0e 	orr.w	lr, r1, lr
 800382c:	409c      	lsls	r4, r3
 800382e:	ea4f 4817 	mov.w	r8, r7, lsr #16
 8003832:	fbbe fcf8 	udiv	ip, lr, r8
 8003836:	fa1f f987 	uxth.w	r9, r7
 800383a:	fb08 e21c 	mls	r2, r8, ip, lr
 800383e:	fb0c f009 	mul.w	r0, ip, r9
 8003842:	0c21      	lsrs	r1, r4, #16
 8003844:	ea41 4202 	orr.w	r2, r1, r2, lsl #16
 8003848:	4290      	cmp	r0, r2
 800384a:	d90a      	bls.n	8003862 <__udivmoddi4+0x66>
 800384c:	18ba      	adds	r2, r7, r2
 800384e:	f10c 31ff 	add.w	r1, ip, #4294967295	; 0xffffffff
 8003852:	f080 8118 	bcs.w	8003a86 <__udivmoddi4+0x28a>
 8003856:	4290      	cmp	r0, r2
 8003858:	f240 8115 	bls.w	8003a86 <__udivmoddi4+0x28a>
 800385c:	f1ac 0c02 	sub.w	ip, ip, #2
 8003860:	443a      	add	r2, r7
 8003862:	1a12      	subs	r2, r2, r0
 8003864:	fbb2 f0f8 	udiv	r0, r2, r8
 8003868:	fb08 2210 	mls	r2, r8, r0, r2
 800386c:	fb00 f109 	mul.w	r1, r0, r9
 8003870:	b2a4      	uxth	r4, r4
 8003872:	ea44 4402 	orr.w	r4, r4, r2, lsl #16
 8003876:	42a1      	cmp	r1, r4
 8003878:	d909      	bls.n	800388e <__udivmoddi4+0x92>
 800387a:	193c      	adds	r4, r7, r4
 800387c:	f100 32ff 	add.w	r2, r0, #4294967295	; 0xffffffff
 8003880:	f080 8103 	bcs.w	8003a8a <__udivmoddi4+0x28e>
 8003884:	42a1      	cmp	r1, r4
 8003886:	f240 8100 	bls.w	8003a8a <__udivmoddi4+0x28e>
 800388a:	3802      	subs	r0, #2
 800388c:	443c      	add	r4, r7
 800388e:	1a64      	subs	r4, r4, r1
 8003890:	2100      	movs	r1, #0
 8003892:	ea40 400c 	orr.w	r0, r0, ip, lsl #16
 8003896:	b11e      	cbz	r6, 80038a0 <__udivmoddi4+0xa4>
 8003898:	2200      	movs	r2, #0
 800389a:	40dc      	lsrs	r4, r3
 800389c:	e9c6 4200 	strd	r4, r2, [r6]
 80038a0:	e8bd 87f0 	ldmia.w	sp!, {r4, r5, r6, r7, r8, r9, sl, pc}
 80038a4:	b902      	cbnz	r2, 80038a8 <__udivmoddi4+0xac>
 80038a6:	deff      	udf	#255	; 0xff
 80038a8:	fab2 f382 	clz	r3, r2
 80038ac:	2b00      	cmp	r3, #0
 80038ae:	d14f      	bne.n	8003950 <__udivmoddi4+0x154>
 80038b0:	1a8d      	subs	r5, r1, r2
 80038b2:	2101      	movs	r1, #1
 80038b4:	ea4f 4e12 	mov.w	lr, r2, lsr #16
 80038b8:	fa1f f882 	uxth.w	r8, r2
 80038bc:	fbb5 fcfe 	udiv	ip, r5, lr
 80038c0:	fb0e 551c 	mls	r5, lr, ip, r5
 80038c4:	fb08 f00c 	mul.w	r0, r8, ip
 80038c8:	0c22      	lsrs	r2, r4, #16
 80038ca:	ea42 4505 	orr.w	r5, r2, r5, lsl #16
 80038ce:	42a8      	cmp	r0, r5
 80038d0:	d907      	bls.n	80038e2 <__udivmoddi4+0xe6>
 80038d2:	197d      	adds	r5, r7, r5
 80038d4:	f10c 32ff 	add.w	r2, ip, #4294967295	; 0xffffffff
 80038d8:	d202      	bcs.n	80038e0 <__udivmoddi4+0xe4>
 80038da:	42a8      	cmp	r0, r5
 80038dc:	f200 80e9 	bhi.w	8003ab2 <__udivmoddi4+0x2b6>
 80038e0:	4694      	mov	ip, r2
 80038e2:	1a2d      	subs	r5, r5, r0
 80038e4:	fbb5 f0fe 	udiv	r0, r5, lr
 80038e8:	fb0e 5510 	mls	r5, lr, r0, r5
 80038ec:	fb08 f800 	mul.w	r8, r8, r0
 80038f0:	b2a4      	uxth	r4, r4
 80038f2:	ea44 4405 	orr.w	r4, r4, r5, lsl #16
 80038f6:	45a0      	cmp	r8, r4
 80038f8:	d907      	bls.n	800390a <__udivmoddi4+0x10e>
 80038fa:	193c      	adds	r4, r7, r4
 80038fc:	f100 32ff 	add.w	r2, r0, #4294967295	; 0xffffffff
 8003900:	d202      	bcs.n	8003908 <__udivmoddi4+0x10c>
 8003902:	45a0      	cmp	r8, r4
 8003904:	f200 80d9 	bhi.w	8003aba <__udivmoddi4+0x2be>
 8003908:	4610      	mov	r0, r2
 800390a:	eba4 0408 	sub.w	r4, r4, r8
 800390e:	ea40 400c 	orr.w	r0, r0, ip, lsl #16
 8003912:	e7c0      	b.n	8003896 <__udivmoddi4+0x9a>
 8003914:	428b      	cmp	r3, r1
 8003916:	d908      	bls.n	800392a <__udivmoddi4+0x12e>
 8003918:	2e00      	cmp	r6, #0
 800391a:	f000 80b1 	beq.w	8003a80 <__udivmoddi4+0x284>
 800391e:	2100      	movs	r1, #0
 8003920:	e9c6 0500 	strd	r0, r5, [r6]
 8003924:	4608      	mov	r0, r1
 8003926:	e8bd 87f0 	ldmia.w	sp!, {r4, r5, r6, r7, r8, r9, sl, pc}
 800392a:	fab3 f183 	clz	r1, r3
 800392e:	2900      	cmp	r1, #0
 8003930:	d14b      	bne.n	80039ca <__udivmoddi4+0x1ce>
 8003932:	42ab      	cmp	r3, r5
 8003934:	d302      	bcc.n	800393c <__udivmoddi4+0x140>
 8003936:	4282      	cmp	r2, r0
 8003938:	f200 80b9 	bhi.w	8003aae <__udivmoddi4+0x2b2>
 800393c:	1a84      	subs	r4, r0, r2
 800393e:	eb65 0303 	sbc.w	r3, r5, r3
 8003942:	2001      	movs	r0, #1
 8003944:	469e      	mov	lr, r3
 8003946:	2e00      	cmp	r6, #0
 8003948:	d0aa      	beq.n	80038a0 <__udivmoddi4+0xa4>
 800394a:	e9c6 4e00 	strd	r4, lr, [r6]
 800394e:	e7a7      	b.n	80038a0 <__udivmoddi4+0xa4>
 8003950:	409f      	lsls	r7, r3
 8003952:	f1c3 0220 	rsb	r2, r3, #32
 8003956:	40d1      	lsrs	r1, r2
 8003958:	ea4f 4e17 	mov.w	lr, r7, lsr #16
 800395c:	fbb1 f0fe 	udiv	r0, r1, lr
 8003960:	fa1f f887 	uxth.w	r8, r7
 8003964:	fb0e 1110 	mls	r1, lr, r0, r1
 8003968:	fa24 f202 	lsr.w	r2, r4, r2
 800396c:	409d      	lsls	r5, r3
 800396e:	fb00 fc08 	mul.w	ip, r0, r8
 8003972:	432a      	orrs	r2, r5
 8003974:	0c15      	lsrs	r5, r2, #16
 8003976:	ea45 4501 	orr.w	r5, r5, r1, lsl #16
 800397a:	45ac      	cmp	ip, r5
 800397c:	fa04 f403 	lsl.w	r4, r4, r3
 8003980:	d909      	bls.n	8003996 <__udivmoddi4+0x19a>
 8003982:	197d      	adds	r5, r7, r5
 8003984:	f100 31ff 	add.w	r1, r0, #4294967295	; 0xffffffff
 8003988:	f080 808f 	bcs.w	8003aaa <__udivmoddi4+0x2ae>
 800398c:	45ac      	cmp	ip, r5
 800398e:	f240 808c 	bls.w	8003aaa <__udivmoddi4+0x2ae>
 8003992:	3802      	subs	r0, #2
 8003994:	443d      	add	r5, r7
 8003996:	eba5 050c 	sub.w	r5, r5, ip
 800399a:	fbb5 f1fe 	udiv	r1, r5, lr
 800399e:	fb0e 5c11 	mls	ip, lr, r1, r5
 80039a2:	fb01 f908 	mul.w	r9, r1, r8
 80039a6:	b295      	uxth	r5, r2
 80039a8:	ea45 450c 	orr.w	r5, r5, ip, lsl #16
 80039ac:	45a9      	cmp	r9, r5
 80039ae:	d907      	bls.n	80039c0 <__udivmoddi4+0x1c4>
 80039b0:	197d      	adds	r5, r7, r5
 80039b2:	f101 32ff 	add.w	r2, r1, #4294967295	; 0xffffffff
 80039b6:	d274      	bcs.n	8003aa2 <__udivmoddi4+0x2a6>
 80039b8:	45a9      	cmp	r9, r5
 80039ba:	d972      	bls.n	8003aa2 <__udivmoddi4+0x2a6>
 80039bc:	3902      	subs	r1, #2
 80039be:	443d      	add	r5, r7
 80039c0:	eba5 0509 	sub.w	r5, r5, r9
 80039c4:	ea41 4100 	orr.w	r1, r1, r0, lsl #16
 80039c8:	e778      	b.n	80038bc <__udivmoddi4+0xc0>
 80039ca:	f1c1 0720 	rsb	r7, r1, #32
 80039ce:	408b      	lsls	r3, r1
 80039d0:	fa22 fc07 	lsr.w	ip, r2, r7
 80039d4:	ea4c 0c03 	orr.w	ip, ip, r3
 80039d8:	fa25 f407 	lsr.w	r4, r5, r7
 80039dc:	ea4f 4e1c 	mov.w	lr, ip, lsr #16
 80039e0:	fbb4 f9fe 	udiv	r9, r4, lr
 80039e4:	fa1f f88c 	uxth.w	r8, ip
 80039e8:	fb0e 4419 	mls	r4, lr, r9, r4
 80039ec:	fa20 f307 	lsr.w	r3, r0, r7
 80039f0:	fb09 fa08 	mul.w	sl, r9, r8
 80039f4:	408d      	lsls	r5, r1
 80039f6:	431d      	orrs	r5, r3
 80039f8:	0c2b      	lsrs	r3, r5, #16
 80039fa:	ea43 4404 	orr.w	r4, r3, r4, lsl #16
 80039fe:	45a2      	cmp	sl, r4
 8003a00:	fa02 f201 	lsl.w	r2, r2, r1
 8003a04:	fa00 f301 	lsl.w	r3, r0, r1
 8003a08:	d909      	bls.n	8003a1e <__udivmoddi4+0x222>
 8003a0a:	eb1c 0404 	adds.w	r4, ip, r4
 8003a0e:	f109 30ff 	add.w	r0, r9, #4294967295	; 0xffffffff
 8003a12:	d248      	bcs.n	8003aa6 <__udivmoddi4+0x2aa>
 8003a14:	45a2      	cmp	sl, r4
 8003a16:	d946      	bls.n	8003aa6 <__udivmoddi4+0x2aa>
 8003a18:	f1a9 0902 	sub.w	r9, r9, #2
 8003a1c:	4464      	add	r4, ip
 8003a1e:	eba4 040a 	sub.w	r4, r4, sl
 8003a22:	fbb4 f0fe 	udiv	r0, r4, lr
 8003a26:	fb0e 4410 	mls	r4, lr, r0, r4
 8003a2a:	fb00 fa08 	mul.w	sl, r0, r8
 8003a2e:	b2ad      	uxth	r5, r5
 8003a30:	ea45 4404 	orr.w	r4, r5, r4, lsl #16
 8003a34:	45a2      	cmp	sl, r4
 8003a36:	d908      	bls.n	8003a4a <__udivmoddi4+0x24e>
 8003a38:	eb1c 0404 	adds.w	r4, ip, r4
 8003a3c:	f100 35ff 	add.w	r5, r0, #4294967295	; 0xffffffff
 8003a40:	d22d      	bcs.n	8003a9e <__udivmoddi4+0x2a2>
 8003a42:	45a2      	cmp	sl, r4
 8003a44:	d92b      	bls.n	8003a9e <__udivmoddi4+0x2a2>
 8003a46:	3802      	subs	r0, #2
 8003a48:	4464      	add	r4, ip
 8003a4a:	ea40 4009 	orr.w	r0, r0, r9, lsl #16
 8003a4e:	fba0 8902 	umull	r8, r9, r0, r2
 8003a52:	eba4 040a 	sub.w	r4, r4, sl
 8003a56:	454c      	cmp	r4, r9
 8003a58:	46c6      	mov	lr, r8
 8003a5a:	464d      	mov	r5, r9
 8003a5c:	d319      	bcc.n	8003a92 <__udivmoddi4+0x296>
 8003a5e:	d016      	beq.n	8003a8e <__udivmoddi4+0x292>
 8003a60:	b15e      	cbz	r6, 8003a7a <__udivmoddi4+0x27e>
 8003a62:	ebb3 020e 	subs.w	r2, r3, lr
 8003a66:	eb64 0405 	sbc.w	r4, r4, r5
 8003a6a:	fa04 f707 	lsl.w	r7, r4, r7
 8003a6e:	fa22 f301 	lsr.w	r3, r2, r1
 8003a72:	431f      	orrs	r7, r3
 8003a74:	40cc      	lsrs	r4, r1
 8003a76:	e9c6 7400 	strd	r7, r4, [r6]
 8003a7a:	2100      	movs	r1, #0
 8003a7c:	e8bd 87f0 	ldmia.w	sp!, {r4, r5, r6, r7, r8, r9, sl, pc}
 8003a80:	4631      	mov	r1, r6
 8003a82:	4630      	mov	r0, r6
 8003a84:	e70c      	b.n	80038a0 <__udivmoddi4+0xa4>
 8003a86:	468c      	mov	ip, r1
 8003a88:	e6eb      	b.n	8003862 <__udivmoddi4+0x66>
 8003a8a:	4610      	mov	r0, r2
 8003a8c:	e6ff      	b.n	800388e <__udivmoddi4+0x92>
 8003a8e:	4543      	cmp	r3, r8
 8003a90:	d2e6      	bcs.n	8003a60 <__udivmoddi4+0x264>
 8003a92:	ebb8 0e02 	subs.w	lr, r8, r2
 8003a96:	eb69 050c 	sbc.w	r5, r9, ip
 8003a9a:	3801      	subs	r0, #1
 8003a9c:	e7e0      	b.n	8003a60 <__udivmoddi4+0x264>
 8003a9e:	4628      	mov	r0, r5
 8003aa0:	e7d3      	b.n	8003a4a <__udivmoddi4+0x24e>
 8003aa2:	4611      	mov	r1, r2
 8003aa4:	e78c      	b.n	80039c0 <__udivmoddi4+0x1c4>
 8003aa6:	4681      	mov	r9, r0
 8003aa8:	e7b9      	b.n	8003a1e <__udivmoddi4+0x222>
 8003aaa:	4608      	mov	r0, r1
 8003aac:	e773      	b.n	8003996 <__udivmoddi4+0x19a>
 8003aae:	4608      	mov	r0, r1
 8003ab0:	e749      	b.n	8003946 <__udivmoddi4+0x14a>
 8003ab2:	f1ac 0c02 	sub.w	ip, ip, #2
 8003ab6:	443d      	add	r5, r7
 8003ab8:	e713      	b.n	80038e2 <__udivmoddi4+0xe6>
 8003aba:	3802      	subs	r0, #2
 8003abc:	443c      	add	r4, r7
 8003abe:	e724      	b.n	800390a <__udivmoddi4+0x10e>

08003ac0 <__aeabi_idiv0>:
 8003ac0:	4770      	bx	lr
 8003ac2:	bf00      	nop

08003ac4 <memcpy>:
 8003ac4:	4684      	mov	ip, r0
 8003ac6:	ea41 0300 	orr.w	r3, r1, r0
 8003aca:	f013 0303 	ands.w	r3, r3, #3
 8003ace:	d149      	bne.n	8003b64 <memcpy+0xa0>
 8003ad0:	3a40      	subs	r2, #64	; 0x40
 8003ad2:	d323      	bcc.n	8003b1c <memcpy+0x58>
 8003ad4:	680b      	ldr	r3, [r1, #0]
 8003ad6:	6003      	str	r3, [r0, #0]
 8003ad8:	684b      	ldr	r3, [r1, #4]
 8003ada:	6043      	str	r3, [r0, #4]
 8003adc:	688b      	ldr	r3, [r1, #8]
 8003ade:	6083      	str	r3, [r0, #8]
 8003ae0:	68cb      	ldr	r3, [r1, #12]
 8003ae2:	60c3      	str	r3, [r0, #12]
 8003ae4:	690b      	ldr	r3, [r1, #16]
 8003ae6:	6103      	str	r3, [r0, #16]
 8003ae8:	694b      	ldr	r3, [r1, #20]
 8003aea:	6143      	str	r3, [r0, #20]
 8003aec:	698b      	ldr	r3, [r1, #24]
 8003aee:	6183      	str	r3, [r0, #24]
 8003af0:	69cb      	ldr	r3, [r1, #28]
 8003af2:	61c3      	str	r3, [r0, #28]
 8003af4:	6a0b      	ldr	r3, [r1, #32]
 8003af6:	6203      	str	r3, [r0, #32]
 8003af8:	6a4b      	ldr	r3, [r1, #36]	; 0x24
 8003afa:	6243      	str	r3, [r0, #36]	; 0x24
 8003afc:	6a8b      	ldr	r3, [r1, #40]	; 0x28
 8003afe:	6283      	str	r3, [r0, #40]	; 0x28
 8003b00:	6acb      	ldr	r3, [r1, #44]	; 0x2c
 8003b02:	62c3      	str	r3, [r0, #44]	; 0x2c
 8003b04:	6b0b      	ldr	r3, [r1, #48]	; 0x30
 8003b06:	6303      	str	r3, [r0, #48]	; 0x30
 8003b08:	6b4b      	ldr	r3, [r1, #52]	; 0x34
 8003b0a:	6343      	str	r3, [r0, #52]	; 0x34
 8003b0c:	6b8b      	ldr	r3, [r1, #56]	; 0x38
 8003b0e:	6383      	str	r3, [r0, #56]	; 0x38
 8003b10:	6bcb      	ldr	r3, [r1, #60]	; 0x3c
 8003b12:	63c3      	str	r3, [r0, #60]	; 0x3c
 8003b14:	3040      	adds	r0, #64	; 0x40
 8003b16:	3140      	adds	r1, #64	; 0x40
 8003b18:	3a40      	subs	r2, #64	; 0x40
 8003b1a:	d2db      	bcs.n	8003ad4 <memcpy+0x10>
 8003b1c:	3230      	adds	r2, #48	; 0x30
 8003b1e:	d30b      	bcc.n	8003b38 <memcpy+0x74>
 8003b20:	680b      	ldr	r3, [r1, #0]
 8003b22:	6003      	str	r3, [r0, #0]
 8003b24:	684b      	ldr	r3, [r1, #4]
 8003b26:	6043      	str	r3, [r0, #4]
 8003b28:	688b      	ldr	r3, [r1, #8]
 8003b2a:	6083      	str	r3, [r0, #8]
 8003b2c:	68cb      	ldr	r3, [r1, #12]
 8003b2e:	60c3      	str	r3, [r0, #12]
 8003b30:	3010      	adds	r0, #16
 8003b32:	3110      	adds	r1, #16
 8003b34:	3a10      	subs	r2, #16
 8003b36:	d2f3      	bcs.n	8003b20 <memcpy+0x5c>
 8003b38:	320c      	adds	r2, #12
 8003b3a:	d305      	bcc.n	8003b48 <memcpy+0x84>
 8003b3c:	f851 3b04 	ldr.w	r3, [r1], #4
 8003b40:	f840 3b04 	str.w	r3, [r0], #4
 8003b44:	3a04      	subs	r2, #4
 8003b46:	d2f9      	bcs.n	8003b3c <memcpy+0x78>
 8003b48:	3204      	adds	r2, #4
 8003b4a:	d008      	beq.n	8003b5e <memcpy+0x9a>
 8003b4c:	07d2      	lsls	r2, r2, #31
 8003b4e:	bf1c      	itt	ne
 8003b50:	f811 3b01 	ldrbne.w	r3, [r1], #1
 8003b54:	f800 3b01 	strbne.w	r3, [r0], #1
 8003b58:	d301      	bcc.n	8003b5e <memcpy+0x9a>
 8003b5a:	880b      	ldrh	r3, [r1, #0]
 8003b5c:	8003      	strh	r3, [r0, #0]
 8003b5e:	4660      	mov	r0, ip
 8003b60:	4770      	bx	lr
 8003b62:	bf00      	nop
 8003b64:	2a08      	cmp	r2, #8
 8003b66:	d313      	bcc.n	8003b90 <memcpy+0xcc>
 8003b68:	078b      	lsls	r3, r1, #30
 8003b6a:	d0b1      	beq.n	8003ad0 <memcpy+0xc>
 8003b6c:	f010 0303 	ands.w	r3, r0, #3
 8003b70:	d0ae      	beq.n	8003ad0 <memcpy+0xc>
 8003b72:	f1c3 0304 	rsb	r3, r3, #4
 8003b76:	1ad2      	subs	r2, r2, r3
 8003b78:	07db      	lsls	r3, r3, #31
 8003b7a:	bf1c      	itt	ne
 8003b7c:	f811 3b01 	ldrbne.w	r3, [r1], #1
 8003b80:	f800 3b01 	strbne.w	r3, [r0], #1
 8003b84:	d3a4      	bcc.n	8003ad0 <memcpy+0xc>
 8003b86:	f831 3b02 	ldrh.w	r3, [r1], #2
 8003b8a:	f820 3b02 	strh.w	r3, [r0], #2
 8003b8e:	e79f      	b.n	8003ad0 <memcpy+0xc>
 8003b90:	3a04      	subs	r2, #4
 8003b92:	d3d9      	bcc.n	8003b48 <memcpy+0x84>
 8003b94:	3a01      	subs	r2, #1
 8003b96:	f811 3b01 	ldrb.w	r3, [r1], #1
 8003b9a:	f800 3b01 	strb.w	r3, [r0], #1
 8003b9e:	d2f9      	bcs.n	8003b94 <memcpy+0xd0>
 8003ba0:	780b      	ldrb	r3, [r1, #0]
 8003ba2:	7003      	strb	r3, [r0, #0]
 8003ba4:	784b      	ldrb	r3, [r1, #1]
 8003ba6:	7043      	strb	r3, [r0, #1]
 8003ba8:	788b      	ldrb	r3, [r1, #2]
 8003baa:	7083      	strb	r3, [r0, #2]
 8003bac:	4660      	mov	r0, ip
 8003bae:	4770      	bx	lr

08003bb0 <memset>:
 8003bb0:	b4f0      	push	{r4, r5, r6, r7}
 8003bb2:	0786      	lsls	r6, r0, #30
 8003bb4:	d046      	beq.n	8003c44 <memset+0x94>
 8003bb6:	1e54      	subs	r4, r2, #1
 8003bb8:	2a00      	cmp	r2, #0
 8003bba:	d03c      	beq.n	8003c36 <memset+0x86>
 8003bbc:	b2ca      	uxtb	r2, r1
 8003bbe:	4603      	mov	r3, r0
 8003bc0:	e002      	b.n	8003bc8 <memset+0x18>
 8003bc2:	f114 34ff 	adds.w	r4, r4, #4294967295	; 0xffffffff
 8003bc6:	d336      	bcc.n	8003c36 <memset+0x86>
 8003bc8:	f803 2b01 	strb.w	r2, [r3], #1
 8003bcc:	079d      	lsls	r5, r3, #30
 8003bce:	d1f8      	bne.n	8003bc2 <memset+0x12>
 8003bd0:	2c03      	cmp	r4, #3
 8003bd2:	d929      	bls.n	8003c28 <memset+0x78>
 8003bd4:	b2cd      	uxtb	r5, r1
 8003bd6:	ea45 2505 	orr.w	r5, r5, r5, lsl #8
 8003bda:	2c0f      	cmp	r4, #15
 8003bdc:	ea45 4505 	orr.w	r5, r5, r5, lsl #16
 8003be0:	d933      	bls.n	8003c4a <memset+0x9a>
 8003be2:	f1a4 0610 	sub.w	r6, r4, #16
 8003be6:	0936      	lsrs	r6, r6, #4
 8003be8:	f103 0720 	add.w	r7, r3, #32
 8003bec:	eb07 1706 	add.w	r7, r7, r6, lsl #4
 8003bf0:	f103 0210 	add.w	r2, r3, #16
 8003bf4:	e942 5504 	strd	r5, r5, [r2, #-16]
 8003bf8:	e942 5502 	strd	r5, r5, [r2, #-8]
 8003bfc:	3210      	adds	r2, #16
 8003bfe:	42ba      	cmp	r2, r7
 8003c00:	d1f8      	bne.n	8003bf4 <memset+0x44>
 8003c02:	1c72      	adds	r2, r6, #1
 8003c04:	f014 0f0c 	tst.w	r4, #12
 8003c08:	eb03 1202 	add.w	r2, r3, r2, lsl #4
 8003c0c:	f004 060f 	and.w	r6, r4, #15
 8003c10:	d013      	beq.n	8003c3a <memset+0x8a>
 8003c12:	1f33      	subs	r3, r6, #4
 8003c14:	f023 0303 	bic.w	r3, r3, #3
 8003c18:	3304      	adds	r3, #4
 8003c1a:	4413      	add	r3, r2
 8003c1c:	f842 5b04 	str.w	r5, [r2], #4
 8003c20:	4293      	cmp	r3, r2
 8003c22:	d1fb      	bne.n	8003c1c <memset+0x6c>
 8003c24:	f006 0403 	and.w	r4, r6, #3
 8003c28:	b12c      	cbz	r4, 8003c36 <memset+0x86>
 8003c2a:	b2c9      	uxtb	r1, r1
 8003c2c:	441c      	add	r4, r3
 8003c2e:	f803 1b01 	strb.w	r1, [r3], #1
 8003c32:	429c      	cmp	r4, r3
 8003c34:	d1fb      	bne.n	8003c2e <memset+0x7e>
 8003c36:	bcf0      	pop	{r4, r5, r6, r7}
 8003c38:	4770      	bx	lr
 8003c3a:	4634      	mov	r4, r6
 8003c3c:	4613      	mov	r3, r2
 8003c3e:	2c00      	cmp	r4, #0
 8003c40:	d1f3      	bne.n	8003c2a <memset+0x7a>
 8003c42:	e7f8      	b.n	8003c36 <memset+0x86>
 8003c44:	4614      	mov	r4, r2
 8003c46:	4603      	mov	r3, r0
 8003c48:	e7c2      	b.n	8003bd0 <memset+0x20>
 8003c4a:	461a      	mov	r2, r3
 8003c4c:	4626      	mov	r6, r4
 8003c4e:	e7e0      	b.n	8003c12 <memset+0x62>

08003c50 <strchr>:
 8003c50:	b2c9      	uxtb	r1, r1
 8003c52:	f000 0303 	and.w	r3, r0, #3
 8003c56:	2900      	cmp	r1, #0
 8003c58:	d035      	beq.n	8003cc6 <strchr+0x76>
 8003c5a:	b17b      	cbz	r3, 8003c7c <strchr+0x2c>
 8003c5c:	7803      	ldrb	r3, [r0, #0]
 8003c5e:	2b00      	cmp	r3, #0
 8003c60:	d057      	beq.n	8003d12 <strchr+0xc2>
 8003c62:	4299      	cmp	r1, r3
 8003c64:	d052      	beq.n	8003d0c <strchr+0xbc>
 8003c66:	1c43      	adds	r3, r0, #1
 8003c68:	e005      	b.n	8003c76 <strchr+0x26>
 8003c6a:	f813 2b01 	ldrb.w	r2, [r3], #1
 8003c6e:	2a00      	cmp	r2, #0
 8003c70:	d04d      	beq.n	8003d0e <strchr+0xbe>
 8003c72:	428a      	cmp	r2, r1
 8003c74:	d04a      	beq.n	8003d0c <strchr+0xbc>
 8003c76:	079a      	lsls	r2, r3, #30
 8003c78:	4618      	mov	r0, r3
 8003c7a:	d1f6      	bne.n	8003c6a <strchr+0x1a>
 8003c7c:	b470      	push	{r4, r5, r6}
 8003c7e:	ea41 2601 	orr.w	r6, r1, r1, lsl #8
 8003c82:	6804      	ldr	r4, [r0, #0]
 8003c84:	ea46 4606 	orr.w	r6, r6, r6, lsl #16
 8003c88:	e001      	b.n	8003c8e <strchr+0x3e>
 8003c8a:	f850 4f04 	ldr.w	r4, [r0, #4]!
 8003c8e:	ea86 0504 	eor.w	r5, r6, r4
 8003c92:	f1a5 3201 	sub.w	r2, r5, #16843009	; 0x1010101
 8003c96:	f1a4 3301 	sub.w	r3, r4, #16843009	; 0x1010101
 8003c9a:	ea22 0205 	bic.w	r2, r2, r5
 8003c9e:	ea23 0304 	bic.w	r3, r3, r4
 8003ca2:	4313      	orrs	r3, r2
 8003ca4:	f013 3f80 	tst.w	r3, #2155905152	; 0x80808080
 8003ca8:	d0ef      	beq.n	8003c8a <strchr+0x3a>
 8003caa:	7803      	ldrb	r3, [r0, #0]
 8003cac:	b143      	cbz	r3, 8003cc0 <strchr+0x70>
 8003cae:	4299      	cmp	r1, r3
 8003cb0:	d102      	bne.n	8003cb8 <strchr+0x68>
 8003cb2:	e006      	b.n	8003cc2 <strchr+0x72>
 8003cb4:	428b      	cmp	r3, r1
 8003cb6:	d004      	beq.n	8003cc2 <strchr+0x72>
 8003cb8:	f810 3f01 	ldrb.w	r3, [r0, #1]!
 8003cbc:	2b00      	cmp	r3, #0
 8003cbe:	d1f9      	bne.n	8003cb4 <strchr+0x64>
 8003cc0:	4618      	mov	r0, r3
 8003cc2:	bc70      	pop	{r4, r5, r6}
 8003cc4:	4770      	bx	lr
 8003cc6:	b14b      	cbz	r3, 8003cdc <strchr+0x8c>
 8003cc8:	7803      	ldrb	r3, [r0, #0]
 8003cca:	b1fb      	cbz	r3, 8003d0c <strchr+0xbc>
 8003ccc:	1c43      	adds	r3, r0, #1
 8003cce:	e002      	b.n	8003cd6 <strchr+0x86>
 8003cd0:	7802      	ldrb	r2, [r0, #0]
 8003cd2:	3301      	adds	r3, #1
 8003cd4:	b1d2      	cbz	r2, 8003d0c <strchr+0xbc>
 8003cd6:	0799      	lsls	r1, r3, #30
 8003cd8:	4618      	mov	r0, r3
 8003cda:	d1f9      	bne.n	8003cd0 <strchr+0x80>
 8003cdc:	6802      	ldr	r2, [r0, #0]
 8003cde:	f1a2 3301 	sub.w	r3, r2, #16843009	; 0x1010101
 8003ce2:	ea23 0302 	bic.w	r3, r3, r2
 8003ce6:	f013 3f80 	tst.w	r3, #2155905152	; 0x80808080
 8003cea:	d108      	bne.n	8003cfe <strchr+0xae>
 8003cec:	f850 2f04 	ldr.w	r2, [r0, #4]!
 8003cf0:	f1a2 3301 	sub.w	r3, r2, #16843009	; 0x1010101
 8003cf4:	ea23 0302 	bic.w	r3, r3, r2
 8003cf8:	f013 3f80 	tst.w	r3, #2155905152	; 0x80808080
 8003cfc:	d0f6      	beq.n	8003cec <strchr+0x9c>
 8003cfe:	7803      	ldrb	r3, [r0, #0]
 8003d00:	b123      	cbz	r3, 8003d0c <strchr+0xbc>
 8003d02:	f810 3f01 	ldrb.w	r3, [r0, #1]!
 8003d06:	2b00      	cmp	r3, #0
 8003d08:	d1fb      	bne.n	8003d02 <strchr+0xb2>
 8003d0a:	4770      	bx	lr
 8003d0c:	4770      	bx	lr
 8003d0e:	4610      	mov	r0, r2
 8003d10:	4770      	bx	lr
 8003d12:	4618      	mov	r0, r3
 8003d14:	4770      	bx	lr
 8003d16:	bf00      	nop

08003d18 <strcmp>:
 8003d18:	ea80 0c01 	eor.w	ip, r0, r1
 8003d1c:	f01c 0f03 	tst.w	ip, #3
 8003d20:	d137      	bne.n	8003d92 <strcmp+0x7a>
 8003d22:	f010 0c03 	ands.w	ip, r0, #3
 8003d26:	f020 0003 	bic.w	r0, r0, #3
 8003d2a:	f021 0103 	bic.w	r1, r1, #3
 8003d2e:	f850 2b04 	ldr.w	r2, [r0], #4
 8003d32:	bf08      	it	eq
 8003d34:	f851 3b04 	ldreq.w	r3, [r1], #4
 8003d38:	d00e      	beq.n	8003d58 <strcmp+0x40>
 8003d3a:	f08c 0c03 	eor.w	ip, ip, #3
 8003d3e:	f06f 437f 	mvn.w	r3, #4278190080	; 0xff000000
 8003d42:	ea4f 0ccc 	mov.w	ip, ip, lsl #3
 8003d46:	fa23 fc0c 	lsr.w	ip, r3, ip
 8003d4a:	f851 3b04 	ldr.w	r3, [r1], #4
 8003d4e:	ea42 020c 	orr.w	r2, r2, ip
 8003d52:	ea43 030c 	orr.w	r3, r3, ip
 8003d56:	bf00      	nop
 8003d58:	f1a2 3c01 	sub.w	ip, r2, #16843009	; 0x1010101
 8003d5c:	429a      	cmp	r2, r3
 8003d5e:	bf01      	itttt	eq
 8003d60:	ea2c 0c02 	biceq.w	ip, ip, r2
 8003d64:	f01c 3f80 	tsteq.w	ip, #2155905152	; 0x80808080
 8003d68:	f850 2b04 	ldreq.w	r2, [r0], #4
 8003d6c:	f851 3b04 	ldreq.w	r3, [r1], #4
 8003d70:	d0f2      	beq.n	8003d58 <strcmp+0x40>
 8003d72:	ea4f 6002 	mov.w	r0, r2, lsl #24
 8003d76:	ea4f 2212 	mov.w	r2, r2, lsr #8
 8003d7a:	2801      	cmp	r0, #1
 8003d7c:	bf28      	it	cs
 8003d7e:	ebb0 6f03 	cmpcs.w	r0, r3, lsl #24
 8003d82:	bf08      	it	eq
 8003d84:	0a1b      	lsreq	r3, r3, #8
 8003d86:	d0f4      	beq.n	8003d72 <strcmp+0x5a>
 8003d88:	f003 03ff 	and.w	r3, r3, #255	; 0xff
 8003d8c:	0e00      	lsrs	r0, r0, #24
 8003d8e:	1ac0      	subs	r0, r0, r3
 8003d90:	4770      	bx	lr
 8003d92:	f010 0f03 	tst.w	r0, #3
 8003d96:	d00a      	beq.n	8003dae <strcmp+0x96>
 8003d98:	f810 2b01 	ldrb.w	r2, [r0], #1
 8003d9c:	f811 3b01 	ldrb.w	r3, [r1], #1
 8003da0:	2a01      	cmp	r2, #1
 8003da2:	bf28      	it	cs
 8003da4:	429a      	cmpcs	r2, r3
 8003da6:	d0f4      	beq.n	8003d92 <strcmp+0x7a>
 8003da8:	eba2 0003 	sub.w	r0, r2, r3
 8003dac:	4770      	bx	lr
 8003dae:	f84d 5d04 	str.w	r5, [sp, #-4]!
 8003db2:	f850 2b04 	ldr.w	r2, [r0], #4
 8003db6:	f001 0503 	and.w	r5, r1, #3
 8003dba:	f021 0103 	bic.w	r1, r1, #3
 8003dbe:	f851 3b04 	ldr.w	r3, [r1], #4
 8003dc2:	2d02      	cmp	r5, #2
 8003dc4:	d026      	beq.n	8003e14 <strcmp+0xfc>
 8003dc6:	d84d      	bhi.n	8003e64 <strcmp+0x14c>
 8003dc8:	f022 457f 	bic.w	r5, r2, #4278190080	; 0xff000000
 8003dcc:	ebb5 2f13 	cmp.w	r5, r3, lsr #8
 8003dd0:	f1a2 3c01 	sub.w	ip, r2, #16843009	; 0x1010101
 8003dd4:	ea2c 0c02 	bic.w	ip, ip, r2
 8003dd8:	d10d      	bne.n	8003df6 <strcmp+0xde>
 8003dda:	f01c 3c80 	ands.w	ip, ip, #2155905152	; 0x80808080
 8003dde:	bf08      	it	eq
 8003de0:	f851 3b04 	ldreq.w	r3, [r1], #4
 8003de4:	d10a      	bne.n	8003dfc <strcmp+0xe4>
 8003de6:	ea85 0502 	eor.w	r5, r5, r2
 8003dea:	ebb5 6f03 	cmp.w	r5, r3, lsl #24
 8003dee:	d10c      	bne.n	8003e0a <strcmp+0xf2>
 8003df0:	f850 2b04 	ldr.w	r2, [r0], #4
 8003df4:	e7e8      	b.n	8003dc8 <strcmp+0xb0>
 8003df6:	ea4f 2313 	mov.w	r3, r3, lsr #8
 8003dfa:	e05b      	b.n	8003eb4 <strcmp+0x19c>
 8003dfc:	f03c 4c7f 	bics.w	ip, ip, #4278190080	; 0xff000000
 8003e00:	d154      	bne.n	8003eac <strcmp+0x194>
 8003e02:	780b      	ldrb	r3, [r1, #0]
 8003e04:	ea4f 6512 	mov.w	r5, r2, lsr #24
 8003e08:	e054      	b.n	8003eb4 <strcmp+0x19c>
 8003e0a:	ea4f 6512 	mov.w	r5, r2, lsr #24
 8003e0e:	f003 03ff 	and.w	r3, r3, #255	; 0xff
 8003e12:	e04f      	b.n	8003eb4 <strcmp+0x19c>
 8003e14:	ea4f 4502 	mov.w	r5, r2, lsl #16
 8003e18:	f1a2 3c01 	sub.w	ip, r2, #16843009	; 0x1010101
 8003e1c:	ea4f 4515 	mov.w	r5, r5, lsr #16
 8003e20:	ea2c 0c02 	bic.w	ip, ip, r2
 8003e24:	ebb5 4f13 	cmp.w	r5, r3, lsr #16
 8003e28:	d118      	bne.n	8003e5c <strcmp+0x144>
 8003e2a:	f01c 3c80 	ands.w	ip, ip, #2155905152	; 0x80808080
 8003e2e:	bf08      	it	eq
 8003e30:	f851 3b04 	ldreq.w	r3, [r1], #4
 8003e34:	d107      	bne.n	8003e46 <strcmp+0x12e>
 8003e36:	ea85 0502 	eor.w	r5, r5, r2
 8003e3a:	ebb5 4f03 	cmp.w	r5, r3, lsl #16
 8003e3e:	d109      	bne.n	8003e54 <strcmp+0x13c>
 8003e40:	f850 2b04 	ldr.w	r2, [r0], #4
 8003e44:	e7e6      	b.n	8003e14 <strcmp+0xfc>
 8003e46:	ea5f 4c0c 	movs.w	ip, ip, lsl #16
 8003e4a:	d12f      	bne.n	8003eac <strcmp+0x194>
 8003e4c:	880b      	ldrh	r3, [r1, #0]
 8003e4e:	ea4f 4512 	mov.w	r5, r2, lsr #16
 8003e52:	e02f      	b.n	8003eb4 <strcmp+0x19c>
 8003e54:	ea4f 4303 	mov.w	r3, r3, lsl #16
 8003e58:	ea4f 4512 	mov.w	r5, r2, lsr #16
 8003e5c:	ea4f 4313 	mov.w	r3, r3, lsr #16
 8003e60:	e028      	b.n	8003eb4 <strcmp+0x19c>
 8003e62:	bf00      	nop
 8003e64:	f002 05ff 	and.w	r5, r2, #255	; 0xff
 8003e68:	ebb5 6f13 	cmp.w	r5, r3, lsr #24
 8003e6c:	f1a2 3c01 	sub.w	ip, r2, #16843009	; 0x1010101
 8003e70:	ea2c 0c02 	bic.w	ip, ip, r2
 8003e74:	d10d      	bne.n	8003e92 <strcmp+0x17a>
 8003e76:	f01c 3c80 	ands.w	ip, ip, #2155905152	; 0x80808080
 8003e7a:	bf08      	it	eq
 8003e7c:	f851 3b04 	ldreq.w	r3, [r1], #4
 8003e80:	d10a      	bne.n	8003e98 <strcmp+0x180>
 8003e82:	ea85 0502 	eor.w	r5, r5, r2
 8003e86:	ebb5 2f03 	cmp.w	r5, r3, lsl #8
 8003e8a:	d10a      	bne.n	8003ea2 <strcmp+0x18a>
 8003e8c:	f850 2b04 	ldr.w	r2, [r0], #4
 8003e90:	e7e8      	b.n	8003e64 <strcmp+0x14c>
 8003e92:	ea4f 6313 	mov.w	r3, r3, lsr #24
 8003e96:	e00d      	b.n	8003eb4 <strcmp+0x19c>
 8003e98:	f012 0fff 	tst.w	r2, #255	; 0xff
 8003e9c:	d006      	beq.n	8003eac <strcmp+0x194>
 8003e9e:	f851 3b04 	ldr.w	r3, [r1], #4
 8003ea2:	ea4f 2512 	mov.w	r5, r2, lsr #8
 8003ea6:	f023 437f 	bic.w	r3, r3, #4278190080	; 0xff000000
 8003eaa:	e003      	b.n	8003eb4 <strcmp+0x19c>
 8003eac:	f04f 0000 	mov.w	r0, #0
 8003eb0:	bc20      	pop	{r5}
 8003eb2:	4770      	bx	lr
 8003eb4:	f005 02ff 	and.w	r2, r5, #255	; 0xff
 8003eb8:	f003 00ff 	and.w	r0, r3, #255	; 0xff
 8003ebc:	2801      	cmp	r0, #1
 8003ebe:	bf28      	it	cs
 8003ec0:	4290      	cmpcs	r0, r2
 8003ec2:	bf04      	itt	eq
 8003ec4:	0a2d      	lsreq	r5, r5, #8
 8003ec6:	0a1b      	lsreq	r3, r3, #8
 8003ec8:	d0f4      	beq.n	8003eb4 <strcmp+0x19c>
 8003eca:	eba2 0000 	sub.w	r0, r2, r0
 8003ece:	bc20      	pop	{r5}
 8003ed0:	4770      	bx	lr
 8003ed2:	bf00      	nop

08003ed4 <strlen>:
 8003ed4:	f020 0103 	bic.w	r1, r0, #3
 8003ed8:	f010 0003 	ands.w	r0, r0, #3
 8003edc:	f1c0 0000 	rsb	r0, r0, #0
 8003ee0:	f851 3b04 	ldr.w	r3, [r1], #4
 8003ee4:	f100 0c04 	add.w	ip, r0, #4
 8003ee8:	ea4f 0ccc 	mov.w	ip, ip, lsl #3
 8003eec:	f06f 0200 	mvn.w	r2, #0
 8003ef0:	bf1c      	itt	ne
 8003ef2:	fa22 f20c 	lsrne.w	r2, r2, ip
 8003ef6:	4313      	orrne	r3, r2
 8003ef8:	f04f 0c01 	mov.w	ip, #1
 8003efc:	ea4c 2c0c 	orr.w	ip, ip, ip, lsl #8
 8003f00:	ea4c 4c0c 	orr.w	ip, ip, ip, lsl #16
 8003f04:	eba3 020c 	sub.w	r2, r3, ip
 8003f08:	ea22 0203 	bic.w	r2, r2, r3
 8003f0c:	ea12 12cc 	ands.w	r2, r2, ip, lsl #7
 8003f10:	bf04      	itt	eq
 8003f12:	f851 3b04 	ldreq.w	r3, [r1], #4
 8003f16:	3004      	addeq	r0, #4
 8003f18:	d0f4      	beq.n	8003f04 <strlen+0x30>
 8003f1a:	f1c2 0100 	rsb	r1, r2, #0
 8003f1e:	ea02 0201 	and.w	r2, r2, r1
 8003f22:	fab2 f282 	clz	r2, r2
 8003f26:	f1c2 021f 	rsb	r2, r2, #31
 8003f2a:	eb00 00d2 	add.w	r0, r0, r2, lsr #3
 8003f2e:	4770      	bx	lr

08003f30 <strpbrk>:
 8003f30:	b430      	push	{r4, r5}
 8003f32:	7804      	ldrb	r4, [r0, #0]
 8003f34:	b1dc      	cbz	r4, 8003f6e <strpbrk+0x3e>
 8003f36:	780d      	ldrb	r5, [r1, #0]
 8003f38:	b19d      	cbz	r5, 8003f62 <strpbrk+0x32>
 8003f3a:	42ac      	cmp	r4, r5
 8003f3c:	d00f      	beq.n	8003f5e <strpbrk+0x2e>
 8003f3e:	460a      	mov	r2, r1
 8003f40:	e001      	b.n	8003f46 <strpbrk+0x16>
 8003f42:	42a3      	cmp	r3, r4
 8003f44:	d00b      	beq.n	8003f5e <strpbrk+0x2e>
 8003f46:	f812 3f01 	ldrb.w	r3, [r2, #1]!
 8003f4a:	2b00      	cmp	r3, #0
 8003f4c:	d1f9      	bne.n	8003f42 <strpbrk+0x12>
 8003f4e:	f810 4f01 	ldrb.w	r4, [r0, #1]!
 8003f52:	2c00      	cmp	r4, #0
 8003f54:	d1f0      	bne.n	8003f38 <strpbrk+0x8>
 8003f56:	7813      	ldrb	r3, [r2, #0]
 8003f58:	2b00      	cmp	r3, #0
 8003f5a:	bf08      	it	eq
 8003f5c:	2000      	moveq	r0, #0
 8003f5e:	bc30      	pop	{r4, r5}
 8003f60:	4770      	bx	lr
 8003f62:	f810 4f01 	ldrb.w	r4, [r0, #1]!
 8003f66:	460a      	mov	r2, r1
 8003f68:	2c00      	cmp	r4, #0
 8003f6a:	d1e5      	bne.n	8003f38 <strpbrk+0x8>
 8003f6c:	e7f3      	b.n	8003f56 <strpbrk+0x26>
 8003f6e:	4620      	mov	r0, r4
 8003f70:	bc30      	pop	{r4, r5}
 8003f72:	4770      	bx	lr

08003f74 <strspn>:
 8003f74:	b470      	push	{r4, r5, r6}
 8003f76:	7804      	ldrb	r4, [r0, #0]
 8003f78:	b1a4      	cbz	r4, 8003fa4 <strspn+0x30>
 8003f7a:	4605      	mov	r5, r0
 8003f7c:	780e      	ldrb	r6, [r1, #0]
 8003f7e:	b14e      	cbz	r6, 8003f94 <strspn+0x20>
 8003f80:	42a6      	cmp	r6, r4
 8003f82:	d00a      	beq.n	8003f9a <strspn+0x26>
 8003f84:	460a      	mov	r2, r1
 8003f86:	e001      	b.n	8003f8c <strspn+0x18>
 8003f88:	42a3      	cmp	r3, r4
 8003f8a:	d006      	beq.n	8003f9a <strspn+0x26>
 8003f8c:	f812 3f01 	ldrb.w	r3, [r2, #1]!
 8003f90:	2b00      	cmp	r3, #0
 8003f92:	d1f9      	bne.n	8003f88 <strspn+0x14>
 8003f94:	1a28      	subs	r0, r5, r0
 8003f96:	bc70      	pop	{r4, r5, r6}
 8003f98:	4770      	bx	lr
 8003f9a:	f815 4f01 	ldrb.w	r4, [r5, #1]!
 8003f9e:	2c00      	cmp	r4, #0
 8003fa0:	d1ed      	bne.n	8003f7e <strspn+0xa>
 8003fa2:	e7f7      	b.n	8003f94 <strspn+0x20>
 8003fa4:	4620      	mov	r0, r4
 8003fa6:	e7f6      	b.n	8003f96 <strspn+0x22>

08003fa8 <long_to_string_with_divisor.constprop.0>:
#include "memstreams.h"

#define MAX_FILLER 11
#define FLOAT_PRECISION 9

static char *long_to_string_with_divisor(char *p,
 8003fa8:	b5f0      	push	{r4, r5, r6, r7, lr}
    ll = num;
  } else {
    ll = divisor;
  }

  q = p + MAX_FILLER;
 8003faa:	f100 040b 	add.w	r4, r0, #11
 8003fae:	4623      	mov	r3, r4
  do {
    i = (int)(l % radix);
 8003fb0:	460d      	mov	r5, r1
 8003fb2:	fbb1 f1f2 	udiv	r1, r1, r2
 8003fb6:	fb02 5711 	mls	r7, r2, r1, r5
    i += '0';
 8003fba:	f107 0630 	add.w	r6, r7, #48	; 0x30
    if (i > '9')
 8003fbe:	2e39      	cmp	r6, #57	; 0x39
      i += 'A' - '0' - 10;
 8003fc0:	bfc8      	it	gt
 8003fc2:	f107 0637 	addgt.w	r6, r7, #55	; 0x37
    *--q = i;
    l /= radix;
  } while ((ll /= radix) != 0);
 8003fc6:	4295      	cmp	r5, r2
    *--q = i;
 8003fc8:	f803 6d01 	strb.w	r6, [r3, #-1]!
  } while ((ll /= radix) != 0);
 8003fcc:	d2f0      	bcs.n	8003fb0 <long_to_string_with_divisor.constprop.0+0x8>
 8003fce:	1e42      	subs	r2, r0, #1

  i = (int)(p + MAX_FILLER - q);
 8003fd0:	1ae1      	subs	r1, r4, r3
  do
    *p++ = *q++;
 8003fd2:	f813 5b01 	ldrb.w	r5, [r3], #1
  while (--i);
 8003fd6:	429c      	cmp	r4, r3
    *p++ = *q++;
 8003fd8:	f802 5f01 	strb.w	r5, [r2, #1]!
  while (--i);
 8003fdc:	d1f9      	bne.n	8003fd2 <long_to_string_with_divisor.constprop.0+0x2a>

  return p;
}
 8003fde:	4408      	add	r0, r1
 8003fe0:	bdf0      	pop	{r4, r5, r6, r7, pc}
	...

08003fe4 <packetQueueEndWritePacket.constprop.0>:
}

void packetQueueEndWritePacket(PacketQueue_t* queue)
{
    /* Did we write more bytes than the ENTIRE queue? */
    if(queue->pktLen >= queue->bufferSize-2) {
 8003fe4:	4b13      	ldr	r3, [pc, #76]	; (8004034 <packetQueueEndWritePacket.constprop.0+0x50>)
 8003fe6:	685a      	ldr	r2, [r3, #4]
 8003fe8:	6999      	ldr	r1, [r3, #24]
 8003fea:	3a02      	subs	r2, #2
 8003fec:	4291      	cmp	r1, r2
 8003fee:	d309      	bcc.n	8004004 <packetQueueEndWritePacket.constprop.0+0x20>
        queue->numDropped+=queue->pktCount+1;
 8003ff0:	6a1a      	ldr	r2, [r3, #32]
 8003ff2:	8a99      	ldrh	r1, [r3, #20]
 8003ff4:	3201      	adds	r2, #1
 8003ff6:	440a      	add	r2, r1
 8003ff8:	621a      	str	r2, [r3, #32]
        queue->pktCount = 0;
 8003ffa:	2200      	movs	r2, #0
 8003ffc:	829a      	strh	r2, [r3, #20]
        queue->readPtr = 0;
 8003ffe:	609a      	str	r2, [r3, #8]
        queue->writePtr = 0;
 8004000:	611a      	str	r2, [r3, #16]
 8004002:	4770      	bx	lr
        return;
    }

    /* Packet too long? */
    if(queue->pktLen > 0xffff) {
 8004004:	f5b1 3f80 	cmp.w	r1, #65536	; 0x10000
 8004008:	69da      	ldr	r2, [r3, #28]
 800400a:	d304      	bcc.n	8004016 <packetQueueEndWritePacket.constprop.0+0x32>
        queue->writePtr = queue->lenHeaderStart;
 800400c:	611a      	str	r2, [r3, #16]
        queue->numDropped++;
 800400e:	6a1a      	ldr	r2, [r3, #32]
 8004010:	3201      	adds	r2, #1
 8004012:	621a      	str	r2, [r3, #32]
 8004014:	4770      	bx	lr
        return;
    }

    uint32_t hdrIndex = queue->lenHeaderStart;
    queue->buffer[hdrIndex] = queue->pktLen >> 8;
 8004016:	6818      	ldr	r0, [r3, #0]
 8004018:	0a09      	lsrs	r1, r1, #8
 800401a:	5481      	strb	r1, [r0, r2]
    hdrIndex++;
    if(hdrIndex >= queue->bufferSize) {
 800401c:	6859      	ldr	r1, [r3, #4]
    hdrIndex++;
 800401e:	3201      	adds	r2, #1
        hdrIndex = 0;
 8004020:	428a      	cmp	r2, r1
 8004022:	bf28      	it	cs
 8004024:	2200      	movcs	r2, #0
    }
    queue->buffer[hdrIndex] = queue->pktLen & 0xff;
 8004026:	6998      	ldr	r0, [r3, #24]
 8004028:	6819      	ldr	r1, [r3, #0]
 800402a:	5488      	strb	r0, [r1, r2]
    queue->pktCount++;
 800402c:	8a9a      	ldrh	r2, [r3, #20]
 800402e:	3201      	adds	r2, #1
 8004030:	829a      	strh	r2, [r3, #20]
}
 8004032:	4770      	bx	lr
 8004034:	20001310 	.word	0x20001310

08004038 <packetQueueReadByte.constprop.0>:
    uint8_t retVal = queue->buffer[queue->readPtr];
 8004038:	4b05      	ldr	r3, [pc, #20]	; (8004050 <packetQueueReadByte.constprop.0+0x18>)
 800403a:	689a      	ldr	r2, [r3, #8]
 800403c:	6819      	ldr	r1, [r3, #0]
 800403e:	5c88      	ldrb	r0, [r1, r2]
    if(queue->readPtr >= queue->bufferSize) {
 8004040:	6859      	ldr	r1, [r3, #4]
    queue->readPtr++;
 8004042:	3201      	adds	r2, #1
    if(queue->readPtr >= queue->bufferSize) {
 8004044:	428a      	cmp	r2, r1
    queue->readPtr++;
 8004046:	609a      	str	r2, [r3, #8]
        queue->readPtr = 0;
 8004048:	bf24      	itt	cs
 800404a:	2200      	movcs	r2, #0
 800404c:	609a      	strcs	r2, [r3, #8]
}
 800404e:	4770      	bx	lr
 8004050:	20001310 	.word	0x20001310

08004054 <packetQueueWriteByte.constprop.0>:
static void packetQueueWriteByte(PacketQueue_t* queue, uint8_t byte)
 8004054:	b570      	push	{r4, r5, r6, lr}
    if(queue->pktCount && queue->writePtr == queue->readPtr) {
 8004056:	4c15      	ldr	r4, [pc, #84]	; (80040ac <packetQueueWriteByte.constprop.0+0x58>)
static void packetQueueWriteByte(PacketQueue_t* queue, uint8_t byte)
 8004058:	4605      	mov	r5, r0
    if(queue->pktCount && queue->writePtr == queue->readPtr) {
 800405a:	8aa3      	ldrh	r3, [r4, #20]
 800405c:	b1cb      	cbz	r3, 8004092 <packetQueueWriteByte.constprop.0+0x3e>
 800405e:	68a2      	ldr	r2, [r4, #8]
 8004060:	6923      	ldr	r3, [r4, #16]
 8004062:	429a      	cmp	r2, r3
 8004064:	d115      	bne.n	8004092 <packetQueueWriteByte.constprop.0+0x3e>
        uint16_t dropPktLen = (packetQueueReadByte(queue) << 8) |
 8004066:	f7ff ffe7 	bl	8004038 <packetQueueReadByte.constprop.0>
 800406a:	4606      	mov	r6, r0
                              (packetQueueReadByte(queue));
 800406c:	f7ff ffe4 	bl	8004038 <packetQueueReadByte.constprop.0>
        uint16_t dropPktLen = (packetQueueReadByte(queue) << 8) |
 8004070:	ea40 2306 	orr.w	r3, r0, r6, lsl #8
        queue->readPtr += dropPktLen;
 8004074:	68a0      	ldr	r0, [r4, #8]
        if(queue->readPtr >= queue->bufferSize) {
 8004076:	6862      	ldr	r2, [r4, #4]
        queue->readPtr += dropPktLen;
 8004078:	b29b      	uxth	r3, r3
 800407a:	4403      	add	r3, r0
        if(queue->readPtr >= queue->bufferSize) {
 800407c:	4293      	cmp	r3, r2
        queue->readPtr += dropPktLen;
 800407e:	60a3      	str	r3, [r4, #8]
            queue->readPtr -= queue->bufferSize;
 8004080:	bf24      	itt	cs
 8004082:	1a9b      	subcs	r3, r3, r2
 8004084:	60a3      	strcs	r3, [r4, #8]
        queue->pktCount--;
 8004086:	8aa3      	ldrh	r3, [r4, #20]
 8004088:	3b01      	subs	r3, #1
 800408a:	82a3      	strh	r3, [r4, #20]
        queue->numDropped++;
 800408c:	6a23      	ldr	r3, [r4, #32]
 800408e:	3301      	adds	r3, #1
 8004090:	6223      	str	r3, [r4, #32]
    queue->buffer[queue->writePtr] = byte;
 8004092:	6923      	ldr	r3, [r4, #16]
 8004094:	6822      	ldr	r2, [r4, #0]
 8004096:	54d5      	strb	r5, [r2, r3]
    queue->writePtr++;
 8004098:	6923      	ldr	r3, [r4, #16]
    if(queue->writePtr >= queue->bufferSize) {
 800409a:	6862      	ldr	r2, [r4, #4]
    queue->writePtr++;
 800409c:	3301      	adds	r3, #1
    if(queue->writePtr >= queue->bufferSize) {
 800409e:	4293      	cmp	r3, r2
    queue->writePtr++;
 80040a0:	6123      	str	r3, [r4, #16]
        queue->writePtr = 0;
 80040a2:	bf24      	itt	cs
 80040a4:	2300      	movcs	r3, #0
 80040a6:	6123      	strcs	r3, [r4, #16]
}
 80040a8:	bd70      	pop	{r4, r5, r6, pc}
 80040aa:	bf00      	nop
 80040ac:	20001310 	.word	0x20001310

080040b0 <packetQueuePutBytes.constprop.0>:
void packetQueuePutBytes(PacketQueue_t* queue, const uint8_t* payload, uint16_t size)
 80040b0:	b570      	push	{r4, r5, r6, lr}
 80040b2:	4606      	mov	r6, r0
 80040b4:	460c      	mov	r4, r1
    for(uint32_t i=0; i<size; i++) {
 80040b6:	2500      	movs	r5, #0
 80040b8:	42a5      	cmp	r5, r4
 80040ba:	d304      	bcc.n	80040c6 <packetQueuePutBytes.constprop.0+0x16>
    queue->pktLen += size;
 80040bc:	4b04      	ldr	r3, [pc, #16]	; (80040d0 <packetQueuePutBytes.constprop.0+0x20>)
 80040be:	6999      	ldr	r1, [r3, #24]
 80040c0:	4421      	add	r1, r4
 80040c2:	6199      	str	r1, [r3, #24]
}
 80040c4:	bd70      	pop	{r4, r5, r6, pc}
        packetQueueWriteByte(queue, payload[i]);
 80040c6:	5d70      	ldrb	r0, [r6, r5]
 80040c8:	f7ff ffc4 	bl	8004054 <packetQueueWriteByte.constprop.0>
    for(uint32_t i=0; i<size; i++) {
 80040cc:	3501      	adds	r5, #1
 80040ce:	e7f3      	b.n	80040b8 <packetQueuePutBytes.constprop.0+0x8>
 80040d0:	20001310 	.word	0x20001310

080040d4 <vPortBusyDelay>:
 80040d4:	2300      	movs	r3, #0
 80040d6:	08c0      	lsrs	r0, r0, #3

080040d8 <loop317>:
 80040d8:	4283      	cmp	r3, r0
 80040da:	d001      	beq.n	80040e0 <done317>
 80040dc:	3301      	adds	r3, #1
 80040de:	e7fb      	b.n	80040d8 <loop317>

080040e0 <done317>:
 80040e0:	4770      	bx	lr
	...

080040e4 <vPortValidateInterruptPriority>:
 80040e4:	f3ef 8305 	mrs	r3, IPSR
 80040e8:	2b0f      	cmp	r3, #15
 80040ea:	d906      	bls.n	80040fa <vPortValidateInterruptPriority+0x16>
 80040ec:	4a08      	ldr	r2, [pc, #32]	; (8004110 <vPortValidateInterruptPriority+0x2c>)
 80040ee:	5c9b      	ldrb	r3, [r3, r2]
 80040f0:	4a08      	ldr	r2, [pc, #32]	; (8004114 <vPortValidateInterruptPriority+0x30>)
 80040f2:	7812      	ldrb	r2, [r2, #0]
 80040f4:	429a      	cmp	r2, r3
 80040f6:	d900      	bls.n	80040fa <vPortValidateInterruptPriority+0x16>
 80040f8:	e7fe      	b.n	80040f8 <vPortValidateInterruptPriority+0x14>
 80040fa:	4b07      	ldr	r3, [pc, #28]	; (8004118 <vPortValidateInterruptPriority+0x34>)
 80040fc:	4a07      	ldr	r2, [pc, #28]	; (800411c <vPortValidateInterruptPriority+0x38>)
 80040fe:	681b      	ldr	r3, [r3, #0]
 8004100:	6812      	ldr	r2, [r2, #0]
 8004102:	f403 63e0 	and.w	r3, r3, #1792	; 0x700
 8004106:	4293      	cmp	r3, r2
 8004108:	d900      	bls.n	800410c <vPortValidateInterruptPriority+0x28>
 800410a:	e7fe      	b.n	800410a <vPortValidateInterruptPriority+0x26>
 800410c:	4770      	bx	lr
 800410e:	bf00      	nop
 8004110:	e000e3f0 	.word	0xe000e3f0
 8004114:	20001340 	.word	0x20001340
 8004118:	e000ed0c 	.word	0xe000ed0c
 800411c:	20001344 	.word	0x20001344

08004120 <xPortPendSVHandler>:
 8004120:	4b18      	ldr	r3, [pc, #96]	; (8004184 <pxCurrentTCBConst+0x4>)
 8004122:	681b      	ldr	r3, [r3, #0]
 8004124:	4818      	ldr	r0, [pc, #96]	; (8004188 <pxCurrentTCBConst+0x8>)
 8004126:	461a      	mov	r2, r3
 8004128:	6002      	str	r2, [r0, #0]
 800412a:	f3ef 8009 	mrs	r0, PSP
 800412e:	f3bf 8f6f 	isb	sy
 8004132:	4b13      	ldr	r3, [pc, #76]	; (8004180 <pxCurrentTCBConst>)
 8004134:	681a      	ldr	r2, [r3, #0]
 8004136:	e920 0ff0 	stmdb	r0!, {r4, r5, r6, r7, r8, r9, sl, fp}
 800413a:	4c14      	ldr	r4, [pc, #80]	; (800418c <pxCurrentTCBConst+0xc>)
 800413c:	6824      	ldr	r4, [r4, #0]
 800413e:	f3ef 8111 	mrs	r1, BASEPRI
 8004142:	e920 0012 	stmdb	r0!, {r1, r4}
 8004146:	6010      	str	r0, [r2, #0]
 8004148:	e92d 4008 	stmdb	sp!, {r3, lr}
 800414c:	f04f 00bf 	mov.w	r0, #191	; 0xbf
 8004150:	f380 8811 	msr	BASEPRI, r0
 8004154:	f007 f898 	bl	800b288 <vTaskSwitchContext>
 8004158:	e8bd 4008 	ldmia.w	sp!, {r3, lr}
 800415c:	6819      	ldr	r1, [r3, #0]
 800415e:	6808      	ldr	r0, [r1, #0]
 8004160:	c812      	ldmia	r0!, {r1, r4}
 8004162:	f381 8811 	msr	BASEPRI, r1
 8004166:	4909      	ldr	r1, [pc, #36]	; (800418c <pxCurrentTCBConst+0xc>)
 8004168:	600c      	str	r4, [r1, #0]
 800416a:	e8b0 0ff0 	ldmia.w	r0!, {r4, r5, r6, r7, r8, r9, sl, fp}
 800416e:	f380 8809 	msr	PSP, r0
 8004172:	f3bf 8f6f 	isb	sy
 8004176:	4770      	bx	lr
 8004178:	f3af 8000 	nop.w
 800417c:	f3af 8000 	nop.w

08004180 <pxCurrentTCBConst>:
 8004180:	200011a8 	.word	0x200011a8
 8004184:	2000134c 	.word	0x2000134c
 8004188:	e000ed20 	.word	0xe000ed20
 800418c:	20001358 	.word	0x20001358

08004190 <vPortExitCriticalFromISR>:
 8004190:	4a04      	ldr	r2, [pc, #16]	; (80041a4 <vPortExitCriticalFromISR+0x14>)
 8004192:	6813      	ldr	r3, [r2, #0]
 8004194:	b903      	cbnz	r3, 8004198 <vPortExitCriticalFromISR+0x8>
 8004196:	e7fe      	b.n	8004196 <vPortExitCriticalFromISR+0x6>
 8004198:	3b01      	subs	r3, #1
 800419a:	6013      	str	r3, [r2, #0]
 800419c:	f380 8811 	msr	BASEPRI, r0
 80041a0:	4770      	bx	lr
 80041a2:	bf00      	nop
 80041a4:	20001358 	.word	0x20001358

080041a8 <ulPortEnterCriticalFromISR>:
 80041a8:	f3ef 8011 	mrs	r0, BASEPRI
 80041ac:	f04f 03bf 	mov.w	r3, #191	; 0xbf
 80041b0:	f383 8811 	msr	BASEPRI, r3
 80041b4:	f3bf 8f6f 	isb	sy
 80041b8:	f3bf 8f4f 	dsb	sy
 80041bc:	4a02      	ldr	r2, [pc, #8]	; (80041c8 <ulPortEnterCriticalFromISR+0x20>)
 80041be:	6813      	ldr	r3, [r2, #0]
 80041c0:	3301      	adds	r3, #1
 80041c2:	6013      	str	r3, [r2, #0]
 80041c4:	4770      	bx	lr
 80041c6:	bf00      	nop
 80041c8:	20001358 	.word	0x20001358

080041cc <vPortExitCritical>:
 80041cc:	4a04      	ldr	r2, [pc, #16]	; (80041e0 <vPortExitCritical+0x14>)
 80041ce:	6813      	ldr	r3, [r2, #0]
 80041d0:	b903      	cbnz	r3, 80041d4 <vPortExitCritical+0x8>
 80041d2:	e7fe      	b.n	80041d2 <vPortExitCritical+0x6>
 80041d4:	3b01      	subs	r3, #1
 80041d6:	6013      	str	r3, [r2, #0]
 80041d8:	b90b      	cbnz	r3, 80041de <vPortExitCritical+0x12>
 80041da:	f383 8811 	msr	BASEPRI, r3
 80041de:	4770      	bx	lr
 80041e0:	20001358 	.word	0x20001358

080041e4 <vPortEnterCritical>:
 80041e4:	4b06      	ldr	r3, [pc, #24]	; (8004200 <vPortEnterCritical+0x1c>)
 80041e6:	681a      	ldr	r2, [r3, #0]
 80041e8:	b93a      	cbnz	r2, 80041fa <vPortEnterCritical+0x16>
 80041ea:	f04f 01bf 	mov.w	r1, #191	; 0xbf
 80041ee:	f381 8811 	msr	BASEPRI, r1
 80041f2:	f3bf 8f6f 	isb	sy
 80041f6:	f3bf 8f4f 	dsb	sy
 80041fa:	3201      	adds	r2, #1
 80041fc:	601a      	str	r2, [r3, #0]
 80041fe:	4770      	bx	lr
 8004200:	20001358 	.word	0x20001358

08004204 <prvPortStartFirstTask>:
 8004204:	4806      	ldr	r0, [pc, #24]	; (8004220 <prvPortStartFirstTask+0x1c>)
 8004206:	6800      	ldr	r0, [r0, #0]
 8004208:	6800      	ldr	r0, [r0, #0]
 800420a:	f380 8808 	msr	MSP, r0
 800420e:	b662      	cpsie	i
 8004210:	b661      	cpsie	f
 8004212:	f3bf 8f4f 	dsb	sy
 8004216:	f3bf 8f6f 	isb	sy
 800421a:	df00      	svc	0
 800421c:	bf00      	nop
 800421e:	0000      	.short	0x0000
 8004220:	e000ed08 	.word	0xe000ed08
	...

08004230 <vPortSVCHandler>:
 8004230:	4b0b      	ldr	r3, [pc, #44]	; (8004260 <pxCurrentTCBConst2>)
 8004232:	6819      	ldr	r1, [r3, #0]
 8004234:	6808      	ldr	r0, [r1, #0]
 8004236:	c830      	ldmia	r0!, {r4, r5}
 8004238:	e8b0 0ff0 	ldmia.w	r0!, {r4, r5, r6, r7, r8, r9, sl, fp}
 800423c:	f380 8809 	msr	PSP, r0
 8004240:	f3bf 8f6f 	isb	sy
 8004244:	f04f 0000 	mov.w	r0, #0
 8004248:	f380 8811 	msr	BASEPRI, r0
 800424c:	f04e 0e0d 	orr.w	lr, lr, #13
 8004250:	4770      	bx	lr
 8004252:	bf00      	nop
 8004254:	f3af 8000 	nop.w
 8004258:	f3af 8000 	nop.w
 800425c:	f3af 8000 	nop.w

08004260 <pxCurrentTCBConst2>:
 8004260:	200011a8 	.word	0x200011a8

08004264 <prvTaskExitError>:
 8004264:	b508      	push	{r3, lr}
 8004266:	4b04      	ldr	r3, [pc, #16]	; (8004278 <prvTaskExitError+0x14>)
 8004268:	681b      	ldr	r3, [r3, #0]
 800426a:	3301      	adds	r3, #1
 800426c:	d000      	beq.n	8004270 <prvTaskExitError+0xc>
 800426e:	e7fe      	b.n	800426e <prvTaskExitError+0xa>
 8004270:	f7ff ffb8 	bl	80041e4 <vPortEnterCritical>
 8004274:	e7fe      	b.n	8004274 <prvTaskExitError+0x10>
 8004276:	bf00      	nop
 8004278:	20001358 	.word	0x20001358

0800427c <prvResetNextTaskUnblockTime>:
 800427c:	4a06      	ldr	r2, [pc, #24]	; (8004298 <prvResetNextTaskUnblockTime+0x1c>)
 800427e:	6813      	ldr	r3, [r2, #0]
 8004280:	6819      	ldr	r1, [r3, #0]
 8004282:	4b06      	ldr	r3, [pc, #24]	; (800429c <prvResetNextTaskUnblockTime+0x20>)
 8004284:	b919      	cbnz	r1, 800428e <prvResetNextTaskUnblockTime+0x12>
 8004286:	f04f 32ff 	mov.w	r2, #4294967295	; 0xffffffff
 800428a:	601a      	str	r2, [r3, #0]
 800428c:	4770      	bx	lr
 800428e:	6812      	ldr	r2, [r2, #0]
 8004290:	68d2      	ldr	r2, [r2, #12]
 8004292:	68d2      	ldr	r2, [r2, #12]
 8004294:	6852      	ldr	r2, [r2, #4]
 8004296:	e7f8      	b.n	800428a <prvResetNextTaskUnblockTime+0xe>
 8004298:	200011ac 	.word	0x200011ac
 800429c:	200015f8 	.word	0x200015f8

080042a0 <xTaskCheckForTimeOut>:
 80042a0:	b5f8      	push	{r3, r4, r5, r6, r7, lr}
 80042a2:	460c      	mov	r4, r1
 80042a4:	f7ff ff9e 	bl	80041e4 <vPortEnterCritical>
 80042a8:	6823      	ldr	r3, [r4, #0]
 80042aa:	4a10      	ldr	r2, [pc, #64]	; (80042ec <xTaskCheckForTimeOut+0x4c>)
 80042ac:	1c59      	adds	r1, r3, #1
 80042ae:	4694      	mov	ip, r2
 80042b0:	6816      	ldr	r6, [r2, #0]
 80042b2:	d012      	beq.n	80042da <xTaskCheckForTimeOut+0x3a>
 80042b4:	490e      	ldr	r1, [pc, #56]	; (80042f0 <xTaskCheckForTimeOut+0x50>)
 80042b6:	6802      	ldr	r2, [r0, #0]
 80042b8:	680f      	ldr	r7, [r1, #0]
 80042ba:	6845      	ldr	r5, [r0, #4]
 80042bc:	42ba      	cmp	r2, r7
 80042be:	d001      	beq.n	80042c4 <xTaskCheckForTimeOut+0x24>
 80042c0:	42b5      	cmp	r5, r6
 80042c2:	d910      	bls.n	80042e6 <xTaskCheckForTimeOut+0x46>
 80042c4:	1b77      	subs	r7, r6, r5
 80042c6:	42bb      	cmp	r3, r7
 80042c8:	d90b      	bls.n	80042e2 <xTaskCheckForTimeOut+0x42>
 80042ca:	1b9b      	subs	r3, r3, r6
 80042cc:	442b      	add	r3, r5
 80042ce:	6023      	str	r3, [r4, #0]
 80042d0:	680b      	ldr	r3, [r1, #0]
 80042d2:	6003      	str	r3, [r0, #0]
 80042d4:	f8dc 3000 	ldr.w	r3, [ip]
 80042d8:	6043      	str	r3, [r0, #4]
 80042da:	2000      	movs	r0, #0
 80042dc:	f7ff ff76 	bl	80041cc <vPortExitCritical>
 80042e0:	bdf8      	pop	{r3, r4, r5, r6, r7, pc}
 80042e2:	2300      	movs	r3, #0
 80042e4:	6023      	str	r3, [r4, #0]
 80042e6:	2001      	movs	r0, #1
 80042e8:	e7f8      	b.n	80042dc <xTaskCheckForTimeOut+0x3c>
 80042ea:	bf00      	nop
 80042ec:	20001648 	.word	0x20001648
 80042f0:	200015fc 	.word	0x200015fc

080042f4 <prvGetExpectedIdleTime>:
 80042f4:	4b09      	ldr	r3, [pc, #36]	; (800431c <prvGetExpectedIdleTime+0x28>)
 80042f6:	4a0a      	ldr	r2, [pc, #40]	; (8004320 <prvGetExpectedIdleTime+0x2c>)
 80042f8:	681b      	ldr	r3, [r3, #0]
 80042fa:	6812      	ldr	r2, [r2, #0]
 80042fc:	6ad0      	ldr	r0, [r2, #44]	; 0x2c
 80042fe:	b958      	cbnz	r0, 8004318 <prvGetExpectedIdleTime+0x24>
 8004300:	4a08      	ldr	r2, [pc, #32]	; (8004324 <prvGetExpectedIdleTime+0x30>)
 8004302:	6812      	ldr	r2, [r2, #0]
 8004304:	2a01      	cmp	r2, #1
 8004306:	d808      	bhi.n	800431a <prvGetExpectedIdleTime+0x26>
 8004308:	2b01      	cmp	r3, #1
 800430a:	d806      	bhi.n	800431a <prvGetExpectedIdleTime+0x26>
 800430c:	4b06      	ldr	r3, [pc, #24]	; (8004328 <prvGetExpectedIdleTime+0x34>)
 800430e:	6818      	ldr	r0, [r3, #0]
 8004310:	4b06      	ldr	r3, [pc, #24]	; (800432c <prvGetExpectedIdleTime+0x38>)
 8004312:	681b      	ldr	r3, [r3, #0]
 8004314:	1ac0      	subs	r0, r0, r3
 8004316:	4770      	bx	lr
 8004318:	2000      	movs	r0, #0
 800431a:	4770      	bx	lr
 800431c:	20001374 	.word	0x20001374
 8004320:	200011a8 	.word	0x200011a8
 8004324:	200011b8 	.word	0x200011b8
 8004328:	200015f8 	.word	0x200015f8
 800432c:	20001648 	.word	0x20001648

08004330 <vTaskSuspendAll>:
 8004330:	4a02      	ldr	r2, [pc, #8]	; (800433c <vTaskSuspendAll+0xc>)
 8004332:	6813      	ldr	r3, [r2, #0]
 8004334:	3301      	adds	r3, #1
 8004336:	6013      	str	r3, [r2, #0]
 8004338:	4770      	bx	lr
 800433a:	bf00      	nop
 800433c:	2000136c 	.word	0x2000136c

08004340 <vTaskEndScheduler>:
 8004340:	b508      	push	{r3, lr}
 8004342:	f7ff ff4f 	bl	80041e4 <vPortEnterCritical>
 8004346:	2200      	movs	r2, #0
 8004348:	4b02      	ldr	r3, [pc, #8]	; (8004354 <vTaskEndScheduler+0x14>)
 800434a:	601a      	str	r2, [r3, #0]
 800434c:	b672      	cpsid	i
 800434e:	b671      	cpsid	f
 8004350:	bd08      	pop	{r3, pc}
 8004352:	bf00      	nop
 8004354:	20001614 	.word	0x20001614

08004358 <dmaStreamAllocate.constprop.0>:
 * @retval false        no error, stream taken.
 * @retval true         error, stream already taken.
 *
 * @special
 */
bool dmaStreamAllocate(const stm32_dma_stream_t *dmastp,
 8004358:	b5f8      	push	{r3, r4, r5, r6, r7, lr}
                       uint32_t priority,
                       stm32_dmaisr_t func,
                       void *param) {

  osalDbgCheck(dmastp != NULL);
 800435a:	b910      	cbnz	r0, 8004362 <dmaStreamAllocate.constprop.0+0xa>
 800435c:	f7ff fff0 	bl	8004340 <vTaskEndScheduler>
 8004360:	e7fe      	b.n	8004360 <dmaStreamAllocate.constprop.0+0x8>

  /* Checks if the stream is already taken.*/
  if ((dma_streams_mask & (1U << dmastp->selfindex)) != 0U)
 8004362:	2301      	movs	r3, #1
 8004364:	4c1f      	ldr	r4, [pc, #124]	; (80043e4 <dmaStreamAllocate.constprop.0+0x8c>)
 8004366:	7c47      	ldrb	r7, [r0, #17]
 8004368:	6826      	ldr	r6, [r4, #0]
 800436a:	fa03 f507 	lsl.w	r5, r3, r7
 800436e:	4235      	tst	r5, r6
 8004370:	d135      	bne.n	80043de <dmaStreamAllocate.constprop.0+0x86>
    return true;

  /* Installs the DMA handler.*/
  _stm32_dma_isr_redir[dmastp->selfindex].dma_func  = func;
 8004372:	4b1d      	ldr	r3, [pc, #116]	; (80043e8 <dmaStreamAllocate.constprop.0+0x90>)
 8004374:	f843 1037 	str.w	r1, [r3, r7, lsl #3]
  _stm32_dma_isr_redir[dmastp->selfindex].dma_param = param;
 8004378:	eb03 03c7 	add.w	r3, r3, r7, lsl #3
 800437c:	605a      	str	r2, [r3, #4]

  /* Enabling DMA clocks required by the current streams set.*/
  if ((dma_streams_mask & STM32_DMA1_STREAMS_MASK) == 0U) {
 800437e:	0673      	lsls	r3, r6, #25
    rccEnableDMA1(false);
 8004380:	bf08      	it	eq
 8004382:	4a1a      	ldreq	r2, [pc, #104]	; (80043ec <dmaStreamAllocate.constprop.0+0x94>)
    rccEnableDMA2(false);
  }
#endif

  /* Putting the stream in a safe state.*/
  dmaStreamDisable(dmastp);
 8004384:	6801      	ldr	r1, [r0, #0]
    rccEnableDMA1(false);
 8004386:	bf02      	ittt	eq
 8004388:	6953      	ldreq	r3, [r2, #20]
 800438a:	f043 0301 	orreq.w	r3, r3, #1
 800438e:	6153      	streq	r3, [r2, #20]
  dmaStreamDisable(dmastp);
 8004390:	6843      	ldr	r3, [r0, #4]
 8004392:	681a      	ldr	r2, [r3, #0]
 8004394:	f022 020f 	bic.w	r2, r2, #15
 8004398:	601a      	str	r2, [r3, #0]
 800439a:	220e      	movs	r2, #14
 800439c:	7c07      	ldrb	r7, [r0, #16]
 800439e:	40ba      	lsls	r2, r7
 80043a0:	604a      	str	r2, [r1, #4]
  dmastp->channel->CCR = STM32_DMA_CCR_RESET_VALUE;
 80043a2:	2200      	movs	r2, #0
 80043a4:	601a      	str	r2, [r3, #0]

  /* Enables the associated IRQ vector if not alread enabled and if a
     callback is defined.*/
  if (((dma_streams_mask & dmastp->cmask) == 0U) &&
 80043a6:	6883      	ldr	r3, [r0, #8]
 80043a8:	421e      	tst	r6, r3
 80043aa:	d114      	bne.n	80043d6 <dmaStreamAllocate.constprop.0+0x7e>

#if defined(__CORE_CM0_H_GENERIC)
  NVIC->IP[_IP_IDX(n)] = (NVIC->IP[_IP_IDX(n)] & ~(0xFFU << _BIT_SHIFT(n))) |
                         (NVIC_PRIORITY_MASK(prio) << _BIT_SHIFT(n));
#else
  NVIC->IP[n] = NVIC_PRIORITY_MASK(prio);
 80043ac:	21c0      	movs	r1, #192	; 0xc0
      (func != NULL)) {
    nvicEnableVector(dmastp->vector, priority);
 80043ae:	7c83      	ldrb	r3, [r0, #18]
 80043b0:	f103 4260 	add.w	r2, r3, #3758096384	; 0xe0000000
 80043b4:	f502 4261 	add.w	r2, r2, #57600	; 0xe100
 80043b8:	f882 1300 	strb.w	r1, [r2, #768]	; 0x300
#endif
  NVIC->ICPR[n >> 5U] = 1U << (n & 0x1FU);
 80043bc:	2201      	movs	r2, #1
 80043be:	f003 011f 	and.w	r1, r3, #31
 80043c2:	095b      	lsrs	r3, r3, #5
 80043c4:	009b      	lsls	r3, r3, #2
 80043c6:	f103 4360 	add.w	r3, r3, #3758096384	; 0xe0000000
 80043ca:	408a      	lsls	r2, r1
 80043cc:	f503 4361 	add.w	r3, r3, #57600	; 0xe100
 80043d0:	f8c3 2180 	str.w	r2, [r3, #384]	; 0x180
  NVIC->ISER[n >> 5U] = 1U << (n & 0x1FU);
 80043d4:	601a      	str	r2, [r3, #0]
  }

  /* Marks the stream as allocated.*/
  dma_streams_mask |= (1U << dmastp->selfindex);

  return false;
 80043d6:	2000      	movs	r0, #0
  dma_streams_mask |= (1U << dmastp->selfindex);
 80043d8:	4335      	orrs	r5, r6
 80043da:	6025      	str	r5, [r4, #0]
}
 80043dc:	bdf8      	pop	{r3, r4, r5, r6, r7, pc}
    return true;
 80043de:	4618      	mov	r0, r3
 80043e0:	e7fc      	b.n	80043dc <dmaStreamAllocate.constprop.0+0x84>
 80043e2:	bf00      	nop
 80043e4:	20001044 	.word	0x20001044
 80043e8:	20000fe8 	.word	0x20000fe8
 80043ec:	40021000 	.word	0x40021000

080043f0 <uxListRemove>:
 80043f0:	6903      	ldr	r3, [r0, #16]
 80043f2:	e9d0 1201 	ldrd	r1, r2, [r0, #4]
 80043f6:	608a      	str	r2, [r1, #8]
 80043f8:	6051      	str	r1, [r2, #4]
 80043fa:	6859      	ldr	r1, [r3, #4]
 80043fc:	4281      	cmp	r1, r0
 80043fe:	bf08      	it	eq
 8004400:	605a      	streq	r2, [r3, #4]
 8004402:	2200      	movs	r2, #0
 8004404:	6102      	str	r2, [r0, #16]
 8004406:	681a      	ldr	r2, [r3, #0]
 8004408:	3a01      	subs	r2, #1
 800440a:	601a      	str	r2, [r3, #0]
 800440c:	6818      	ldr	r0, [r3, #0]
 800440e:	4770      	bx	lr

08004410 <vListInsert>:
 8004410:	b530      	push	{r4, r5, lr}
 8004412:	680c      	ldr	r4, [r1, #0]
 8004414:	1c63      	adds	r3, r4, #1
 8004416:	d10a      	bne.n	800442e <vListInsert+0x1e>
 8004418:	6903      	ldr	r3, [r0, #16]
 800441a:	685a      	ldr	r2, [r3, #4]
 800441c:	604a      	str	r2, [r1, #4]
 800441e:	6091      	str	r1, [r2, #8]
 8004420:	608b      	str	r3, [r1, #8]
 8004422:	6059      	str	r1, [r3, #4]
 8004424:	6803      	ldr	r3, [r0, #0]
 8004426:	6108      	str	r0, [r1, #16]
 8004428:	3301      	adds	r3, #1
 800442a:	6003      	str	r3, [r0, #0]
 800442c:	bd30      	pop	{r4, r5, pc}
 800442e:	f100 0208 	add.w	r2, r0, #8
 8004432:	4613      	mov	r3, r2
 8004434:	6852      	ldr	r2, [r2, #4]
 8004436:	6815      	ldr	r5, [r2, #0]
 8004438:	42a5      	cmp	r5, r4
 800443a:	d9fa      	bls.n	8004432 <vListInsert+0x22>
 800443c:	e7ed      	b.n	800441a <vListInsert+0xa>

0800443e <vListInsertEnd>:
 800443e:	6843      	ldr	r3, [r0, #4]
 8004440:	689a      	ldr	r2, [r3, #8]
 8004442:	604b      	str	r3, [r1, #4]
 8004444:	608a      	str	r2, [r1, #8]
 8004446:	689a      	ldr	r2, [r3, #8]
 8004448:	6051      	str	r1, [r2, #4]
 800444a:	6099      	str	r1, [r3, #8]
 800444c:	6803      	ldr	r3, [r0, #0]
 800444e:	6108      	str	r0, [r1, #16]
 8004450:	3301      	adds	r3, #1
 8004452:	6003      	str	r3, [r0, #0]
 8004454:	4770      	bx	lr
	...

08004458 <xTaskGenericNotifyFromISR.constprop.0>:
 8004458:	b5f8      	push	{r3, r4, r5, r6, r7, lr}
 800445a:	4604      	mov	r4, r0
 800445c:	b900      	cbnz	r0, 8004460 <xTaskGenericNotifyFromISR.constprop.0+0x8>
 800445e:	e7fe      	b.n	800445e <xTaskGenericNotifyFromISR.constprop.0+0x6>
 8004460:	f7ff fe40 	bl	80040e4 <vPortValidateInterruptPriority>
 8004464:	f7ff fea0 	bl	80041a8 <ulPortEnterCriticalFromISR>
 8004468:	2202      	movs	r2, #2
 800446a:	f894 3064 	ldrb.w	r3, [r4, #100]	; 0x64
 800446e:	4606      	mov	r6, r0
 8004470:	2b01      	cmp	r3, #1
 8004472:	f884 2064 	strb.w	r2, [r4, #100]	; 0x64
 8004476:	b2dd      	uxtb	r5, r3
 8004478:	6621      	str	r1, [r4, #96]	; 0x60
 800447a:	d11f      	bne.n	80044bc <xTaskGenericNotifyFromISR.constprop.0+0x64>
 800447c:	6aa3      	ldr	r3, [r4, #40]	; 0x28
 800447e:	b103      	cbz	r3, 8004482 <xTaskGenericNotifyFromISR.constprop.0+0x2a>
 8004480:	e7fe      	b.n	8004480 <xTaskGenericNotifyFromISR.constprop.0+0x28>
 8004482:	4b13      	ldr	r3, [pc, #76]	; (80044d0 <xTaskGenericNotifyFromISR.constprop.0+0x78>)
 8004484:	681b      	ldr	r3, [r3, #0]
 8004486:	b9f3      	cbnz	r3, 80044c6 <xTaskGenericNotifyFromISR.constprop.0+0x6e>
 8004488:	1d27      	adds	r7, r4, #4
 800448a:	4638      	mov	r0, r7
 800448c:	f7ff ffb0 	bl	80043f0 <uxListRemove>
 8004490:	4a10      	ldr	r2, [pc, #64]	; (80044d4 <xTaskGenericNotifyFromISR.constprop.0+0x7c>)
 8004492:	2014      	movs	r0, #20
 8004494:	6ae3      	ldr	r3, [r4, #44]	; 0x2c
 8004496:	6811      	ldr	r1, [r2, #0]
 8004498:	409d      	lsls	r5, r3
 800449a:	430d      	orrs	r5, r1
 800449c:	4639      	mov	r1, r7
 800449e:	6015      	str	r5, [r2, #0]
 80044a0:	4a0d      	ldr	r2, [pc, #52]	; (80044d8 <xTaskGenericNotifyFromISR.constprop.0+0x80>)
 80044a2:	fb00 2003 	mla	r0, r0, r3, r2
 80044a6:	f7ff ffca 	bl	800443e <vListInsertEnd>
 80044aa:	4b0c      	ldr	r3, [pc, #48]	; (80044dc <xTaskGenericNotifyFromISR.constprop.0+0x84>)
 80044ac:	6ae2      	ldr	r2, [r4, #44]	; 0x2c
 80044ae:	681b      	ldr	r3, [r3, #0]
 80044b0:	6adb      	ldr	r3, [r3, #44]	; 0x2c
 80044b2:	429a      	cmp	r2, r3
 80044b4:	bf82      	ittt	hi
 80044b6:	2201      	movhi	r2, #1
 80044b8:	4b09      	ldrhi	r3, [pc, #36]	; (80044e0 <xTaskGenericNotifyFromISR.constprop.0+0x88>)
 80044ba:	601a      	strhi	r2, [r3, #0]
 80044bc:	4630      	mov	r0, r6
 80044be:	f7ff fe67 	bl	8004190 <vPortExitCriticalFromISR>
 80044c2:	2001      	movs	r0, #1
 80044c4:	bdf8      	pop	{r3, r4, r5, r6, r7, pc}
 80044c6:	4807      	ldr	r0, [pc, #28]	; (80044e4 <xTaskGenericNotifyFromISR.constprop.0+0x8c>)
 80044c8:	f104 0118 	add.w	r1, r4, #24
 80044cc:	e7eb      	b.n	80044a6 <xTaskGenericNotifyFromISR.constprop.0+0x4e>
 80044ce:	bf00      	nop
 80044d0:	2000136c 	.word	0x2000136c
 80044d4:	20001374 	.word	0x20001374
 80044d8:	200011b8 	.word	0x200011b8
 80044dc:	200011a8 	.word	0x200011a8
 80044e0:	2000164c 	.word	0x2000164c
 80044e4:	20001600 	.word	0x20001600

080044e8 <osalThreadResumeI.lto_priv.2>:
 80044e8:	b510      	push	{r4, lr}
 80044ea:	4604      	mov	r4, r0
 80044ec:	f3ef 8311 	mrs	r3, BASEPRI
 80044f0:	b133      	cbz	r3, 8004500 <osalThreadResumeI.lto_priv.2+0x18>
}

static inline void osalThreadResumeI(thread_reference_t* thread_reference, msg_t msg)
{
    osalDbgCheckClassI();
    if(*thread_reference) {
 80044f2:	6800      	ldr	r0, [r0, #0]
 80044f4:	b118      	cbz	r0, 80044fe <osalThreadResumeI.lto_priv.2+0x16>
        xTaskNotifyFromISR( *thread_reference, msg, eSetValueWithOverwrite, NULL );
 80044f6:	f7ff ffaf 	bl	8004458 <xTaskGenericNotifyFromISR.constprop.0>
        *thread_reference = NULL;
 80044fa:	2300      	movs	r3, #0
 80044fc:	6023      	str	r3, [r4, #0]
 80044fe:	bd10      	pop	{r4, pc}
 8004500:	f7ff ff1e 	bl	8004340 <vTaskEndScheduler>
 8004504:	e7fe      	b.n	8004504 <osalThreadResumeI.lto_priv.2+0x1c>

08004506 <osalEventBroadcastFlagsI>:
 8004506:	b570      	push	{r4, r5, r6, lr}
 8004508:	4604      	mov	r4, r0
 800450a:	b910      	cbnz	r0, 8004512 <osalEventBroadcastFlagsI+0xc>
 800450c:	f7ff ff18 	bl	8004340 <vTaskEndScheduler>
 8004510:	e7fe      	b.n	8004510 <osalEventBroadcastFlagsI+0xa>
 8004512:	f3ef 8311 	mrs	r3, BASEPRI
 8004516:	b31b      	cbz	r3, 8004560 <osalEventBroadcastFlagsI+0x5a>
 8004518:	6846      	ldr	r6, [r0, #4]
 800451a:	68c3      	ldr	r3, [r0, #12]
 800451c:	430e      	orrs	r6, r1
 800451e:	6046      	str	r6, [r0, #4]
 8004520:	b10b      	cbz	r3, 8004526 <osalEventBroadcastFlagsI+0x20>
 8004522:	4631      	mov	r1, r6
 8004524:	4798      	blx	r3
 8004526:	6825      	ldr	r5, [r4, #0]
 8004528:	b94d      	cbnz	r5, 800453e <osalEventBroadcastFlagsI+0x38>
 800452a:	6863      	ldr	r3, [r4, #4]
 800452c:	b1db      	cbz	r3, 8004566 <osalEventBroadcastFlagsI+0x60>
 800452e:	f104 0008 	add.w	r0, r4, #8
 8004532:	f06f 0102 	mvn.w	r1, #2
 8004536:	e8bd 4070 	ldmia.w	sp!, {r4, r5, r6, lr}
 800453a:	f7ff bfd5 	b.w	80044e8 <osalThreadResumeI.lto_priv.2>
 800453e:	692b      	ldr	r3, [r5, #16]
 8004540:	421e      	tst	r6, r3
 8004542:	d006      	beq.n	8004552 <osalEventBroadcastFlagsI+0x4c>
 8004544:	696b      	ldr	r3, [r5, #20]
 8004546:	69a9      	ldr	r1, [r5, #24]
 8004548:	4333      	orrs	r3, r6
 800454a:	68e8      	ldr	r0, [r5, #12]
 800454c:	616b      	str	r3, [r5, #20]
 800454e:	f7ff ffda 	bl	8004506 <osalEventBroadcastFlagsI>
 8004552:	692a      	ldr	r2, [r5, #16]
 8004554:	6863      	ldr	r3, [r4, #4]
 8004556:	682d      	ldr	r5, [r5, #0]
 8004558:	ea23 0302 	bic.w	r3, r3, r2
 800455c:	6063      	str	r3, [r4, #4]
 800455e:	e7e3      	b.n	8004528 <osalEventBroadcastFlagsI+0x22>
 8004560:	f7ff feee 	bl	8004340 <vTaskEndScheduler>
 8004564:	e7fe      	b.n	8004564 <osalEventBroadcastFlagsI+0x5e>
 8004566:	bd70      	pop	{r4, r5, r6, pc}

08004568 <osalThreadDequeueI>:
 8004568:	4603      	mov	r3, r0
 800456a:	b507      	push	{r0, r1, r2, lr}
 800456c:	6840      	ldr	r0, [r0, #4]
 800456e:	b148      	cbz	r0, 8004584 <osalThreadDequeueI+0x1c>
 8004570:	6d82      	ldr	r2, [r0, #88]	; 0x58
 8004572:	9001      	str	r0, [sp, #4]
 8004574:	b14a      	cbz	r2, 800458a <osalThreadDequeueI+0x22>
 8004576:	2000      	movs	r0, #0
 8004578:	6550      	str	r0, [r2, #84]	; 0x54
 800457a:	a801      	add	r0, sp, #4
 800457c:	605a      	str	r2, [r3, #4]
 800457e:	f7ff ffb3 	bl	80044e8 <osalThreadResumeI.lto_priv.2>
 8004582:	2001      	movs	r0, #1
 8004584:	b003      	add	sp, #12
 8004586:	f85d fb04 	ldr.w	pc, [sp], #4
 800458a:	601a      	str	r2, [r3, #0]
 800458c:	e7f5      	b.n	800457a <osalThreadDequeueI+0x12>

0800458e <osalThreadDequeueAllI.constprop.0>:
 800458e:	b510      	push	{r4, lr}
 8004590:	4604      	mov	r4, r0
 8004592:	b910      	cbnz	r0, 800459a <osalThreadDequeueAllI.constprop.0+0xc>
 8004594:	f7ff fed4 	bl	8004340 <vTaskEndScheduler>
 8004598:	e7fe      	b.n	8004598 <osalThreadDequeueAllI.constprop.0+0xa>
 800459a:	f3ef 8311 	mrs	r3, BASEPRI
 800459e:	b913      	cbnz	r3, 80045a6 <osalThreadDequeueAllI.constprop.0+0x18>
 80045a0:	f7ff fece 	bl	8004340 <vTaskEndScheduler>
 80045a4:	e7fe      	b.n	80045a4 <osalThreadDequeueAllI.constprop.0+0x16>
 80045a6:	f06f 0101 	mvn.w	r1, #1
 80045aa:	4620      	mov	r0, r4
 80045ac:	f7ff ffdc 	bl	8004568 <osalThreadDequeueI>
 80045b0:	2800      	cmp	r0, #0
 80045b2:	d1f8      	bne.n	80045a6 <osalThreadDequeueAllI.constprop.0+0x18>
 80045b4:	bd10      	pop	{r4, pc}

080045b6 <osalThreadDequeueNextI.constprop.0>:
 80045b6:	b508      	push	{r3, lr}
 80045b8:	b910      	cbnz	r0, 80045c0 <osalThreadDequeueNextI.constprop.0+0xa>
 80045ba:	f7ff fec1 	bl	8004340 <vTaskEndScheduler>
 80045be:	e7fe      	b.n	80045be <osalThreadDequeueNextI.constprop.0+0x8>
 80045c0:	f3ef 8311 	mrs	r3, BASEPRI
 80045c4:	b123      	cbz	r3, 80045d0 <osalThreadDequeueNextI.constprop.0+0x1a>
 80045c6:	e8bd 4008 	ldmia.w	sp!, {r3, lr}
 80045ca:	2100      	movs	r1, #0
 80045cc:	f7ff bfcc 	b.w	8004568 <osalThreadDequeueI>
 80045d0:	f7ff feb6 	bl	8004340 <vTaskEndScheduler>
 80045d4:	e7fe      	b.n	80045d4 <osalThreadDequeueNextI.constprop.0+0x1e>
	...

080045d8 <prvAddCurrentTaskToDelayedList>:
 80045d8:	b5f8      	push	{r3, r4, r5, r6, r7, lr}
 80045da:	4b1b      	ldr	r3, [pc, #108]	; (8004648 <prvAddCurrentTaskToDelayedList+0x70>)
 80045dc:	4f1b      	ldr	r7, [pc, #108]	; (800464c <prvAddCurrentTaskToDelayedList+0x74>)
 80045de:	681c      	ldr	r4, [r3, #0]
 80045e0:	4605      	mov	r5, r0
 80045e2:	6838      	ldr	r0, [r7, #0]
 80045e4:	460e      	mov	r6, r1
 80045e6:	3004      	adds	r0, #4
 80045e8:	f7ff ff02 	bl	80043f0 <uxListRemove>
 80045ec:	463b      	mov	r3, r7
 80045ee:	b940      	cbnz	r0, 8004602 <prvAddCurrentTaskToDelayedList+0x2a>
 80045f0:	6839      	ldr	r1, [r7, #0]
 80045f2:	4817      	ldr	r0, [pc, #92]	; (8004650 <prvAddCurrentTaskToDelayedList+0x78>)
 80045f4:	6acf      	ldr	r7, [r1, #44]	; 0x2c
 80045f6:	2101      	movs	r1, #1
 80045f8:	6802      	ldr	r2, [r0, #0]
 80045fa:	40b9      	lsls	r1, r7
 80045fc:	ea22 0201 	bic.w	r2, r2, r1
 8004600:	6002      	str	r2, [r0, #0]
 8004602:	1c6a      	adds	r2, r5, #1
 8004604:	d107      	bne.n	8004616 <prvAddCurrentTaskToDelayedList+0x3e>
 8004606:	b136      	cbz	r6, 8004616 <prvAddCurrentTaskToDelayedList+0x3e>
 8004608:	6819      	ldr	r1, [r3, #0]
 800460a:	4812      	ldr	r0, [pc, #72]	; (8004654 <prvAddCurrentTaskToDelayedList+0x7c>)
 800460c:	3104      	adds	r1, #4
 800460e:	e8bd 40f8 	ldmia.w	sp!, {r3, r4, r5, r6, r7, lr}
 8004612:	f7ff bf14 	b.w	800443e <vListInsertEnd>
 8004616:	681a      	ldr	r2, [r3, #0]
 8004618:	1964      	adds	r4, r4, r5
 800461a:	6054      	str	r4, [r2, #4]
 800461c:	d307      	bcc.n	800462e <prvAddCurrentTaskToDelayedList+0x56>
 800461e:	4a0e      	ldr	r2, [pc, #56]	; (8004658 <prvAddCurrentTaskToDelayedList+0x80>)
 8004620:	6810      	ldr	r0, [r2, #0]
 8004622:	6819      	ldr	r1, [r3, #0]
 8004624:	e8bd 40f8 	ldmia.w	sp!, {r3, r4, r5, r6, r7, lr}
 8004628:	3104      	adds	r1, #4
 800462a:	f7ff bef1 	b.w	8004410 <vListInsert>
 800462e:	4a0b      	ldr	r2, [pc, #44]	; (800465c <prvAddCurrentTaskToDelayedList+0x84>)
 8004630:	6810      	ldr	r0, [r2, #0]
 8004632:	6819      	ldr	r1, [r3, #0]
 8004634:	3104      	adds	r1, #4
 8004636:	f7ff feeb 	bl	8004410 <vListInsert>
 800463a:	4b09      	ldr	r3, [pc, #36]	; (8004660 <prvAddCurrentTaskToDelayedList+0x88>)
 800463c:	681a      	ldr	r2, [r3, #0]
 800463e:	42a2      	cmp	r2, r4
 8004640:	bf88      	it	hi
 8004642:	601c      	strhi	r4, [r3, #0]
 8004644:	bdf8      	pop	{r3, r4, r5, r6, r7, pc}
 8004646:	bf00      	nop
 8004648:	20001648 	.word	0x20001648
 800464c:	200011a8 	.word	0x200011a8
 8004650:	20001374 	.word	0x20001374
 8004654:	20001620 	.word	0x20001620
 8004658:	200011b4 	.word	0x200011b4
 800465c:	200011ac 	.word	0x200011ac
 8004660:	200015f8 	.word	0x200015f8

08004664 <xTaskNotifyWait.constprop.0>:
 8004664:	b570      	push	{r4, r5, r6, lr}
 8004666:	4c23      	ldr	r4, [pc, #140]	; (80046f4 <xTaskNotifyWait.constprop.0+0x90>)
 8004668:	4606      	mov	r6, r0
 800466a:	460d      	mov	r5, r1
 800466c:	4610      	mov	r0, r2
 800466e:	f7ff fdb9 	bl	80041e4 <vPortEnterCritical>
 8004672:	6823      	ldr	r3, [r4, #0]
 8004674:	f893 3064 	ldrb.w	r3, [r3, #100]	; 0x64
 8004678:	2b02      	cmp	r3, #2
 800467a:	d020      	beq.n	80046be <xTaskNotifyWait.constprop.0+0x5a>
 800467c:	2101      	movs	r1, #1
 800467e:	6822      	ldr	r2, [r4, #0]
 8004680:	6e13      	ldr	r3, [r2, #96]	; 0x60
 8004682:	ea23 0306 	bic.w	r3, r3, r6
 8004686:	6613      	str	r3, [r2, #96]	; 0x60
 8004688:	6823      	ldr	r3, [r4, #0]
 800468a:	f883 1064 	strb.w	r1, [r3, #100]	; 0x64
 800468e:	b1b0      	cbz	r0, 80046be <xTaskNotifyWait.constprop.0+0x5a>
 8004690:	f7ff ffa2 	bl	80045d8 <prvAddCurrentTaskToDelayedList>
 8004694:	4b18      	ldr	r3, [pc, #96]	; (80046f8 <xTaskNotifyWait.constprop.0+0x94>)
 8004696:	4a19      	ldr	r2, [pc, #100]	; (80046fc <xTaskNotifyWait.constprop.0+0x98>)
 8004698:	6819      	ldr	r1, [r3, #0]
 800469a:	6011      	str	r1, [r2, #0]
 800469c:	4a18      	ldr	r2, [pc, #96]	; (8004700 <xTaskNotifyWait.constprop.0+0x9c>)
 800469e:	6812      	ldr	r2, [r2, #0]
 80046a0:	b12a      	cbz	r2, 80046ae <xTaskNotifyWait.constprop.0+0x4a>
 80046a2:	681a      	ldr	r2, [r3, #0]
 80046a4:	f422 027f 	bic.w	r2, r2, #16711680	; 0xff0000
 80046a8:	601a      	str	r2, [r3, #0]
 80046aa:	681a      	ldr	r2, [r3, #0]
 80046ac:	601a      	str	r2, [r3, #0]
 80046ae:	f04f 5280 	mov.w	r2, #268435456	; 0x10000000
 80046b2:	4b14      	ldr	r3, [pc, #80]	; (8004704 <xTaskNotifyWait.constprop.0+0xa0>)
 80046b4:	601a      	str	r2, [r3, #0]
 80046b6:	f3bf 8f4f 	dsb	sy
 80046ba:	f3bf 8f6f 	isb	sy
 80046be:	f7ff fd85 	bl	80041cc <vPortExitCritical>
 80046c2:	f7ff fd8f 	bl	80041e4 <vPortEnterCritical>
 80046c6:	6823      	ldr	r3, [r4, #0]
 80046c8:	2000      	movs	r0, #0
 80046ca:	6e1b      	ldr	r3, [r3, #96]	; 0x60
 80046cc:	602b      	str	r3, [r5, #0]
 80046ce:	6823      	ldr	r3, [r4, #0]
 80046d0:	f893 3064 	ldrb.w	r3, [r3, #100]	; 0x64
 80046d4:	2b02      	cmp	r3, #2
 80046d6:	bf04      	itt	eq
 80046d8:	6823      	ldreq	r3, [r4, #0]
 80046da:	6e1a      	ldreq	r2, [r3, #96]	; 0x60
 80046dc:	f04f 0200 	mov.w	r2, #0
 80046e0:	bf08      	it	eq
 80046e2:	6618      	streq	r0, [r3, #96]	; 0x60
 80046e4:	6823      	ldr	r3, [r4, #0]
 80046e6:	bf08      	it	eq
 80046e8:	2001      	moveq	r0, #1
 80046ea:	f883 2064 	strb.w	r2, [r3, #100]	; 0x64
 80046ee:	f7ff fd6d 	bl	80041cc <vPortExitCritical>
 80046f2:	bd70      	pop	{r4, r5, r6, pc}
 80046f4:	200011a8 	.word	0x200011a8
 80046f8:	e000ed20 	.word	0xe000ed20
 80046fc:	2000134c 	.word	0x2000134c
 8004700:	20001358 	.word	0x20001358
 8004704:	e000ed04 	.word	0xe000ed04

08004708 <osalThreadSuspendTimeoutS>:
 8004708:	b513      	push	{r0, r1, r4, lr}
 800470a:	4604      	mov	r4, r0
 800470c:	4608      	mov	r0, r1
 800470e:	f3ef 8311 	mrs	r3, BASEPRI
 8004712:	b12b      	cbz	r3, 8004720 <osalThreadSuspendTimeoutS+0x18>
 8004714:	f3ef 8305 	mrs	r3, IPSR
 8004718:	b12b      	cbz	r3, 8004726 <osalThreadSuspendTimeoutS+0x1e>
 800471a:	f7ff fe11 	bl	8004340 <vTaskEndScheduler>
 800471e:	e7fe      	b.n	800471e <osalThreadSuspendTimeoutS+0x16>
 8004720:	f7ff fe0e 	bl	8004340 <vTaskEndScheduler>
 8004724:	e7fe      	b.n	8004724 <osalThreadSuspendTimeoutS+0x1c>
 8004726:	b181      	cbz	r1, 800474a <osalThreadSuspendTimeoutS+0x42>
 8004728:	b134      	cbz	r4, 8004738 <osalThreadSuspendTimeoutS+0x30>
 800472a:	f7ff fd5b 	bl	80041e4 <vPortEnterCritical>
 800472e:	4b0a      	ldr	r3, [pc, #40]	; (8004758 <osalThreadSuspendTimeoutS+0x50>)
 8004730:	6819      	ldr	r1, [r3, #0]
 8004732:	f7ff fd4b 	bl	80041cc <vPortExitCritical>
 8004736:	6021      	str	r1, [r4, #0]
 8004738:	4602      	mov	r2, r0
 800473a:	a901      	add	r1, sp, #4
 800473c:	f04f 30ff 	mov.w	r0, #4294967295	; 0xffffffff
 8004740:	f7ff ff90 	bl	8004664 <xTaskNotifyWait.constprop.0>
 8004744:	b920      	cbnz	r0, 8004750 <osalThreadSuspendTimeoutS+0x48>
 8004746:	b104      	cbz	r4, 800474a <osalThreadSuspendTimeoutS+0x42>
 8004748:	6020      	str	r0, [r4, #0]
 800474a:	f04f 30ff 	mov.w	r0, #4294967295	; 0xffffffff
 800474e:	e000      	b.n	8004752 <osalThreadSuspendTimeoutS+0x4a>
 8004750:	9801      	ldr	r0, [sp, #4]
 8004752:	b002      	add	sp, #8
 8004754:	bd10      	pop	{r4, pc}
 8004756:	bf00      	nop
 8004758:	200011a8 	.word	0x200011a8

0800475c <osalThreadEnqueueTimeoutS>:
 800475c:	b570      	push	{r4, r5, r6, lr}
 800475e:	4605      	mov	r5, r0
 8004760:	4608      	mov	r0, r1
 8004762:	2900      	cmp	r1, #0
 8004764:	d03a      	beq.n	80047dc <osalThreadEnqueueTimeoutS+0x80>
 8004766:	f3ef 8311 	mrs	r3, BASEPRI
 800476a:	b12b      	cbz	r3, 8004778 <osalThreadEnqueueTimeoutS+0x1c>
 800476c:	f3ef 8305 	mrs	r3, IPSR
 8004770:	b12b      	cbz	r3, 800477e <osalThreadEnqueueTimeoutS+0x22>
 8004772:	f7ff fde5 	bl	8004340 <vTaskEndScheduler>
 8004776:	e7fe      	b.n	8004776 <osalThreadEnqueueTimeoutS+0x1a>
 8004778:	f7ff fde2 	bl	8004340 <vTaskEndScheduler>
 800477c:	e7fe      	b.n	800477c <osalThreadEnqueueTimeoutS+0x20>
 800477e:	4e19      	ldr	r6, [pc, #100]	; (80047e4 <osalThreadEnqueueTimeoutS+0x88>)
 8004780:	f7ff fd30 	bl	80041e4 <vPortEnterCritical>
 8004784:	6834      	ldr	r4, [r6, #0]
 8004786:	f7ff fd21 	bl	80041cc <vPortExitCritical>
 800478a:	682b      	ldr	r3, [r5, #0]
 800478c:	b9e4      	cbnz	r4, 80047c8 <osalThreadEnqueueTimeoutS+0x6c>
 800478e:	6832      	ldr	r2, [r6, #0]
 8004790:	6553      	str	r3, [r2, #84]	; 0x54
 8004792:	b9dc      	cbnz	r4, 80047cc <osalThreadEnqueueTimeoutS+0x70>
 8004794:	6832      	ldr	r2, [r6, #0]
 8004796:	2100      	movs	r1, #0
 8004798:	6591      	str	r1, [r2, #88]	; 0x58
 800479a:	b103      	cbz	r3, 800479e <osalThreadEnqueueTimeoutS+0x42>
 800479c:	659c      	str	r4, [r3, #88]	; 0x58
 800479e:	686b      	ldr	r3, [r5, #4]
 80047a0:	602c      	str	r4, [r5, #0]
 80047a2:	b903      	cbnz	r3, 80047a6 <osalThreadEnqueueTimeoutS+0x4a>
 80047a4:	606c      	str	r4, [r5, #4]
 80047a6:	4601      	mov	r1, r0
 80047a8:	2000      	movs	r0, #0
 80047aa:	f7ff ffad 	bl	8004708 <osalThreadSuspendTimeoutS>
 80047ae:	1c43      	adds	r3, r0, #1
 80047b0:	d109      	bne.n	80047c6 <osalThreadEnqueueTimeoutS+0x6a>
 80047b2:	b96c      	cbnz	r4, 80047d0 <osalThreadEnqueueTimeoutS+0x74>
 80047b4:	6833      	ldr	r3, [r6, #0]
 80047b6:	6d5b      	ldr	r3, [r3, #84]	; 0x54
 80047b8:	b904      	cbnz	r4, 80047bc <osalThreadEnqueueTimeoutS+0x60>
 80047ba:	6834      	ldr	r4, [r6, #0]
 80047bc:	6da2      	ldr	r2, [r4, #88]	; 0x58
 80047be:	b14b      	cbz	r3, 80047d4 <osalThreadEnqueueTimeoutS+0x78>
 80047c0:	659a      	str	r2, [r3, #88]	; 0x58
 80047c2:	b14a      	cbz	r2, 80047d8 <osalThreadEnqueueTimeoutS+0x7c>
 80047c4:	6553      	str	r3, [r2, #84]	; 0x54
 80047c6:	bd70      	pop	{r4, r5, r6, pc}
 80047c8:	4622      	mov	r2, r4
 80047ca:	e7e1      	b.n	8004790 <osalThreadEnqueueTimeoutS+0x34>
 80047cc:	4622      	mov	r2, r4
 80047ce:	e7e2      	b.n	8004796 <osalThreadEnqueueTimeoutS+0x3a>
 80047d0:	4623      	mov	r3, r4
 80047d2:	e7f0      	b.n	80047b6 <osalThreadEnqueueTimeoutS+0x5a>
 80047d4:	606a      	str	r2, [r5, #4]
 80047d6:	e7f4      	b.n	80047c2 <osalThreadEnqueueTimeoutS+0x66>
 80047d8:	602b      	str	r3, [r5, #0]
 80047da:	e7f4      	b.n	80047c6 <osalThreadEnqueueTimeoutS+0x6a>
 80047dc:	f04f 30ff 	mov.w	r0, #4294967295	; 0xffffffff
 80047e0:	e7f1      	b.n	80047c6 <osalThreadEnqueueTimeoutS+0x6a>
 80047e2:	bf00      	nop
 80047e4:	200011a8 	.word	0x200011a8

080047e8 <xTaskRemoveFromEventList>:
 80047e8:	b538      	push	{r3, r4, r5, lr}
 80047ea:	68c3      	ldr	r3, [r0, #12]
 80047ec:	68dc      	ldr	r4, [r3, #12]
 80047ee:	b904      	cbnz	r4, 80047f2 <xTaskRemoveFromEventList+0xa>
 80047f0:	e7fe      	b.n	80047f0 <xTaskRemoveFromEventList+0x8>
 80047f2:	f104 0518 	add.w	r5, r4, #24
 80047f6:	4628      	mov	r0, r5
 80047f8:	f7ff fdfa 	bl	80043f0 <uxListRemove>
 80047fc:	4b12      	ldr	r3, [pc, #72]	; (8004848 <xTaskRemoveFromEventList+0x60>)
 80047fe:	681b      	ldr	r3, [r3, #0]
 8004800:	b9f3      	cbnz	r3, 8004840 <xTaskRemoveFromEventList+0x58>
 8004802:	1d25      	adds	r5, r4, #4
 8004804:	4628      	mov	r0, r5
 8004806:	f7ff fdf3 	bl	80043f0 <uxListRemove>
 800480a:	2301      	movs	r3, #1
 800480c:	490f      	ldr	r1, [pc, #60]	; (800484c <xTaskRemoveFromEventList+0x64>)
 800480e:	6ae2      	ldr	r2, [r4, #44]	; 0x2c
 8004810:	6808      	ldr	r0, [r1, #0]
 8004812:	4093      	lsls	r3, r2
 8004814:	4303      	orrs	r3, r0
 8004816:	2014      	movs	r0, #20
 8004818:	600b      	str	r3, [r1, #0]
 800481a:	4629      	mov	r1, r5
 800481c:	4b0c      	ldr	r3, [pc, #48]	; (8004850 <xTaskRemoveFromEventList+0x68>)
 800481e:	fb00 3002 	mla	r0, r0, r2, r3
 8004822:	f7ff fe0c 	bl	800443e <vListInsertEnd>
 8004826:	4b0b      	ldr	r3, [pc, #44]	; (8004854 <xTaskRemoveFromEventList+0x6c>)
 8004828:	6ae2      	ldr	r2, [r4, #44]	; 0x2c
 800482a:	681b      	ldr	r3, [r3, #0]
 800482c:	6adb      	ldr	r3, [r3, #44]	; 0x2c
 800482e:	429a      	cmp	r2, r3
 8004830:	bf85      	ittet	hi
 8004832:	2001      	movhi	r0, #1
 8004834:	4b08      	ldrhi	r3, [pc, #32]	; (8004858 <xTaskRemoveFromEventList+0x70>)
 8004836:	2000      	movls	r0, #0
 8004838:	6018      	strhi	r0, [r3, #0]
 800483a:	f7ff fd1f 	bl	800427c <prvResetNextTaskUnblockTime>
 800483e:	bd38      	pop	{r3, r4, r5, pc}
 8004840:	4629      	mov	r1, r5
 8004842:	4806      	ldr	r0, [pc, #24]	; (800485c <xTaskRemoveFromEventList+0x74>)
 8004844:	e7ed      	b.n	8004822 <xTaskRemoveFromEventList+0x3a>
 8004846:	bf00      	nop
 8004848:	2000136c 	.word	0x2000136c
 800484c:	20001374 	.word	0x20001374
 8004850:	200011b8 	.word	0x200011b8
 8004854:	200011a8 	.word	0x200011a8
 8004858:	2000164c 	.word	0x2000164c
 800485c:	20001600 	.word	0x20001600

08004860 <xTaskIncrementTick>:
 8004860:	e92d 4ff8 	stmdb	sp!, {r3, r4, r5, r6, r7, r8, r9, sl, fp, lr}
 8004864:	4b38      	ldr	r3, [pc, #224]	; (8004948 <xTaskIncrementTick+0xe8>)
 8004866:	681b      	ldr	r3, [r3, #0]
 8004868:	2b00      	cmp	r3, #0
 800486a:	d166      	bne.n	800493a <xTaskIncrementTick+0xda>
 800486c:	4b37      	ldr	r3, [pc, #220]	; (800494c <xTaskIncrementTick+0xec>)
 800486e:	681d      	ldr	r5, [r3, #0]
 8004870:	3501      	adds	r5, #1
 8004872:	601d      	str	r5, [r3, #0]
 8004874:	b97d      	cbnz	r5, 8004896 <xTaskIncrementTick+0x36>
 8004876:	4b36      	ldr	r3, [pc, #216]	; (8004950 <xTaskIncrementTick+0xf0>)
 8004878:	681a      	ldr	r2, [r3, #0]
 800487a:	6812      	ldr	r2, [r2, #0]
 800487c:	b102      	cbz	r2, 8004880 <xTaskIncrementTick+0x20>
 800487e:	e7fe      	b.n	800487e <xTaskIncrementTick+0x1e>
 8004880:	4a34      	ldr	r2, [pc, #208]	; (8004954 <xTaskIncrementTick+0xf4>)
 8004882:	6819      	ldr	r1, [r3, #0]
 8004884:	6810      	ldr	r0, [r2, #0]
 8004886:	6018      	str	r0, [r3, #0]
 8004888:	6011      	str	r1, [r2, #0]
 800488a:	4a33      	ldr	r2, [pc, #204]	; (8004958 <xTaskIncrementTick+0xf8>)
 800488c:	6813      	ldr	r3, [r2, #0]
 800488e:	3301      	adds	r3, #1
 8004890:	6013      	str	r3, [r2, #0]
 8004892:	f7ff fcf3 	bl	800427c <prvResetNextTaskUnblockTime>
 8004896:	4e31      	ldr	r6, [pc, #196]	; (800495c <xTaskIncrementTick+0xfc>)
 8004898:	2400      	movs	r4, #0
 800489a:	6833      	ldr	r3, [r6, #0]
 800489c:	4f30      	ldr	r7, [pc, #192]	; (8004960 <xTaskIncrementTick+0x100>)
 800489e:	42ab      	cmp	r3, r5
 80048a0:	d910      	bls.n	80048c4 <xTaskIncrementTick+0x64>
 80048a2:	4b30      	ldr	r3, [pc, #192]	; (8004964 <xTaskIncrementTick+0x104>)
 80048a4:	681b      	ldr	r3, [r3, #0]
 80048a6:	6ada      	ldr	r2, [r3, #44]	; 0x2c
 80048a8:	2314      	movs	r3, #20
 80048aa:	4353      	muls	r3, r2
 80048ac:	58fb      	ldr	r3, [r7, r3]
 80048ae:	2b02      	cmp	r3, #2
 80048b0:	bf28      	it	cs
 80048b2:	2401      	movcs	r4, #1
 80048b4:	4b2c      	ldr	r3, [pc, #176]	; (8004968 <xTaskIncrementTick+0x108>)
 80048b6:	681b      	ldr	r3, [r3, #0]
 80048b8:	2b00      	cmp	r3, #0
 80048ba:	bf0c      	ite	eq
 80048bc:	4620      	moveq	r0, r4
 80048be:	2001      	movne	r0, #1
 80048c0:	e8bd 8ff8 	ldmia.w	sp!, {r3, r4, r5, r6, r7, r8, r9, sl, fp, pc}
 80048c4:	f8df a088 	ldr.w	sl, [pc, #136]	; 8004950 <xTaskIncrementTick+0xf0>
 80048c8:	f8df 90a4 	ldr.w	r9, [pc, #164]	; 8004970 <xTaskIncrementTick+0x110>
 80048cc:	f8da 3000 	ldr.w	r3, [sl]
 80048d0:	681b      	ldr	r3, [r3, #0]
 80048d2:	b91b      	cbnz	r3, 80048dc <xTaskIncrementTick+0x7c>
 80048d4:	f04f 33ff 	mov.w	r3, #4294967295	; 0xffffffff
 80048d8:	6033      	str	r3, [r6, #0]
 80048da:	e7e2      	b.n	80048a2 <xTaskIncrementTick+0x42>
 80048dc:	f8da 3000 	ldr.w	r3, [sl]
 80048e0:	68db      	ldr	r3, [r3, #12]
 80048e2:	f8d3 b00c 	ldr.w	fp, [r3, #12]
 80048e6:	f8db 2004 	ldr.w	r2, [fp, #4]
 80048ea:	4295      	cmp	r5, r2
 80048ec:	d201      	bcs.n	80048f2 <xTaskIncrementTick+0x92>
 80048ee:	6032      	str	r2, [r6, #0]
 80048f0:	e7d7      	b.n	80048a2 <xTaskIncrementTick+0x42>
 80048f2:	f10b 0804 	add.w	r8, fp, #4
 80048f6:	4640      	mov	r0, r8
 80048f8:	f7ff fd7a 	bl	80043f0 <uxListRemove>
 80048fc:	f8db 2028 	ldr.w	r2, [fp, #40]	; 0x28
 8004900:	b11a      	cbz	r2, 800490a <xTaskIncrementTick+0xaa>
 8004902:	f10b 0018 	add.w	r0, fp, #24
 8004906:	f7ff fd73 	bl	80043f0 <uxListRemove>
 800490a:	2201      	movs	r2, #1
 800490c:	f8db 002c 	ldr.w	r0, [fp, #44]	; 0x2c
 8004910:	f8d9 3000 	ldr.w	r3, [r9]
 8004914:	4082      	lsls	r2, r0
 8004916:	431a      	orrs	r2, r3
 8004918:	f8c9 2000 	str.w	r2, [r9]
 800491c:	2214      	movs	r2, #20
 800491e:	4641      	mov	r1, r8
 8004920:	fb02 7000 	mla	r0, r2, r0, r7
 8004924:	f7ff fd8b 	bl	800443e <vListInsertEnd>
 8004928:	4b0e      	ldr	r3, [pc, #56]	; (8004964 <xTaskIncrementTick+0x104>)
 800492a:	f8db 202c 	ldr.w	r2, [fp, #44]	; 0x2c
 800492e:	6819      	ldr	r1, [r3, #0]
 8004930:	6acb      	ldr	r3, [r1, #44]	; 0x2c
 8004932:	429a      	cmp	r2, r3
 8004934:	bf28      	it	cs
 8004936:	2401      	movcs	r4, #1
 8004938:	e7c8      	b.n	80048cc <xTaskIncrementTick+0x6c>
 800493a:	4a0c      	ldr	r2, [pc, #48]	; (800496c <xTaskIncrementTick+0x10c>)
 800493c:	2400      	movs	r4, #0
 800493e:	6813      	ldr	r3, [r2, #0]
 8004940:	3301      	adds	r3, #1
 8004942:	6013      	str	r3, [r2, #0]
 8004944:	e7b6      	b.n	80048b4 <xTaskIncrementTick+0x54>
 8004946:	bf00      	nop
 8004948:	2000136c 	.word	0x2000136c
 800494c:	20001648 	.word	0x20001648
 8004950:	200011ac 	.word	0x200011ac
 8004954:	200011b4 	.word	0x200011b4
 8004958:	200015fc 	.word	0x200015fc
 800495c:	200015f8 	.word	0x200015f8
 8004960:	200011b8 	.word	0x200011b8
 8004964:	200011a8 	.word	0x200011a8
 8004968:	2000164c 	.word	0x2000164c
 800496c:	20001364 	.word	0x20001364
 8004970:	20001374 	.word	0x20001374

08004974 <xPortSysTickHandler>:
 8004974:	b508      	push	{r3, lr}
 8004976:	f7ff fc35 	bl	80041e4 <vPortEnterCritical>
 800497a:	f7ff ff71 	bl	8004860 <xTaskIncrementTick>
 800497e:	b138      	cbz	r0, 8004990 <xPortSysTickHandler+0x1c>
 8004980:	4b05      	ldr	r3, [pc, #20]	; (8004998 <xPortSysTickHandler+0x24>)
 8004982:	681a      	ldr	r2, [r3, #0]
 8004984:	4b05      	ldr	r3, [pc, #20]	; (800499c <xPortSysTickHandler+0x28>)
 8004986:	601a      	str	r2, [r3, #0]
 8004988:	f04f 5280 	mov.w	r2, #268435456	; 0x10000000
 800498c:	4b04      	ldr	r3, [pc, #16]	; (80049a0 <xPortSysTickHandler+0x2c>)
 800498e:	601a      	str	r2, [r3, #0]
 8004990:	e8bd 4008 	ldmia.w	sp!, {r3, lr}
 8004994:	f7ff bc1a 	b.w	80041cc <vPortExitCritical>
 8004998:	e000ed20 	.word	0xe000ed20
 800499c:	2000134c 	.word	0x2000134c
 80049a0:	e000ed04 	.word	0xe000ed04

080049a4 <xTaskResumeAll>:
 80049a4:	4833      	ldr	r0, [pc, #204]	; (8004a74 <xTaskResumeAll+0xd0>)
 80049a6:	e92d 43f8 	stmdb	sp!, {r3, r4, r5, r6, r7, r8, r9, lr}
 80049aa:	6803      	ldr	r3, [r0, #0]
 80049ac:	b903      	cbnz	r3, 80049b0 <xTaskResumeAll+0xc>
 80049ae:	e7fe      	b.n	80049ae <xTaskResumeAll+0xa>
 80049b0:	f7ff fc18 	bl	80041e4 <vPortEnterCritical>
 80049b4:	6803      	ldr	r3, [r0, #0]
 80049b6:	3b01      	subs	r3, #1
 80049b8:	6003      	str	r3, [r0, #0]
 80049ba:	6804      	ldr	r4, [r0, #0]
 80049bc:	b124      	cbz	r4, 80049c8 <xTaskResumeAll+0x24>
 80049be:	2000      	movs	r0, #0
 80049c0:	f7ff fc04 	bl	80041cc <vPortExitCritical>
 80049c4:	e8bd 83f8 	ldmia.w	sp!, {r3, r4, r5, r6, r7, r8, r9, pc}
 80049c8:	4b2b      	ldr	r3, [pc, #172]	; (8004a78 <xTaskResumeAll+0xd4>)
 80049ca:	681b      	ldr	r3, [r3, #0]
 80049cc:	2b00      	cmp	r3, #0
 80049ce:	d0f6      	beq.n	80049be <xTaskResumeAll+0x1a>
 80049d0:	4d2a      	ldr	r5, [pc, #168]	; (8004a7c <xTaskResumeAll+0xd8>)
 80049d2:	4e2b      	ldr	r6, [pc, #172]	; (8004a80 <xTaskResumeAll+0xdc>)
 80049d4:	f8df 80c8 	ldr.w	r8, [pc, #200]	; 8004aa0 <xTaskResumeAll+0xfc>
 80049d8:	e01f      	b.n	8004a1a <xTaskResumeAll+0x76>
 80049da:	68eb      	ldr	r3, [r5, #12]
 80049dc:	2701      	movs	r7, #1
 80049de:	68dc      	ldr	r4, [r3, #12]
 80049e0:	f104 0904 	add.w	r9, r4, #4
 80049e4:	f104 0018 	add.w	r0, r4, #24
 80049e8:	f7ff fd02 	bl	80043f0 <uxListRemove>
 80049ec:	4648      	mov	r0, r9
 80049ee:	f7ff fcff 	bl	80043f0 <uxListRemove>
 80049f2:	2014      	movs	r0, #20
 80049f4:	6ae2      	ldr	r2, [r4, #44]	; 0x2c
 80049f6:	6831      	ldr	r1, [r6, #0]
 80049f8:	fa07 f302 	lsl.w	r3, r7, r2
 80049fc:	430b      	orrs	r3, r1
 80049fe:	fb00 8002 	mla	r0, r0, r2, r8
 8004a02:	4649      	mov	r1, r9
 8004a04:	6033      	str	r3, [r6, #0]
 8004a06:	f7ff fd1a 	bl	800443e <vListInsertEnd>
 8004a0a:	4b1e      	ldr	r3, [pc, #120]	; (8004a84 <xTaskResumeAll+0xe0>)
 8004a0c:	6ae2      	ldr	r2, [r4, #44]	; 0x2c
 8004a0e:	681b      	ldr	r3, [r3, #0]
 8004a10:	6adb      	ldr	r3, [r3, #44]	; 0x2c
 8004a12:	429a      	cmp	r2, r3
 8004a14:	d301      	bcc.n	8004a1a <xTaskResumeAll+0x76>
 8004a16:	4b1c      	ldr	r3, [pc, #112]	; (8004a88 <xTaskResumeAll+0xe4>)
 8004a18:	601f      	str	r7, [r3, #0]
 8004a1a:	682b      	ldr	r3, [r5, #0]
 8004a1c:	2b00      	cmp	r3, #0
 8004a1e:	d1dc      	bne.n	80049da <xTaskResumeAll+0x36>
 8004a20:	b10c      	cbz	r4, 8004a26 <xTaskResumeAll+0x82>
 8004a22:	f7ff fc2b 	bl	800427c <prvResetNextTaskUnblockTime>
 8004a26:	4d19      	ldr	r5, [pc, #100]	; (8004a8c <xTaskResumeAll+0xe8>)
 8004a28:	682c      	ldr	r4, [r5, #0]
 8004a2a:	b144      	cbz	r4, 8004a3e <xTaskResumeAll+0x9a>
 8004a2c:	2701      	movs	r7, #1
 8004a2e:	4e16      	ldr	r6, [pc, #88]	; (8004a88 <xTaskResumeAll+0xe4>)
 8004a30:	f7ff ff16 	bl	8004860 <xTaskIncrementTick>
 8004a34:	b100      	cbz	r0, 8004a38 <xTaskResumeAll+0x94>
 8004a36:	6037      	str	r7, [r6, #0]
 8004a38:	3c01      	subs	r4, #1
 8004a3a:	d1f9      	bne.n	8004a30 <xTaskResumeAll+0x8c>
 8004a3c:	602c      	str	r4, [r5, #0]
 8004a3e:	4b12      	ldr	r3, [pc, #72]	; (8004a88 <xTaskResumeAll+0xe4>)
 8004a40:	681b      	ldr	r3, [r3, #0]
 8004a42:	2b00      	cmp	r3, #0
 8004a44:	d0bb      	beq.n	80049be <xTaskResumeAll+0x1a>
 8004a46:	4b12      	ldr	r3, [pc, #72]	; (8004a90 <xTaskResumeAll+0xec>)
 8004a48:	4a12      	ldr	r2, [pc, #72]	; (8004a94 <xTaskResumeAll+0xf0>)
 8004a4a:	6819      	ldr	r1, [r3, #0]
 8004a4c:	6011      	str	r1, [r2, #0]
 8004a4e:	4a12      	ldr	r2, [pc, #72]	; (8004a98 <xTaskResumeAll+0xf4>)
 8004a50:	6812      	ldr	r2, [r2, #0]
 8004a52:	b12a      	cbz	r2, 8004a60 <xTaskResumeAll+0xbc>
 8004a54:	681a      	ldr	r2, [r3, #0]
 8004a56:	f422 027f 	bic.w	r2, r2, #16711680	; 0xff0000
 8004a5a:	601a      	str	r2, [r3, #0]
 8004a5c:	681a      	ldr	r2, [r3, #0]
 8004a5e:	601a      	str	r2, [r3, #0]
 8004a60:	f04f 5280 	mov.w	r2, #268435456	; 0x10000000
 8004a64:	4b0d      	ldr	r3, [pc, #52]	; (8004a9c <xTaskResumeAll+0xf8>)
 8004a66:	601a      	str	r2, [r3, #0]
 8004a68:	f3bf 8f4f 	dsb	sy
 8004a6c:	f3bf 8f6f 	isb	sy
 8004a70:	2001      	movs	r0, #1
 8004a72:	e7a5      	b.n	80049c0 <xTaskResumeAll+0x1c>
 8004a74:	2000136c 	.word	0x2000136c
 8004a78:	2000135c 	.word	0x2000135c
 8004a7c:	20001600 	.word	0x20001600
 8004a80:	20001374 	.word	0x20001374
 8004a84:	200011a8 	.word	0x200011a8
 8004a88:	2000164c 	.word	0x2000164c
 8004a8c:	20001364 	.word	0x20001364
 8004a90:	e000ed20 	.word	0xe000ed20
 8004a94:	2000134c 	.word	0x2000134c
 8004a98:	20001358 	.word	0x20001358
 8004a9c:	e000ed04 	.word	0xe000ed04
 8004aa0:	200011b8 	.word	0x200011b8

08004aa4 <prvListTasksWithinSingleList>:
 8004aa4:	e92d 4ff7 	stmdb	sp!, {r0, r1, r2, r4, r5, r6, r7, r8, r9, sl, fp, lr}
 8004aa8:	f8d1 a000 	ldr.w	sl, [r1]
 8004aac:	4604      	mov	r4, r0
 8004aae:	460d      	mov	r5, r1
 8004ab0:	4617      	mov	r7, r2
 8004ab2:	f1ba 0f00 	cmp.w	sl, #0
 8004ab6:	d040      	beq.n	8004b3a <prvListTasksWithinSingleList+0x96>
 8004ab8:	f04f 0a00 	mov.w	sl, #0
 8004abc:	684b      	ldr	r3, [r1, #4]
 8004abe:	f101 0808 	add.w	r8, r1, #8
 8004ac2:	685b      	ldr	r3, [r3, #4]
 8004ac4:	f8df 909c 	ldr.w	r9, [pc, #156]	; 8004b64 <prvListTasksWithinSingleList+0xc0>
 8004ac8:	4543      	cmp	r3, r8
 8004aca:	604b      	str	r3, [r1, #4]
 8004acc:	bf04      	itt	eq
 8004ace:	68cb      	ldreq	r3, [r1, #12]
 8004ad0:	604b      	streq	r3, [r1, #4]
 8004ad2:	684b      	ldr	r3, [r1, #4]
 8004ad4:	68db      	ldr	r3, [r3, #12]
 8004ad6:	9301      	str	r3, [sp, #4]
 8004ad8:	686a      	ldr	r2, [r5, #4]
 8004ada:	6852      	ldr	r2, [r2, #4]
 8004adc:	4590      	cmp	r8, r2
 8004ade:	606a      	str	r2, [r5, #4]
 8004ae0:	bf04      	itt	eq
 8004ae2:	f8d8 2004 	ldreq.w	r2, [r8, #4]
 8004ae6:	606a      	streq	r2, [r5, #4]
 8004ae8:	686a      	ldr	r2, [r5, #4]
 8004aea:	f8d2 b00c 	ldr.w	fp, [r2, #12]
 8004aee:	f1bb 0f00 	cmp.w	fp, #0
 8004af2:	d126      	bne.n	8004b42 <prvListTasksWithinSingleList+0x9e>
 8004af4:	f8d9 6000 	ldr.w	r6, [r9]
 8004af8:	2300      	movs	r3, #0
 8004afa:	f106 0034 	add.w	r0, r6, #52	; 0x34
 8004afe:	6060      	str	r0, [r4, #4]
 8004b00:	6af0      	ldr	r0, [r6, #44]	; 0x2c
 8004b02:	6026      	str	r6, [r4, #0]
 8004b04:	6120      	str	r0, [r4, #16]
 8004b06:	6b30      	ldr	r0, [r6, #48]	; 0x30
 8004b08:	61e0      	str	r0, [r4, #28]
 8004b0a:	6c70      	ldr	r0, [r6, #68]	; 0x44
 8004b0c:	60a0      	str	r0, [r4, #8]
 8004b0e:	6cf0      	ldr	r0, [r6, #76]	; 0x4c
 8004b10:	61a3      	str	r3, [r4, #24]
 8004b12:	6160      	str	r0, [r4, #20]
 8004b14:	f8d9 0000 	ldr.w	r0, [r9]
 8004b18:	4286      	cmp	r6, r0
 8004b1a:	d114      	bne.n	8004b46 <prvListTasksWithinSingleList+0xa2>
 8004b1c:	7323      	strb	r3, [r4, #12]
 8004b1e:	2000      	movs	r0, #0
 8004b20:	6b33      	ldr	r3, [r6, #48]	; 0x30
 8004b22:	5c1e      	ldrb	r6, [r3, r0]
 8004b24:	2ea5      	cmp	r6, #165	; 0xa5
 8004b26:	d01b      	beq.n	8004b60 <prvListTasksWithinSingleList+0xbc>
 8004b28:	9b01      	ldr	r3, [sp, #4]
 8004b2a:	0880      	lsrs	r0, r0, #2
 8004b2c:	455b      	cmp	r3, fp
 8004b2e:	8420      	strh	r0, [r4, #32]
 8004b30:	f10a 0a01 	add.w	sl, sl, #1
 8004b34:	f104 0424 	add.w	r4, r4, #36	; 0x24
 8004b38:	d1ce      	bne.n	8004ad8 <prvListTasksWithinSingleList+0x34>
 8004b3a:	4650      	mov	r0, sl
 8004b3c:	b003      	add	sp, #12
 8004b3e:	e8bd 8ff0 	ldmia.w	sp!, {r4, r5, r6, r7, r8, r9, sl, fp, pc}
 8004b42:	465e      	mov	r6, fp
 8004b44:	e7d8      	b.n	8004af8 <prvListTasksWithinSingleList+0x54>
 8004b46:	2f03      	cmp	r7, #3
 8004b48:	7327      	strb	r7, [r4, #12]
 8004b4a:	d1e8      	bne.n	8004b1e <prvListTasksWithinSingleList+0x7a>
 8004b4c:	f7ff fbf0 	bl	8004330 <vTaskSuspendAll>
 8004b50:	6ab0      	ldr	r0, [r6, #40]	; 0x28
 8004b52:	b110      	cbz	r0, 8004b5a <prvListTasksWithinSingleList+0xb6>
 8004b54:	f04f 0302 	mov.w	r3, #2
 8004b58:	7323      	strb	r3, [r4, #12]
 8004b5a:	f7ff ff23 	bl	80049a4 <xTaskResumeAll>
 8004b5e:	e7de      	b.n	8004b1e <prvListTasksWithinSingleList+0x7a>
 8004b60:	3001      	adds	r0, #1
 8004b62:	e7de      	b.n	8004b22 <prvListTasksWithinSingleList+0x7e>
 8004b64:	200011a8 	.word	0x200011a8

08004b68 <vTaskDelay>:
 8004b68:	b508      	push	{r3, lr}
 8004b6a:	b978      	cbnz	r0, 8004b8c <vTaskDelay+0x24>
 8004b6c:	4b11      	ldr	r3, [pc, #68]	; (8004bb4 <vTaskDelay+0x4c>)
 8004b6e:	4a12      	ldr	r2, [pc, #72]	; (8004bb8 <vTaskDelay+0x50>)
 8004b70:	6819      	ldr	r1, [r3, #0]
 8004b72:	6011      	str	r1, [r2, #0]
 8004b74:	4a11      	ldr	r2, [pc, #68]	; (8004bbc <vTaskDelay+0x54>)
 8004b76:	6812      	ldr	r2, [r2, #0]
 8004b78:	b9aa      	cbnz	r2, 8004ba6 <vTaskDelay+0x3e>
 8004b7a:	f04f 5280 	mov.w	r2, #268435456	; 0x10000000
 8004b7e:	4b10      	ldr	r3, [pc, #64]	; (8004bc0 <vTaskDelay+0x58>)
 8004b80:	601a      	str	r2, [r3, #0]
 8004b82:	f3bf 8f4f 	dsb	sy
 8004b86:	f3bf 8f6f 	isb	sy
 8004b8a:	e00b      	b.n	8004ba4 <vTaskDelay+0x3c>
 8004b8c:	4b0d      	ldr	r3, [pc, #52]	; (8004bc4 <vTaskDelay+0x5c>)
 8004b8e:	6819      	ldr	r1, [r3, #0]
 8004b90:	b101      	cbz	r1, 8004b94 <vTaskDelay+0x2c>
 8004b92:	e7fe      	b.n	8004b92 <vTaskDelay+0x2a>
 8004b94:	f7ff fbcc 	bl	8004330 <vTaskSuspendAll>
 8004b98:	f7ff fd1e 	bl	80045d8 <prvAddCurrentTaskToDelayedList>
 8004b9c:	f7ff ff02 	bl	80049a4 <xTaskResumeAll>
 8004ba0:	2800      	cmp	r0, #0
 8004ba2:	d0e3      	beq.n	8004b6c <vTaskDelay+0x4>
 8004ba4:	bd08      	pop	{r3, pc}
 8004ba6:	681a      	ldr	r2, [r3, #0]
 8004ba8:	f422 027f 	bic.w	r2, r2, #16711680	; 0xff0000
 8004bac:	601a      	str	r2, [r3, #0]
 8004bae:	681a      	ldr	r2, [r3, #0]
 8004bb0:	601a      	str	r2, [r3, #0]
 8004bb2:	e7e2      	b.n	8004b7a <vTaskDelay+0x12>
 8004bb4:	e000ed20 	.word	0xe000ed20
 8004bb8:	2000134c 	.word	0x2000134c
 8004bbc:	20001358 	.word	0x20001358
 8004bc0:	e000ed04 	.word	0xe000ed04
 8004bc4:	2000136c 	.word	0x2000136c

08004bc8 <prvAddNewTaskToReadyList>:
 8004bc8:	b5f8      	push	{r3, r4, r5, r6, r7, lr}
 8004bca:	4604      	mov	r4, r0
 8004bcc:	f7ff fb0a 	bl	80041e4 <vPortEnterCritical>
 8004bd0:	4a44      	ldr	r2, [pc, #272]	; (8004ce4 <prvAddNewTaskToReadyList+0x11c>)
 8004bd2:	4d45      	ldr	r5, [pc, #276]	; (8004ce8 <prvAddNewTaskToReadyList+0x120>)
 8004bd4:	6813      	ldr	r3, [r2, #0]
 8004bd6:	4845      	ldr	r0, [pc, #276]	; (8004cec <prvAddNewTaskToReadyList+0x124>)
 8004bd8:	3301      	adds	r3, #1
 8004bda:	6013      	str	r3, [r2, #0]
 8004bdc:	682b      	ldr	r3, [r5, #0]
 8004bde:	2b00      	cmp	r3, #0
 8004be0:	d175      	bne.n	8004cce <prvAddNewTaskToReadyList+0x106>
 8004be2:	602c      	str	r4, [r5, #0]
 8004be4:	6812      	ldr	r2, [r2, #0]
 8004be6:	2a01      	cmp	r2, #1
 8004be8:	d13f      	bne.n	8004c6a <prvAddNewTaskToReadyList+0xa2>
 8004bea:	4602      	mov	r2, r0
 8004bec:	f04f 37ff 	mov.w	r7, #4294967295	; 0xffffffff
 8004bf0:	f04f 0c14 	mov.w	ip, #20
 8004bf4:	461e      	mov	r6, r3
 8004bf6:	f102 0108 	add.w	r1, r2, #8
 8004bfa:	e9c2 1701 	strd	r1, r7, [r2, #4]
 8004bfe:	e9c2 1103 	strd	r1, r1, [r2, #12]
 8004c02:	fb0c f103 	mul.w	r1, ip, r3
 8004c06:	3301      	adds	r3, #1
 8004c08:	2b05      	cmp	r3, #5
 8004c0a:	5046      	str	r6, [r0, r1]
 8004c0c:	f102 0214 	add.w	r2, r2, #20
 8004c10:	d1f1      	bne.n	8004bf6 <prvAddNewTaskToReadyList+0x2e>
 8004c12:	4a37      	ldr	r2, [pc, #220]	; (8004cf0 <prvAddNewTaskToReadyList+0x128>)
 8004c14:	f102 0308 	add.w	r3, r2, #8
 8004c18:	e9c2 3701 	strd	r3, r7, [r2, #4]
 8004c1c:	e9c2 3303 	strd	r3, r3, [r2, #12]
 8004c20:	4b34      	ldr	r3, [pc, #208]	; (8004cf4 <prvAddNewTaskToReadyList+0x12c>)
 8004c22:	6016      	str	r6, [r2, #0]
 8004c24:	f103 0108 	add.w	r1, r3, #8
 8004c28:	e9c3 1701 	strd	r1, r7, [r3, #4]
 8004c2c:	e9c3 1103 	strd	r1, r1, [r3, #12]
 8004c30:	4931      	ldr	r1, [pc, #196]	; (8004cf8 <prvAddNewTaskToReadyList+0x130>)
 8004c32:	601e      	str	r6, [r3, #0]
 8004c34:	f101 0c08 	add.w	ip, r1, #8
 8004c38:	600e      	str	r6, [r1, #0]
 8004c3a:	e9c1 c701 	strd	ip, r7, [r1, #4]
 8004c3e:	e9c1 cc03 	strd	ip, ip, [r1, #12]
 8004c42:	492e      	ldr	r1, [pc, #184]	; (8004cfc <prvAddNewTaskToReadyList+0x134>)
 8004c44:	f101 0c08 	add.w	ip, r1, #8
 8004c48:	600e      	str	r6, [r1, #0]
 8004c4a:	e9c1 c701 	strd	ip, r7, [r1, #4]
 8004c4e:	e9c1 cc03 	strd	ip, ip, [r1, #12]
 8004c52:	492b      	ldr	r1, [pc, #172]	; (8004d00 <prvAddNewTaskToReadyList+0x138>)
 8004c54:	f101 0c08 	add.w	ip, r1, #8
 8004c58:	600e      	str	r6, [r1, #0]
 8004c5a:	e9c1 c701 	strd	ip, r7, [r1, #4]
 8004c5e:	e9c1 cc03 	strd	ip, ip, [r1, #12]
 8004c62:	4928      	ldr	r1, [pc, #160]	; (8004d04 <prvAddNewTaskToReadyList+0x13c>)
 8004c64:	600a      	str	r2, [r1, #0]
 8004c66:	4a28      	ldr	r2, [pc, #160]	; (8004d08 <prvAddNewTaskToReadyList+0x140>)
 8004c68:	6013      	str	r3, [r2, #0]
 8004c6a:	4a28      	ldr	r2, [pc, #160]	; (8004d0c <prvAddNewTaskToReadyList+0x144>)
 8004c6c:	4928      	ldr	r1, [pc, #160]	; (8004d10 <prvAddNewTaskToReadyList+0x148>)
 8004c6e:	6813      	ldr	r3, [r2, #0]
 8004c70:	680e      	ldr	r6, [r1, #0]
 8004c72:	3301      	adds	r3, #1
 8004c74:	6013      	str	r3, [r2, #0]
 8004c76:	6463      	str	r3, [r4, #68]	; 0x44
 8004c78:	2301      	movs	r3, #1
 8004c7a:	6ae2      	ldr	r2, [r4, #44]	; 0x2c
 8004c7c:	4093      	lsls	r3, r2
 8004c7e:	4333      	orrs	r3, r6
 8004c80:	600b      	str	r3, [r1, #0]
 8004c82:	2314      	movs	r3, #20
 8004c84:	1d21      	adds	r1, r4, #4
 8004c86:	fb03 0002 	mla	r0, r3, r2, r0
 8004c8a:	f7ff fbd8 	bl	800443e <vListInsertEnd>
 8004c8e:	f7ff fa9d 	bl	80041cc <vPortExitCritical>
 8004c92:	4b20      	ldr	r3, [pc, #128]	; (8004d14 <prvAddNewTaskToReadyList+0x14c>)
 8004c94:	681b      	ldr	r3, [r3, #0]
 8004c96:	b1cb      	cbz	r3, 8004ccc <prvAddNewTaskToReadyList+0x104>
 8004c98:	682b      	ldr	r3, [r5, #0]
 8004c9a:	6ada      	ldr	r2, [r3, #44]	; 0x2c
 8004c9c:	6ae3      	ldr	r3, [r4, #44]	; 0x2c
 8004c9e:	429a      	cmp	r2, r3
 8004ca0:	d214      	bcs.n	8004ccc <prvAddNewTaskToReadyList+0x104>
 8004ca2:	4b1d      	ldr	r3, [pc, #116]	; (8004d18 <prvAddNewTaskToReadyList+0x150>)
 8004ca4:	4a1d      	ldr	r2, [pc, #116]	; (8004d1c <prvAddNewTaskToReadyList+0x154>)
 8004ca6:	6819      	ldr	r1, [r3, #0]
 8004ca8:	6011      	str	r1, [r2, #0]
 8004caa:	4a1d      	ldr	r2, [pc, #116]	; (8004d20 <prvAddNewTaskToReadyList+0x158>)
 8004cac:	6812      	ldr	r2, [r2, #0]
 8004cae:	b12a      	cbz	r2, 8004cbc <prvAddNewTaskToReadyList+0xf4>
 8004cb0:	681a      	ldr	r2, [r3, #0]
 8004cb2:	f422 027f 	bic.w	r2, r2, #16711680	; 0xff0000
 8004cb6:	601a      	str	r2, [r3, #0]
 8004cb8:	681a      	ldr	r2, [r3, #0]
 8004cba:	601a      	str	r2, [r3, #0]
 8004cbc:	f04f 5280 	mov.w	r2, #268435456	; 0x10000000
 8004cc0:	4b18      	ldr	r3, [pc, #96]	; (8004d24 <prvAddNewTaskToReadyList+0x15c>)
 8004cc2:	601a      	str	r2, [r3, #0]
 8004cc4:	f3bf 8f4f 	dsb	sy
 8004cc8:	f3bf 8f6f 	isb	sy
 8004ccc:	bdf8      	pop	{r3, r4, r5, r6, r7, pc}
 8004cce:	4b11      	ldr	r3, [pc, #68]	; (8004d14 <prvAddNewTaskToReadyList+0x14c>)
 8004cd0:	681b      	ldr	r3, [r3, #0]
 8004cd2:	2b00      	cmp	r3, #0
 8004cd4:	d1c9      	bne.n	8004c6a <prvAddNewTaskToReadyList+0xa2>
 8004cd6:	682b      	ldr	r3, [r5, #0]
 8004cd8:	6ada      	ldr	r2, [r3, #44]	; 0x2c
 8004cda:	6ae3      	ldr	r3, [r4, #44]	; 0x2c
 8004cdc:	429a      	cmp	r2, r3
 8004cde:	bf98      	it	ls
 8004ce0:	602c      	strls	r4, [r5, #0]
 8004ce2:	e7c2      	b.n	8004c6a <prvAddNewTaskToReadyList+0xa2>
 8004ce4:	2000135c 	.word	0x2000135c
 8004ce8:	200011a8 	.word	0x200011a8
 8004cec:	200011b8 	.word	0x200011b8
 8004cf0:	2000137c 	.word	0x2000137c
 8004cf4:	20001390 	.word	0x20001390
 8004cf8:	20001600 	.word	0x20001600
 8004cfc:	20001634 	.word	0x20001634
 8004d00:	20001620 	.word	0x20001620
 8004d04:	200011ac 	.word	0x200011ac
 8004d08:	200011b4 	.word	0x200011b4
 8004d0c:	20001370 	.word	0x20001370
 8004d10:	20001374 	.word	0x20001374
 8004d14:	20001614 	.word	0x20001614
 8004d18:	e000ed20 	.word	0xe000ed20
 8004d1c:	2000134c 	.word	0x2000134c
 8004d20:	20001358 	.word	0x20001358
 8004d24:	e000ed04 	.word	0xe000ed04

08004d28 <prvUnlockQueue>:
 8004d28:	e92d 41f0 	stmdb	sp!, {r4, r5, r6, r7, r8, lr}
 8004d2c:	4604      	mov	r4, r0
 8004d2e:	f7ff fa59 	bl	80041e4 <vPortEnterCritical>
 8004d32:	f04f 0801 	mov.w	r8, #1
 8004d36:	f890 5045 	ldrb.w	r5, [r0, #69]	; 0x45
 8004d3a:	4f1b      	ldr	r7, [pc, #108]	; (8004da8 <prvUnlockQueue+0x80>)
 8004d3c:	b26d      	sxtb	r5, r5
 8004d3e:	f100 0624 	add.w	r6, r0, #36	; 0x24
 8004d42:	2d00      	cmp	r5, #0
 8004d44:	dc17      	bgt.n	8004d76 <prvUnlockQueue+0x4e>
 8004d46:	23ff      	movs	r3, #255	; 0xff
 8004d48:	f04f 0801 	mov.w	r8, #1
 8004d4c:	f884 3045 	strb.w	r3, [r4, #69]	; 0x45
 8004d50:	f7ff fa3c 	bl	80041cc <vPortExitCritical>
 8004d54:	f7ff fa46 	bl	80041e4 <vPortEnterCritical>
 8004d58:	f894 5044 	ldrb.w	r5, [r4, #68]	; 0x44
 8004d5c:	4f12      	ldr	r7, [pc, #72]	; (8004da8 <prvUnlockQueue+0x80>)
 8004d5e:	b26d      	sxtb	r5, r5
 8004d60:	f104 0610 	add.w	r6, r4, #16
 8004d64:	2d00      	cmp	r5, #0
 8004d66:	dc12      	bgt.n	8004d8e <prvUnlockQueue+0x66>
 8004d68:	23ff      	movs	r3, #255	; 0xff
 8004d6a:	f884 3044 	strb.w	r3, [r4, #68]	; 0x44
 8004d6e:	e8bd 41f0 	ldmia.w	sp!, {r4, r5, r6, r7, r8, lr}
 8004d72:	f7ff ba2b 	b.w	80041cc <vPortExitCritical>
 8004d76:	6a63      	ldr	r3, [r4, #36]	; 0x24
 8004d78:	2b00      	cmp	r3, #0
 8004d7a:	d0e4      	beq.n	8004d46 <prvUnlockQueue+0x1e>
 8004d7c:	4630      	mov	r0, r6
 8004d7e:	f7ff fd33 	bl	80047e8 <xTaskRemoveFromEventList>
 8004d82:	b108      	cbz	r0, 8004d88 <prvUnlockQueue+0x60>
 8004d84:	f8c7 8000 	str.w	r8, [r7]
 8004d88:	3d01      	subs	r5, #1
 8004d8a:	b26d      	sxtb	r5, r5
 8004d8c:	e7d9      	b.n	8004d42 <prvUnlockQueue+0x1a>
 8004d8e:	6923      	ldr	r3, [r4, #16]
 8004d90:	2b00      	cmp	r3, #0
 8004d92:	d0e9      	beq.n	8004d68 <prvUnlockQueue+0x40>
 8004d94:	4630      	mov	r0, r6
 8004d96:	f7ff fd27 	bl	80047e8 <xTaskRemoveFromEventList>
 8004d9a:	b108      	cbz	r0, 8004da0 <prvUnlockQueue+0x78>
 8004d9c:	f8c7 8000 	str.w	r8, [r7]
 8004da0:	3d01      	subs	r5, #1
 8004da2:	b26d      	sxtb	r5, r5
 8004da4:	e7de      	b.n	8004d64 <prvUnlockQueue+0x3c>
 8004da6:	bf00      	nop
 8004da8:	2000164c 	.word	0x2000164c

08004dac <xQueueSemaphoreTake>:
 8004dac:	e92d 4ff0 	stmdb	sp!, {r4, r5, r6, r7, r8, r9, sl, fp, lr}
 8004db0:	b085      	sub	sp, #20
 8004db2:	4604      	mov	r4, r0
 8004db4:	9101      	str	r1, [sp, #4]
 8004db6:	b900      	cbnz	r0, 8004dba <xQueueSemaphoreTake+0xe>
 8004db8:	e7fe      	b.n	8004db8 <xQueueSemaphoreTake+0xc>
 8004dba:	6c05      	ldr	r5, [r0, #64]	; 0x40
 8004dbc:	b105      	cbz	r5, 8004dc0 <xQueueSemaphoreTake+0x14>
 8004dbe:	e7fe      	b.n	8004dbe <xQueueSemaphoreTake+0x12>
 8004dc0:	4628      	mov	r0, r5
 8004dc2:	f8df 8260 	ldr.w	r8, [pc, #608]	; 8005024 <xQueueSemaphoreTake+0x278>
 8004dc6:	4f8f      	ldr	r7, [pc, #572]	; (8005004 <xQueueSemaphoreTake+0x258>)
 8004dc8:	f8df 9254 	ldr.w	r9, [pc, #596]	; 8005020 <xQueueSemaphoreTake+0x274>
 8004dcc:	e0ac      	b.n	8004f28 <xQueueSemaphoreTake+0x17c>
 8004dce:	9b01      	ldr	r3, [sp, #4]
 8004dd0:	b91b      	cbnz	r3, 8004dda <xQueueSemaphoreTake+0x2e>
 8004dd2:	2d00      	cmp	r5, #0
 8004dd4:	f000 8152 	beq.w	800507c <xQueueSemaphoreTake+0x2d0>
 8004dd8:	e7fe      	b.n	8004dd8 <xQueueSemaphoreTake+0x2c>
 8004dda:	b928      	cbnz	r0, 8004de8 <xQueueSemaphoreTake+0x3c>
 8004ddc:	f8d8 3000 	ldr.w	r3, [r8]
 8004de0:	9302      	str	r3, [sp, #8]
 8004de2:	4b89      	ldr	r3, [pc, #548]	; (8005008 <xQueueSemaphoreTake+0x25c>)
 8004de4:	681b      	ldr	r3, [r3, #0]
 8004de6:	9303      	str	r3, [sp, #12]
 8004de8:	f7ff f9f0 	bl	80041cc <vPortExitCritical>
 8004dec:	f7ff faa0 	bl	8004330 <vTaskSuspendAll>
 8004df0:	f7ff f9f8 	bl	80041e4 <vPortEnterCritical>
 8004df4:	f894 3044 	ldrb.w	r3, [r4, #68]	; 0x44
 8004df8:	2bff      	cmp	r3, #255	; 0xff
 8004dfa:	bf04      	itt	eq
 8004dfc:	2300      	moveq	r3, #0
 8004dfe:	f884 3044 	strbeq.w	r3, [r4, #68]	; 0x44
 8004e02:	f894 3045 	ldrb.w	r3, [r4, #69]	; 0x45
 8004e06:	2bff      	cmp	r3, #255	; 0xff
 8004e08:	bf04      	itt	eq
 8004e0a:	2300      	moveq	r3, #0
 8004e0c:	f884 3045 	strbeq.w	r3, [r4, #69]	; 0x45
 8004e10:	f7ff f9dc 	bl	80041cc <vPortExitCritical>
 8004e14:	a901      	add	r1, sp, #4
 8004e16:	a802      	add	r0, sp, #8
 8004e18:	f7ff fa42 	bl	80042a0 <xTaskCheckForTimeOut>
 8004e1c:	2800      	cmp	r0, #0
 8004e1e:	f040 80c5 	bne.w	8004fac <xQueueSemaphoreTake+0x200>
 8004e22:	f7ff f9df 	bl	80041e4 <vPortEnterCritical>
 8004e26:	6ba3      	ldr	r3, [r4, #56]	; 0x38
 8004e28:	2b00      	cmp	r3, #0
 8004e2a:	d175      	bne.n	8004f18 <xQueueSemaphoreTake+0x16c>
 8004e2c:	f7ff f9ce 	bl	80041cc <vPortExitCritical>
 8004e30:	6823      	ldr	r3, [r4, #0]
 8004e32:	4e76      	ldr	r6, [pc, #472]	; (800500c <xQueueSemaphoreTake+0x260>)
 8004e34:	2b00      	cmp	r3, #0
 8004e36:	d148      	bne.n	8004eca <xQueueSemaphoreTake+0x11e>
 8004e38:	f7ff f9d4 	bl	80041e4 <vPortEnterCritical>
 8004e3c:	6865      	ldr	r5, [r4, #4]
 8004e3e:	2d00      	cmp	r5, #0
 8004e40:	d040      	beq.n	8004ec4 <xQueueSemaphoreTake+0x118>
 8004e42:	6833      	ldr	r3, [r6, #0]
 8004e44:	6ae9      	ldr	r1, [r5, #44]	; 0x2c
 8004e46:	6adb      	ldr	r3, [r3, #44]	; 0x2c
 8004e48:	4299      	cmp	r1, r3
 8004e4a:	f080 80a7 	bcs.w	8004f9c <xQueueSemaphoreTake+0x1f0>
 8004e4e:	f04f 0a14 	mov.w	sl, #20
 8004e52:	69ab      	ldr	r3, [r5, #24]
 8004e54:	4a6e      	ldr	r2, [pc, #440]	; (8005010 <xQueueSemaphoreTake+0x264>)
 8004e56:	2b00      	cmp	r3, #0
 8004e58:	bfa8      	it	ge
 8004e5a:	6833      	ldrge	r3, [r6, #0]
 8004e5c:	fb0a 2101 	mla	r1, sl, r1, r2
 8004e60:	bfa8      	it	ge
 8004e62:	6adb      	ldrge	r3, [r3, #44]	; 0x2c
 8004e64:	4693      	mov	fp, r2
 8004e66:	bfa4      	itt	ge
 8004e68:	f1c3 0305 	rsbge	r3, r3, #5
 8004e6c:	61ab      	strge	r3, [r5, #24]
 8004e6e:	696b      	ldr	r3, [r5, #20]
 8004e70:	428b      	cmp	r3, r1
 8004e72:	f040 808f 	bne.w	8004f94 <xQueueSemaphoreTake+0x1e8>
 8004e76:	1d29      	adds	r1, r5, #4
 8004e78:	4608      	mov	r0, r1
 8004e7a:	9100      	str	r1, [sp, #0]
 8004e7c:	f7ff fab8 	bl	80043f0 <uxListRemove>
 8004e80:	4b64      	ldr	r3, [pc, #400]	; (8005014 <xQueueSemaphoreTake+0x268>)
 8004e82:	9900      	ldr	r1, [sp, #0]
 8004e84:	b968      	cbnz	r0, 8004ea2 <xQueueSemaphoreTake+0xf6>
 8004e86:	6ae8      	ldr	r0, [r5, #44]	; 0x2c
 8004e88:	fb0a fa00 	mul.w	sl, sl, r0
 8004e8c:	f85b 200a 	ldr.w	r2, [fp, sl]
 8004e90:	b93a      	cbnz	r2, 8004ea2 <xQueueSemaphoreTake+0xf6>
 8004e92:	f04f 0c01 	mov.w	ip, #1
 8004e96:	681a      	ldr	r2, [r3, #0]
 8004e98:	fa0c f000 	lsl.w	r0, ip, r0
 8004e9c:	ea22 0200 	bic.w	r2, r2, r0
 8004ea0:	601a      	str	r2, [r3, #0]
 8004ea2:	6832      	ldr	r2, [r6, #0]
 8004ea4:	f8d3 c000 	ldr.w	ip, [r3]
 8004ea8:	6ad0      	ldr	r0, [r2, #44]	; 0x2c
 8004eaa:	62e8      	str	r0, [r5, #44]	; 0x2c
 8004eac:	2501      	movs	r5, #1
 8004eae:	fa05 f200 	lsl.w	r2, r5, r0
 8004eb2:	ea42 020c 	orr.w	r2, r2, ip
 8004eb6:	601a      	str	r2, [r3, #0]
 8004eb8:	2314      	movs	r3, #20
 8004eba:	fb03 b000 	mla	r0, r3, r0, fp
 8004ebe:	f7ff fabe 	bl	800443e <vListInsertEnd>
 8004ec2:	2001      	movs	r0, #1
 8004ec4:	f7ff f982 	bl	80041cc <vPortExitCritical>
 8004ec8:	4605      	mov	r5, r0
 8004eca:	6831      	ldr	r1, [r6, #0]
 8004ecc:	f8dd a004 	ldr.w	sl, [sp, #4]
 8004ed0:	3118      	adds	r1, #24
 8004ed2:	f104 0024 	add.w	r0, r4, #36	; 0x24
 8004ed6:	f7ff fa9b 	bl	8004410 <vListInsert>
 8004eda:	2101      	movs	r1, #1
 8004edc:	4650      	mov	r0, sl
 8004ede:	f7ff fb7b 	bl	80045d8 <prvAddCurrentTaskToDelayedList>
 8004ee2:	4620      	mov	r0, r4
 8004ee4:	f7ff ff20 	bl	8004d28 <prvUnlockQueue>
 8004ee8:	f7ff fd5c 	bl	80049a4 <xTaskResumeAll>
 8004eec:	b9d8      	cbnz	r0, 8004f26 <xQueueSemaphoreTake+0x17a>
 8004eee:	4b4a      	ldr	r3, [pc, #296]	; (8005018 <xQueueSemaphoreTake+0x26c>)
 8004ef0:	683a      	ldr	r2, [r7, #0]
 8004ef2:	601a      	str	r2, [r3, #0]
 8004ef4:	4b49      	ldr	r3, [pc, #292]	; (800501c <xQueueSemaphoreTake+0x270>)
 8004ef6:	681b      	ldr	r3, [r3, #0]
 8004ef8:	b12b      	cbz	r3, 8004f06 <xQueueSemaphoreTake+0x15a>
 8004efa:	683b      	ldr	r3, [r7, #0]
 8004efc:	f423 037f 	bic.w	r3, r3, #16711680	; 0xff0000
 8004f00:	603b      	str	r3, [r7, #0]
 8004f02:	683b      	ldr	r3, [r7, #0]
 8004f04:	603b      	str	r3, [r7, #0]
 8004f06:	f04f 5380 	mov.w	r3, #268435456	; 0x10000000
 8004f0a:	f8c9 3000 	str.w	r3, [r9]
 8004f0e:	f3bf 8f4f 	dsb	sy
 8004f12:	f3bf 8f6f 	isb	sy
 8004f16:	e006      	b.n	8004f26 <xQueueSemaphoreTake+0x17a>
 8004f18:	f7ff f958 	bl	80041cc <vPortExitCritical>
 8004f1c:	4620      	mov	r0, r4
 8004f1e:	f7ff ff03 	bl	8004d28 <prvUnlockQueue>
 8004f22:	f7ff fd3f 	bl	80049a4 <xTaskResumeAll>
 8004f26:	2001      	movs	r0, #1
 8004f28:	f7ff f95c 	bl	80041e4 <vPortEnterCritical>
 8004f2c:	6ba3      	ldr	r3, [r4, #56]	; 0x38
 8004f2e:	2b00      	cmp	r3, #0
 8004f30:	f43f af4d 	beq.w	8004dce <xQueueSemaphoreTake+0x22>
 8004f34:	3b01      	subs	r3, #1
 8004f36:	63a3      	str	r3, [r4, #56]	; 0x38
 8004f38:	6823      	ldr	r3, [r4, #0]
 8004f3a:	b943      	cbnz	r3, 8004f4e <xQueueSemaphoreTake+0x1a2>
 8004f3c:	4b33      	ldr	r3, [pc, #204]	; (800500c <xQueueSemaphoreTake+0x260>)
 8004f3e:	681a      	ldr	r2, [r3, #0]
 8004f40:	b11a      	cbz	r2, 8004f4a <xQueueSemaphoreTake+0x19e>
 8004f42:	6819      	ldr	r1, [r3, #0]
 8004f44:	6d0a      	ldr	r2, [r1, #80]	; 0x50
 8004f46:	3201      	adds	r2, #1
 8004f48:	650a      	str	r2, [r1, #80]	; 0x50
 8004f4a:	681b      	ldr	r3, [r3, #0]
 8004f4c:	6063      	str	r3, [r4, #4]
 8004f4e:	6923      	ldr	r3, [r4, #16]
 8004f50:	b1cb      	cbz	r3, 8004f86 <xQueueSemaphoreTake+0x1da>
 8004f52:	f104 0010 	add.w	r0, r4, #16
 8004f56:	f7ff fc47 	bl	80047e8 <xTaskRemoveFromEventList>
 8004f5a:	b1a0      	cbz	r0, 8004f86 <xQueueSemaphoreTake+0x1da>
 8004f5c:	4b29      	ldr	r3, [pc, #164]	; (8005004 <xQueueSemaphoreTake+0x258>)
 8004f5e:	4a2e      	ldr	r2, [pc, #184]	; (8005018 <xQueueSemaphoreTake+0x26c>)
 8004f60:	6819      	ldr	r1, [r3, #0]
 8004f62:	6011      	str	r1, [r2, #0]
 8004f64:	4a2d      	ldr	r2, [pc, #180]	; (800501c <xQueueSemaphoreTake+0x270>)
 8004f66:	6812      	ldr	r2, [r2, #0]
 8004f68:	b12a      	cbz	r2, 8004f76 <xQueueSemaphoreTake+0x1ca>
 8004f6a:	681a      	ldr	r2, [r3, #0]
 8004f6c:	f422 027f 	bic.w	r2, r2, #16711680	; 0xff0000
 8004f70:	601a      	str	r2, [r3, #0]
 8004f72:	681a      	ldr	r2, [r3, #0]
 8004f74:	601a      	str	r2, [r3, #0]
 8004f76:	f04f 5280 	mov.w	r2, #268435456	; 0x10000000
 8004f7a:	4b29      	ldr	r3, [pc, #164]	; (8005020 <xQueueSemaphoreTake+0x274>)
 8004f7c:	601a      	str	r2, [r3, #0]
 8004f7e:	f3bf 8f4f 	dsb	sy
 8004f82:	f3bf 8f6f 	isb	sy
 8004f86:	f7ff f921 	bl	80041cc <vPortExitCritical>
 8004f8a:	2501      	movs	r5, #1
 8004f8c:	4628      	mov	r0, r5
 8004f8e:	b005      	add	sp, #20
 8004f90:	e8bd 8ff0 	ldmia.w	sp!, {r4, r5, r6, r7, r8, r9, sl, fp, pc}
 8004f94:	6833      	ldr	r3, [r6, #0]
 8004f96:	6adb      	ldr	r3, [r3, #44]	; 0x2c
 8004f98:	62eb      	str	r3, [r5, #44]	; 0x2c
 8004f9a:	e792      	b.n	8004ec2 <xQueueSemaphoreTake+0x116>
 8004f9c:	6832      	ldr	r2, [r6, #0]
 8004f9e:	6ceb      	ldr	r3, [r5, #76]	; 0x4c
 8004fa0:	6ad0      	ldr	r0, [r2, #44]	; 0x2c
 8004fa2:	4283      	cmp	r3, r0
 8004fa4:	bf2c      	ite	cs
 8004fa6:	2000      	movcs	r0, #0
 8004fa8:	2001      	movcc	r0, #1
 8004faa:	e78b      	b.n	8004ec4 <xQueueSemaphoreTake+0x118>
 8004fac:	4620      	mov	r0, r4
 8004fae:	f7ff febb 	bl	8004d28 <prvUnlockQueue>
 8004fb2:	f7ff fcf7 	bl	80049a4 <xTaskResumeAll>
 8004fb6:	f7ff f915 	bl	80041e4 <vPortEnterCritical>
 8004fba:	6ba3      	ldr	r3, [r4, #56]	; 0x38
 8004fbc:	b113      	cbz	r3, 8004fc4 <xQueueSemaphoreTake+0x218>
 8004fbe:	f7ff f905 	bl	80041cc <vPortExitCritical>
 8004fc2:	e7b0      	b.n	8004f26 <xQueueSemaphoreTake+0x17a>
 8004fc4:	f7ff f902 	bl	80041cc <vPortExitCritical>
 8004fc8:	2d00      	cmp	r5, #0
 8004fca:	d0df      	beq.n	8004f8c <xQueueSemaphoreTake+0x1e0>
 8004fcc:	f7ff f90a 	bl	80041e4 <vPortEnterCritical>
 8004fd0:	6a63      	ldr	r3, [r4, #36]	; 0x24
 8004fd2:	b11b      	cbz	r3, 8004fdc <xQueueSemaphoreTake+0x230>
 8004fd4:	6b23      	ldr	r3, [r4, #48]	; 0x30
 8004fd6:	681b      	ldr	r3, [r3, #0]
 8004fd8:	f1c3 0305 	rsb	r3, r3, #5
 8004fdc:	6864      	ldr	r4, [r4, #4]
 8004fde:	2c00      	cmp	r4, #0
 8004fe0:	d04c      	beq.n	800507c <xQueueSemaphoreTake+0x2d0>
 8004fe2:	6d21      	ldr	r1, [r4, #80]	; 0x50
 8004fe4:	b901      	cbnz	r1, 8004fe8 <xQueueSemaphoreTake+0x23c>
 8004fe6:	e7fe      	b.n	8004fe6 <xQueueSemaphoreTake+0x23a>
 8004fe8:	6ce2      	ldr	r2, [r4, #76]	; 0x4c
 8004fea:	4293      	cmp	r3, r2
 8004fec:	bf38      	it	cc
 8004fee:	4613      	movcc	r3, r2
 8004ff0:	6ae2      	ldr	r2, [r4, #44]	; 0x2c
 8004ff2:	4293      	cmp	r3, r2
 8004ff4:	d042      	beq.n	800507c <xQueueSemaphoreTake+0x2d0>
 8004ff6:	2901      	cmp	r1, #1
 8004ff8:	d140      	bne.n	800507c <xQueueSemaphoreTake+0x2d0>
 8004ffa:	4904      	ldr	r1, [pc, #16]	; (800500c <xQueueSemaphoreTake+0x260>)
 8004ffc:	6809      	ldr	r1, [r1, #0]
 8004ffe:	428c      	cmp	r4, r1
 8005000:	d112      	bne.n	8005028 <xQueueSemaphoreTake+0x27c>
 8005002:	e7fe      	b.n	8005002 <xQueueSemaphoreTake+0x256>
 8005004:	e000ed20 	.word	0xe000ed20
 8005008:	20001648 	.word	0x20001648
 800500c:	200011a8 	.word	0x200011a8
 8005010:	200011b8 	.word	0x200011b8
 8005014:	20001374 	.word	0x20001374
 8005018:	2000134c 	.word	0x2000134c
 800501c:	20001358 	.word	0x20001358
 8005020:	e000ed04 	.word	0xe000ed04
 8005024:	200015fc 	.word	0x200015fc
 8005028:	2714      	movs	r7, #20
 800502a:	69a1      	ldr	r1, [r4, #24]
 800502c:	4d15      	ldr	r5, [pc, #84]	; (8005084 <xQueueSemaphoreTake+0x2d8>)
 800502e:	2900      	cmp	r1, #0
 8005030:	fb07 5202 	mla	r2, r7, r2, r5
 8005034:	62e3      	str	r3, [r4, #44]	; 0x2c
 8005036:	bfa4      	itt	ge
 8005038:	f1c3 0305 	rsbge	r3, r3, #5
 800503c:	61a3      	strge	r3, [r4, #24]
 800503e:	6963      	ldr	r3, [r4, #20]
 8005040:	4293      	cmp	r3, r2
 8005042:	d11b      	bne.n	800507c <xQueueSemaphoreTake+0x2d0>
 8005044:	f104 0804 	add.w	r8, r4, #4
 8005048:	4640      	mov	r0, r8
 800504a:	f7ff f9d1 	bl	80043f0 <uxListRemove>
 800504e:	4e0e      	ldr	r6, [pc, #56]	; (8005088 <xQueueSemaphoreTake+0x2dc>)
 8005050:	6ae2      	ldr	r2, [r4, #44]	; 0x2c
 8005052:	b940      	cbnz	r0, 8005066 <xQueueSemaphoreTake+0x2ba>
 8005054:	4357      	muls	r7, r2
 8005056:	59eb      	ldr	r3, [r5, r7]
 8005058:	b92b      	cbnz	r3, 8005066 <xQueueSemaphoreTake+0x2ba>
 800505a:	2101      	movs	r1, #1
 800505c:	6833      	ldr	r3, [r6, #0]
 800505e:	4091      	lsls	r1, r2
 8005060:	ea23 0301 	bic.w	r3, r3, r1
 8005064:	6033      	str	r3, [r6, #0]
 8005066:	2301      	movs	r3, #1
 8005068:	2014      	movs	r0, #20
 800506a:	6831      	ldr	r1, [r6, #0]
 800506c:	4093      	lsls	r3, r2
 800506e:	430b      	orrs	r3, r1
 8005070:	fb00 5002 	mla	r0, r0, r2, r5
 8005074:	4641      	mov	r1, r8
 8005076:	6033      	str	r3, [r6, #0]
 8005078:	f7ff f9e1 	bl	800443e <vListInsertEnd>
 800507c:	f7ff f8a6 	bl	80041cc <vPortExitCritical>
 8005080:	2500      	movs	r5, #0
 8005082:	e783      	b.n	8004f8c <xQueueSemaphoreTake+0x1e0>
 8005084:	200011b8 	.word	0x200011b8
 8005088:	20001374 	.word	0x20001374

0800508c <prvInsertBlockIntoFreeList>:
 800508c:	b510      	push	{r4, lr}
 800508e:	4b0f      	ldr	r3, [pc, #60]	; (80050cc <prvInsertBlockIntoFreeList+0x40>)
 8005090:	461a      	mov	r2, r3
 8005092:	681b      	ldr	r3, [r3, #0]
 8005094:	4283      	cmp	r3, r0
 8005096:	d3fb      	bcc.n	8005090 <prvInsertBlockIntoFreeList+0x4>
 8005098:	6854      	ldr	r4, [r2, #4]
 800509a:	1911      	adds	r1, r2, r4
 800509c:	4288      	cmp	r0, r1
 800509e:	bf01      	itttt	eq
 80050a0:	6841      	ldreq	r1, [r0, #4]
 80050a2:	4610      	moveq	r0, r2
 80050a4:	1909      	addeq	r1, r1, r4
 80050a6:	6051      	streq	r1, [r2, #4]
 80050a8:	6844      	ldr	r4, [r0, #4]
 80050aa:	1901      	adds	r1, r0, r4
 80050ac:	428b      	cmp	r3, r1
 80050ae:	d107      	bne.n	80050c0 <prvInsertBlockIntoFreeList+0x34>
 80050b0:	4907      	ldr	r1, [pc, #28]	; (80050d0 <prvInsertBlockIntoFreeList+0x44>)
 80050b2:	6809      	ldr	r1, [r1, #0]
 80050b4:	428b      	cmp	r3, r1
 80050b6:	bf1f      	itttt	ne
 80050b8:	6859      	ldrne	r1, [r3, #4]
 80050ba:	681b      	ldrne	r3, [r3, #0]
 80050bc:	1909      	addne	r1, r1, r4
 80050be:	6041      	strne	r1, [r0, #4]
 80050c0:	4290      	cmp	r0, r2
 80050c2:	6003      	str	r3, [r0, #0]
 80050c4:	bf18      	it	ne
 80050c6:	6010      	strne	r0, [r2, #0]
 80050c8:	bd10      	pop	{r4, pc}
 80050ca:	bf00      	nop
 80050cc:	20001618 	.word	0x20001618
 80050d0:	200011b0 	.word	0x200011b0

080050d4 <vPortFree>:
 80050d4:	b508      	push	{r3, lr}
 80050d6:	b1e8      	cbz	r0, 8005114 <vPortFree+0x40>
 80050d8:	4a0f      	ldr	r2, [pc, #60]	; (8005118 <vPortFree+0x44>)
 80050da:	f850 3c04 	ldr.w	r3, [r0, #-4]
 80050de:	6812      	ldr	r2, [r2, #0]
 80050e0:	4213      	tst	r3, r2
 80050e2:	d100      	bne.n	80050e6 <vPortFree+0x12>
 80050e4:	e7fe      	b.n	80050e4 <vPortFree+0x10>
 80050e6:	f850 1c08 	ldr.w	r1, [r0, #-8]
 80050ea:	b101      	cbz	r1, 80050ee <vPortFree+0x1a>
 80050ec:	e7fe      	b.n	80050ec <vPortFree+0x18>
 80050ee:	ea23 0302 	bic.w	r3, r3, r2
 80050f2:	f840 3c04 	str.w	r3, [r0, #-4]
 80050f6:	f7ff f91b 	bl	8004330 <vTaskSuspendAll>
 80050fa:	4a08      	ldr	r2, [pc, #32]	; (800511c <vPortFree+0x48>)
 80050fc:	f850 3c04 	ldr.w	r3, [r0, #-4]
 8005100:	6811      	ldr	r1, [r2, #0]
 8005102:	3808      	subs	r0, #8
 8005104:	440b      	add	r3, r1
 8005106:	6013      	str	r3, [r2, #0]
 8005108:	f7ff ffc0 	bl	800508c <prvInsertBlockIntoFreeList>
 800510c:	e8bd 4008 	ldmia.w	sp!, {r3, lr}
 8005110:	f7ff bc48 	b.w	80049a4 <xTaskResumeAll>
 8005114:	bd08      	pop	{r3, pc}
 8005116:	bf00      	nop
 8005118:	20001378 	.word	0x20001378
 800511c:	200013a4 	.word	0x200013a4

08005120 <prvDeleteTCB>:
 8005120:	b510      	push	{r4, lr}
 8005122:	f890 3065 	ldrb.w	r3, [r0, #101]	; 0x65
 8005126:	4604      	mov	r4, r0
 8005128:	b93b      	cbnz	r3, 800513a <prvDeleteTCB+0x1a>
 800512a:	6b00      	ldr	r0, [r0, #48]	; 0x30
 800512c:	f7ff ffd2 	bl	80050d4 <vPortFree>
 8005130:	4620      	mov	r0, r4
 8005132:	e8bd 4010 	ldmia.w	sp!, {r4, lr}
 8005136:	f7ff bfcd 	b.w	80050d4 <vPortFree>
 800513a:	2b01      	cmp	r3, #1
 800513c:	d0f9      	beq.n	8005132 <prvDeleteTCB+0x12>
 800513e:	2b02      	cmp	r3, #2
 8005140:	d000      	beq.n	8005144 <prvDeleteTCB+0x24>
 8005142:	e7fe      	b.n	8005142 <prvDeleteTCB+0x22>
 8005144:	bd10      	pop	{r4, pc}
	...

08005148 <vTaskDelete.constprop.0>:
 8005148:	b5f8      	push	{r3, r4, r5, r6, r7, lr}
 800514a:	4d2b      	ldr	r5, [pc, #172]	; (80051f8 <vTaskDelete.constprop.0+0xb0>)
 800514c:	f7ff f84a 	bl	80041e4 <vPortEnterCritical>
 8005150:	682c      	ldr	r4, [r5, #0]
 8005152:	1d26      	adds	r6, r4, #4
 8005154:	4630      	mov	r0, r6
 8005156:	f7ff f94b 	bl	80043f0 <uxListRemove>
 800515a:	b960      	cbnz	r0, 8005176 <vTaskDelete.constprop.0+0x2e>
 800515c:	2014      	movs	r0, #20
 800515e:	6ae7      	ldr	r7, [r4, #44]	; 0x2c
 8005160:	4b26      	ldr	r3, [pc, #152]	; (80051fc <vTaskDelete.constprop.0+0xb4>)
 8005162:	4378      	muls	r0, r7
 8005164:	581b      	ldr	r3, [r3, r0]
 8005166:	b933      	cbnz	r3, 8005176 <vTaskDelete.constprop.0+0x2e>
 8005168:	2201      	movs	r2, #1
 800516a:	4925      	ldr	r1, [pc, #148]	; (8005200 <vTaskDelete.constprop.0+0xb8>)
 800516c:	40ba      	lsls	r2, r7
 800516e:	680b      	ldr	r3, [r1, #0]
 8005170:	ea23 0302 	bic.w	r3, r3, r2
 8005174:	600b      	str	r3, [r1, #0]
 8005176:	6aa3      	ldr	r3, [r4, #40]	; 0x28
 8005178:	b11b      	cbz	r3, 8005182 <vTaskDelete.constprop.0+0x3a>
 800517a:	f104 0018 	add.w	r0, r4, #24
 800517e:	f7ff f937 	bl	80043f0 <uxListRemove>
 8005182:	4a20      	ldr	r2, [pc, #128]	; (8005204 <vTaskDelete.constprop.0+0xbc>)
 8005184:	6813      	ldr	r3, [r2, #0]
 8005186:	3301      	adds	r3, #1
 8005188:	6013      	str	r3, [r2, #0]
 800518a:	682b      	ldr	r3, [r5, #0]
 800518c:	429c      	cmp	r4, r3
 800518e:	d113      	bne.n	80051b8 <vTaskDelete.constprop.0+0x70>
 8005190:	4631      	mov	r1, r6
 8005192:	481d      	ldr	r0, [pc, #116]	; (8005208 <vTaskDelete.constprop.0+0xc0>)
 8005194:	f7ff f953 	bl	800443e <vListInsertEnd>
 8005198:	4a1c      	ldr	r2, [pc, #112]	; (800520c <vTaskDelete.constprop.0+0xc4>)
 800519a:	6813      	ldr	r3, [r2, #0]
 800519c:	3301      	adds	r3, #1
 800519e:	6013      	str	r3, [r2, #0]
 80051a0:	f7ff f814 	bl	80041cc <vPortExitCritical>
 80051a4:	4b1a      	ldr	r3, [pc, #104]	; (8005210 <vTaskDelete.constprop.0+0xc8>)
 80051a6:	681b      	ldr	r3, [r3, #0]
 80051a8:	b32b      	cbz	r3, 80051f6 <vTaskDelete.constprop.0+0xae>
 80051aa:	682b      	ldr	r3, [r5, #0]
 80051ac:	429c      	cmp	r4, r3
 80051ae:	d122      	bne.n	80051f6 <vTaskDelete.constprop.0+0xae>
 80051b0:	4b18      	ldr	r3, [pc, #96]	; (8005214 <vTaskDelete.constprop.0+0xcc>)
 80051b2:	681b      	ldr	r3, [r3, #0]
 80051b4:	b153      	cbz	r3, 80051cc <vTaskDelete.constprop.0+0x84>
 80051b6:	e7fe      	b.n	80051b6 <vTaskDelete.constprop.0+0x6e>
 80051b8:	4a17      	ldr	r2, [pc, #92]	; (8005218 <vTaskDelete.constprop.0+0xd0>)
 80051ba:	4620      	mov	r0, r4
 80051bc:	6813      	ldr	r3, [r2, #0]
 80051be:	3b01      	subs	r3, #1
 80051c0:	6013      	str	r3, [r2, #0]
 80051c2:	f7ff ffad 	bl	8005120 <prvDeleteTCB>
 80051c6:	f7ff f859 	bl	800427c <prvResetNextTaskUnblockTime>
 80051ca:	e7e9      	b.n	80051a0 <vTaskDelete.constprop.0+0x58>
 80051cc:	4b13      	ldr	r3, [pc, #76]	; (800521c <vTaskDelete.constprop.0+0xd4>)
 80051ce:	4a14      	ldr	r2, [pc, #80]	; (8005220 <vTaskDelete.constprop.0+0xd8>)
 80051d0:	6819      	ldr	r1, [r3, #0]
 80051d2:	6011      	str	r1, [r2, #0]
 80051d4:	4a13      	ldr	r2, [pc, #76]	; (8005224 <vTaskDelete.constprop.0+0xdc>)
 80051d6:	6812      	ldr	r2, [r2, #0]
 80051d8:	b12a      	cbz	r2, 80051e6 <vTaskDelete.constprop.0+0x9e>
 80051da:	681a      	ldr	r2, [r3, #0]
 80051dc:	f422 027f 	bic.w	r2, r2, #16711680	; 0xff0000
 80051e0:	601a      	str	r2, [r3, #0]
 80051e2:	681a      	ldr	r2, [r3, #0]
 80051e4:	601a      	str	r2, [r3, #0]
 80051e6:	f04f 5280 	mov.w	r2, #268435456	; 0x10000000
 80051ea:	4b0f      	ldr	r3, [pc, #60]	; (8005228 <vTaskDelete.constprop.0+0xe0>)
 80051ec:	601a      	str	r2, [r3, #0]
 80051ee:	f3bf 8f4f 	dsb	sy
 80051f2:	f3bf 8f6f 	isb	sy
 80051f6:	bdf8      	pop	{r3, r4, r5, r6, r7, pc}
 80051f8:	200011a8 	.word	0x200011a8
 80051fc:	200011b8 	.word	0x200011b8
 8005200:	20001374 	.word	0x20001374
 8005204:	20001370 	.word	0x20001370
 8005208:	20001634 	.word	0x20001634
 800520c:	20001360 	.word	0x20001360
 8005210:	20001614 	.word	0x20001614
 8005214:	2000136c 	.word	0x2000136c
 8005218:	2000135c 	.word	0x2000135c
 800521c:	e000ed20 	.word	0xe000ed20
 8005220:	2000134c 	.word	0x2000134c
 8005224:	20001358 	.word	0x20001358
 8005228:	e000ed04 	.word	0xe000ed04

0800522c <pvPortMalloc>:
 800522c:	e92d 41f0 	stmdb	sp!, {r4, r5, r6, r7, r8, lr}
 8005230:	4604      	mov	r4, r0
 8005232:	f7ff f87d 	bl	8004330 <vTaskSuspendAll>
 8005236:	4935      	ldr	r1, [pc, #212]	; (800530c <pvPortMalloc+0xe0>)
 8005238:	4d35      	ldr	r5, [pc, #212]	; (8005310 <pvPortMalloc+0xe4>)
 800523a:	680b      	ldr	r3, [r1, #0]
 800523c:	b9f3      	cbnz	r3, 800527c <pvPortMalloc+0x50>
 800523e:	2000      	movs	r0, #0
 8005240:	4b34      	ldr	r3, [pc, #208]	; (8005314 <pvPortMalloc+0xe8>)
 8005242:	4a35      	ldr	r2, [pc, #212]	; (8005318 <pvPortMalloc+0xec>)
 8005244:	f1a3 0708 	sub.w	r7, r3, #8
 8005248:	1ad2      	subs	r2, r2, r3
 800524a:	075e      	lsls	r6, r3, #29
 800524c:	bf18      	it	ne
 800524e:	3307      	addne	r3, #7
 8005250:	4e32      	ldr	r6, [pc, #200]	; (800531c <pvPortMalloc+0xf0>)
 8005252:	443a      	add	r2, r7
 8005254:	bf18      	it	ne
 8005256:	f023 0307 	bicne.w	r3, r3, #7
 800525a:	f022 0207 	bic.w	r2, r2, #7
 800525e:	6033      	str	r3, [r6, #0]
 8005260:	6070      	str	r0, [r6, #4]
 8005262:	e9c2 0000 	strd	r0, r0, [r2]
 8005266:	1ad0      	subs	r0, r2, r3
 8005268:	e9c3 2000 	strd	r2, r0, [r3]
 800526c:	4b2c      	ldr	r3, [pc, #176]	; (8005320 <pvPortMalloc+0xf4>)
 800526e:	600a      	str	r2, [r1, #0]
 8005270:	6018      	str	r0, [r3, #0]
 8005272:	4b2c      	ldr	r3, [pc, #176]	; (8005324 <pvPortMalloc+0xf8>)
 8005274:	6018      	str	r0, [r3, #0]
 8005276:	f04f 4300 	mov.w	r3, #2147483648	; 0x80000000
 800527a:	602b      	str	r3, [r5, #0]
 800527c:	682f      	ldr	r7, [r5, #0]
 800527e:	4227      	tst	r7, r4
 8005280:	d13f      	bne.n	8005302 <pvPortMalloc+0xd6>
 8005282:	2c00      	cmp	r4, #0
 8005284:	d038      	beq.n	80052f8 <pvPortMalloc+0xcc>
 8005286:	f104 0308 	add.w	r3, r4, #8
 800528a:	0760      	lsls	r0, r4, #29
 800528c:	bf1c      	itt	ne
 800528e:	f023 0307 	bicne.w	r3, r3, #7
 8005292:	3308      	addne	r3, #8
 8005294:	2b00      	cmp	r3, #0
 8005296:	d034      	beq.n	8005302 <pvPortMalloc+0xd6>
 8005298:	4a22      	ldr	r2, [pc, #136]	; (8005324 <pvPortMalloc+0xf8>)
 800529a:	6816      	ldr	r6, [r2, #0]
 800529c:	4690      	mov	r8, r2
 800529e:	429e      	cmp	r6, r3
 80052a0:	d32f      	bcc.n	8005302 <pvPortMalloc+0xd6>
 80052a2:	4a1e      	ldr	r2, [pc, #120]	; (800531c <pvPortMalloc+0xf0>)
 80052a4:	6815      	ldr	r5, [r2, #0]
 80052a6:	6868      	ldr	r0, [r5, #4]
 80052a8:	4298      	cmp	r0, r3
 80052aa:	d201      	bcs.n	80052b0 <pvPortMalloc+0x84>
 80052ac:	682c      	ldr	r4, [r5, #0]
 80052ae:	b974      	cbnz	r4, 80052ce <pvPortMalloc+0xa2>
 80052b0:	6809      	ldr	r1, [r1, #0]
 80052b2:	42a9      	cmp	r1, r5
 80052b4:	d025      	beq.n	8005302 <pvPortMalloc+0xd6>
 80052b6:	6829      	ldr	r1, [r5, #0]
 80052b8:	6814      	ldr	r4, [r2, #0]
 80052ba:	6011      	str	r1, [r2, #0]
 80052bc:	1ac2      	subs	r2, r0, r3
 80052be:	2a10      	cmp	r2, #16
 80052c0:	f104 0408 	add.w	r4, r4, #8
 80052c4:	d90a      	bls.n	80052dc <pvPortMalloc+0xb0>
 80052c6:	18e8      	adds	r0, r5, r3
 80052c8:	0741      	lsls	r1, r0, #29
 80052ca:	d003      	beq.n	80052d4 <pvPortMalloc+0xa8>
 80052cc:	e7fe      	b.n	80052cc <pvPortMalloc+0xa0>
 80052ce:	462a      	mov	r2, r5
 80052d0:	4625      	mov	r5, r4
 80052d2:	e7e8      	b.n	80052a6 <pvPortMalloc+0x7a>
 80052d4:	6042      	str	r2, [r0, #4]
 80052d6:	606b      	str	r3, [r5, #4]
 80052d8:	f7ff fed8 	bl	800508c <prvInsertBlockIntoFreeList>
 80052dc:	2300      	movs	r3, #0
 80052de:	4910      	ldr	r1, [pc, #64]	; (8005320 <pvPortMalloc+0xf4>)
 80052e0:	686a      	ldr	r2, [r5, #4]
 80052e2:	6808      	ldr	r0, [r1, #0]
 80052e4:	1ab6      	subs	r6, r6, r2
 80052e6:	4286      	cmp	r6, r0
 80052e8:	ea47 0702 	orr.w	r7, r7, r2
 80052ec:	f8c8 6000 	str.w	r6, [r8]
 80052f0:	bf38      	it	cc
 80052f2:	600e      	strcc	r6, [r1, #0]
 80052f4:	606f      	str	r7, [r5, #4]
 80052f6:	602b      	str	r3, [r5, #0]
 80052f8:	f7ff fb54 	bl	80049a4 <xTaskResumeAll>
 80052fc:	0763      	lsls	r3, r4, #29
 80052fe:	d002      	beq.n	8005306 <pvPortMalloc+0xda>
 8005300:	e7fe      	b.n	8005300 <pvPortMalloc+0xd4>
 8005302:	2400      	movs	r4, #0
 8005304:	e7f8      	b.n	80052f8 <pvPortMalloc+0xcc>
 8005306:	4620      	mov	r0, r4
 8005308:	e8bd 81f0 	ldmia.w	sp!, {r4, r5, r6, r7, r8, pc}
 800530c:	200011b0 	.word	0x200011b0
 8005310:	20001378 	.word	0x20001378
 8005314:	20001650 	.word	0x20001650
 8005318:	20005000 	.word	0x20005000
 800531c:	20001618 	.word	0x20001618
 8005320:	200015f4 	.word	0x200015f4
 8005324:	200013a4 	.word	0x200013a4

08005328 <converterLeaveSHF>:

    return true;
}

static bool converterLeaveSHF(const ConverterManager* converter, const ConverterBand* band)
{
 8005328:	b510      	push	{r4, lr}
 800532a:	4604      	mov	r4, r0
    ConverterSHFConfig* config = (ConverterSHFConfig*)band->userData;

    /* Turn everything off */
    config->loTune(0, -127);
 800532c:	68cb      	ldr	r3, [r1, #12]
 800532e:	2000      	movs	r0, #0
 8005330:	f06f 017e 	mvn.w	r1, #126	; 0x7e
 8005334:	689b      	ldr	r3, [r3, #8]
 8005336:	4798      	blx	r3
    converter->setConverterGpio(converter, 0);
 8005338:	4620      	mov	r0, r4
 800533a:	2100      	movs	r1, #0
 800533c:	6a23      	ldr	r3, [r4, #32]
 800533e:	4798      	blx	r3

    return true;
}
 8005340:	2001      	movs	r0, #1
 8005342:	bd10      	pop	{r4, pc}

08005344 <converterTuneSHF>:
{
 8005344:	b5f8      	push	{r3, r4, r5, r6, r7, lr}
    ConverterSHFConfig* config = (ConverterSHFConfig*)band->userData;
 8005346:	68cd      	ldr	r5, [r1, #12]
{
 8005348:	4616      	mov	r6, r2
 800534a:	6814      	ldr	r4, [r2, #0]
    if(config->useHighSideMixing) {
 800534c:	782a      	ldrb	r2, [r5, #0]
{
 800534e:	4607      	mov	r7, r0
 8005350:	686b      	ldr	r3, [r5, #4]
    if(config->useHighSideMixing) {
 8005352:	b1aa      	cbz	r2, 8005380 <converterTuneSHF+0x3c>
        loFreq = tuneRequest->inputFrequencyKHz + config->ifFrequencyKHz;
 8005354:	441c      	add	r4, r3
    if(!config->loTune(loFreq, 2)) {
 8005356:	2102      	movs	r1, #2
 8005358:	4620      	mov	r0, r4
 800535a:	68ab      	ldr	r3, [r5, #8]
 800535c:	4798      	blx	r3
 800535e:	b9a8      	cbnz	r0, 800538c <converterTuneSHF+0x48>
        if(!config->loTune(loFreq, 2)) {
 8005360:	2102      	movs	r1, #2
 8005362:	68ab      	ldr	r3, [r5, #8]
 8005364:	0860      	lsrs	r0, r4, #1
 8005366:	4798      	blx	r3
 8005368:	b160      	cbz	r0, 8005384 <converterTuneSHF+0x40>
        ioOut |= _BV(CONVERTER_IO_PIN_MIX_X2);
 800536a:	f44f 4140 	mov.w	r1, #49152	; 0xc000
    converter->setConverterGpio(converter, ioOut);
 800536e:	4638      	mov	r0, r7
 8005370:	6a3b      	ldr	r3, [r7, #32]
 8005372:	4798      	blx	r3
    tuneRequest->outputFrequencyKHz = config->ifFrequencyKHz;
 8005374:	686b      	ldr	r3, [r5, #4]
    return true;
 8005376:	2001      	movs	r0, #1
    tuneRequest->outputFrequencyKHz = config->ifFrequencyKHz;
 8005378:	60f3      	str	r3, [r6, #12]
    tuneRequest->spectrumInversion = config->useHighSideMixing;
 800537a:	782b      	ldrb	r3, [r5, #0]
 800537c:	7433      	strb	r3, [r6, #16]
    return true;
 800537e:	e002      	b.n	8005386 <converterTuneSHF+0x42>
        if(tuneRequest->inputFrequencyKHz < config->ifFrequencyKHz) {
 8005380:	429c      	cmp	r4, r3
 8005382:	d201      	bcs.n	8005388 <converterTuneSHF+0x44>
            return false;
 8005384:	2000      	movs	r0, #0
}
 8005386:	bdf8      	pop	{r3, r4, r5, r6, r7, pc}
        loFreq = tuneRequest->inputFrequencyKHz - config->ifFrequencyKHz;
 8005388:	1ae4      	subs	r4, r4, r3
 800538a:	e7e4      	b.n	8005356 <converterTuneSHF+0x12>
    uint32_t ioOut = _BV(CONVERTER_IO_PIN_MIX_EN);
 800538c:	f44f 4100 	mov.w	r1, #32768	; 0x8000
 8005390:	e7ed      	b.n	800536e <converterTuneSHF+0x2a>

08005392 <converterLeaveSW>:

    return true;
}

static bool converterLeaveSW(const ConverterManager* converter, const ConverterBand* band)
{
 8005392:	b508      	push	{r3, lr}
    (void) converter;
    (void) band;

    /* Turn everything off */
    converter->setConverterGpio(converter, 0);
 8005394:	2100      	movs	r1, #0
 8005396:	6a03      	ldr	r3, [r0, #32]
 8005398:	4798      	blx	r3

    return true;
}
 800539a:	2001      	movs	r0, #1
 800539c:	bd08      	pop	{r3, pc}

0800539e <converterTuneSW>:
{
 800539e:	b510      	push	{r4, lr}
 80053a0:	4614      	mov	r4, r2
    converter->setConverterGpio(converter, _BV(CONVERTER_IO_PIN_MIX_SW_EN) | _BV(CONVERTER_IO_PIN_MIX_SW_LO));
 80053a2:	6a03      	ldr	r3, [r0, #32]
 80053a4:	f44f 7140 	mov.w	r1, #768	; 0x300
 80053a8:	4798      	blx	r3
    tuneRequest->outputFrequencyKHz = configCPU_CLOCK_HZ/1000 +tuneRequest->inputFrequencyKHz;
 80053aa:	6823      	ldr	r3, [r4, #0]
}
 80053ac:	2001      	movs	r0, #1
    tuneRequest->outputFrequencyKHz = configCPU_CLOCK_HZ/1000 +tuneRequest->inputFrequencyKHz;
 80053ae:	f503 338c 	add.w	r3, r3, #71680	; 0x11800
 80053b2:	f503 73a0 	add.w	r3, r3, #320	; 0x140
 80053b6:	60e3      	str	r3, [r4, #12]
    tuneRequest->spectrumInversion = false;
 80053b8:	2300      	movs	r3, #0
 80053ba:	7423      	strb	r3, [r4, #16]
}
 80053bc:	bd10      	pop	{r4, pc}

080053be <converterTuneBypass>:


#include "converter.h"

static bool converterTuneBypass(const ConverterManager* converter, const ConverterBand* band, ConverterTuneRequest* tuneRequest)
{
 80053be:	b510      	push	{r4, lr}
 80053c0:	4614      	mov	r4, r2
    (void) band;

    converter->setConverterGpio(converter, 0);
 80053c2:	6a03      	ldr	r3, [r0, #32]
 80053c4:	2100      	movs	r1, #0
 80053c6:	4798      	blx	r3

    tuneRequest->outputFrequencyKHz = tuneRequest->inputFrequencyKHz;
 80053c8:	6823      	ldr	r3, [r4, #0]
    tuneRequest->spectrumInversion = false;

    return true;
}
 80053ca:	2001      	movs	r0, #1
    tuneRequest->outputFrequencyKHz = tuneRequest->inputFrequencyKHz;
 80053cc:	60e3      	str	r3, [r4, #12]
    tuneRequest->spectrumInversion = false;
 80053ce:	2300      	movs	r3, #0
 80053d0:	7423      	strb	r3, [r4, #16]
}
 80053d2:	bd10      	pop	{r4, pc}

080053d4 <converterTune>:
#include "converter.h"
#include "shell.h"
#include "chprintf.h"

bool converterTune(ConverterManager* converter, ConverterTuneRequest* tuneRequest)
{
 80053d4:	e92d 41f0 	stmdb	sp!, {r4, r5, r6, r7, r8, lr}
    /* Iterate over all bands */
    for(uint8_t i=0; converter->bands[i].functions; i++) {
 80053d8:	f04f 0c14 	mov.w	ip, #20
{
 80053dc:	4604      	mov	r4, r0
 80053de:	460d      	mov	r5, r1
    for(uint8_t i=0; converter->bands[i].functions; i++) {
 80053e0:	6941      	ldr	r1, [r0, #20]
 80053e2:	2000      	movs	r0, #0
 80053e4:	b2c6      	uxtb	r6, r0
 80053e6:	fb0c f806 	mul.w	r8, ip, r6
 80053ea:	eb01 0208 	add.w	r2, r1, r8
 80053ee:	6913      	ldr	r3, [r2, #16]
 80053f0:	b1b3      	cbz	r3, 8005420 <converterTune+0x4c>
        if(_BV(i) & converter-> disabledBands) {
 80053f2:	69e7      	ldr	r7, [r4, #28]
 80053f4:	40f7      	lsrs	r7, r6
 80053f6:	07fb      	lsls	r3, r7, #31
 80053f8:	d41d      	bmi.n	8005436 <converterTune+0x62>
            continue;
        }

        uint32_t tmpFreq = tuneRequest->inputFrequencyKHz;

        if((tuneRequest->forceBand && tuneRequest->bandId == i) ||
 80053fa:	7a2b      	ldrb	r3, [r5, #8]
 80053fc:	b1a3      	cbz	r3, 8005428 <converterTune+0x54>
 80053fe:	7a6b      	ldrb	r3, [r5, #9]
 8005400:	42b3      	cmp	r3, r6
 8005402:	d118      	bne.n	8005436 <converterTune+0x62>
                (!tuneRequest->forceBand &&
                 tmpFreq >= converter->bands[i].minFrequencyKHz &&
                 tmpFreq <= converter->bands[i].maxFrequencyKHz)) {


            if(converter->activeBand != 0xff && converter->activeBand != i) {
 8005404:	7e23      	ldrb	r3, [r4, #24]
 8005406:	2bff      	cmp	r3, #255	; 0xff
 8005408:	d117      	bne.n	800543a <converterTune+0x66>
                    converter->bands[converter->activeBand].functions->converterLeaveBand(converter,
                            &converter->bands[converter->activeBand]);
                }
            }

            converter->activeBand = i;
 800540a:	7626      	strb	r6, [r4, #24]
            tuneRequest->bandId = i;
 800540c:	726e      	strb	r6, [r5, #9]

            bool retVal = converter->bands[i].functions->converterTuneBand(converter, &converter->bands[i], tuneRequest);
 800540e:	6961      	ldr	r1, [r4, #20]
 8005410:	462a      	mov	r2, r5
 8005412:	4441      	add	r1, r8
 8005414:	690b      	ldr	r3, [r1, #16]
 8005416:	4620      	mov	r0, r4
 8005418:	681b      	ldr	r3, [r3, #0]
 800541a:	4798      	blx	r3
            if(retVal) {
 800541c:	4606      	mov	r6, r0
 800541e:	b9c0      	cbnz	r0, 8005452 <converterTune+0x7e>
    for(uint8_t i=0; converter->bands[i].functions; i++) {
 8005420:	2600      	movs	r6, #0
        }
    }


    return false;
}
 8005422:	4630      	mov	r0, r6
 8005424:	e8bd 81f0 	ldmia.w	sp!, {r4, r5, r6, r7, r8, pc}
        uint32_t tmpFreq = tuneRequest->inputFrequencyKHz;
 8005428:	682f      	ldr	r7, [r5, #0]
                (!tuneRequest->forceBand &&
 800542a:	6853      	ldr	r3, [r2, #4]
 800542c:	42bb      	cmp	r3, r7
 800542e:	d802      	bhi.n	8005436 <converterTune+0x62>
                 tmpFreq >= converter->bands[i].minFrequencyKHz &&
 8005430:	6893      	ldr	r3, [r2, #8]
 8005432:	42bb      	cmp	r3, r7
 8005434:	d2e6      	bcs.n	8005404 <converterTune+0x30>
    for(uint8_t i=0; converter->bands[i].functions; i++) {
 8005436:	3001      	adds	r0, #1
 8005438:	e7d4      	b.n	80053e4 <converterTune+0x10>
            if(converter->activeBand != 0xff && converter->activeBand != i) {
 800543a:	42b3      	cmp	r3, r6
 800543c:	d0e5      	beq.n	800540a <converterTune+0x36>
                if(converter->bands[converter->activeBand].functions->converterLeaveBand) {
 800543e:	2214      	movs	r2, #20
 8005440:	fb02 1103 	mla	r1, r2, r3, r1
 8005444:	690b      	ldr	r3, [r1, #16]
 8005446:	685b      	ldr	r3, [r3, #4]
 8005448:	2b00      	cmp	r3, #0
 800544a:	d0de      	beq.n	800540a <converterTune+0x36>
                    converter->bands[converter->activeBand].functions->converterLeaveBand(converter,
 800544c:	4620      	mov	r0, r4
 800544e:	4798      	blx	r3
 8005450:	e7db      	b.n	800540a <converterTune+0x36>
                converter->currentTune = *tuneRequest;
 8005452:	cd0f      	ldmia	r5!, {r0, r1, r2, r3}
 8005454:	c40f      	stmia	r4!, {r0, r1, r2, r3}
 8005456:	682b      	ldr	r3, [r5, #0]
 8005458:	6023      	str	r3, [r4, #0]
 800545a:	e7e2      	b.n	8005422 <converterTune+0x4e>

0800545c <gpioCPUInit>:
    .getValue = gpioCPUGetValue,
    .status = gpioCPUStatus
};

void gpioCPUInit(uint8_t gpioPortId, ioportid_t port)
{
 800545c:	b510      	push	{r4, lr}
    return true;
}

GPIOPort* gpioRegisterPortDriver(uint8_t index)
{
    if(index >= GPIODriverData.numPorts) {
 800545e:	4a0c      	ldr	r2, [pc, #48]	; (8005490 <gpioCPUInit+0x34>)
 8005460:	7913      	ldrb	r3, [r2, #4]
 8005462:	4283      	cmp	r3, r0
 8005464:	d912      	bls.n	800548c <gpioCPUInit+0x30>
        return NULL;
    }
    if(GPIODriverData.registeredPorts & _BV(index)) {
 8005466:	6894      	ldr	r4, [r2, #8]
 8005468:	fa24 f300 	lsr.w	r3, r4, r0
 800546c:	07db      	lsls	r3, r3, #31
 800546e:	d40d      	bmi.n	800548c <gpioCPUInit+0x30>
        return NULL;
    }

    GPIODriverData.registeredPorts |= _BV(index);
 8005470:	2301      	movs	r3, #1
 8005472:	4083      	lsls	r3, r0
 8005474:	4323      	orrs	r3, r4
 8005476:	6093      	str	r3, [r2, #8]

    return &GPIODriverData.ports[index];
 8005478:	230c      	movs	r3, #12
 800547a:	4358      	muls	r0, r3
 800547c:	6813      	ldr	r3, [r2, #0]
    GPIOPort* portDriver = gpioRegisterPortDriver(gpioPortId);
    if(!portDriver) {
 800547e:	181a      	adds	r2, r3, r0
 8005480:	d004      	beq.n	800548c <gpioCPUInit+0x30>
        return;
    }

    portDriver->driver = port;
 8005482:	5019      	str	r1, [r3, r0]
    portDriver->functions = &gpioCPUFunctions;
 8005484:	4b03      	ldr	r3, [pc, #12]	; (8005494 <gpioCPUInit+0x38>)
 8005486:	6093      	str	r3, [r2, #8]
    portDriver->numPins = 16;
 8005488:	2310      	movs	r3, #16
 800548a:	6053      	str	r3, [r2, #4]
}
 800548c:	bd10      	pop	{r4, pc}
 800548e:	bf00      	nop
 8005490:	20000928 	.word	0x20000928
 8005494:	0800c848 	.word	0x0800c848

08005498 <gpioCPUGetValue>:
    *value = palReadPort((ioportid_t)driver->driver);
 8005498:	6803      	ldr	r3, [r0, #0]
}
 800549a:	2001      	movs	r0, #1
    *value = palReadPort((ioportid_t)driver->driver);
 800549c:	689b      	ldr	r3, [r3, #8]
 800549e:	600b      	str	r3, [r1, #0]
}
 80054a0:	4770      	bx	lr

080054a2 <gpioCPUSetValue>:
    palWriteGroup((ioportid_t)driver->driver, pinsToChange, 0, newValue);
 80054a2:	6803      	ldr	r3, [r0, #0]
 80054a4:	ea21 0002 	bic.w	r0, r1, r2
 80054a8:	400a      	ands	r2, r1
 80054aa:	ea42 4200 	orr.w	r2, r2, r0, lsl #16
 80054ae:	611a      	str	r2, [r3, #16]
}
 80054b0:	2001      	movs	r0, #1
 80054b2:	4770      	bx	lr

080054b4 <gpioCPUGetPinMode>:
{
 80054b4:	b538      	push	{r3, r4, r5, lr}
 80054b6:	4604      	mov	r4, r0
    syssts_t sts = osalSysGetStatusAndLockX();
 80054b8:	f7fe fe76 	bl	80041a8 <ulPortEnterCriticalFromISR>
    cr = (uint64_t)(((ioportid_t)driver->driver)->CRH) << 32;
 80054bc:	6823      	ldr	r3, [r4, #0]
 80054be:	685d      	ldr	r5, [r3, #4]
    cr |= ((ioportid_t)driver->driver)->CRL;
 80054c0:	681c      	ldr	r4, [r3, #0]
    osalSysRestoreStatusX(sts);
 80054c2:	f7fe fe65 	bl	8004190 <vPortExitCriticalFromISR>
    uint8_t config = (cr >> (4*pin)) & 0xF;
 80054c6:	0089      	lsls	r1, r1, #2
 80054c8:	f1c1 0220 	rsb	r2, r1, #32
 80054cc:	f1a1 0320 	sub.w	r3, r1, #32
 80054d0:	fa05 f202 	lsl.w	r2, r5, r2
 80054d4:	fa24 f101 	lsr.w	r1, r4, r1
 80054d8:	fa25 f303 	lsr.w	r3, r5, r3
 80054dc:	4311      	orrs	r1, r2
 80054de:	4319      	orrs	r1, r3
}
 80054e0:	4b02      	ldr	r3, [pc, #8]	; (80054ec <gpioCPUGetPinMode+0x38>)
    return cfgToMode[config];
 80054e2:	f001 010f 	and.w	r1, r1, #15
}
 80054e6:	5c58      	ldrb	r0, [r3, r1]
 80054e8:	bd38      	pop	{r3, r4, r5, pc}
 80054ea:	bf00      	nop
 80054ec:	0800c728 	.word	0x0800c728

080054f0 <gpioCPUSetPinMode>:
    palSetPadMode((ioportid_t)driver->driver, pin, pinMode);
 80054f0:	2301      	movs	r3, #1
    0xF,        /* PAL_MODE_STM32_ALTERNATE_OPENDRAIN, 50MHz.*/
  };
  uint32_t mh, ml, crh, crl, cfg;
  unsigned i;

  if (mode == PAL_MODE_INPUT_PULLUP)
 80054f2:	2a03      	cmp	r2, #3
{
 80054f4:	b5f0      	push	{r4, r5, r6, r7, lr}
    palSetPadMode((ioportid_t)driver->driver, pin, pinMode);
 80054f6:	6800      	ldr	r0, [r0, #0]
 80054f8:	fa03 f101 	lsl.w	r1, r3, r1
 80054fc:	d129      	bne.n	8005552 <gpioCPUSetPinMode+0x62>
    port->BSRR = mask;
 80054fe:	6101      	str	r1, [r0, #16]
  else if (mode == PAL_MODE_INPUT_PULLDOWN)
    port->BRR = mask;
  cfg = cfgtab[mode];
 8005500:	4b16      	ldr	r3, [pc, #88]	; (800555c <gpioCPUSetPinMode+0x6c>)
 8005502:	2608      	movs	r6, #8
 8005504:	5c9f      	ldrb	r7, [r3, r2]
  mh = ml = crh = crl = 0;
 8005506:	2300      	movs	r3, #0
 8005508:	461a      	mov	r2, r3
 800550a:	461d      	mov	r5, r3
 800550c:	461c      	mov	r4, r3
  for (i = 0; i < 8; i++) {
    ml <<= 4;
    mh <<= 4;
    crl <<= 4;
    crh <<= 4;
    if ((mask & 0x0080) == 0)
 800550e:	f011 0f80 	tst.w	r1, #128	; 0x80
    ml <<= 4;
 8005512:	ea4f 1404 	mov.w	r4, r4, lsl #4
    crl <<= 4;
 8005516:	ea4f 1202 	mov.w	r2, r2, lsl #4
    mh <<= 4;
 800551a:	ea4f 1505 	mov.w	r5, r5, lsl #4
    crh <<= 4;
 800551e:	ea4f 1303 	mov.w	r3, r3, lsl #4
      ml |= 0xf;
 8005522:	bf0c      	ite	eq
 8005524:	f044 040f 	orreq.w	r4, r4, #15
    else
      crl |= cfg;
 8005528:	433a      	orrne	r2, r7
    if ((mask & 0x8000) == 0)
 800552a:	f411 4f00 	tst.w	r1, #32768	; 0x8000
      mh |= 0xf;
 800552e:	bf0c      	ite	eq
 8005530:	f045 050f 	orreq.w	r5, r5, #15
    else
      crh |= cfg;
 8005534:	433b      	orrne	r3, r7
  for (i = 0; i < 8; i++) {
 8005536:	3e01      	subs	r6, #1
    mask <<= 1;
 8005538:	ea4f 0141 	mov.w	r1, r1, lsl #1
  for (i = 0; i < 8; i++) {
 800553c:	d1e7      	bne.n	800550e <gpioCPUSetPinMode+0x1e>
  }
  port->CRH = (port->CRH & mh) | crh;
 800553e:	6841      	ldr	r1, [r0, #4]
 8005540:	4029      	ands	r1, r5
 8005542:	430b      	orrs	r3, r1
 8005544:	6043      	str	r3, [r0, #4]
  port->CRL = (port->CRL & ml) | crl;
 8005546:	6803      	ldr	r3, [r0, #0]
 8005548:	4023      	ands	r3, r4
 800554a:	4313      	orrs	r3, r2
 800554c:	6003      	str	r3, [r0, #0]
}
 800554e:	2001      	movs	r0, #1
 8005550:	bdf0      	pop	{r4, r5, r6, r7, pc}
  else if (mode == PAL_MODE_INPUT_PULLDOWN)
 8005552:	2a04      	cmp	r2, #4
    port->BRR = mask;
 8005554:	bf08      	it	eq
 8005556:	6141      	streq	r1, [r0, #20]
 8005558:	e7d2      	b.n	8005500 <gpioCPUSetPinMode+0x10>
 800555a:	bf00      	nop
 800555c:	0800c738 	.word	0x0800c738

08005560 <gpioGetPortDriver>:
}

static const GPIOPort* gpioGetPortDriver(uint8_t index)
{
    if(index >= GPIODriverData.numPorts) {
 8005560:	4b04      	ldr	r3, [pc, #16]	; (8005574 <gpioGetPortDriver+0x14>)
 8005562:	791a      	ldrb	r2, [r3, #4]
 8005564:	4282      	cmp	r2, r0
        return &gpioDummyPort;
    }

    return &GPIODriverData.ports[index];
 8005566:	bf83      	ittte	hi
 8005568:	220c      	movhi	r2, #12
 800556a:	681b      	ldrhi	r3, [r3, #0]
 800556c:	fb02 3000 	mlahi	r0, r2, r0, r3
        return &gpioDummyPort;
 8005570:	4801      	ldrls	r0, [pc, #4]	; (8005578 <gpioGetPortDriver+0x18>)
}
 8005572:	4770      	bx	lr
 8005574:	20000928 	.word	0x20000928
 8005578:	0800c878 	.word	0x0800c878

0800557c <gpioPortIoDisable>:

    return value;
}

void gpioPortIoDisable(uint8_t gpioPort, bool disable)
{
 800557c:	b510      	push	{r4, lr}
    const GPIOPort* port = gpioGetPortDriver(gpioPort);
 800557e:	f7ff ffef 	bl	8005560 <gpioGetPortDriver>

    if(port->functions->busIoDisable) {
 8005582:	6883      	ldr	r3, [r0, #8]
 8005584:	691b      	ldr	r3, [r3, #16]
 8005586:	b113      	cbz	r3, 800558e <gpioPortIoDisable+0x12>
        port->functions->busIoDisable(port, disable);
    }
}
 8005588:	e8bd 4010 	ldmia.w	sp!, {r4, lr}
        port->functions->busIoDisable(port, disable);
 800558c:	4718      	bx	r3
}
 800558e:	bd10      	pop	{r4, pc}

08005590 <gpioSetPinMode>:
{
 8005590:	b510      	push	{r4, lr}
 8005592:	4604      	mov	r4, r0
    const GPIOPort* port = gpioGetPortDriver(gpioPort);
 8005594:	0a00      	lsrs	r0, r0, #8
 8005596:	f7ff ffe3 	bl	8005560 <gpioGetPortDriver>
    return port->functions->setMode(port, gpioPin, mode);
 800559a:	6883      	ldr	r3, [r0, #8]
 800559c:	460a      	mov	r2, r1
 800559e:	681b      	ldr	r3, [r3, #0]
 80055a0:	b2e1      	uxtb	r1, r4
}
 80055a2:	e8bd 4010 	ldmia.w	sp!, {r4, lr}
    return port->functions->setMode(port, gpioPin, mode);
 80055a6:	4718      	bx	r3

080055a8 <gpioGetPin>:
{
 80055a8:	b513      	push	{r0, r1, r4, lr}
 80055aa:	4604      	mov	r4, r0
    const GPIOPort* port = gpioGetPortDriver(gpioPort);
 80055ac:	0a00      	lsrs	r0, r0, #8
 80055ae:	f7ff ffd7 	bl	8005560 <gpioGetPortDriver>
    uint32_t value = 0;
 80055b2:	2300      	movs	r3, #0
 80055b4:	9301      	str	r3, [sp, #4]
    port->functions->getValue(port, &value);
 80055b6:	6883      	ldr	r3, [r0, #8]
 80055b8:	a901      	add	r1, sp, #4
 80055ba:	68db      	ldr	r3, [r3, #12]
 80055bc:	4798      	blx	r3
    return (value >> gpioPin) & 1;
 80055be:	9801      	ldr	r0, [sp, #4]
 80055c0:	b2e4      	uxtb	r4, r4
 80055c2:	40e0      	lsrs	r0, r4
}
 80055c4:	f000 0001 	and.w	r0, r0, #1
 80055c8:	b002      	add	sp, #8
 80055ca:	bd10      	pop	{r4, pc}

080055cc <gpioSetPin>:
{
 80055cc:	b510      	push	{r4, lr}
 80055ce:	4604      	mov	r4, r0
    const GPIOPort* port = gpioGetPortDriver(gpioPort);
 80055d0:	0a00      	lsrs	r0, r0, #8
 80055d2:	f7ff ffc5 	bl	8005560 <gpioGetPortDriver>
    return port->functions->setValue(port, 1<<gpioPin, on<<gpioPin);
 80055d6:	b2e4      	uxtb	r4, r4
 80055d8:	fa01 f204 	lsl.w	r2, r1, r4
 80055dc:	2101      	movs	r1, #1
 80055de:	6883      	ldr	r3, [r0, #8]
 80055e0:	40a1      	lsls	r1, r4
 80055e2:	689b      	ldr	r3, [r3, #8]
}
 80055e4:	e8bd 4010 	ldmia.w	sp!, {r4, lr}
    return port->functions->setValue(port, 1<<gpioPin, on<<gpioPin);
 80055e8:	4718      	bx	r3
	...

080055ec <usbShellTerminated>:
    shellStart((BaseSequentialStream*)&SD3, 128, "ShellTTL", NULL, NULL);
}

static volatile bool usbShellIsUp = false;
static void usbShellTerminated(void* param)
{
 80055ec:	b508      	push	{r3, lr}
    (void)param;

    gpioSetPin(GPIO_LED_USB, true);
 80055ee:	2101      	movs	r1, #1
 80055f0:	f240 1003 	movw	r0, #259	; 0x103
 80055f4:	f7ff ffea 	bl	80055cc <gpioSetPin>
    osalThreadSleepSeconds(1);
 80055f8:	f44f 707a 	mov.w	r0, #1000	; 0x3e8
 80055fc:	f7ff fab4 	bl	8004b68 <vTaskDelay>
    usbShellIsUp = false;
 8005600:	2200      	movs	r2, #0
 8005602:	4b01      	ldr	r3, [pc, #4]	; (8005608 <usbShellTerminated+0x1c>)
 8005604:	701a      	strb	r2, [r3, #0]
}
 8005606:	bd08      	pop	{r3, pc}
 8005608:	20001355 	.word	0x20001355

0800560c <syslogPut>:

    return n;
}

static msg_t syslogPut(void *instance, uint8_t b)
{
 800560c:	b507      	push	{r0, r1, r2, lr}
 800560e:	f88d 1007 	strb.w	r1, [sp, #7]
    (void)instance;

    packetQueuePutBytes(&syslogQueue, &b, 1);
 8005612:	f10d 0007 	add.w	r0, sp, #7
 8005616:	2101      	movs	r1, #1
 8005618:	f7fe fd4a 	bl	80040b0 <packetQueuePutBytes.constprop.0>

    return MSG_OK;
}
 800561c:	2000      	movs	r0, #0
 800561e:	b003      	add	sp, #12
 8005620:	f85d fb04 	ldr.w	pc, [sp], #4

08005624 <syslogWrite>:
{
 8005624:	b510      	push	{r4, lr}
 8005626:	4614      	mov	r4, r2
 8005628:	4608      	mov	r0, r1
    packetQueuePutBytes(&syslogQueue, bp, n);
 800562a:	b291      	uxth	r1, r2
 800562c:	f7fe fd40 	bl	80040b0 <packetQueuePutBytes.constprop.0>
}
 8005630:	4620      	mov	r0, r4
 8005632:	bd10      	pop	{r4, pc}

08005634 <monitorKick>:
    xTaskCreate(taskPeriodicMon, "Monitor", stackSize, NULL, 1, &monThreadHandle );
}

void monitorKick(MonitorEntry* entry, bool active)
{
    if(entry->active == active) {
 8005634:	7c03      	ldrb	r3, [r0, #16]
{
 8005636:	b570      	push	{r4, r5, r6, lr}
    if(entry->active == active) {
 8005638:	428b      	cmp	r3, r1
 800563a:	d047      	beq.n	80056cc <monitorKick+0x98>
        return;
    }

    entry->active = active;

    if(monThreadHandle && active) {
 800563c:	4b24      	ldr	r3, [pc, #144]	; (80056d0 <monitorKick+0x9c>)
    entry->active = active;
 800563e:	7401      	strb	r1, [r0, #16]
    if(monThreadHandle && active) {
 8005640:	681c      	ldr	r4, [r3, #0]
 8005642:	2c00      	cmp	r4, #0
 8005644:	d042      	beq.n	80056cc <monitorKick+0x98>
 8005646:	2900      	cmp	r1, #0
 8005648:	d040      	beq.n	80056cc <monitorKick+0x98>
 800564a:	f7fe fdcb 	bl	80041e4 <vPortEnterCritical>
 800564e:	2202      	movs	r2, #2
 8005650:	f894 3064 	ldrb.w	r3, [r4, #100]	; 0x64
 8005654:	f884 2064 	strb.w	r2, [r4, #100]	; 0x64
 8005658:	2201      	movs	r2, #1
 800565a:	4293      	cmp	r3, r2
 800565c:	b2dd      	uxtb	r5, r3
 800565e:	6622      	str	r2, [r4, #96]	; 0x60
 8005660:	d130      	bne.n	80056c4 <monitorKick+0x90>
 8005662:	1d26      	adds	r6, r4, #4
 8005664:	4630      	mov	r0, r6
 8005666:	f7fe fec3 	bl	80043f0 <uxListRemove>
 800566a:	2014      	movs	r0, #20
 800566c:	4a19      	ldr	r2, [pc, #100]	; (80056d4 <monitorKick+0xa0>)
 800566e:	6ae3      	ldr	r3, [r4, #44]	; 0x2c
 8005670:	6811      	ldr	r1, [r2, #0]
 8005672:	409d      	lsls	r5, r3
 8005674:	430d      	orrs	r5, r1
 8005676:	6015      	str	r5, [r2, #0]
 8005678:	4a17      	ldr	r2, [pc, #92]	; (80056d8 <monitorKick+0xa4>)
 800567a:	4631      	mov	r1, r6
 800567c:	fb00 2003 	mla	r0, r0, r3, r2
 8005680:	f7fe fedd 	bl	800443e <vListInsertEnd>
 8005684:	6aa3      	ldr	r3, [r4, #40]	; 0x28
 8005686:	b103      	cbz	r3, 800568a <monitorKick+0x56>
 8005688:	e7fe      	b.n	8005688 <monitorKick+0x54>
 800568a:	f7fe fdf7 	bl	800427c <prvResetNextTaskUnblockTime>
 800568e:	4b13      	ldr	r3, [pc, #76]	; (80056dc <monitorKick+0xa8>)
 8005690:	6ae2      	ldr	r2, [r4, #44]	; 0x2c
 8005692:	681b      	ldr	r3, [r3, #0]
 8005694:	6adb      	ldr	r3, [r3, #44]	; 0x2c
 8005696:	429a      	cmp	r2, r3
 8005698:	d914      	bls.n	80056c4 <monitorKick+0x90>
 800569a:	4b11      	ldr	r3, [pc, #68]	; (80056e0 <monitorKick+0xac>)
 800569c:	4a11      	ldr	r2, [pc, #68]	; (80056e4 <monitorKick+0xb0>)
 800569e:	6819      	ldr	r1, [r3, #0]
 80056a0:	6011      	str	r1, [r2, #0]
 80056a2:	4a11      	ldr	r2, [pc, #68]	; (80056e8 <monitorKick+0xb4>)
 80056a4:	6812      	ldr	r2, [r2, #0]
 80056a6:	b12a      	cbz	r2, 80056b4 <monitorKick+0x80>
 80056a8:	681a      	ldr	r2, [r3, #0]
 80056aa:	f422 027f 	bic.w	r2, r2, #16711680	; 0xff0000
 80056ae:	601a      	str	r2, [r3, #0]
 80056b0:	681a      	ldr	r2, [r3, #0]
 80056b2:	601a      	str	r2, [r3, #0]
 80056b4:	f04f 5280 	mov.w	r2, #268435456	; 0x10000000
 80056b8:	4b0c      	ldr	r3, [pc, #48]	; (80056ec <monitorKick+0xb8>)
 80056ba:	601a      	str	r2, [r3, #0]
 80056bc:	f3bf 8f4f 	dsb	sy
 80056c0:	f3bf 8f6f 	isb	sy
        xTaskNotify(monThreadHandle, 1, eSetValueWithOverwrite);
    }
}
 80056c4:	e8bd 4070 	ldmia.w	sp!, {r4, r5, r6, lr}
 80056c8:	f7fe bd80 	b.w	80041cc <vPortExitCritical>
 80056cc:	bd70      	pop	{r4, r5, r6, pc}
 80056ce:	bf00      	nop
 80056d0:	200011a4 	.word	0x200011a4
 80056d4:	20001374 	.word	0x20001374
 80056d8:	200011b8 	.word	0x200011b8
 80056dc:	200011a8 	.word	0x200011a8
 80056e0:	e000ed20 	.word	0xe000ed20
 80056e4:	2000134c 	.word	0x2000134c
 80056e8:	20001358 	.word	0x20001358
 80056ec:	e000ed04 	.word	0xe000ed04

080056f0 <taskPeriodicMon>:
{
 80056f0:	b507      	push	{r0, r1, r2, lr}
        MonitorEntry* entry = monThreadFirst;
 80056f2:	4e0d      	ldr	r6, [pc, #52]	; (8005728 <taskPeriodicMon+0x38>)
        bool workToCome = false;
 80056f4:	2500      	movs	r5, #0
        MonitorEntry* entry = monThreadFirst;
 80056f6:	6834      	ldr	r4, [r6, #0]
        while(entry) {
 80056f8:	b95c      	cbnz	r4, 8005712 <taskPeriodicMon+0x22>
        if(!workToCome) {
 80056fa:	b92d      	cbnz	r5, 8005708 <taskPeriodicMon+0x18>
            xTaskNotifyWait(0, ULONG_MAX, (uint32_t*)&ulInterruptStatus, portMAX_DELAY);
 80056fc:	f04f 32ff 	mov.w	r2, #4294967295	; 0xffffffff
 8005700:	4628      	mov	r0, r5
 8005702:	a901      	add	r1, sp, #4
 8005704:	f7fe ffae 	bl	8004664 <xTaskNotifyWait.constprop.0>
        osalThreadSleepSeconds(10);
 8005708:	f242 7010 	movw	r0, #10000	; 0x2710
 800570c:	f7ff fa2c 	bl	8004b68 <vTaskDelay>
    for(;;) {
 8005710:	e7f0      	b.n	80056f4 <taskPeriodicMon+0x4>
            if(entry->active) {
 8005712:	7c23      	ldrb	r3, [r4, #16]
 8005714:	b12b      	cbz	r3, 8005722 <taskPeriodicMon+0x32>
                if(entry->callback) {
 8005716:	6823      	ldr	r3, [r4, #0]
 8005718:	b11b      	cbz	r3, 8005722 <taskPeriodicMon+0x32>
                    entry->active = entry->callback(entry->param);
 800571a:	6860      	ldr	r0, [r4, #4]
 800571c:	4798      	blx	r3
 800571e:	7420      	strb	r0, [r4, #16]
                    workToCome |= entry->active;
 8005720:	4305      	orrs	r5, r0
            entry = entry->next;
 8005722:	68a4      	ldr	r4, [r4, #8]
 8005724:	e7e8      	b.n	80056f8 <taskPeriodicMon+0x8>
 8005726:	bf00      	nop
 8005728:	200011a0 	.word	0x200011a0

0800572c <i2cSafeResultToString>:
}


const char* i2cSafeResultToString(i2c_result result)
{
    if(result == I2C_BUS_OK) return "OK";
 800572c:	b190      	cbz	r0, 8005754 <i2cSafeResultToString+0x28>
    else if(result == I2C_BUS_TIMEOUT) return "Timeout";
 800572e:	1c42      	adds	r2, r0, #1
 8005730:	d012      	beq.n	8005758 <i2cSafeResultToString+0x2c>
    else if(result == I2C_BUS_RESET) return "Transfer Error";
 8005732:	1c83      	adds	r3, r0, #2
 8005734:	d012      	beq.n	800575c <i2cSafeResultToString+0x30>
    else if(result == I2C_BUS_STUCK_SCL_PULLED_LOW) return "SCL stuck low";
 8005736:	2801      	cmp	r0, #1
 8005738:	d012      	beq.n	8005760 <i2cSafeResultToString+0x34>
    else if(result == I2C_BUS_STUCK_SDA_PULLED_LOW) return "SDA stuck low";
 800573a:	2802      	cmp	r0, #2
 800573c:	d012      	beq.n	8005764 <i2cSafeResultToString+0x38>
    else if(result == I2C_BUS_STUCK_SCL_PULLED_HIGH) return "SCL stuck high";
 800573e:	2803      	cmp	r0, #3
 8005740:	d012      	beq.n	8005768 <i2cSafeResultToString+0x3c>
    else if(result == I2C_BUS_STUCK_SDA_PULLED_HIGH) return "SDA stuck high";
 8005742:	2804      	cmp	r0, #4
 8005744:	d012      	beq.n	800576c <i2cSafeResultToString+0x40>
    else if(result == I2C_BUS_STUCK_SHORTED_TOGETHER) return "SDA/SCL shorted together";
    else return "Unknown";
 8005746:	4b0a      	ldr	r3, [pc, #40]	; (8005770 <i2cSafeResultToString+0x44>)
 8005748:	4a0a      	ldr	r2, [pc, #40]	; (8005774 <i2cSafeResultToString+0x48>)
 800574a:	2805      	cmp	r0, #5
 800574c:	bf0c      	ite	eq
 800574e:	4618      	moveq	r0, r3
 8005750:	4610      	movne	r0, r2
 8005752:	4770      	bx	lr
    if(result == I2C_BUS_OK) return "OK";
 8005754:	4808      	ldr	r0, [pc, #32]	; (8005778 <i2cSafeResultToString+0x4c>)
 8005756:	4770      	bx	lr
    else if(result == I2C_BUS_TIMEOUT) return "Timeout";
 8005758:	4808      	ldr	r0, [pc, #32]	; (800577c <i2cSafeResultToString+0x50>)
 800575a:	4770      	bx	lr
    else if(result == I2C_BUS_RESET) return "Transfer Error";
 800575c:	4808      	ldr	r0, [pc, #32]	; (8005780 <i2cSafeResultToString+0x54>)
 800575e:	4770      	bx	lr
    else if(result == I2C_BUS_STUCK_SCL_PULLED_LOW) return "SCL stuck low";
 8005760:	4808      	ldr	r0, [pc, #32]	; (8005784 <i2cSafeResultToString+0x58>)
 8005762:	4770      	bx	lr
    else if(result == I2C_BUS_STUCK_SDA_PULLED_LOW) return "SDA stuck low";
 8005764:	4808      	ldr	r0, [pc, #32]	; (8005788 <i2cSafeResultToString+0x5c>)
 8005766:	4770      	bx	lr
    else if(result == I2C_BUS_STUCK_SCL_PULLED_HIGH) return "SCL stuck high";
 8005768:	4808      	ldr	r0, [pc, #32]	; (800578c <i2cSafeResultToString+0x60>)
 800576a:	4770      	bx	lr
    else if(result == I2C_BUS_STUCK_SDA_PULLED_HIGH) return "SDA stuck high";
 800576c:	4808      	ldr	r0, [pc, #32]	; (8005790 <i2cSafeResultToString+0x64>)
}
 800576e:	4770      	bx	lr
 8005770:	0800b884 	.word	0x0800b884
 8005774:	0800b8e2 	.word	0x0800b8e2
 8005778:	0800b89d 	.word	0x0800b89d
 800577c:	0800b8a0 	.word	0x0800b8a0
 8005780:	0800b8a8 	.word	0x0800b8a8
 8005784:	0800b8b7 	.word	0x0800b8b7
 8005788:	0800b8d4 	.word	0x0800b8d4
 800578c:	0800b8c5 	.word	0x0800b8c5
 8005790:	0800b875 	.word	0x0800b875

08005794 <i2cSafeDataGoLow>:
{
 8005794:	b510      	push	{r4, lr}
 8005796:	4604      	mov	r4, r0
    gpioSetPin(config->sdaPin, level);
 8005798:	6fc3      	ldr	r3, [r0, #124]	; 0x7c
 800579a:	2100      	movs	r1, #0
 800579c:	89d8      	ldrh	r0, [r3, #14]
 800579e:	f7ff ff15 	bl	80055cc <gpioSetPin>
    vPortBusyDelay(i2cSafe_CYCLE_DELAY);
 80057a2:	f44f 70c8 	mov.w	r0, #400	; 0x190
 80057a6:	f7fe fc95 	bl	80040d4 <vPortBusyDelay>
    return gpioGetPin(config->sdaPin);
 80057aa:	6fe3      	ldr	r3, [r4, #124]	; 0x7c
 80057ac:	89d8      	ldrh	r0, [r3, #14]
 80057ae:	f7ff fefb 	bl	80055a8 <gpioGetPin>
    if(i2cSafeRawGetData(i2c)) {
 80057b2:	2800      	cmp	r0, #0
}
 80057b4:	bf14      	ite	ne
 80057b6:	2004      	movne	r0, #4
 80057b8:	2000      	moveq	r0, #0
 80057ba:	bd10      	pop	{r4, pc}

080057bc <i2cSafeDataGoHigh>:
{
 80057bc:	b510      	push	{r4, lr}
 80057be:	4604      	mov	r4, r0
    gpioSetPin(config->sdaPin, level);
 80057c0:	6fc3      	ldr	r3, [r0, #124]	; 0x7c
 80057c2:	2101      	movs	r1, #1
 80057c4:	89d8      	ldrh	r0, [r3, #14]
 80057c6:	f7ff ff01 	bl	80055cc <gpioSetPin>
    vPortBusyDelay(i2cSafe_CYCLE_DELAY);
 80057ca:	f44f 70c8 	mov.w	r0, #400	; 0x190
 80057ce:	f7fe fc81 	bl	80040d4 <vPortBusyDelay>
    return gpioGetPin(config->sdaPin);
 80057d2:	6fe3      	ldr	r3, [r4, #124]	; 0x7c
 80057d4:	89d8      	ldrh	r0, [r3, #14]
 80057d6:	f7ff fee7 	bl	80055a8 <gpioGetPin>
    if(!i2cSafeRawGetData(i2c)) {
 80057da:	2800      	cmp	r0, #0
}
 80057dc:	bf0c      	ite	eq
 80057de:	2002      	moveq	r0, #2
 80057e0:	2000      	movne	r0, #0
 80057e2:	bd10      	pop	{r4, pc}

080057e4 <i2cSafeClockGoLow>:
{
 80057e4:	b510      	push	{r4, lr}
 80057e6:	4604      	mov	r4, r0
    gpioSetPin(config->sclPin, level);
 80057e8:	6fc3      	ldr	r3, [r0, #124]	; 0x7c
 80057ea:	2100      	movs	r1, #0
 80057ec:	8998      	ldrh	r0, [r3, #12]
 80057ee:	f7ff feed 	bl	80055cc <gpioSetPin>
    vPortBusyDelay(i2cSafe_CYCLE_DELAY);
 80057f2:	f44f 70c8 	mov.w	r0, #400	; 0x190
 80057f6:	f7fe fc6d 	bl	80040d4 <vPortBusyDelay>
    return gpioGetPin(config->sclPin);
 80057fa:	6fe3      	ldr	r3, [r4, #124]	; 0x7c
 80057fc:	8998      	ldrh	r0, [r3, #12]
 80057fe:	f7ff fed3 	bl	80055a8 <gpioGetPin>
    if(i2cSafeRawGetClock(i2c)) {
 8005802:	2800      	cmp	r0, #0
}
 8005804:	bf14      	ite	ne
 8005806:	2003      	movne	r0, #3
 8005808:	2000      	moveq	r0, #0
 800580a:	bd10      	pop	{r4, pc}

0800580c <i2cSafeClockGoHigh>:
{
 800580c:	b538      	push	{r3, r4, r5, lr}
    gpioSetPin(config->sclPin, level);
 800580e:	6fc3      	ldr	r3, [r0, #124]	; 0x7c
 8005810:	2101      	movs	r1, #1
{
 8005812:	4605      	mov	r5, r0
    gpioSetPin(config->sclPin, level);
 8005814:	8998      	ldrh	r0, [r3, #12]
 8005816:	f7ff fed9 	bl	80055cc <gpioSetPin>
    vPortBusyDelay(i2cSafe_CYCLE_DELAY);
 800581a:	f44f 70c8 	mov.w	r0, #400	; 0x190
 800581e:	f7fe fc59 	bl	80040d4 <vPortBusyDelay>
 8005822:	2406      	movs	r4, #6
    return gpioGetPin(config->sclPin);
 8005824:	6feb      	ldr	r3, [r5, #124]	; 0x7c
 8005826:	8998      	ldrh	r0, [r3, #12]
 8005828:	f7ff febe 	bl	80055a8 <gpioGetPin>
    for(j=5; !i2cSafeRawGetClock(i2c); j--) {
 800582c:	b108      	cbz	r0, 8005832 <i2cSafeClockGoHigh+0x26>
    return I2C_BUS_OK;
 800582e:	2000      	movs	r0, #0
}
 8005830:	bd38      	pop	{r3, r4, r5, pc}
        osalThreadSleepMilliseconds(1);
 8005832:	2001      	movs	r0, #1
 8005834:	3c01      	subs	r4, #1
 8005836:	f7ff f997 	bl	8004b68 <vTaskDelay>
        if(j == 0) {
 800583a:	f014 04ff 	ands.w	r4, r4, #255	; 0xff
 800583e:	d1f1      	bne.n	8005824 <i2cSafeClockGoHigh+0x18>
            return I2C_BUS_STUCK_SCL_PULLED_LOW;
 8005840:	2001      	movs	r0, #1
 8005842:	e7f5      	b.n	8005830 <i2cSafeClockGoHigh+0x24>

08005844 <osalSysUnlock.lto_priv.0>:
static inline void osalSysUnlock(void){
 8005844:	b508      	push	{r3, lr}
}
/*-----------------------------------------------------------*/

portFORCE_INLINE static BaseType_t xPortIsCriticalSection( void ){
uint32_t ulBasePri;
	__asm volatile( "mrs %0, basepri" : "=r"( ulBasePri ) );
 8005846:	f3ef 8311 	mrs	r3, BASEPRI
	
	return (ulBasePri > 0)? pdTRUE : pdFALSE;
 800584a:	b12b      	cbz	r3, 8005858 <osalSysUnlock.lto_priv.0+0x14>
	__asm volatile( "mrs %0, ipsr" : "=r"( ulCurrentInterrupt ) );
 800584c:	f3ef 8205 	mrs	r2, IPSR
	if( ulCurrentInterrupt == 0 )
 8005850:	b12a      	cbz	r2, 800585e <osalSysUnlock.lto_priv.0+0x1a>
    osalDbgCheckClassS();
 8005852:	f7fe fd75 	bl	8004340 <vTaskEndScheduler>
 8005856:	e7fe      	b.n	8005856 <osalSysUnlock.lto_priv.0+0x12>
 8005858:	f7fe fd72 	bl	8004340 <vTaskEndScheduler>
 800585c:	e7fe      	b.n	800585c <osalSysUnlock.lto_priv.0+0x18>
 800585e:	4b0e      	ldr	r3, [pc, #56]	; (8005898 <osalSysUnlock.lto_priv.0+0x54>)
 8005860:	6819      	ldr	r1, [r3, #0]
 8005862:	601a      	str	r2, [r3, #0]
    if(uxYieldPending()) taskYIELD();
 8005864:	b1a1      	cbz	r1, 8005890 <osalSysUnlock.lto_priv.0+0x4c>
 8005866:	4b0d      	ldr	r3, [pc, #52]	; (800589c <osalSysUnlock.lto_priv.0+0x58>)
 8005868:	4a0d      	ldr	r2, [pc, #52]	; (80058a0 <osalSysUnlock.lto_priv.0+0x5c>)
 800586a:	6819      	ldr	r1, [r3, #0]
 800586c:	6011      	str	r1, [r2, #0]
 800586e:	4a0d      	ldr	r2, [pc, #52]	; (80058a4 <osalSysUnlock.lto_priv.0+0x60>)
 8005870:	6812      	ldr	r2, [r2, #0]
 8005872:	b12a      	cbz	r2, 8005880 <osalSysUnlock.lto_priv.0+0x3c>
 8005874:	681a      	ldr	r2, [r3, #0]
 8005876:	f422 027f 	bic.w	r2, r2, #16711680	; 0xff0000
 800587a:	601a      	str	r2, [r3, #0]
 800587c:	681a      	ldr	r2, [r3, #0]
 800587e:	601a      	str	r2, [r3, #0]
 8005880:	f04f 5280 	mov.w	r2, #268435456	; 0x10000000
 8005884:	4b08      	ldr	r3, [pc, #32]	; (80058a8 <osalSysUnlock.lto_priv.0+0x64>)
 8005886:	601a      	str	r2, [r3, #0]
 8005888:	f3bf 8f4f 	dsb	sy
 800588c:	f3bf 8f6f 	isb	sy
}
 8005890:	e8bd 4008 	ldmia.w	sp!, {r3, lr}
    taskEXIT_CRITICAL();
 8005894:	f7fe bc9a 	b.w	80041cc <vPortExitCritical>
 8005898:	2000164c 	.word	0x2000164c
 800589c:	e000ed20 	.word	0xe000ed20
 80058a0:	2000134c 	.word	0x2000134c
 80058a4:	20001358 	.word	0x20001358
 80058a8:	e000ed04 	.word	0xe000ed04

080058ac <i2cSafeRawHardwareControl>:
{
 80058ac:	e92d 41f0 	stmdb	sp!, {r4, r5, r6, r7, r8, lr}
    i2cSafeConfig* config = (i2cSafeConfig*)i2c->i2cSafeConfig;
 80058b0:	6fc5      	ldr	r5, [r0, #124]	; 0x7c
{
 80058b2:	4604      	mov	r4, r0
 *
 * @api
 */
void i2cStart(I2CDriver *i2cp, const I2CConfig *config) {

  osalDbgCheck((i2cp != NULL) && (config != NULL));
 80058b4:	b915      	cbnz	r5, 80058bc <i2cSafeRawHardwareControl+0x10>
 80058b6:	f7fe fd43 	bl	8004340 <vTaskEndScheduler>
 80058ba:	e7fe      	b.n	80058ba <i2cSafeRawHardwareControl+0xe>
  osalDbgAssert((i2cp->state == I2C_STOP) || (i2cp->state == I2C_READY) ||
 80058bc:	7803      	ldrb	r3, [r0, #0]
 80058be:	1e5a      	subs	r2, r3, #1
 80058c0:	2a01      	cmp	r2, #1
 80058c2:	d904      	bls.n	80058ce <i2cSafeRawHardwareControl+0x22>
 80058c4:	2b05      	cmp	r3, #5
 80058c6:	d002      	beq.n	80058ce <i2cSafeRawHardwareControl+0x22>
 80058c8:	f7fe fd3a 	bl	8004340 <vTaskEndScheduler>
 80058cc:	e7fe      	b.n	80058cc <i2cSafeRawHardwareControl+0x20>
                (i2cp->state == I2C_LOCKED), "invalid state");

  osalSysLock();
 80058ce:	f7fe fc89 	bl	80041e4 <vPortEnterCritical>
 */
void i2c_lld_start(I2CDriver *i2cp) {
  I2C_TypeDef *dp = i2cp->i2c;

  /* If in stopped state then enables the I2C and DMA clocks.*/
  if (i2cp->state == I2C_STOP) {
 80058d2:	f894 8000 	ldrb.w	r8, [r4]
  I2C_TypeDef *dp = i2cp->i2c;
 80058d6:	6fa6      	ldr	r6, [r4, #120]	; 0x78
  if (i2cp->state == I2C_STOP) {
 80058d8:	f1b8 0f01 	cmp.w	r8, #1
  i2cp->config = config;
 80058dc:	6065      	str	r5, [r4, #4]
 80058de:	d13a      	bne.n	8005956 <i2cSafeRawHardwareControl+0xaa>

    i2cp->txdmamode = STM32_DMA_CR_PSIZE_BYTE | STM32_DMA_CR_MSIZE_BYTE |
                      STM32_DMA_CR_MINC       | STM32_DMA_CR_DMEIE |
                      STM32_DMA_CR_TEIE       | STM32_DMA_CR_TCIE |
                      STM32_DMA_CR_DIR_M2P;
    i2cp->rxdmamode = STM32_DMA_CR_PSIZE_BYTE | STM32_DMA_CR_MSIZE_BYTE |
 80058e0:	238a      	movs	r3, #138	; 0x8a
 80058e2:	229a      	movs	r2, #154	; 0x9a
 80058e4:	e9c4 321a 	strd	r3, r2, [r4, #104]	; 0x68
                      STM32_DMA_CR_MINC       | STM32_DMA_CR_DMEIE |
                      STM32_DMA_CR_TEIE       | STM32_DMA_CR_TCIE |
                      STM32_DMA_CR_DIR_P2M;

#if STM32_I2C_USE_I2C1
    if (&I2CD1 == i2cp) {
 80058e8:	4b6c      	ldr	r3, [pc, #432]	; (8005a9c <i2cSafeRawHardwareControl+0x1f0>)
 80058ea:	429c      	cmp	r4, r3
 80058ec:	d133      	bne.n	8005956 <i2cSafeRawHardwareControl+0xaa>
      bool b;

      rccResetI2C1();
 80058ee:	4f6c      	ldr	r7, [pc, #432]	; (8005aa0 <i2cSafeRawHardwareControl+0x1f4>)
      b = dmaStreamAllocate(i2cp->dmarx,
 80058f0:	4622      	mov	r2, r4
      rccResetI2C1();
 80058f2:	693b      	ldr	r3, [r7, #16]
      b = dmaStreamAllocate(i2cp->dmarx,
 80058f4:	496b      	ldr	r1, [pc, #428]	; (8005aa4 <i2cSafeRawHardwareControl+0x1f8>)
      rccResetI2C1();
 80058f6:	f443 1300 	orr.w	r3, r3, #2097152	; 0x200000
 80058fa:	613b      	str	r3, [r7, #16]
 80058fc:	2300      	movs	r3, #0
      b = dmaStreamAllocate(i2cp->dmarx,
 80058fe:	6f20      	ldr	r0, [r4, #112]	; 0x70
      rccResetI2C1();
 8005900:	613b      	str	r3, [r7, #16]
      b = dmaStreamAllocate(i2cp->dmarx,
 8005902:	f7fe fd29 	bl	8004358 <dmaStreamAllocate.constprop.0>
                            STM32_I2C_I2C1_IRQ_PRIORITY,
                            (stm32_dmaisr_t)i2c_lld_serve_rx_end_irq,
                            (void *)i2cp);
      osalDbgAssert(!b, "stream already allocated");
 8005906:	b110      	cbz	r0, 800590e <i2cSafeRawHardwareControl+0x62>
 8005908:	f7fe fd1a 	bl	8004340 <vTaskEndScheduler>
 800590c:	e7fe      	b.n	800590c <i2cSafeRawHardwareControl+0x60>
      b = dmaStreamAllocate(i2cp->dmatx,
 800590e:	4622      	mov	r2, r4
 8005910:	4965      	ldr	r1, [pc, #404]	; (8005aa8 <i2cSafeRawHardwareControl+0x1fc>)
 8005912:	6f60      	ldr	r0, [r4, #116]	; 0x74
 8005914:	f7fe fd20 	bl	8004358 <dmaStreamAllocate.constprop.0>
                            STM32_I2C_I2C1_IRQ_PRIORITY,
                            (stm32_dmaisr_t)i2c_lld_serve_tx_end_irq,
                            (void *)i2cp);
      osalDbgAssert(!b, "stream already allocated");
 8005918:	b110      	cbz	r0, 8005920 <i2cSafeRawHardwareControl+0x74>
 800591a:	f7fe fd11 	bl	8004340 <vTaskEndScheduler>
 800591e:	e7fe      	b.n	800591e <i2cSafeRawHardwareControl+0x72>
  NVIC->IP[n] = NVIC_PRIORITY_MASK(prio);
 8005920:	22c0      	movs	r2, #192	; 0xc0
  NVIC->ICPR[n >> 5U] = 1U << (n & 0x1FU);
 8005922:	f04f 4100 	mov.w	r1, #2147483648	; 0x80000000
      rccEnableI2C1(FALSE);
 8005926:	69fb      	ldr	r3, [r7, #28]
 8005928:	f443 1300 	orr.w	r3, r3, #2097152	; 0x200000
 800592c:	61fb      	str	r3, [r7, #28]
  NVIC->IP[n] = NVIC_PRIORITY_MASK(prio);
 800592e:	4b5f      	ldr	r3, [pc, #380]	; (8005aac <i2cSafeRawHardwareControl+0x200>)
 8005930:	f883 231f 	strb.w	r2, [r3, #799]	; 0x31f
  NVIC->ICPR[n >> 5U] = 1U << (n & 0x1FU);
 8005934:	f8c3 1180 	str.w	r1, [r3, #384]	; 0x180
  NVIC->ISER[n >> 5U] = 1U << (n & 0x1FU);
 8005938:	6019      	str	r1, [r3, #0]
  NVIC->IP[n] = NVIC_PRIORITY_MASK(prio);
 800593a:	f883 2320 	strb.w	r2, [r3, #800]	; 0x320
  NVIC->ICPR[n >> 5U] = 1U << (n & 0x1FU);
 800593e:	f8c3 8184 	str.w	r8, [r3, #388]	; 0x184
  NVIC->ISER[n >> 5U] = 1U << (n & 0x1FU);
 8005942:	f8c3 8004 	str.w	r8, [r3, #4]
      nvicEnableVector(I2C1_EV_IRQn, STM32_I2C_I2C1_IRQ_PRIORITY);
      nvicEnableVector(I2C1_ER_IRQn, STM32_I2C_I2C1_IRQ_PRIORITY);

      i2cp->rxdmamode |= STM32_DMA_CR_CHSEL(I2C1_RX_DMA_CHANNEL) |
 8005946:	6ea3      	ldr	r3, [r4, #104]	; 0x68
 8005948:	f443 5340 	orr.w	r3, r3, #12288	; 0x3000
 800594c:	66a3      	str	r3, [r4, #104]	; 0x68
                       STM32_DMA_CR_PL(STM32_I2C_I2C1_DMA_PRIORITY);
      i2cp->txdmamode |= STM32_DMA_CR_CHSEL(I2C1_TX_DMA_CHANNEL) |
 800594e:	6ee3      	ldr	r3, [r4, #108]	; 0x6c
 8005950:	f443 5340 	orr.w	r3, r3, #12288	; 0x3000
 8005954:	66e3      	str	r3, [r4, #108]	; 0x6c
    }
#endif /* STM32_I2C_USE_I2C3 */
  }

  /* I2C registers pointed by the DMA.*/
  dmaStreamSetPeripheral(i2cp->dmarx, &dp->DR);
 8005956:	6f23      	ldr	r3, [r4, #112]	; 0x70
  int32_t clock_speed = i2cp->config->clock_speed;
 8005958:	6867      	ldr	r7, [r4, #4]
  dmaStreamSetPeripheral(i2cp->dmarx, &dp->DR);
 800595a:	685a      	ldr	r2, [r3, #4]
 800595c:	f106 0310 	add.w	r3, r6, #16
 8005960:	6093      	str	r3, [r2, #8]
  dmaStreamSetPeripheral(i2cp->dmatx, &dp->DR);
 8005962:	6f62      	ldr	r2, [r4, #116]	; 0x74
  int32_t clock_speed = i2cp->config->clock_speed;
 8005964:	6879      	ldr	r1, [r7, #4]
  dmaStreamSetPeripheral(i2cp->dmatx, &dp->DR);
 8005966:	6852      	ldr	r2, [r2, #4]
  osalDbgCheck((i2cp != NULL) &&
 8005968:	1e48      	subs	r0, r1, #1
  dmaStreamSetPeripheral(i2cp->dmatx, &dp->DR);
 800596a:	6093      	str	r3, [r2, #8]

  /* Reset i2c peripheral.*/
  dp->CR1 = I2C_CR1_SWRST;
 800596c:	f44f 4300 	mov.w	r3, #32768	; 0x8000
  dp->CR1 = 0;
  dp->CR2 = I2C_CR2_ITERREN | I2C_CR2_DMAEN;
 8005970:	f44f 6210 	mov.w	r2, #2304	; 0x900
  dp->CR1 = I2C_CR1_SWRST;
 8005974:	6033      	str	r3, [r6, #0]
  dp->CR1 = 0;
 8005976:	2300      	movs	r3, #0
 8005978:	6033      	str	r3, [r6, #0]
  dp->CR2 = I2C_CR2_ITERREN | I2C_CR2_DMAEN;
 800597a:	6072      	str	r2, [r6, #4]
  osalDbgCheck((i2cp != NULL) &&
 800597c:	4a4c      	ldr	r2, [pc, #304]	; (8005ab0 <i2cSafeRawHardwareControl+0x204>)
 800597e:	4290      	cmp	r0, r2
 8005980:	d902      	bls.n	8005988 <i2cSafeRawHardwareControl+0xdc>
 8005982:	f7fe fcdd 	bl	8004340 <vTaskEndScheduler>
 8005986:	e7fe      	b.n	8005986 <i2cSafeRawHardwareControl+0xda>
  I2C_TypeDef *dp = i2cp->i2c;
 8005988:	6fa0      	ldr	r0, [r4, #120]	; 0x78
  i2cdutycycle_t duty = i2cp->config->duty_cycle;
 800598a:	7a3a      	ldrb	r2, [r7, #8]
  dp->CR2 &= (uint16_t)~I2C_CR2_FREQ;
 800598c:	f8d0 c004 	ldr.w	ip, [r0, #4]
 8005990:	f02c 0c3f 	bic.w	ip, ip, #63	; 0x3f
 8005994:	ea4f 4c0c 	mov.w	ip, ip, lsl #16
 8005998:	ea4f 4c1c 	mov.w	ip, ip, lsr #16
 800599c:	f8c0 c004 	str.w	ip, [r0, #4]
  dp->CR2 |= (uint16_t)I2C_CLK_FREQ;
 80059a0:	f8d0 c004 	ldr.w	ip, [r0, #4]
 80059a4:	f04c 0c24 	orr.w	ip, ip, #36	; 0x24
 80059a8:	f8c0 c004 	str.w	ip, [r0, #4]
  if (clock_speed <= 100000) {
 80059ac:	f8df c108 	ldr.w	ip, [pc, #264]	; 8005ab8 <i2cSafeRawHardwareControl+0x20c>
 80059b0:	4561      	cmp	r1, ip
 80059b2:	d839      	bhi.n	8005a28 <i2cSafeRawHardwareControl+0x17c>
    osalDbgAssert(duty == STD_DUTY_CYCLE, "invalid standard mode duty cycle");
 80059b4:	2a01      	cmp	r2, #1
 80059b6:	d002      	beq.n	80059be <i2cSafeRawHardwareControl+0x112>
 80059b8:	f7fe fcc2 	bl	8004340 <vTaskEndScheduler>
 80059bc:	e7fe      	b.n	80059bc <i2cSafeRawHardwareControl+0x110>
    osalDbgAssert((STM32_PCLK1 % (clock_speed * 2)) == 0,
 80059be:	4a3d      	ldr	r2, [pc, #244]	; (8005ab4 <i2cSafeRawHardwareControl+0x208>)
 80059c0:	0049      	lsls	r1, r1, #1
 80059c2:	fbb2 f3f1 	udiv	r3, r2, r1
 80059c6:	fb01 2113 	mls	r1, r1, r3, r2
 80059ca:	b111      	cbz	r1, 80059d2 <i2cSafeRawHardwareControl+0x126>
 80059cc:	f7fe fcb8 	bl	8004340 <vTaskEndScheduler>
 80059d0:	e7fe      	b.n	80059d0 <i2cSafeRawHardwareControl+0x124>
    clock_div = (uint16_t)(STM32_PCLK1 / (clock_speed * 2));
 80059d2:	b29b      	uxth	r3, r3
    osalDbgAssert(clock_div >= 0x04,
 80059d4:	2b03      	cmp	r3, #3
 80059d6:	d802      	bhi.n	80059de <i2cSafeRawHardwareControl+0x132>
 80059d8:	f7fe fcb2 	bl	8004340 <vTaskEndScheduler>
 80059dc:	e7fe      	b.n	80059dc <i2cSafeRawHardwareControl+0x130>
    dp->TRISE = I2C_CLK_FREQ + 1;
 80059de:	2225      	movs	r2, #37	; 0x25
  osalDbgAssert((clock_div <= I2C_CCR_CCR), "the selected clock is too low");
 80059e0:	f5b3 5f80 	cmp.w	r3, #4096	; 0x1000
    dp->TRISE = I2C_CLK_FREQ + 1;
 80059e4:	6202      	str	r2, [r0, #32]
  osalDbgAssert((clock_div <= I2C_CCR_CCR), "the selected clock is too low");
 80059e6:	d24d      	bcs.n	8005a84 <i2cSafeRawHardwareControl+0x1d8>
  dp->CCR = regCCR;
 80059e8:	61c3      	str	r3, [r0, #28]
  i2copmode_t opmode = i2cp->config->op_mode;
 80059ea:	783a      	ldrb	r2, [r7, #0]
  regCR1 = dp->CR1;
 80059ec:	6803      	ldr	r3, [r0, #0]
  switch (opmode) {
 80059ee:	2a02      	cmp	r2, #2
  regCR1 = dp->CR1;
 80059f0:	b29b      	uxth	r3, r3
  switch (opmode) {
 80059f2:	d04a      	beq.n	8005a8a <i2cSafeRawHardwareControl+0x1de>
 80059f4:	2a03      	cmp	r2, #3
 80059f6:	d04e      	beq.n	8005a96 <i2cSafeRawHardwareControl+0x1ea>
 80059f8:	2a01      	cmp	r2, #1
 80059fa:	d102      	bne.n	8005a02 <i2cSafeRawHardwareControl+0x156>
    regCR1 &= (uint16_t)~(I2C_CR1_SMBUS|I2C_CR1_SMBTYPE);
 80059fc:	f023 030a 	bic.w	r3, r3, #10
 8005a00:	b29b      	uxth	r3, r3
  dp->CR1 = regCR1;
 8005a02:	6003      	str	r3, [r0, #0]
  /* Setup I2C parameters.*/
  i2c_lld_set_clock(i2cp);
  i2c_lld_set_opmode(i2cp);

  /* Ready to go.*/
  dp->CR1 |= I2C_CR1_PE;
 8005a04:	6833      	ldr	r3, [r6, #0]
 8005a06:	f043 0301 	orr.w	r3, r3, #1
 8005a0a:	6033      	str	r3, [r6, #0]
  i2c_lld_start(i2cp);
  i2cp->state = I2C_READY;
 8005a0c:	2302      	movs	r3, #2
 8005a0e:	7023      	strb	r3, [r4, #0]
  osalSysUnlock();
 8005a10:	f7ff ff18 	bl	8005844 <osalSysUnlock.lto_priv.0>
    gpioSetPinMode(config->sclPin, config->peripheralMode);
 8005a14:	7c29      	ldrb	r1, [r5, #16]
 8005a16:	89a8      	ldrh	r0, [r5, #12]
 8005a18:	f7ff fdba 	bl	8005590 <gpioSetPinMode>
    gpioSetPinMode(config->sdaPin, config->peripheralMode);
 8005a1c:	7c29      	ldrb	r1, [r5, #16]
 8005a1e:	89e8      	ldrh	r0, [r5, #14]
}
 8005a20:	e8bd 41f0 	ldmia.w	sp!, {r4, r5, r6, r7, r8, lr}
    gpioSetPinMode(config->sdaPin, config->peripheralMode);
 8005a24:	f7ff bdb4 	b.w	8005590 <gpioSetPinMode>
  else if (clock_speed <= 400000) {
 8005a28:	f8df c090 	ldr.w	ip, [pc, #144]	; 8005abc <i2cSafeRawHardwareControl+0x210>
 8005a2c:	4561      	cmp	r1, ip
 8005a2e:	dcdb      	bgt.n	80059e8 <i2cSafeRawHardwareControl+0x13c>
    osalDbgAssert((duty == FAST_DUTY_CYCLE_2) ||
 8005a30:	1e93      	subs	r3, r2, #2
 8005a32:	2b01      	cmp	r3, #1
 8005a34:	d902      	bls.n	8005a3c <i2cSafeRawHardwareControl+0x190>
 8005a36:	f7fe fc83 	bl	8004340 <vTaskEndScheduler>
 8005a3a:	e7fe      	b.n	8005a3a <i2cSafeRawHardwareControl+0x18e>
    if (duty == FAST_DUTY_CYCLE_2) {
 8005a3c:	2a02      	cmp	r2, #2
 8005a3e:	4b1d      	ldr	r3, [pc, #116]	; (8005ab4 <i2cSafeRawHardwareControl+0x208>)
 8005a40:	d110      	bne.n	8005a64 <i2cSafeRawHardwareControl+0x1b8>
      osalDbgAssert((STM32_PCLK1 % (clock_speed * 3)) == 0,
 8005a42:	eb01 0141 	add.w	r1, r1, r1, lsl #1
 8005a46:	fbb3 f2f1 	udiv	r2, r3, r1
 8005a4a:	fb01 3312 	mls	r3, r1, r2, r3
 8005a4e:	b113      	cbz	r3, 8005a56 <i2cSafeRawHardwareControl+0x1aa>
 8005a50:	f7fe fc76 	bl	8004340 <vTaskEndScheduler>
 8005a54:	e7fe      	b.n	8005a54 <i2cSafeRawHardwareControl+0x1a8>
      clock_div = (uint16_t)(STM32_PCLK1 / (clock_speed * 3));
 8005a56:	b292      	uxth	r2, r2
    regCCR |= (I2C_CCR_FS | (clock_div & I2C_CCR_CCR));
 8005a58:	4313      	orrs	r3, r2
    dp->TRISE = (I2C_CLK_FREQ * 300 / 1000) + 1;
 8005a5a:	220b      	movs	r2, #11
    regCCR |= (I2C_CCR_FS | (clock_div & I2C_CCR_CCR));
 8005a5c:	f443 4300 	orr.w	r3, r3, #32768	; 0x8000
    dp->TRISE = (I2C_CLK_FREQ * 300 / 1000) + 1;
 8005a60:	6202      	str	r2, [r0, #32]
  osalDbgAssert((clock_div <= I2C_CCR_CCR), "the selected clock is too low");
 8005a62:	e7c1      	b.n	80059e8 <i2cSafeRawHardwareControl+0x13c>
      osalDbgAssert((STM32_PCLK1 % (clock_speed * 25)) == 0,
 8005a64:	f04f 0c19 	mov.w	ip, #25
 8005a68:	fb0c f101 	mul.w	r1, ip, r1
 8005a6c:	fbb3 f2f1 	udiv	r2, r3, r1
 8005a70:	fb01 3112 	mls	r1, r1, r2, r3
 8005a74:	b111      	cbz	r1, 8005a7c <i2cSafeRawHardwareControl+0x1d0>
 8005a76:	f7fe fc63 	bl	8004340 <vTaskEndScheduler>
 8005a7a:	e7fe      	b.n	8005a7a <i2cSafeRawHardwareControl+0x1ce>
      regCCR |= I2C_CCR_DUTY;
 8005a7c:	f44f 4380 	mov.w	r3, #16384	; 0x4000
      clock_div = (uint16_t)(STM32_PCLK1 / (clock_speed * 25));
 8005a80:	b292      	uxth	r2, r2
      regCCR |= I2C_CCR_DUTY;
 8005a82:	e7e9      	b.n	8005a58 <i2cSafeRawHardwareControl+0x1ac>
  osalDbgAssert((clock_div <= I2C_CCR_CCR), "the selected clock is too low");
 8005a84:	f7fe fc5c 	bl	8004340 <vTaskEndScheduler>
 8005a88:	e7fe      	b.n	8005a88 <i2cSafeRawHardwareControl+0x1dc>
    regCR1 &= (uint16_t)~(I2C_CR1_SMBTYPE);
 8005a8a:	f023 0308 	bic.w	r3, r3, #8
 8005a8e:	b29b      	uxth	r3, r3
 8005a90:	f043 0302 	orr.w	r3, r3, #2
    break;
 8005a94:	e7b5      	b.n	8005a02 <i2cSafeRawHardwareControl+0x156>
    regCR1 |= (I2C_CR1_SMBUS|I2C_CR1_SMBTYPE);
 8005a96:	f043 030a 	orr.w	r3, r3, #10
    break;
 8005a9a:	e7b2      	b.n	8005a02 <i2cSafeRawHardwareControl+0x156>
 8005a9c:	20000934 	.word	0x20000934
 8005aa0:	40021000 	.word	0x40021000
 8005aa4:	080065ef 	.word	0x080065ef
 8005aa8:	080065a3 	.word	0x080065a3
 8005aac:	e000e100 	.word	0xe000e100
 8005ab0:	003d08ff 	.word	0x003d08ff
 8005ab4:	02255100 	.word	0x02255100
 8005ab8:	000186a0 	.word	0x000186a0
 8005abc:	00061a80 	.word	0x00061a80

08005ac0 <sofNeededCallback>:
static void sofNeededCallback(USBDriver *usbp, bool enable)
{
    (void) usbp;
    static bool sofEnabled = true;

    if(!allowDisableSOF && !enable) return;
 8005ac0:	4b0c      	ldr	r3, [pc, #48]	; (8005af4 <sofNeededCallback+0x34>)
{
 8005ac2:	b510      	push	{r4, lr}
    if(!allowDisableSOF && !enable) return;
 8005ac4:	781b      	ldrb	r3, [r3, #0]
 8005ac6:	b903      	cbnz	r3, 8005aca <sofNeededCallback+0xa>
 8005ac8:	b199      	cbz	r1, 8005af2 <sofNeededCallback+0x32>
    if(sofEnabled == enable) return;
 8005aca:	4c0b      	ldr	r4, [pc, #44]	; (8005af8 <sofNeededCallback+0x38>)
 8005acc:	7822      	ldrb	r2, [r4, #0]
 8005ace:	428a      	cmp	r2, r1
 8005ad0:	d00f      	beq.n	8005af2 <sofNeededCallback+0x32>

    syssts_t basepri = osalSysGetStatusAndLockX();
 8005ad2:	f7fe fb69 	bl	80041a8 <ulPortEnterCriticalFromISR>

    if(enable) {
 8005ad6:	4b09      	ldr	r3, [pc, #36]	; (8005afc <sofNeededCallback+0x3c>)
        STM32_USB->CNTR |= CNTR_SOFM;
 8005ad8:	6c1a      	ldr	r2, [r3, #64]	; 0x40
    if(enable) {
 8005ada:	b139      	cbz	r1, 8005aec <sofNeededCallback+0x2c>
        STM32_USB->CNTR |= CNTR_SOFM;
 8005adc:	f442 7200 	orr.w	r2, r2, #512	; 0x200
    } else {
        STM32_USB->CNTR &=~ CNTR_SOFM;
 8005ae0:	641a      	str	r2, [r3, #64]	; 0x40
    }

    sofEnabled = enable;
 8005ae2:	7021      	strb	r1, [r4, #0]

    osalSysRestoreStatusX(basepri);
}
 8005ae4:	e8bd 4010 	ldmia.w	sp!, {r4, lr}
    osalSysRestoreStatusX(basepri);
 8005ae8:	f7fe bb52 	b.w	8004190 <vPortExitCriticalFromISR>
        STM32_USB->CNTR &=~ CNTR_SOFM;
 8005aec:	f422 7200 	bic.w	r2, r2, #512	; 0x200
 8005af0:	e7f6      	b.n	8005ae0 <sofNeededCallback+0x20>
}
 8005af2:	bd10      	pop	{r4, pc}
 8005af4:	20000800 	.word	0x20000800
 8005af8:	20000911 	.word	0x20000911
 8005afc:	40005c00 	.word	0x40005c00

08005b00 <get_descriptor>:
    switch (dtype) {
 8005b00:	2902      	cmp	r1, #2
{
 8005b02:	4613      	mov	r3, r2
 8005b04:	b570      	push	{r4, r5, r6, lr}
    switch (dtype) {
 8005b06:	d053      	beq.n	8005bb0 <get_descriptor+0xb0>
 8005b08:	2903      	cmp	r1, #3
 8005b0a:	d004      	beq.n	8005b16 <get_descriptor+0x16>
            return &vcom_device_descriptor;
 8005b0c:	2901      	cmp	r1, #1
 8005b0e:	482a      	ldr	r0, [pc, #168]	; (8005bb8 <get_descriptor+0xb8>)
 8005b10:	bf18      	it	ne
 8005b12:	2000      	movne	r0, #0
}
 8005b14:	bd70      	pop	{r4, r5, r6, pc}
            if (dindex < 3)
 8005b16:	2a02      	cmp	r2, #2
 8005b18:	d803      	bhi.n	8005b22 <get_descriptor+0x22>
                return &vcom_strings[dindex];
 8005b1a:	4828      	ldr	r0, [pc, #160]	; (8005bbc <get_descriptor+0xbc>)
 8005b1c:	eb00 00c2 	add.w	r0, r0, r2, lsl #3
 8005b20:	e7f8      	b.n	8005b14 <get_descriptor+0x14>
            if (dindex == 3) {
 8005b22:	2a03      	cmp	r2, #3
 8005b24:	d146      	bne.n	8005bb4 <get_descriptor+0xb4>
    if(serialString[0]) {
 8005b26:	4926      	ldr	r1, [pc, #152]	; (8005bc0 <get_descriptor+0xc0>)
 8005b28:	780a      	ldrb	r2, [r1, #0]
 8005b2a:	b10a      	cbz	r2, 8005b30 <get_descriptor+0x30>
                return &vcom_strings[dindex];
 8005b2c:	4825      	ldr	r0, [pc, #148]	; (8005bc4 <get_descriptor+0xc4>)
 8005b2e:	e7f1      	b.n	8005b14 <get_descriptor+0x14>
    serialString[0] = USB_DESC_BYTE(sizeof(serialString));
 8005b30:	2084      	movs	r0, #132	; 0x84
    serialString[1] = USB_DESC_BYTE(USB_DESCRIPTOR_STRING);
 8005b32:	460c      	mov	r4, r1
    serialString[0] = USB_DESC_BYTE(sizeof(serialString));
 8005b34:	7008      	strb	r0, [r1, #0]
        serialString[3+i]=0;
 8005b36:	4616      	mov	r6, r2
 8005b38:	4608      	mov	r0, r1
    serialString[1] = USB_DESC_BYTE(USB_DESCRIPTOR_STRING);
 8005b3a:	704b      	strb	r3, [r1, #1]
        serialString[2+i]=hexNibble((idReg[i>>2] >> (4*((i>>1)%2))) & 0xF);
 8005b3c:	0893      	lsrs	r3, r2, #2
 8005b3e:	f103 5300 	add.w	r3, r3, #536870912	; 0x20000000
 8005b42:	f6a3 0318 	subw	r3, r3, #2072	; 0x818
 8005b46:	781b      	ldrb	r3, [r3, #0]
 8005b48:	f3c2 0540 	ubfx	r5, r2, #1, #1
 8005b4c:	00ad      	lsls	r5, r5, #2
 8005b4e:	412b      	asrs	r3, r5
 8005b50:	f003 030f 	and.w	r3, r3, #15
}

char hexNibble(unsigned char a)
{
    a&=0xF;
    if(a<10) {
 8005b54:	2b09      	cmp	r3, #9
 8005b56:	f102 0202 	add.w	r2, r2, #2
        return '0'+a;
 8005b5a:	bf94      	ite	ls
 8005b5c:	3330      	addls	r3, #48	; 0x30
    } else {
        return 'a'+a-10;
 8005b5e:	3357      	addhi	r3, #87	; 0x57
    for(i=0; i<48; i+=2) {
 8005b60:	2a30      	cmp	r2, #48	; 0x30
        serialString[2+i]=hexNibble((idReg[i>>2] >> (4*((i>>1)%2))) & 0xF);
 8005b62:	70a3      	strb	r3, [r4, #2]
        serialString[3+i]=0;
 8005b64:	70e6      	strb	r6, [r4, #3]
    for(i=0; i<48; i+=2) {
 8005b66:	f104 0402 	add.w	r4, r4, #2
 8005b6a:	d1e7      	bne.n	8005b3c <get_descriptor+0x3c>
    serialString[50]='-';
 8005b6c:	232d      	movs	r3, #45	; 0x2d
    serialString[51]=0;
 8005b6e:	f881 6033 	strb.w	r6, [r1, #51]	; 0x33
    serialString[50]='-';
 8005b72:	f881 3032 	strb.w	r3, [r1, #50]	; 0x32
        serialString[53+i]=0;
 8005b76:	2400      	movs	r4, #0
    serialString[51]=0;
 8005b78:	2114      	movs	r1, #20
 8005b7a:	4d13      	ldr	r5, [pc, #76]	; (8005bc8 <get_descriptor+0xc8>)
        serialString[52+i]=hexNibble(*buildId >> 4);
 8005b7c:	f815 3f01 	ldrb.w	r3, [r5, #1]!
        serialString[53+i]=0;
 8005b80:	f880 4035 	strb.w	r4, [r0, #53]	; 0x35
        serialString[52+i]=hexNibble(*buildId >> 4);
 8005b84:	091a      	lsrs	r2, r3, #4
    if(a<10) {
 8005b86:	2b9f      	cmp	r3, #159	; 0x9f
        serialString[54+i]=hexNibble(*buildId & 0xF);
 8005b88:	f003 030f 	and.w	r3, r3, #15
        return '0'+a;
 8005b8c:	bf94      	ite	ls
 8005b8e:	3230      	addls	r2, #48	; 0x30
        return 'a'+a-10;
 8005b90:	3257      	addhi	r2, #87	; 0x57
    if(a<10) {
 8005b92:	2b09      	cmp	r3, #9
        return '0'+a;
 8005b94:	bf94      	ite	ls
 8005b96:	3330      	addls	r3, #48	; 0x30
        return 'a'+a-10;
 8005b98:	3357      	addhi	r3, #87	; 0x57
    for(i=0; i<80; i+=4) {
 8005b9a:	3901      	subs	r1, #1
        serialString[52+i]=hexNibble(*buildId >> 4);
 8005b9c:	f880 2034 	strb.w	r2, [r0, #52]	; 0x34
        serialString[54+i]=hexNibble(*buildId & 0xF);
 8005ba0:	f880 3036 	strb.w	r3, [r0, #54]	; 0x36
        serialString[55+i]=0;
 8005ba4:	f880 4037 	strb.w	r4, [r0, #55]	; 0x37
    for(i=0; i<80; i+=4) {
 8005ba8:	f100 0004 	add.w	r0, r0, #4
 8005bac:	d1e6      	bne.n	8005b7c <get_descriptor+0x7c>
 8005bae:	e7bd      	b.n	8005b2c <get_descriptor+0x2c>
    switch (dtype) {
 8005bb0:	4806      	ldr	r0, [pc, #24]	; (8005bcc <get_descriptor+0xcc>)
 8005bb2:	e7af      	b.n	8005b14 <get_descriptor+0x14>
    return NULL;
 8005bb4:	2000      	movs	r0, #0
 8005bb6:	e7ad      	b.n	8005b14 <get_descriptor+0x14>
 8005bb8:	0800ca58 	.word	0x0800ca58
 8005bbc:	0800cb08 	.word	0x0800cb08
 8005bc0:	20001231 	.word	0x20001231
 8005bc4:	0800cb20 	.word	0x0800cb20
 8005bc8:	0800cb93 	.word	0x0800cb93
 8005bcc:	0800ca0c 	.word	0x0800ca0c

08005bd0 <osalSysUnlockFromISR.lto_priv.0>:
    taskEXIT_CRITICAL_FROM_ISR(uxSavedInterruptStatus);
 8005bd0:	4b01      	ldr	r3, [pc, #4]	; (8005bd8 <osalSysUnlockFromISR.lto_priv.0+0x8>)
 8005bd2:	6818      	ldr	r0, [r3, #0]
 8005bd4:	f7fe badc 	b.w	8004190 <vPortExitCriticalFromISR>
 8005bd8:	20001368 	.word	0x20001368

08005bdc <osalSysLockFromISR.lto_priv.0>:
{
 8005bdc:	b508      	push	{r3, lr}
    uxSavedInterruptStatus = taskENTER_CRITICAL_FROM_ISR();
 8005bde:	f7fe fae3 	bl	80041a8 <ulPortEnterCriticalFromISR>
 8005be2:	4b01      	ldr	r3, [pc, #4]	; (8005be8 <osalSysLockFromISR.lto_priv.0+0xc>)
 8005be4:	6018      	str	r0, [r3, #0]
}
 8005be6:	bd08      	pop	{r3, pc}
 8005be8:	20001368 	.word	0x20001368

08005bec <runInThreadBody>:
{
 8005bec:	b508      	push	{r3, lr}
    func();
 8005bee:	4780      	blx	r0
}
 8005bf0:	e8bd 4008 	ldmia.w	sp!, {r3, lr}
    vTaskDelete(NULL);
 8005bf4:	f7ff baa8 	b.w	8005148 <vTaskDelete.constprop.0>

08005bf8 <notify3>:

#if STM32_SERIAL_USE_USART3 || defined(__DOXYGEN__)
static void notify3(io_queue_t *qp) {

  (void)qp;
  USART3->CR1 |= USART_CR1_TXEIE;
 8005bf8:	4a02      	ldr	r2, [pc, #8]	; (8005c04 <notify3+0xc>)
 8005bfa:	68d3      	ldr	r3, [r2, #12]
 8005bfc:	f043 0380 	orr.w	r3, r3, #128	; 0x80
 8005c00:	60d3      	str	r3, [r2, #12]
}
 8005c02:	4770      	bx	lr
 8005c04:	40004800 	.word	0x40004800

08005c08 <systemEnableMCO>:
}


void systemEnableMCO(bool enable)
{
    if(enable) {
 8005c08:	4b04      	ldr	r3, [pc, #16]	; (8005c1c <systemEnableMCO+0x14>)
        RCC->CFGR |= STM32_MCOSEL_SYSCLK;
 8005c0a:	685a      	ldr	r2, [r3, #4]
    if(enable) {
 8005c0c:	b118      	cbz	r0, 8005c16 <systemEnableMCO+0xe>
        RCC->CFGR |= STM32_MCOSEL_SYSCLK;
 8005c0e:	f042 6280 	orr.w	r2, r2, #67108864	; 0x4000000
    } else {
        RCC->CFGR &=~ STM32_MCOSEL_SYSCLK;
 8005c12:	605a      	str	r2, [r3, #4]
    }
}
 8005c14:	4770      	bx	lr
        RCC->CFGR &=~ STM32_MCOSEL_SYSCLK;
 8005c16:	f022 6280 	bic.w	r2, r2, #67108864	; 0x4000000
 8005c1a:	e7fa      	b.n	8005c12 <systemEnableMCO+0xa>
 8005c1c:	40021000 	.word	0x40021000

08005c20 <converterSetGpio>:
{
 8005c20:	b570      	push	{r4, r5, r6, lr}
    gpioValues |= bandSpecificGpioSettings[converter->activeBand];
 8005c22:	4b34      	ldr	r3, [pc, #208]	; (8005cf4 <converterSetGpio+0xd4>)
 8005c24:	7e02      	ldrb	r2, [r0, #24]
    const GPIOPort* port = gpioGetPortDriver(gpioPort);
 8005c26:	2003      	movs	r0, #3
 8005c28:	f853 4022 	ldr.w	r4, [r3, r2, lsl #2]
 8005c2c:	430c      	orrs	r4, r1
 8005c2e:	f7ff fc97 	bl	8005560 <gpioGetPortDriver>
    return port->functions->setValue(port, ~0, value);
 8005c32:	6883      	ldr	r3, [r0, #8]
 8005c34:	b2e2      	uxtb	r2, r4
 8005c36:	689b      	ldr	r3, [r3, #8]
 8005c38:	f04f 31ff 	mov.w	r1, #4294967295	; 0xffffffff
 8005c3c:	4798      	blx	r3
    gpioSetPin(GPIO_MIX_SW_EN, (gpioValues & _BV(CONVERTER_IO_PIN_MIX_SW_EN)) == 0);
 8005c3e:	f484 7180 	eor.w	r1, r4, #256	; 0x100
 8005c42:	f3c1 2100 	ubfx	r1, r1, #8, #1
 8005c46:	f44f 7084 	mov.w	r0, #264	; 0x108
 8005c4a:	f7ff fcbf 	bl	80055cc <gpioSetPin>
    systemEnableMCO((gpioValues & _BV(CONVERTER_IO_PIN_MIX_SW_LO)) > 0);
 8005c4e:	f3c4 2040 	ubfx	r0, r4, #9, #1
 8005c52:	f7ff ffd9 	bl	8005c08 <systemEnableMCO>
    mixBlinkDelay += (gpioValues & _BV(CONVERTER_IO_PIN_LED1))? 100:0;
 8005c56:	f414 6180 	ands.w	r1, r4, #1024	; 0x400
 8005c5a:	bf18      	it	ne
 8005c5c:	2164      	movne	r1, #100	; 0x64
    mixBlinkDelay += (gpioValues & _BV(CONVERTER_IO_PIN_LED2))? 200:0;
 8005c5e:	f414 6400 	ands.w	r4, r4, #2048	; 0x800
 8005c62:	bf18      	it	ne
 8005c64:	24c8      	movne	r4, #200	; 0xc8
    mixLedDelay = mixBlinkDelay;
 8005c66:	4b24      	ldr	r3, [pc, #144]	; (8005cf8 <converterSetGpio+0xd8>)
    mixBlinkDelay += (gpioValues & _BV(CONVERTER_IO_PIN_LED2))? 200:0;
 8005c68:	440c      	add	r4, r1
    mixLedDelay = mixBlinkDelay;
 8005c6a:	601c      	str	r4, [r3, #0]
    vTaskResume(mixLedTaskHandle);
 8005c6c:	4b23      	ldr	r3, [pc, #140]	; (8005cfc <converterSetGpio+0xdc>)
 8005c6e:	681c      	ldr	r4, [r3, #0]
 8005c70:	b904      	cbnz	r4, 8005c74 <converterSetGpio+0x54>
 8005c72:	e7fe      	b.n	8005c72 <converterSetGpio+0x52>
 8005c74:	4d22      	ldr	r5, [pc, #136]	; (8005d00 <converterSetGpio+0xe0>)
 8005c76:	682b      	ldr	r3, [r5, #0]
 8005c78:	429c      	cmp	r4, r3
 8005c7a:	d03a      	beq.n	8005cf2 <converterSetGpio+0xd2>
 8005c7c:	f7fe fab2 	bl	80041e4 <vPortEnterCritical>
 8005c80:	6962      	ldr	r2, [r4, #20]
 8005c82:	4b20      	ldr	r3, [pc, #128]	; (8005d04 <converterSetGpio+0xe4>)
 8005c84:	429a      	cmp	r2, r3
 8005c86:	d130      	bne.n	8005cea <converterSetGpio+0xca>
 8005c88:	6aa3      	ldr	r3, [r4, #40]	; 0x28
 8005c8a:	4a1f      	ldr	r2, [pc, #124]	; (8005d08 <converterSetGpio+0xe8>)
 8005c8c:	4293      	cmp	r3, r2
 8005c8e:	d02c      	beq.n	8005cea <converterSetGpio+0xca>
 8005c90:	bb5b      	cbnz	r3, 8005cea <converterSetGpio+0xca>
 8005c92:	1d26      	adds	r6, r4, #4
 8005c94:	4630      	mov	r0, r6
 8005c96:	f7fe fbab 	bl	80043f0 <uxListRemove>
 8005c9a:	2301      	movs	r3, #1
 8005c9c:	491b      	ldr	r1, [pc, #108]	; (8005d0c <converterSetGpio+0xec>)
 8005c9e:	6ae2      	ldr	r2, [r4, #44]	; 0x2c
 8005ca0:	6808      	ldr	r0, [r1, #0]
 8005ca2:	4093      	lsls	r3, r2
 8005ca4:	4303      	orrs	r3, r0
 8005ca6:	2014      	movs	r0, #20
 8005ca8:	600b      	str	r3, [r1, #0]
 8005caa:	4b19      	ldr	r3, [pc, #100]	; (8005d10 <converterSetGpio+0xf0>)
 8005cac:	4631      	mov	r1, r6
 8005cae:	fb00 3002 	mla	r0, r0, r2, r3
 8005cb2:	f7fe fbc4 	bl	800443e <vListInsertEnd>
 8005cb6:	682b      	ldr	r3, [r5, #0]
 8005cb8:	6ae2      	ldr	r2, [r4, #44]	; 0x2c
 8005cba:	6adb      	ldr	r3, [r3, #44]	; 0x2c
 8005cbc:	429a      	cmp	r2, r3
 8005cbe:	d314      	bcc.n	8005cea <converterSetGpio+0xca>
 8005cc0:	4b14      	ldr	r3, [pc, #80]	; (8005d14 <converterSetGpio+0xf4>)
 8005cc2:	4a15      	ldr	r2, [pc, #84]	; (8005d18 <converterSetGpio+0xf8>)
 8005cc4:	6819      	ldr	r1, [r3, #0]
 8005cc6:	6011      	str	r1, [r2, #0]
 8005cc8:	4a14      	ldr	r2, [pc, #80]	; (8005d1c <converterSetGpio+0xfc>)
 8005cca:	6812      	ldr	r2, [r2, #0]
 8005ccc:	b12a      	cbz	r2, 8005cda <converterSetGpio+0xba>
 8005cce:	681a      	ldr	r2, [r3, #0]
 8005cd0:	f422 027f 	bic.w	r2, r2, #16711680	; 0xff0000
 8005cd4:	601a      	str	r2, [r3, #0]
 8005cd6:	681a      	ldr	r2, [r3, #0]
 8005cd8:	601a      	str	r2, [r3, #0]
 8005cda:	f04f 5280 	mov.w	r2, #268435456	; 0x10000000
 8005cde:	4b10      	ldr	r3, [pc, #64]	; (8005d20 <converterSetGpio+0x100>)
 8005ce0:	601a      	str	r2, [r3, #0]
 8005ce2:	f3bf 8f4f 	dsb	sy
 8005ce6:	f3bf 8f6f 	isb	sy
}
 8005cea:	e8bd 4070 	ldmia.w	sp!, {r4, r5, r6, lr}
 8005cee:	f7fe ba6d 	b.w	80041cc <vPortExitCritical>
 8005cf2:	bd70      	pop	{r4, r5, r6, pc}
 8005cf4:	0800c710 	.word	0x0800c710
 8005cf8:	20001198 	.word	0x20001198
 8005cfc:	2000119c 	.word	0x2000119c
 8005d00:	200011a8 	.word	0x200011a8
 8005d04:	20001620 	.word	0x20001620
 8005d08:	20001600 	.word	0x20001600
 8005d0c:	20001374 	.word	0x20001374
 8005d10:	200011b8 	.word	0x200011b8
 8005d14:	e000ed20 	.word	0xe000ed20
 8005d18:	2000134c 	.word	0x2000134c
 8005d1c:	20001358 	.word	0x20001358
 8005d20:	e000ed04 	.word	0xe000ed04

08005d24 <mac2870LockCallback>:
    if(locked) {
 8005d24:	b120      	cbz	r0, 8005d30 <mac2870LockCallback+0xc>
        gpioSetPin(GPIO_LED_LOCK, false);
 8005d26:	2100      	movs	r1, #0
        gpioSetPin(GPIO_LED_LOCK, true);
 8005d28:	f44f 7082 	mov.w	r0, #260	; 0x104
 8005d2c:	f7ff bc4e 	b.w	80055cc <gpioSetPin>
 8005d30:	2101      	movs	r1, #1
 8005d32:	e7f9      	b.n	8005d28 <mac2870LockCallback+0x4>

08005d34 <NVIC_SystemReset.lto_priv.0>:
  \details Acts as a special kind of Data Memory Barrier.
           It completes when all explicit memory accesses before this instruction complete.
 */
__attribute__((always_inline)) __STATIC_INLINE void __DSB(void)
{
  __ASM volatile ("dsb 0xF":::"memory");
 8005d34:	f3bf 8f4f 	dsb	sy
__STATIC_INLINE void NVIC_SystemReset(void)
{
  __DSB();                                                          /* Ensure all outstanding memory accesses included
                                                                       buffered write are completed before reset */
  SCB->AIRCR  = (uint32_t)((0x5FAUL << SCB_AIRCR_VECTKEY_Pos)    |
                           (SCB->AIRCR & SCB_AIRCR_PRIGROUP_Msk) |
 8005d38:	4905      	ldr	r1, [pc, #20]	; (8005d50 <NVIC_SystemReset.lto_priv.0+0x1c>)
  SCB->AIRCR  = (uint32_t)((0x5FAUL << SCB_AIRCR_VECTKEY_Pos)    |
 8005d3a:	4b06      	ldr	r3, [pc, #24]	; (8005d54 <NVIC_SystemReset.lto_priv.0+0x20>)
                           (SCB->AIRCR & SCB_AIRCR_PRIGROUP_Msk) |
 8005d3c:	68ca      	ldr	r2, [r1, #12]
 8005d3e:	f402 62e0 	and.w	r2, r2, #1792	; 0x700
  SCB->AIRCR  = (uint32_t)((0x5FAUL << SCB_AIRCR_VECTKEY_Pos)    |
 8005d42:	4313      	orrs	r3, r2
 8005d44:	60cb      	str	r3, [r1, #12]
 8005d46:	f3bf 8f4f 	dsb	sy
  __ASM volatile ("nop");
 8005d4a:	bf00      	nop
 8005d4c:	e7fd      	b.n	8005d4a <NVIC_SystemReset.lto_priv.0+0x16>
 8005d4e:	bf00      	nop
 8005d50:	e000ed00 	.word	0xe000ed00
 8005d54:	05fa0004 	.word	0x05fa0004

08005d58 <shellCommandRegister>:
    {"license", cmdLicense, NULL},
    {"sanity", cmdSanity, NULL},
};

void shellCommandRegister(char* name, shellcmd_t function, void* user)
{
 8005d58:	b5f0      	push	{r4, r5, r6, r7, lr}
    /* -1 since there should be a final line with NULL, NULL, NULL */
    if(shellCommandsIndex >= sizeof(shellCommands)/sizeof(ShellCommand)-1) {
 8005d5a:	4d07      	ldr	r5, [pc, #28]	; (8005d78 <shellCommandRegister+0x20>)
 8005d5c:	782b      	ldrb	r3, [r5, #0]
 8005d5e:	2b0d      	cmp	r3, #13
 8005d60:	d808      	bhi.n	8005d74 <shellCommandRegister+0x1c>
        return;
    }
    shellCommands[shellCommandsIndex].sc_name = name;
 8005d62:	240c      	movs	r4, #12
 8005d64:	435c      	muls	r4, r3
 8005d66:	4f05      	ldr	r7, [pc, #20]	; (8005d7c <shellCommandRegister+0x24>)
    shellCommands[shellCommandsIndex].sc_function = function;
    shellCommands[shellCommandsIndex].sc_user = user;
    shellCommandsIndex++;
 8005d68:	3301      	adds	r3, #1
    shellCommands[shellCommandsIndex].sc_name = name;
 8005d6a:	193e      	adds	r6, r7, r4
    shellCommands[shellCommandsIndex].sc_user = user;
 8005d6c:	e9c6 1201 	strd	r1, r2, [r6, #4]
    shellCommands[shellCommandsIndex].sc_name = name;
 8005d70:	5138      	str	r0, [r7, r4]
    shellCommandsIndex++;
 8005d72:	702b      	strb	r3, [r5, #0]
}
 8005d74:	bdf0      	pop	{r4, r5, r6, r7, pc}
 8005d76:	bf00      	nop
 8005d78:	20000910 	.word	0x20000910
 8005d7c:	2000085c 	.word	0x2000085c

08005d80 <strToInt>:

    return (result>=base)? -1 : result;
}

int32_t strToInt(char* string, uint8_t base)
{
 8005d80:	b570      	push	{r4, r5, r6, lr}
    uint32_t value = 0;
    bool invert = false;
    unsigned int i = 0;

    if(string[0] == '\0') {
 8005d82:	7803      	ldrb	r3, [r0, #0]
 8005d84:	b1e3      	cbz	r3, 8005dc0 <strToInt+0x40>
        return -1;
    }

    if(string[0] == '-') {
 8005d86:	2b2d      	cmp	r3, #45	; 0x2d
 8005d88:	d127      	bne.n	8005dda <strToInt+0x5a>
        invert = true;
        i++;
 8005d8a:	2401      	movs	r4, #1
    bool invert = false;
 8005d8c:	4625      	mov	r5, r4
 8005d8e:	4404      	add	r4, r0
        invert = true;
 8005d90:	2000      	movs	r0, #0
 8005d92:	e01b      	b.n	8005dcc <strToInt+0x4c>
    if(input >= '0' && input <= '9') {
 8005d94:	f1a2 0330 	sub.w	r3, r2, #48	; 0x30
 8005d98:	b2db      	uxtb	r3, r3
 8005d9a:	2b09      	cmp	r3, #9
    input &=~ 0x20;
 8005d9c:	f002 02df 	and.w	r2, r2, #223	; 0xdf
    }

    for(; string[i]; i++) {
        value *= base;
 8005da0:	fb00 f601 	mul.w	r6, r0, r1
        result = input - '0';
 8005da4:	bf98      	it	ls
 8005da6:	b258      	sxtbls	r0, r3
    if(input >= 'A' && input <= 'Z') {
 8005da8:	f1a2 0341 	sub.w	r3, r2, #65	; 0x41
    int8_t result = -1;
 8005dac:	bf88      	it	hi
 8005dae:	f04f 30ff 	movhi.w	r0, #4294967295	; 0xffffffff
    if(input >= 'A' && input <= 'Z') {
 8005db2:	2b19      	cmp	r3, #25
 8005db4:	d807      	bhi.n	8005dc6 <strToInt+0x46>
        result = input - 'A' + 10;
 8005db6:	3a37      	subs	r2, #55	; 0x37
 8005db8:	b2d3      	uxtb	r3, r2
    if(result >= base) {
 8005dba:	4299      	cmp	r1, r3
        result = input - 'A' + 10;
 8005dbc:	b250      	sxtb	r0, r2
    if(result >= base) {
 8005dbe:	d804      	bhi.n	8005dca <strToInt+0x4a>
        return -1;
 8005dc0:	f04f 30ff 	mov.w	r0, #4294967295	; 0xffffffff
 8005dc4:	e008      	b.n	8005dd8 <strToInt+0x58>

        int8_t ci = charToInt(string[i], base);
        if(ci < 0) {
 8005dc6:	1c43      	adds	r3, r0, #1
 8005dc8:	d006      	beq.n	8005dd8 <strToInt+0x58>
            return -1;
        }

        value += ci;
 8005dca:	4430      	add	r0, r6
    for(; string[i]; i++) {
 8005dcc:	f814 2b01 	ldrb.w	r2, [r4], #1
 8005dd0:	2a00      	cmp	r2, #0
 8005dd2:	d1df      	bne.n	8005d94 <strToInt+0x14>
    }

    return (invert)? -value : value;
 8005dd4:	b105      	cbz	r5, 8005dd8 <strToInt+0x58>
 8005dd6:	4240      	negs	r0, r0
}
 8005dd8:	bd70      	pop	{r4, r5, r6, pc}
    unsigned int i = 0;
 8005dda:	2400      	movs	r4, #0
 8005ddc:	e7d6      	b.n	8005d8c <strToInt+0xc>

08005dde <_get.lto_priv.2>:

static msg_t _get(void *ip) {
  uint8_t b;
  MemoryStream *msp = ip;

  if (msp->eos - msp->offset <= 0)
 8005dde:	e9d0 2303 	ldrd	r2, r3, [r0, #12]
 8005de2:	429a      	cmp	r2, r3
    return MSG_RESET;
  b = *(msp->buffer + msp->offset);
 8005de4:	bf1f      	itttt	ne
 8005de6:	6842      	ldrne	r2, [r0, #4]
 8005de8:	5cd2      	ldrbne	r2, [r2, r3]
  msp->offset += 1;
 8005dea:	3301      	addne	r3, #1
 8005dec:	6103      	strne	r3, [r0, #16]
  return b;
 8005dee:	bf14      	ite	ne
 8005df0:	4610      	movne	r0, r2
    return MSG_RESET;
 8005df2:	f06f 0001 	mvneq.w	r0, #1
}
 8005df6:	4770      	bx	lr

08005df8 <_put.lto_priv.2>:
  if (msp->size - msp->eos <= 0)
 8005df8:	e9d0 2302 	ldrd	r2, r3, [r0, #8]
 8005dfc:	429a      	cmp	r2, r3
  *(msp->buffer + msp->eos) = b;
 8005dfe:	bf1f      	itttt	ne
 8005e00:	6842      	ldrne	r2, [r0, #4]
 8005e02:	54d1      	strbne	r1, [r2, r3]
  msp->eos += 1;
 8005e04:	68c3      	ldrne	r3, [r0, #12]
 8005e06:	3301      	addne	r3, #1
 8005e08:	bf1a      	itte	ne
 8005e0a:	60c3      	strne	r3, [r0, #12]
  return MSG_OK;
 8005e0c:	2000      	movne	r0, #0
    return MSG_RESET;
 8005e0e:	f06f 0001 	mvneq.w	r0, #1
}
 8005e12:	4770      	bx	lr

08005e14 <chvprintf>:
 * @return              The number of bytes that would have been
 *                      written to @p chp if no stream error occurs
 *
 * @api
 */
int chvprintf(BaseSequentialStream *chp, const char *fmt, va_list ap) {
 8005e14:	e92d 4ff0 	stmdb	sp!, {r4, r5, r6, r7, r8, r9, sl, fp, lr}
 8005e18:	460b      	mov	r3, r1
 8005e1a:	4680      	mov	r8, r0
 8005e1c:	4614      	mov	r4, r2
  char *p, *s, c, filler;
  int i, precision, width;
  int n = 0;
 8005e1e:	f04f 0900 	mov.w	r9, #0
int chvprintf(BaseSequentialStream *chp, const char *fmt, va_list ap) {
 8005e22:	b087      	sub	sp, #28
#else
  char tmpbuf[MAX_FILLER + 1];
#endif

  while (true) {
    c = *fmt++;
 8005e24:	461f      	mov	r7, r3
 8005e26:	f817 1b01 	ldrb.w	r1, [r7], #1
    if (c == 0)
 8005e2a:	2900      	cmp	r1, #0
 8005e2c:	f000 8152 	beq.w	80060d4 <chvprintf+0x2c0>
      return n;
    if (c != '%') {
 8005e30:	2925      	cmp	r1, #37	; 0x25
 8005e32:	d007      	beq.n	8005e44 <chvprintf+0x30>
      streamPut(chp, (uint8_t)c);
 8005e34:	f8d8 3000 	ldr.w	r3, [r8]
 8005e38:	4640      	mov	r0, r8
 8005e3a:	689b      	ldr	r3, [r3, #8]
 8005e3c:	4798      	blx	r3
      n++;
 8005e3e:	f109 0901 	add.w	r9, r9, #1
      continue;
 8005e42:	e112      	b.n	800606a <chvprintf+0x256>
    }
    p = tmpbuf;
    s = tmpbuf;
    left_align = FALSE;
    if (*fmt == '-') {
 8005e44:	785a      	ldrb	r2, [r3, #1]
    filler = ' ';
    if (*fmt == '0') {
      fmt++;
      filler = '0';
    }
    width = 0;
 8005e46:	f04f 0b00 	mov.w	fp, #0
    if (*fmt == '-') {
 8005e4a:	2a2d      	cmp	r2, #45	; 0x2d
      fmt++;
 8005e4c:	bf08      	it	eq
 8005e4e:	1c9f      	addeq	r7, r3, #2
    if (*fmt == '0') {
 8005e50:	f897 a000 	ldrb.w	sl, [r7]
      left_align = TRUE;
 8005e54:	bf0c      	ite	eq
 8005e56:	2301      	moveq	r3, #1
    left_align = FALSE;
 8005e58:	2300      	movne	r3, #0
    if (*fmt == '0') {
 8005e5a:	f1ba 0f30 	cmp.w	sl, #48	; 0x30
    filler = ' ';
 8005e5e:	bf18      	it	ne
 8005e60:	f04f 0a20 	movne.w	sl, #32
    left_align = FALSE;
 8005e64:	9301      	str	r3, [sp, #4]
    if (*fmt == '0') {
 8005e66:	bf08      	it	eq
 8005e68:	3701      	addeq	r7, #1
    while (TRUE) {
      c = *fmt++;
 8005e6a:	f817 2b01 	ldrb.w	r2, [r7], #1
      if (c >= '0' && c <= '9')
 8005e6e:	f1a2 0130 	sub.w	r1, r2, #48	; 0x30
 8005e72:	b2c9      	uxtb	r1, r1
 8005e74:	2909      	cmp	r1, #9
 8005e76:	d904      	bls.n	8005e82 <chvprintf+0x6e>
        c -= '0';
      else if (c == '*')
 8005e78:	2a2a      	cmp	r2, #42	; 0x2a
 8005e7a:	d106      	bne.n	8005e8a <chvprintf+0x76>
        c = va_arg(ap, int);
 8005e7c:	f854 1b04 	ldr.w	r1, [r4], #4
 8005e80:	b2c9      	uxtb	r1, r1
      else
        break;
      width = width * 10 + c;
 8005e82:	230a      	movs	r3, #10
 8005e84:	fb03 1b0b 	mla	fp, r3, fp, r1
    while (TRUE) {
 8005e88:	e7ef      	b.n	8005e6a <chvprintf+0x56>
    }
    precision = 0;
    if (c == '.') {
 8005e8a:	2a2e      	cmp	r2, #46	; 0x2e
    precision = 0;
 8005e8c:	f04f 0100 	mov.w	r1, #0
    if (c == '.') {
 8005e90:	d10f      	bne.n	8005eb2 <chvprintf+0x9e>
      while (TRUE) {
        c = *fmt++;
 8005e92:	f817 2b01 	ldrb.w	r2, [r7], #1
        if (c >= '0' && c <= '9')
 8005e96:	f1a2 0030 	sub.w	r0, r2, #48	; 0x30
 8005e9a:	b2c0      	uxtb	r0, r0
 8005e9c:	2809      	cmp	r0, #9
 8005e9e:	d904      	bls.n	8005eaa <chvprintf+0x96>
          c -= '0';
        else if (c == '*')
 8005ea0:	2a2a      	cmp	r2, #42	; 0x2a
 8005ea2:	d106      	bne.n	8005eb2 <chvprintf+0x9e>
          c = va_arg(ap, int);
 8005ea4:	f854 0b04 	ldr.w	r0, [r4], #4
 8005ea8:	b2c0      	uxtb	r0, r0
        else
          break;
        precision *= 10;
        precision += c;
 8005eaa:	230a      	movs	r3, #10
 8005eac:	fb03 0101 	mla	r1, r3, r1, r0
      while (TRUE) {
 8005eb0:	e7ef      	b.n	8005e92 <chvprintf+0x7e>
      }
    }
    /* Long modifier.*/
    if (c == 'l' || c == 'L') {
 8005eb2:	f002 00df 	and.w	r0, r2, #223	; 0xdf
 8005eb6:	284c      	cmp	r0, #76	; 0x4c
 8005eb8:	d115      	bne.n	8005ee6 <chvprintf+0xd2>
      is_long = TRUE;
      if (*fmt)
 8005eba:	7838      	ldrb	r0, [r7, #0]
 8005ebc:	b108      	cbz	r0, 8005ec2 <chvprintf+0xae>
 8005ebe:	4602      	mov	r2, r0
 8005ec0:	3701      	adds	r7, #1
    }
    else
      is_long = (c >= 'A') && (c <= 'Z');

    /* Command decoding.*/
    switch (c) {
 8005ec2:	2a64      	cmp	r2, #100	; 0x64
 8005ec4:	d06f      	beq.n	8005fa6 <chvprintf+0x192>
 8005ec6:	f200 80e3 	bhi.w	8006090 <chvprintf+0x27c>
 8005eca:	2a58      	cmp	r2, #88	; 0x58
 8005ecc:	f000 80d9 	beq.w	8006082 <chvprintf+0x26e>
 8005ed0:	d821      	bhi.n	8005f16 <chvprintf+0x102>
 8005ed2:	2a4f      	cmp	r2, #79	; 0x4f
 8005ed4:	f000 80b5 	beq.w	8006042 <chvprintf+0x22e>
 8005ed8:	f200 80d5 	bhi.w	8006086 <chvprintf+0x272>
 8005edc:	2a44      	cmp	r2, #68	; 0x44
 8005ede:	d062      	beq.n	8005fa6 <chvprintf+0x192>
 8005ee0:	2a49      	cmp	r2, #73	; 0x49
 8005ee2:	d060      	beq.n	8005fa6 <chvprintf+0x192>
 8005ee4:	e010      	b.n	8005f08 <chvprintf+0xf4>
      is_long = (c >= 'A') && (c <= 'Z');
 8005ee6:	f1a2 0041 	sub.w	r0, r2, #65	; 0x41
    switch (c) {
 8005eea:	2a64      	cmp	r2, #100	; 0x64
      is_long = (c >= 'A') && (c <= 'Z');
 8005eec:	b2c0      	uxtb	r0, r0
    switch (c) {
 8005eee:	d056      	beq.n	8005f9e <chvprintf+0x18a>
 8005ef0:	d81e      	bhi.n	8005f30 <chvprintf+0x11c>
 8005ef2:	2a55      	cmp	r2, #85	; 0x55
 8005ef4:	f000 8096 	beq.w	8006024 <chvprintf+0x210>
 8005ef8:	d80a      	bhi.n	8005f10 <chvprintf+0xfc>
 8005efa:	2a49      	cmp	r2, #73	; 0x49
 8005efc:	d04f      	beq.n	8005f9e <chvprintf+0x18a>
 8005efe:	2a4f      	cmp	r2, #79	; 0x4f
 8005f00:	f000 809b 	beq.w	800603a <chvprintf+0x226>
 8005f04:	2a44      	cmp	r2, #68	; 0x44
 8005f06:	d04a      	beq.n	8005f9e <chvprintf+0x18a>
      else
        l = va_arg(ap, unsigned int);
      p = ch_ltoa(p, l, c);
      break;
    default:
      *p++ = c;
 8005f08:	4626      	mov	r6, r4
 8005f0a:	f88d 200c 	strb.w	r2, [sp, #12]
      break;
 8005f0e:	e00b      	b.n	8005f28 <chvprintf+0x114>
    switch (c) {
 8005f10:	2a58      	cmp	r2, #88	; 0x58
 8005f12:	f000 8094 	beq.w	800603e <chvprintf+0x22a>
 8005f16:	2a63      	cmp	r2, #99	; 0x63
 8005f18:	d1f6      	bne.n	8005f08 <chvprintf+0xf4>
      *p++ = va_arg(ap, int);
 8005f1a:	4626      	mov	r6, r4
      filler = ' ';
 8005f1c:	f04f 0a20 	mov.w	sl, #32
      *p++ = va_arg(ap, int);
 8005f20:	f856 2b04 	ldr.w	r2, [r6], #4
 8005f24:	f88d 200c 	strb.w	r2, [sp, #12]
    s = tmpbuf;
 8005f28:	ad03      	add	r5, sp, #12
      *p++ = c;
 8005f2a:	f10d 000d 	add.w	r0, sp, #13
 8005f2e:	e04c      	b.n	8005fca <chvprintf+0x1b6>
    switch (c) {
 8005f30:	2a69      	cmp	r2, #105	; 0x69
 8005f32:	d034      	beq.n	8005f9e <chvprintf+0x18a>
 8005f34:	f1a2 056f 	sub.w	r5, r2, #111	; 0x6f
 8005f38:	b2ee      	uxtb	r6, r5
 8005f3a:	2e09      	cmp	r6, #9
 8005f3c:	d8e4      	bhi.n	8005f08 <chvprintf+0xf4>
 8005f3e:	2d09      	cmp	r5, #9
 8005f40:	d8e2      	bhi.n	8005f08 <chvprintf+0xf4>
 8005f42:	a301      	add	r3, pc, #4	; (adr r3, 8005f48 <chvprintf+0x134>)
 8005f44:	f853 f025 	ldr.w	pc, [r3, r5, lsl #2]
 8005f48:	0800603b 	.word	0x0800603b
 8005f4c:	08005f09 	.word	0x08005f09
 8005f50:	08005f09 	.word	0x08005f09
 8005f54:	08005f09 	.word	0x08005f09
 8005f58:	08005f71 	.word	0x08005f71
 8005f5c:	08005f09 	.word	0x08005f09
 8005f60:	08006025 	.word	0x08006025
 8005f64:	08005f09 	.word	0x08005f09
 8005f68:	08005f09 	.word	0x08005f09
 8005f6c:	0800603f 	.word	0x0800603f
      if ((s = va_arg(ap, char *)) == 0)
 8005f70:	4626      	mov	r6, r4
        s = "(null)";
 8005f72:	4b5a      	ldr	r3, [pc, #360]	; (80060dc <chvprintf+0x2c8>)
      if ((s = va_arg(ap, char *)) == 0)
 8005f74:	f856 5b04 	ldr.w	r5, [r6], #4
        precision = 32767;
 8005f78:	f647 72ff 	movw	r2, #32767	; 0x7fff
        s = "(null)";
 8005f7c:	2d00      	cmp	r5, #0
 8005f7e:	bf08      	it	eq
 8005f80:	461d      	moveq	r5, r3
        precision = 32767;
 8005f82:	2900      	cmp	r1, #0
 8005f84:	bf08      	it	eq
 8005f86:	4611      	moveq	r1, r2
 8005f88:	4628      	mov	r0, r5
 8005f8a:	4429      	add	r1, r5
      for (p = s; *p && (--precision >= 0); p++)
 8005f8c:	7802      	ldrb	r2, [r0, #0]
 8005f8e:	b10a      	cbz	r2, 8005f94 <chvprintf+0x180>
 8005f90:	4288      	cmp	r0, r1
 8005f92:	d102      	bne.n	8005f9a <chvprintf+0x186>
      filler = ' ';
 8005f94:	f04f 0a20 	mov.w	sl, #32
 8005f98:	e017      	b.n	8005fca <chvprintf+0x1b6>
      for (p = s; *p && (--precision >= 0); p++)
 8005f9a:	3001      	adds	r0, #1
 8005f9c:	e7f6      	b.n	8005f8c <chvprintf+0x178>
      if (is_long)
 8005f9e:	2819      	cmp	r0, #25
 8005fa0:	f104 0604 	add.w	r6, r4, #4
 8005fa4:	d83c      	bhi.n	8006020 <chvprintf+0x20c>
        l = va_arg(ap, long);
 8005fa6:	4626      	mov	r6, r4
 8005fa8:	f856 1b04 	ldr.w	r1, [r6], #4
      if (l < 0) {
 8005fac:	2900      	cmp	r1, #0
        *p++ = '-';
 8005fae:	bfbc      	itt	lt
 8005fb0:	222d      	movlt	r2, #45	; 0x2d
 8005fb2:	f88d 200c 	strblt.w	r2, [sp, #12]
  return long_to_string_with_divisor(p, num, radix, 0);
 8005fb6:	f04f 020a 	mov.w	r2, #10
        l = -l;
 8005fba:	bfba      	itte	lt
 8005fbc:	4249      	neglt	r1, r1
        *p++ = '-';
 8005fbe:	f10d 000d 	addlt.w	r0, sp, #13
    p = tmpbuf;
 8005fc2:	a803      	addge	r0, sp, #12
  return long_to_string_with_divisor(p, num, radix, 0);
 8005fc4:	f7fd fff0 	bl	8003fa8 <long_to_string_with_divisor.constprop.0>
    s = tmpbuf;
 8005fc8:	ad03      	add	r5, sp, #12
    }
    i = (int)(p - s);
 8005fca:	1b44      	subs	r4, r0, r5
    if ((width -= i) < 0)
      width = 0;
    if (left_align == FALSE)
 8005fcc:	9901      	ldr	r1, [sp, #4]
    if ((width -= i) < 0)
 8005fce:	ebab 0304 	sub.w	r3, fp, r4
 8005fd2:	ea23 72e3 	bic.w	r2, r3, r3, asr #31
    if (left_align == FALSE)
 8005fd6:	2900      	cmp	r1, #0
 8005fd8:	d149      	bne.n	800606e <chvprintf+0x25a>
      width = -width;
    if (width < 0) {
 8005fda:	2b00      	cmp	r3, #0
      width = -width;
 8005fdc:	f1c2 0b00 	rsb	fp, r2, #0
    if (width < 0) {
 8005fe0:	dd1c      	ble.n	800601c <chvprintf+0x208>
      if (*s == '-' && filler == '0') {
 8005fe2:	7829      	ldrb	r1, [r5, #0]
 8005fe4:	292d      	cmp	r1, #45	; 0x2d
 8005fe6:	d10d      	bne.n	8006004 <chvprintf+0x1f0>
 8005fe8:	f1ba 0f30 	cmp.w	sl, #48	; 0x30
 8005fec:	d10a      	bne.n	8006004 <chvprintf+0x1f0>
        streamPut(chp, (uint8_t)*s++);
 8005fee:	f8d8 3000 	ldr.w	r3, [r8]
 8005ff2:	4640      	mov	r0, r8
 8005ff4:	689b      	ldr	r3, [r3, #8]
 8005ff6:	9201      	str	r2, [sp, #4]
 8005ff8:	4798      	blx	r3
 8005ffa:	9a01      	ldr	r2, [sp, #4]
 8005ffc:	3c01      	subs	r4, #1
 8005ffe:	f109 0901 	add.w	r9, r9, #1
 8006002:	3501      	adds	r5, #1
        n++;
        i--;
      }
      do {
        streamPut(chp, (uint8_t)filler);
 8006004:	f8d8 3000 	ldr.w	r3, [r8]
 8006008:	4651      	mov	r1, sl
 800600a:	4640      	mov	r0, r8
 800600c:	689b      	ldr	r3, [r3, #8]
 800600e:	9201      	str	r2, [sp, #4]
 8006010:	4798      	blx	r3
        n++;
      } while (++width != 0);
 8006012:	f11b 0b01 	adds.w	fp, fp, #1
 8006016:	9a01      	ldr	r2, [sp, #4]
 8006018:	d1f4      	bne.n	8006004 <chvprintf+0x1f0>
 800601a:	4491      	add	r9, r2
    if (left_align == FALSE)
 800601c:	4623      	mov	r3, r4
 800601e:	e01b      	b.n	8006058 <chvprintf+0x244>
        l = va_arg(ap, int);
 8006020:	6821      	ldr	r1, [r4, #0]
 8006022:	e7c3      	b.n	8005fac <chvprintf+0x198>
      c = 10;
 8006024:	220a      	movs	r2, #10
      if (is_long)
 8006026:	4626      	mov	r6, r4
 8006028:	2819      	cmp	r0, #25
 800602a:	f856 1b04 	ldr.w	r1, [r6], #4
 800602e:	d802      	bhi.n	8006036 <chvprintf+0x222>
        l = va_arg(ap, unsigned long);
 8006030:	4626      	mov	r6, r4
 8006032:	f856 1b04 	ldr.w	r1, [r6], #4
  return long_to_string_with_divisor(p, num, radix, 0);
 8006036:	a803      	add	r0, sp, #12
 8006038:	e7c4      	b.n	8005fc4 <chvprintf+0x1b0>
      c = 8;
 800603a:	2208      	movs	r2, #8
 800603c:	e7f3      	b.n	8006026 <chvprintf+0x212>
    switch (c) {
 800603e:	2210      	movs	r2, #16
 8006040:	e7f1      	b.n	8006026 <chvprintf+0x212>
 8006042:	2208      	movs	r2, #8
 8006044:	e7f4      	b.n	8006030 <chvprintf+0x21c>
    }
    while (--i >= 0) {
      streamPut(chp, (uint8_t)*s++);
 8006046:	f8d8 2000 	ldr.w	r2, [r8]
 800604a:	4640      	mov	r0, r8
 800604c:	6892      	ldr	r2, [r2, #8]
 800604e:	f815 1b01 	ldrb.w	r1, [r5], #1
 8006052:	9301      	str	r3, [sp, #4]
 8006054:	4790      	blx	r2
      n++;
 8006056:	9b01      	ldr	r3, [sp, #4]
    while (--i >= 0) {
 8006058:	3b01      	subs	r3, #1
 800605a:	d5f4      	bpl.n	8006046 <chvprintf+0x232>
 800605c:	2c00      	cmp	r4, #0
 800605e:	bfa8      	it	ge
 8006060:	44a1      	addge	r9, r4
 8006062:	465d      	mov	r5, fp
    }

    while (width) {
 8006064:	b92d      	cbnz	r5, 8006072 <chvprintf+0x25e>
 8006066:	4634      	mov	r4, r6
 8006068:	44d9      	add	r9, fp
 800606a:	463b      	mov	r3, r7
 800606c:	e6da      	b.n	8005e24 <chvprintf+0x10>
    if (left_align == FALSE)
 800606e:	4693      	mov	fp, r2
 8006070:	e7d4      	b.n	800601c <chvprintf+0x208>
      streamPut(chp, (uint8_t)filler);
 8006072:	f8d8 3000 	ldr.w	r3, [r8]
 8006076:	4651      	mov	r1, sl
 8006078:	4640      	mov	r0, r8
 800607a:	689b      	ldr	r3, [r3, #8]
 800607c:	4798      	blx	r3
      n++;
      width--;
 800607e:	3d01      	subs	r5, #1
 8006080:	e7f0      	b.n	8006064 <chvprintf+0x250>
    switch (c) {
 8006082:	2210      	movs	r2, #16
 8006084:	e7d4      	b.n	8006030 <chvprintf+0x21c>
 8006086:	2a55      	cmp	r2, #85	; 0x55
 8006088:	f47f af3e 	bne.w	8005f08 <chvprintf+0xf4>
      c = 10;
 800608c:	220a      	movs	r2, #10
      if (is_long)
 800608e:	e7cf      	b.n	8006030 <chvprintf+0x21c>
    switch (c) {
 8006090:	2a69      	cmp	r2, #105	; 0x69
 8006092:	d088      	beq.n	8005fa6 <chvprintf+0x192>
 8006094:	f1a2 006f 	sub.w	r0, r2, #111	; 0x6f
 8006098:	b2c5      	uxtb	r5, r0
 800609a:	2d09      	cmp	r5, #9
 800609c:	f63f af34 	bhi.w	8005f08 <chvprintf+0xf4>
 80060a0:	2809      	cmp	r0, #9
 80060a2:	f63f af31 	bhi.w	8005f08 <chvprintf+0xf4>
 80060a6:	a301      	add	r3, pc, #4	; (adr r3, 80060ac <chvprintf+0x298>)
 80060a8:	f853 f020 	ldr.w	pc, [r3, r0, lsl #2]
 80060ac:	08006043 	.word	0x08006043
 80060b0:	08005f09 	.word	0x08005f09
 80060b4:	08005f09 	.word	0x08005f09
 80060b8:	08005f09 	.word	0x08005f09
 80060bc:	08005f71 	.word	0x08005f71
 80060c0:	08005f09 	.word	0x08005f09
 80060c4:	0800608d 	.word	0x0800608d
 80060c8:	08005f09 	.word	0x08005f09
 80060cc:	08005f09 	.word	0x08005f09
 80060d0:	08006083 	.word	0x08006083
    }
  }
}
 80060d4:	4648      	mov	r0, r9
 80060d6:	b007      	add	sp, #28
 80060d8:	e8bd 8ff0 	ldmia.w	sp!, {r4, r5, r6, r7, r8, r9, sl, fp, pc}
 80060dc:	0800b8ea 	.word	0x0800b8ea

080060e0 <usb_lld_init_endpoint>:
 * @param[in] usbp      pointer to the @p USBDriver object
 * @param[in] ep        endpoint number
 *
 * @notapi
 */
void usb_lld_init_endpoint(USBDriver *usbp, usbep_t ep) {
 80060e0:	b5f8      	push	{r3, r4, r5, r6, r7, lr}
  uint16_t epr;
  stm32_usb_descriptor_t *dp;
  const USBEndpointConfig *epcp = usbp->epc[ep];
 80060e2:	eb00 0381 	add.w	r3, r0, r1, lsl #2
 80060e6:	68de      	ldr	r6, [r3, #12]

  /* Setting the endpoint type. Note that isochronous endpoints cannot be
     bidirectional because it uses double buffering and both transmit and
     receive descriptor fields are used for either direction.*/
  switch (epcp->ep_mode & USB_EP_MODE_TYPE) {
 80060e8:	6833      	ldr	r3, [r6, #0]
 80060ea:	f003 0303 	and.w	r3, r3, #3
 80060ee:	2b02      	cmp	r3, #2
 80060f0:	d006      	beq.n	8006100 <usb_lld_init_endpoint+0x20>
 80060f2:	2b03      	cmp	r3, #3
 80060f4:	d022      	beq.n	800613c <usb_lld_init_endpoint+0x5c>
 80060f6:	2b01      	cmp	r3, #1
 80060f8:	d123      	bne.n	8006142 <usb_lld_init_endpoint+0x62>
    osalDbgAssert((epcp->in_state == NULL) || (epcp->out_state == NULL),
                  "isochronous EP cannot be IN and OUT");
    epr = EPR_EP_TYPE_ISO;
    break;
#else
    osalDbgAssert(false, "isochronous support disabled");
 80060fa:	f7fe f921 	bl	8004340 <vTaskEndScheduler>
 80060fe:	e7fe      	b.n	80060fe <usb_lld_init_endpoint+0x1e>
#endif
  case USB_EP_MODE_TYPE_BULK:
    epr = EPR_EP_TYPE_BULK;
 8006100:	2200      	movs	r2, #0
    break;
  default:
    epr = EPR_EP_TYPE_CONTROL;
  }

  dp = USB_GET_DESCRIPTOR(ep);
 8006102:	4b33      	ldr	r3, [pc, #204]	; (80061d0 <usb_lld_init_endpoint+0xf0>)
 8006104:	ea4f 1c01 	mov.w	ip, r1, lsl #4
 8006108:	6d1c      	ldr	r4, [r3, #80]	; 0x50

  /* IN endpoint handling.*/
  if (epcp->in_state != NULL) {
 800610a:	6973      	ldr	r3, [r6, #20]
  dp = USB_GET_DESCRIPTOR(ep);
 800610c:	f104 4480 	add.w	r4, r4, #1073741824	; 0x40000000
 8006110:	f504 44c0 	add.w	r4, r4, #24576	; 0x6000
 8006114:	eb04 1501 	add.w	r5, r4, r1, lsl #4
  if (epcp->in_state != NULL) {
 8006118:	b1d3      	cbz	r3, 8006150 <usb_lld_init_endpoint+0x70>
    dp->TXCOUNT0 = 0;
 800611a:	2300      	movs	r3, #0
 800611c:	606b      	str	r3, [r5, #4]
    dp->TXADDR0  = usb_pm_alloc(usbp, epcp->in_maxsize);
 800611e:	8a33      	ldrh	r3, [r6, #16]
  next = usbp->pmnext;
 8006120:	f8d0 7084 	ldr.w	r7, [r0, #132]	; 0x84
  usbp->pmnext += (size + 1) & ~1;
 8006124:	3301      	adds	r3, #1
 8006126:	f023 0301 	bic.w	r3, r3, #1
 800612a:	443b      	add	r3, r7
  osalDbgAssert(usbp->pmnext <= STM32_USB_PMA_SIZE, "PMA overflow");
 800612c:	f5b3 7f00 	cmp.w	r3, #512	; 0x200
  usbp->pmnext += (size + 1) & ~1;
 8006130:	f8c0 3084 	str.w	r3, [r0, #132]	; 0x84
  osalDbgAssert(usbp->pmnext <= STM32_USB_PMA_SIZE, "PMA overflow");
 8006134:	d908      	bls.n	8006148 <usb_lld_init_endpoint+0x68>
 8006136:	f7fe f903 	bl	8004340 <vTaskEndScheduler>
 800613a:	e7fe      	b.n	800613a <usb_lld_init_endpoint+0x5a>
  switch (epcp->ep_mode & USB_EP_MODE_TYPE) {
 800613c:	f44f 62c0 	mov.w	r2, #1536	; 0x600
 8006140:	e7df      	b.n	8006102 <usb_lld_init_endpoint+0x22>
    epr = EPR_EP_TYPE_CONTROL;
 8006142:	f44f 7200 	mov.w	r2, #512	; 0x200
 8006146:	e7dc      	b.n	8006102 <usb_lld_init_endpoint+0x22>
    dp->TXADDR0  = usb_pm_alloc(usbp, epcp->in_maxsize);
 8006148:	f84c 7004 	str.w	r7, [ip, r4]
    }
    else {
      epr |= EPR_STAT_TX_NAK;
    }
#else
    epr |= EPR_STAT_TX_NAK;
 800614c:	f042 0220 	orr.w	r2, r2, #32
#endif
  }

  /* OUT endpoint handling.*/
  if (epcp->out_state != NULL) {
 8006150:	69b3      	ldr	r3, [r6, #24]
 8006152:	b32b      	cbz	r3, 80061a0 <usb_lld_init_endpoint+0xc0>
    uint16_t nblocks;

    /* Endpoint size and address initialization.*/
    if (epcp->out_maxsize > 62)
 8006154:	8a74      	ldrh	r4, [r6, #18]
 8006156:	2c3e      	cmp	r4, #62	; 0x3e
 8006158:	f104 33ff 	add.w	r3, r4, #4294967295	; 0xffffffff
 800615c:	d916      	bls.n	800618c <usb_lld_init_endpoint+0xac>
      nblocks = (((((epcp->out_maxsize - 1) | 0x1f) + 1) / 32) << 10) |
 800615e:	f043 031f 	orr.w	r3, r3, #31
 8006162:	4e1c      	ldr	r6, [pc, #112]	; (80061d4 <usb_lld_init_endpoint+0xf4>)
 8006164:	3301      	adds	r3, #1
 8006166:	115b      	asrs	r3, r3, #5
 8006168:	ea46 2383 	orr.w	r3, r6, r3, lsl #10
 800616c:	b29b      	uxth	r3, r3
                0x8000;
    else
      nblocks = ((((epcp->out_maxsize - 1) | 1) + 1) / 2) << 10;
    dp->RXCOUNT0 = nblocks;
 800616e:	60eb      	str	r3, [r5, #12]
  next = usbp->pmnext;
 8006170:	f8d0 3084 	ldr.w	r3, [r0, #132]	; 0x84
  usbp->pmnext += (size + 1) & ~1;
 8006174:	3401      	adds	r4, #1
 8006176:	f024 0401 	bic.w	r4, r4, #1
 800617a:	441c      	add	r4, r3
  osalDbgAssert(usbp->pmnext <= STM32_USB_PMA_SIZE, "PMA overflow");
 800617c:	f5b4 7f00 	cmp.w	r4, #512	; 0x200
  usbp->pmnext += (size + 1) & ~1;
 8006180:	f8c0 4084 	str.w	r4, [r0, #132]	; 0x84
  osalDbgAssert(usbp->pmnext <= STM32_USB_PMA_SIZE, "PMA overflow");
 8006184:	d909      	bls.n	800619a <usb_lld_init_endpoint+0xba>
 8006186:	f7fe f8db 	bl	8004340 <vTaskEndScheduler>
 800618a:	e7fe      	b.n	800618a <usb_lld_init_endpoint+0xaa>
      nblocks = ((((epcp->out_maxsize - 1) | 1) + 1) / 2) << 10;
 800618c:	f043 0301 	orr.w	r3, r3, #1
 8006190:	3301      	adds	r3, #1
 8006192:	025b      	lsls	r3, r3, #9
 8006194:	f403 437c 	and.w	r3, r3, #64512	; 0xfc00
 8006198:	e7e9      	b.n	800616e <usb_lld_init_endpoint+0x8e>
    dp->RXADDR0  = usb_pm_alloc(usbp, epcp->out_maxsize);
 800619a:	60ab      	str	r3, [r5, #8]
    }
    else {
      epr |= EPR_STAT_RX_NAK;
    }
#else
    epr |= EPR_STAT_RX_NAK;
 800619c:	f442 5200 	orr.w	r2, r2, #8192	; 0x2000
#endif
  }

  /* EPxR register setup.*/
  EPR_SET(ep, epr | ep);
 80061a0:	f248 0480 	movw	r4, #32896	; 0x8080
  EPR_TOGGLE(ep, epr);
 80061a4:	f647 0370 	movw	r3, #30832	; 0x7870
  EPR_SET(ep, epr | ep);
 80061a8:	ea42 0001 	orr.w	r0, r2, r1
 80061ac:	f420 4078 	bic.w	r0, r0, #63488	; 0xf800
 80061b0:	0089      	lsls	r1, r1, #2
 80061b2:	f020 00f0 	bic.w	r0, r0, #240	; 0xf0
 80061b6:	f101 4180 	add.w	r1, r1, #1073741824	; 0x40000000
 80061ba:	f501 41b8 	add.w	r1, r1, #23552	; 0x5c00
 80061be:	4320      	orrs	r0, r4
 80061c0:	6008      	str	r0, [r1, #0]
  EPR_TOGGLE(ep, epr);
 80061c2:	6808      	ldr	r0, [r1, #0]
 80061c4:	4013      	ands	r3, r2
 80061c6:	4043      	eors	r3, r0
 80061c8:	4323      	orrs	r3, r4
 80061ca:	600b      	str	r3, [r1, #0]
}
 80061cc:	bdf8      	pop	{r3, r4, r5, r6, r7, pc}
 80061ce:	bf00      	nop
 80061d0:	40005c00 	.word	0x40005c00
 80061d4:	ffff8000 	.word	0xffff8000

080061d8 <_usb_reset.constprop.0>:
 */
void _usb_reset(USBDriver *usbp) {
  unsigned i;

  /* State transition.*/
  usbp->state         = USB_READY;
 80061d8:	2302      	movs	r3, #2
void _usb_reset(USBDriver *usbp) {
 80061da:	b570      	push	{r4, r5, r6, lr}
  STM32_USB->DADDR  = DADDR_EF;
 80061dc:	2280      	movs	r2, #128	; 0x80

  /* Resetting internal state.*/
  usbp->status        = 0;
 80061de:	2500      	movs	r5, #0
  usbp->state         = USB_READY;
 80061e0:	4c15      	ldr	r4, [pc, #84]	; (8006238 <_usb_reset.constprop.0+0x60>)
  usb_lld_init_endpoint(usbp, 0);
 80061e2:	4629      	mov	r1, r5
 80061e4:	7023      	strb	r3, [r4, #0]
  STM32_USB->BTABLE = BTABLE_ADDR;
 80061e6:	4b15      	ldr	r3, [pc, #84]	; (800623c <_usb_reset.constprop.0+0x64>)
  usbp->status        = 0;
 80061e8:	67e5      	str	r5, [r4, #124]	; 0x7c
#endif
    usbp->epc[i] = NULL;
  }

  /* EP0 state machine initialization.*/
  usbp->ep0state = USB_EP0_WAITING_SETUP;
 80061ea:	f884 5064 	strb.w	r5, [r4, #100]	; 0x64
    usbp->epc[i] = NULL;
 80061ee:	e9c4 5504 	strd	r5, r5, [r4, #16]
 80061f2:	e9c4 5506 	strd	r5, r5, [r4, #24]
 80061f6:	e9c4 5508 	strd	r5, r5, [r4, #32]
  usbp->transmitting  = 0;
 80061fa:	60a5      	str	r5, [r4, #8]
    usbp->epc[i] = NULL;
 80061fc:	62a5      	str	r5, [r4, #40]	; 0x28
 80061fe:	651d      	str	r5, [r3, #80]	; 0x50
  STM32_USB->ISTR   = 0;
 8006200:	645d      	str	r5, [r3, #68]	; 0x44
  STM32_USB->DADDR  = DADDR_EF;
 8006202:	64da      	str	r2, [r3, #76]	; 0x4c
  if (usbp->config->sof_cb != NULL)
 8006204:	6862      	ldr	r2, [r4, #4]
  usb_lld_init_endpoint(usbp, 0);
 8006206:	4620      	mov	r0, r4
  if (usbp->config->sof_cb != NULL)
 8006208:	68d2      	ldr	r2, [r2, #12]
    cntr |= CNTR_SOFM;
 800620a:	42aa      	cmp	r2, r5
 800620c:	bf0c      	ite	eq
 800620e:	f44f 421c 	moveq.w	r2, #39936	; 0x9c00
 8006212:	f44f 421e 	movne.w	r2, #40448	; 0x9e00
  STM32_USB->CNTR = cntr;
 8006216:	641a      	str	r2, [r3, #64]	; 0x40
  usbp->pmnext = 64;
 8006218:	2340      	movs	r3, #64	; 0x40
 800621a:	f8c4 3084 	str.w	r3, [r4, #132]	; 0x84
  usbp->epc[0] = &ep0config;
 800621e:	4b08      	ldr	r3, [pc, #32]	; (8006240 <_usb_reset.constprop.0+0x68>)
 8006220:	60e3      	str	r3, [r4, #12]
  usb_lld_init_endpoint(usbp, 0);
 8006222:	f7ff ff5d 	bl	80060e0 <usb_lld_init_endpoint>

  /* Low level reset.*/
  usb_lld_reset(usbp);

  /* Notification of reset event.*/
  _usb_isr_invoke_event_cb(usbp, USB_EVENT_RESET);
 8006226:	6863      	ldr	r3, [r4, #4]
 8006228:	681b      	ldr	r3, [r3, #0]
 800622a:	b123      	cbz	r3, 8006236 <_usb_reset.constprop.0+0x5e>
 800622c:	4629      	mov	r1, r5
 800622e:	4620      	mov	r0, r4
}
 8006230:	e8bd 4070 	ldmia.w	sp!, {r4, r5, r6, lr}
  _usb_isr_invoke_event_cb(usbp, USB_EVENT_RESET);
 8006234:	4718      	bx	r3
}
 8006236:	bd70      	pop	{r4, r5, r6, pc}
 8006238:	20000f54 	.word	0x20000f54
 800623c:	40005c00 	.word	0x40005c00
 8006240:	0800c7dc 	.word	0x0800c7dc

08006244 <usb_packet_write_from_buffer>:
  stm32_usb_descriptor_t *udp = USB_GET_DESCRIPTOR(ep);
 8006244:	4b0d      	ldr	r3, [pc, #52]	; (800627c <usb_packet_write_from_buffer+0x38>)
                                         size_t n) {
 8006246:	b510      	push	{r4, lr}
  stm32_usb_descriptor_t *udp = USB_GET_DESCRIPTOR(ep);
 8006248:	6d1b      	ldr	r3, [r3, #80]	; 0x50
 800624a:	0104      	lsls	r4, r0, #4
 800624c:	f103 4380 	add.w	r3, r3, #1073741824	; 0x40000000
 8006250:	f503 43c0 	add.w	r3, r3, #24576	; 0x6000
 8006254:	eb03 1000 	add.w	r0, r3, r0, lsl #4
  stm32_usb_pma_t *pmap = USB_ADDR2PTR(udp->TXADDR0);
 8006258:	58e3      	ldr	r3, [r4, r3]
 800625a:	4411      	add	r1, r2
 800625c:	f103 5300 	add.w	r3, r3, #536870912	; 0x20000000
 8006260:	f503 5340 	add.w	r3, r3, #12288	; 0x3000
 8006264:	005b      	lsls	r3, r3, #1
  udp->TXCOUNT0 = (stm32_usb_pma_t)n;
 8006266:	6042      	str	r2, [r0, #4]
  while (i > 0) {
 8006268:	2a00      	cmp	r2, #0
 800626a:	eba1 0002 	sub.w	r0, r1, r2
 800626e:	dc00      	bgt.n	8006272 <usb_packet_write_from_buffer+0x2e>
}
 8006270:	bd10      	pop	{r4, pc}
    w |= *buf++ << 8;
 8006272:	8800      	ldrh	r0, [r0, #0]
    i -= 2;
 8006274:	3a02      	subs	r2, #2
    w |= *buf++ << 8;
 8006276:	f843 0b04 	str.w	r0, [r3], #4
    i -= 2;
 800627a:	e7f5      	b.n	8006268 <usb_packet_write_from_buffer+0x24>
 800627c:	40005c00 	.word	0x40005c00

08006280 <Vector90>:
OSAL_IRQ_HANDLER(STM32_USB1_LP_HANDLER) {
 8006280:	e92d 4ff8 	stmdb	sp!, {r3, r4, r5, r6, r7, r8, r9, sl, fp, lr}
  istr = STM32_USB->ISTR;
 8006284:	4d8e      	ldr	r5, [pc, #568]	; (80064c0 <Vector90+0x240>)
 8006286:	6c6c      	ldr	r4, [r5, #68]	; 0x44
  if (istr & ISTR_RESET) {
 8006288:	0566      	lsls	r6, r4, #21
 800628a:	d504      	bpl.n	8006296 <Vector90+0x16>
    STM32_USB->ISTR = ~ISTR_RESET;
 800628c:	f46f 6380 	mvn.w	r3, #1024	; 0x400
 8006290:	646b      	str	r3, [r5, #68]	; 0x44
    _usb_reset(usbp);
 8006292:	f7ff ffa1 	bl	80061d8 <_usb_reset.constprop.0>
  if (istr & ISTR_SUSP) {
 8006296:	0520      	lsls	r0, r4, #20
 8006298:	d511      	bpl.n	80062be <Vector90+0x3e>
    STM32_USB->CNTR |= CNTR_FSUSP;
 800629a:	6c2b      	ldr	r3, [r5, #64]	; 0x40
 */
void _usb_suspend(USBDriver *usbp) {
  /* No state change, suspend always returns to previous state. */

  /* State transition.*/
  usbp->saved_state = usbp->state;
 800629c:	4889      	ldr	r0, [pc, #548]	; (80064c4 <Vector90+0x244>)
 800629e:	f043 0308 	orr.w	r3, r3, #8
 80062a2:	642b      	str	r3, [r5, #64]	; 0x40
    STM32_USB->ISTR = ~ISTR_SUSP;
 80062a4:	f46f 6300 	mvn.w	r3, #2048	; 0x800
 80062a8:	646b      	str	r3, [r5, #68]	; 0x44
 80062aa:	7803      	ldrb	r3, [r0, #0]
 80062ac:	f880 3080 	strb.w	r3, [r0, #128]	; 0x80
  usbp->state       = USB_SUSPENDED;
 80062b0:	2305      	movs	r3, #5
 80062b2:	7003      	strb	r3, [r0, #0]

  /* Notification of suspend event.*/
  _usb_isr_invoke_event_cb(usbp, USB_EVENT_SUSPEND);
 80062b4:	6843      	ldr	r3, [r0, #4]
 80062b6:	681b      	ldr	r3, [r3, #0]
 80062b8:	b10b      	cbz	r3, 80062be <Vector90+0x3e>
 80062ba:	2104      	movs	r1, #4
 80062bc:	4798      	blx	r3
  if (istr & ISTR_WKUP) {
 80062be:	04e1      	lsls	r1, r4, #19
 80062c0:	d514      	bpl.n	80062ec <Vector90+0x6c>
    uint32_t fnr = STM32_USB->FNR;
 80062c2:	4b7f      	ldr	r3, [pc, #508]	; (80064c0 <Vector90+0x240>)
 80062c4:	6c9a      	ldr	r2, [r3, #72]	; 0x48
    if (!(fnr & FNR_RXDP)) {
 80062c6:	0412      	lsls	r2, r2, #16
 80062c8:	d40c      	bmi.n	80062e4 <Vector90+0x64>
      STM32_USB->CNTR &= ~CNTR_FSUSP;
 80062ca:	6c1a      	ldr	r2, [r3, #64]	; 0x40
 * @notapi
 */
void _usb_wakeup(USBDriver *usbp) {

  /* State transition, returning to the previous state.*/
  usbp->state = usbp->saved_state;
 80062cc:	487d      	ldr	r0, [pc, #500]	; (80064c4 <Vector90+0x244>)
 80062ce:	f022 0208 	bic.w	r2, r2, #8
 80062d2:	641a      	str	r2, [r3, #64]	; 0x40
 80062d4:	f890 3080 	ldrb.w	r3, [r0, #128]	; 0x80
 80062d8:	7003      	strb	r3, [r0, #0]

  /* Notification of suspend event.*/
  _usb_isr_invoke_event_cb(usbp, USB_EVENT_WAKEUP);
 80062da:	6843      	ldr	r3, [r0, #4]
 80062dc:	681b      	ldr	r3, [r3, #0]
 80062de:	b10b      	cbz	r3, 80062e4 <Vector90+0x64>
 80062e0:	2105      	movs	r1, #5
 80062e2:	4798      	blx	r3
    STM32_USB->ISTR = ~ISTR_WKUP;
 80062e4:	f46f 5280 	mvn.w	r2, #4096	; 0x1000
 80062e8:	4b75      	ldr	r3, [pc, #468]	; (80064c0 <Vector90+0x240>)
 80062ea:	645a      	str	r2, [r3, #68]	; 0x44
  if (istr & ISTR_SOF) {
 80062ec:	05a3      	lsls	r3, r4, #22
 80062ee:	d508      	bpl.n	8006302 <Vector90+0x82>
    _usb_isr_invoke_sof_cb(usbp);
 80062f0:	4874      	ldr	r0, [pc, #464]	; (80064c4 <Vector90+0x244>)
 80062f2:	6843      	ldr	r3, [r0, #4]
 80062f4:	68db      	ldr	r3, [r3, #12]
 80062f6:	b103      	cbz	r3, 80062fa <Vector90+0x7a>
 80062f8:	4798      	blx	r3
    STM32_USB->ISTR = ~ISTR_SOF;
 80062fa:	f46f 7200 	mvn.w	r2, #512	; 0x200
 80062fe:	4b70      	ldr	r3, [pc, #448]	; (80064c0 <Vector90+0x240>)
 8006300:	645a      	str	r2, [r3, #68]	; 0x44
  const USBEndpointConfig *epcp = usbp->epc[ep];
 8006302:	4e70      	ldr	r6, [pc, #448]	; (80064c4 <Vector90+0x244>)
    EPR_CLEAR_CTR_TX(ep);
 8006304:	4d70      	ldr	r5, [pc, #448]	; (80064c8 <Vector90+0x248>)
  while (istr & ISTR_CTR) {
 8006306:	f414 4100 	ands.w	r1, r4, #32768	; 0x8000
 800630a:	d11a      	bne.n	8006342 <Vector90+0xc2>
 800630c:	4b6f      	ldr	r3, [pc, #444]	; (80064cc <Vector90+0x24c>)
 800630e:	681a      	ldr	r2, [r3, #0]
 8006310:	6019      	str	r1, [r3, #0]
  OSAL_IRQ_EPILOGUE();
 8006312:	b1a2      	cbz	r2, 800633e <Vector90+0xbe>
 8006314:	4b6e      	ldr	r3, [pc, #440]	; (80064d0 <Vector90+0x250>)
 8006316:	4a6f      	ldr	r2, [pc, #444]	; (80064d4 <Vector90+0x254>)
 8006318:	6819      	ldr	r1, [r3, #0]
 800631a:	6011      	str	r1, [r2, #0]
 800631c:	4a6e      	ldr	r2, [pc, #440]	; (80064d8 <Vector90+0x258>)
 800631e:	6812      	ldr	r2, [r2, #0]
 8006320:	b12a      	cbz	r2, 800632e <Vector90+0xae>
 8006322:	681a      	ldr	r2, [r3, #0]
 8006324:	f422 027f 	bic.w	r2, r2, #16711680	; 0xff0000
 8006328:	601a      	str	r2, [r3, #0]
 800632a:	681a      	ldr	r2, [r3, #0]
 800632c:	601a      	str	r2, [r3, #0]
 800632e:	f04f 5280 	mov.w	r2, #268435456	; 0x10000000
 8006332:	4b6a      	ldr	r3, [pc, #424]	; (80064dc <Vector90+0x25c>)
 8006334:	601a      	str	r2, [r3, #0]
 8006336:	f3bf 8f4f 	dsb	sy
 800633a:	f3bf 8f6f 	isb	sy
}
 800633e:	e8bd 8ff8 	ldmia.w	sp!, {r3, r4, r5, r6, r7, r8, r9, sl, fp, pc}
    usb_serve_endpoints(usbp, istr & ISTR_EP_ID_MASK);
 8006342:	f004 040f 	and.w	r4, r4, #15
static void usb_serve_endpoints(USBDriver *usbp, uint32_t ep) {
 8006346:	00a7      	lsls	r7, r4, #2
 8006348:	f107 4780 	add.w	r7, r7, #1073741824	; 0x40000000
 800634c:	f507 47b8 	add.w	r7, r7, #23552	; 0x5c00
  uint32_t epr = STM32_USB->EPR[ep];
 8006350:	f8d7 a000 	ldr.w	sl, [r7]
  const USBEndpointConfig *epcp = usbp->epc[ep];
 8006354:	f104 0902 	add.w	r9, r4, #2
 8006358:	eb06 0389 	add.w	r3, r6, r9, lsl #2
  if (epr & EPR_CTR_TX) {
 800635c:	f01a 0f80 	tst.w	sl, #128	; 0x80
  const USBEndpointConfig *epcp = usbp->epc[ep];
 8006360:	f8d3 8004 	ldr.w	r8, [r3, #4]
  if (epr & EPR_CTR_TX) {
 8006364:	d025      	beq.n	80063b2 <Vector90+0x132>
    EPR_CLEAR_CTR_TX(ep);
 8006366:	683a      	ldr	r2, [r7, #0]
    USBInEndpointState *isp = epcp->in_state;
 8006368:	f8d8 3014 	ldr.w	r3, [r8, #20]
    EPR_CLEAR_CTR_TX(ep);
 800636c:	402a      	ands	r2, r5
 800636e:	f442 4200 	orr.w	r2, r2, #32768	; 0x8000
 8006372:	603a      	str	r2, [r7, #0]
    isp->txcnt += isp->txlast;
 8006374:	68d9      	ldr	r1, [r3, #12]
 8006376:	685a      	ldr	r2, [r3, #4]
    n = isp->txsize - isp->txcnt;
 8006378:	6818      	ldr	r0, [r3, #0]
    isp->txcnt += isp->txlast;
 800637a:	440a      	add	r2, r1
    if (n > 0) {
 800637c:	1a80      	subs	r0, r0, r2
    isp->txcnt += isp->txlast;
 800637e:	605a      	str	r2, [r3, #4]
    if (n > 0) {
 8006380:	d02c      	beq.n	80063dc <Vector90+0x15c>
      if (n > epcp->in_maxsize)
 8006382:	f8b8 2010 	ldrh.w	r2, [r8, #16]
 8006386:	4282      	cmp	r2, r0
 8006388:	bf28      	it	cs
 800638a:	4602      	movcs	r2, r0
      isp->txbuf += isp->txlast;
 800638c:	6898      	ldr	r0, [r3, #8]
 800638e:	4401      	add	r1, r0
      isp->txlast = n;
 8006390:	e9c3 1202 	strd	r1, r2, [r3, #8]
      usb_packet_write_from_buffer(ep, isp->txbuf, n);
 8006394:	4620      	mov	r0, r4
 8006396:	f7ff ff55 	bl	8006244 <usb_packet_write_from_buffer>
      EPR_SET_STAT_TX(ep, EPR_STAT_TX_VALID);
 800639a:	683b      	ldr	r3, [r7, #0]
 800639c:	f423 43f0 	bic.w	r3, r3, #30720	; 0x7800
 80063a0:	f023 0340 	bic.w	r3, r3, #64	; 0x40
 80063a4:	f083 0330 	eor.w	r3, r3, #48	; 0x30
 80063a8:	f443 4300 	orr.w	r3, r3, #32768	; 0x8000
 80063ac:	f043 0380 	orr.w	r3, r3, #128	; 0x80
 80063b0:	603b      	str	r3, [r7, #0]
  if (epr & EPR_CTR_RX) {
 80063b2:	f41a 4f00 	tst.w	sl, #32768	; 0x8000
 80063b6:	d06a      	beq.n	800648e <Vector90+0x20e>
    EPR_CLEAR_CTR_RX(ep);
 80063b8:	683b      	ldr	r3, [r7, #0]
    if (epr & EPR_SETUP) {
 80063ba:	f41a 6f00 	tst.w	sl, #2048	; 0x800
    EPR_CLEAR_CTR_RX(ep);
 80063be:	ea03 0305 	and.w	r3, r3, r5
 80063c2:	f043 0380 	orr.w	r3, r3, #128	; 0x80
 80063c6:	603b      	str	r3, [r7, #0]
 80063c8:	b2e1      	uxtb	r1, r4
    if (epr & EPR_SETUP) {
 80063ca:	d016      	beq.n	80063fa <Vector90+0x17a>
      _usb_isr_invoke_setup_cb(usbp, ep);
 80063cc:	eb06 0989 	add.w	r9, r6, r9, lsl #2
 80063d0:	f8d9 3004 	ldr.w	r3, [r9, #4]
 80063d4:	685b      	ldr	r3, [r3, #4]
        _usb_isr_invoke_out_cb(usbp, ep);
 80063d6:	4630      	mov	r0, r6
 80063d8:	4798      	blx	r3
 80063da:	e058      	b.n	800648e <Vector90+0x20e>
      _usb_isr_invoke_in_cb(usbp, ep);
 80063dc:	2301      	movs	r3, #1
 80063de:	fa03 f204 	lsl.w	r2, r3, r4
 80063e2:	8933      	ldrh	r3, [r6, #8]
 80063e4:	ea23 0302 	bic.w	r3, r3, r2
 80063e8:	8133      	strh	r3, [r6, #8]
 80063ea:	f8d8 3008 	ldr.w	r3, [r8, #8]
 80063ee:	2b00      	cmp	r3, #0
 80063f0:	d0df      	beq.n	80063b2 <Vector90+0x132>
 80063f2:	4621      	mov	r1, r4
 80063f4:	4630      	mov	r0, r6
 80063f6:	4798      	blx	r3
 80063f8:	e7db      	b.n	80063b2 <Vector90+0x132>
      USBOutEndpointState *osp = epcp->out_state;
 80063fa:	f8d8 2018 	ldr.w	r2, [r8, #24]
  stm32_usb_descriptor_t *udp = USB_GET_DESCRIPTOR(ep);
 80063fe:	4b30      	ldr	r3, [pc, #192]	; (80064c0 <Vector90+0x240>)
      n = usb_packet_read_to_buffer(ep, osp->rxbuf);
 8006400:	f8d2 c008 	ldr.w	ip, [r2, #8]
  stm32_usb_descriptor_t *udp = USB_GET_DESCRIPTOR(ep);
 8006404:	6d1b      	ldr	r3, [r3, #80]	; 0x50
 8006406:	46e1      	mov	r9, ip
 8006408:	f103 4380 	add.w	r3, r3, #1073741824	; 0x40000000
 800640c:	f503 43c0 	add.w	r3, r3, #24576	; 0x6000
 8006410:	eb03 1004 	add.w	r0, r3, r4, lsl #4
  stm32_usb_pma_t *pmap = USB_ADDR2PTR(udp->RXADDR0);
 8006414:	6883      	ldr	r3, [r0, #8]
  n = (size_t)udp->RXCOUNT0 & RXCOUNT_COUNT_MASK;
 8006416:	f8d0 e00c 	ldr.w	lr, [r0, #12]
  stm32_usb_pma_t *pmap = USB_ADDR2PTR(udp->RXADDR0);
 800641a:	f103 5300 	add.w	r3, r3, #536870912	; 0x20000000
  n = (size_t)udp->RXCOUNT0 & RXCOUNT_COUNT_MASK;
 800641e:	f3ce 0009 	ubfx	r0, lr, #0, #10
 8006422:	f3ce 0e48 	ubfx	lr, lr, #1, #9
  stm32_usb_pma_t *pmap = USB_ADDR2PTR(udp->RXADDR0);
 8006426:	f503 5340 	add.w	r3, r3, #12288	; 0x3000
  while (i >= 2) {
 800642a:	ea4f 0a8e 	mov.w	sl, lr, lsl #2
 800642e:	eb0a 0a43 	add.w	sl, sl, r3, lsl #1
  stm32_usb_pma_t *pmap = USB_ADDR2PTR(udp->RXADDR0);
 8006432:	005b      	lsls	r3, r3, #1
  while (i >= 2) {
 8006434:	4553      	cmp	r3, sl
 8006436:	f109 0902 	add.w	r9, r9, #2
 800643a:	d12b      	bne.n	8006494 <Vector90+0x214>
  if (i >= 1) {
 800643c:	f06f 0901 	mvn.w	r9, #1
 8006440:	fb09 090e 	mla	r9, r9, lr, r0
 8006444:	f1b9 0f00 	cmp.w	r9, #0
 8006448:	d002      	beq.n	8006450 <Vector90+0x1d0>
    *buf = (uint8_t)*pmap;
 800644a:	681b      	ldr	r3, [r3, #0]
 800644c:	f80c 301e 	strb.w	r3, [ip, lr, lsl #1]
      osp->rxbuf += n;
 8006450:	6893      	ldr	r3, [r2, #8]
 8006452:	4403      	add	r3, r0
 8006454:	6093      	str	r3, [r2, #8]
      osp->rxcnt  += n;
 8006456:	6853      	ldr	r3, [r2, #4]
 8006458:	4403      	add	r3, r0
 800645a:	6053      	str	r3, [r2, #4]
      osp->rxsize -= n;
 800645c:	6813      	ldr	r3, [r2, #0]
 800645e:	1a1b      	subs	r3, r3, r0
 8006460:	6013      	str	r3, [r2, #0]
      osp->rxpkts -= 1;
 8006462:	8993      	ldrh	r3, [r2, #12]
 8006464:	3b01      	subs	r3, #1
 8006466:	b29b      	uxth	r3, r3
 8006468:	8193      	strh	r3, [r2, #12]
      if ((n < epcp->out_maxsize) || (osp->rxpkts == 0)) {
 800646a:	f8b8 2012 	ldrh.w	r2, [r8, #18]
 800646e:	4282      	cmp	r2, r0
 8006470:	d800      	bhi.n	8006474 <Vector90+0x1f4>
 8006472:	b9c3      	cbnz	r3, 80064a6 <Vector90+0x226>
        _usb_isr_invoke_out_cb(usbp, ep);
 8006474:	2301      	movs	r3, #1
 8006476:	fa03 f204 	lsl.w	r2, r3, r4
 800647a:	8973      	ldrh	r3, [r6, #10]
 800647c:	eb06 0484 	add.w	r4, r6, r4, lsl #2
 8006480:	ea23 0302 	bic.w	r3, r3, r2
 8006484:	8173      	strh	r3, [r6, #10]
 8006486:	68e3      	ldr	r3, [r4, #12]
 8006488:	68db      	ldr	r3, [r3, #12]
 800648a:	2b00      	cmp	r3, #0
 800648c:	d1a3      	bne.n	80063d6 <Vector90+0x156>
    istr = STM32_USB->ISTR;
 800648e:	4b0c      	ldr	r3, [pc, #48]	; (80064c0 <Vector90+0x240>)
 8006490:	6c5c      	ldr	r4, [r3, #68]	; 0x44
 8006492:	e738      	b.n	8006306 <Vector90+0x86>
    uint32_t w = *pmap++;
 8006494:	f853 bb04 	ldr.w	fp, [r3], #4
    *buf++ = (uint8_t)w;
 8006498:	f809 bc02 	strb.w	fp, [r9, #-2]
    *buf++ = (uint8_t)(w >> 8);
 800649c:	ea4f 2b1b 	mov.w	fp, fp, lsr #8
 80064a0:	f809 bc01 	strb.w	fp, [r9, #-1]
    i -= 2;
 80064a4:	e7c6      	b.n	8006434 <Vector90+0x1b4>
        EPR_SET_STAT_RX(ep, EPR_STAT_RX_VALID);
 80064a6:	683b      	ldr	r3, [r7, #0]
 80064a8:	f423 4390 	bic.w	r3, r3, #18432	; 0x4800
 80064ac:	f023 0370 	bic.w	r3, r3, #112	; 0x70
 80064b0:	f483 5340 	eor.w	r3, r3, #12288	; 0x3000
 80064b4:	f443 4300 	orr.w	r3, r3, #32768	; 0x8000
 80064b8:	f043 0380 	orr.w	r3, r3, #128	; 0x80
 80064bc:	603b      	str	r3, [r7, #0]
 80064be:	e7e6      	b.n	800648e <Vector90+0x20e>
 80064c0:	40005c00 	.word	0x40005c00
 80064c4:	20000f54 	.word	0x20000f54
 80064c8:	ffff070f 	.word	0xffff070f
 80064cc:	2000164c 	.word	0x2000164c
 80064d0:	e000ed20 	.word	0xe000ed20
 80064d4:	2000134c 	.word	0x2000134c
 80064d8:	20001358 	.word	0x20001358
 80064dc:	e000ed04 	.word	0xe000ed04

080064e0 <Vector6C.part.0>:
    if(uxYieldPending()) taskYIELD();
 80064e0:	4b0a      	ldr	r3, [pc, #40]	; (800650c <Vector6C.part.0+0x2c>)
 80064e2:	4a0b      	ldr	r2, [pc, #44]	; (8006510 <Vector6C.part.0+0x30>)
 80064e4:	6819      	ldr	r1, [r3, #0]
 80064e6:	6011      	str	r1, [r2, #0]
 80064e8:	4a0a      	ldr	r2, [pc, #40]	; (8006514 <Vector6C.part.0+0x34>)
 80064ea:	6812      	ldr	r2, [r2, #0]
 80064ec:	b12a      	cbz	r2, 80064fa <Vector6C.part.0+0x1a>
 80064ee:	681a      	ldr	r2, [r3, #0]
 80064f0:	f422 027f 	bic.w	r2, r2, #16711680	; 0xff0000
 80064f4:	601a      	str	r2, [r3, #0]
 80064f6:	681a      	ldr	r2, [r3, #0]
 80064f8:	601a      	str	r2, [r3, #0]
 80064fa:	f04f 5280 	mov.w	r2, #268435456	; 0x10000000
 80064fe:	4b06      	ldr	r3, [pc, #24]	; (8006518 <Vector6C.part.0+0x38>)
 8006500:	601a      	str	r2, [r3, #0]
 8006502:	f3bf 8f4f 	dsb	sy
 8006506:	f3bf 8f6f 	isb	sy
}
 800650a:	4770      	bx	lr
 800650c:	e000ed20 	.word	0xe000ed20
 8006510:	2000134c 	.word	0x2000134c
 8006514:	20001358 	.word	0x20001358
 8006518:	e000ed04 	.word	0xe000ed04

0800651c <spi_lld_serve_tx_interrupt>:
 * @brief   Shared end-of-tx service routine.
 *
 * @param[in] spip      pointer to the @p SPIDriver object
 * @param[in] flags     pre-shifted content of the ISR register
 */
static void spi_lld_serve_tx_interrupt(SPIDriver *spip, uint32_t flags) {
 800651c:	b508      	push	{r3, lr}

  /* DMA errors handling.*/
#if defined(STM32_SPI_DMA_ERROR_HOOK)
  (void)spip;
  if ((flags & (STM32_DMA_ISR_TEIF | STM32_DMA_ISR_DMEIF)) != 0) {
 800651e:	070b      	lsls	r3, r1, #28
 8006520:	d502      	bpl.n	8006528 <spi_lld_serve_tx_interrupt+0xc>
    STM32_SPI_DMA_ERROR_HOOK(spip);
 8006522:	f7fd ff0d 	bl	8004340 <vTaskEndScheduler>
 8006526:	e7fe      	b.n	8006526 <spi_lld_serve_tx_interrupt+0xa>
  }
#else
  (void)spip;
  (void)flags;
#endif
}
 8006528:	bd08      	pop	{r3, pc}

0800652a <spi_lld_serve_rx_interrupt>:
static void spi_lld_serve_rx_interrupt(SPIDriver *spip, uint32_t flags) {
 800652a:	b538      	push	{r3, r4, r5, lr}
  if ((flags & (STM32_DMA_ISR_TEIF | STM32_DMA_ISR_DMEIF)) != 0) {
 800652c:	070b      	lsls	r3, r1, #28
static void spi_lld_serve_rx_interrupt(SPIDriver *spip, uint32_t flags) {
 800652e:	4604      	mov	r4, r0
  if ((flags & (STM32_DMA_ISR_TEIF | STM32_DMA_ISR_DMEIF)) != 0) {
 8006530:	d502      	bpl.n	8006538 <spi_lld_serve_rx_interrupt+0xe>
    STM32_SPI_DMA_ERROR_HOOK(spip);
 8006532:	f7fd ff05 	bl	8004340 <vTaskEndScheduler>
 8006536:	e7fe      	b.n	8006536 <spi_lld_serve_rx_interrupt+0xc>
  dmaStreamDisable(spip->dmatx);
 8006538:	6e83      	ldr	r3, [r0, #104]	; 0x68
 800653a:	6859      	ldr	r1, [r3, #4]
 800653c:	680a      	ldr	r2, [r1, #0]
 800653e:	f022 020f 	bic.w	r2, r2, #15
 8006542:	600a      	str	r2, [r1, #0]
 8006544:	7c1a      	ldrb	r2, [r3, #16]
 8006546:	6819      	ldr	r1, [r3, #0]
 8006548:	230e      	movs	r3, #14
 800654a:	fa03 f202 	lsl.w	r2, r3, r2
 800654e:	604a      	str	r2, [r1, #4]
  dmaStreamDisable(spip->dmarx);
 8006550:	6e42      	ldr	r2, [r0, #100]	; 0x64
 8006552:	6855      	ldr	r5, [r2, #4]
 8006554:	6829      	ldr	r1, [r5, #0]
 8006556:	f021 010f 	bic.w	r1, r1, #15
 800655a:	6029      	str	r1, [r5, #0]
 800655c:	6811      	ldr	r1, [r2, #0]
 800655e:	7c12      	ldrb	r2, [r2, #16]
 8006560:	4093      	lsls	r3, r2
 8006562:	604b      	str	r3, [r1, #4]
  _spi_isr_code(spip);
 8006564:	6843      	ldr	r3, [r0, #4]
 8006566:	681b      	ldr	r3, [r3, #0]
 8006568:	b12b      	cbz	r3, 8006576 <spi_lld_serve_rx_interrupt+0x4c>
 800656a:	2204      	movs	r2, #4
 800656c:	7002      	strb	r2, [r0, #0]
 800656e:	4798      	blx	r3
 8006570:	7823      	ldrb	r3, [r4, #0]
 8006572:	2b04      	cmp	r3, #4
 8006574:	d101      	bne.n	800657a <spi_lld_serve_rx_interrupt+0x50>
 8006576:	2302      	movs	r3, #2
 8006578:	7023      	strb	r3, [r4, #0]
 800657a:	f7ff fb2f 	bl	8005bdc <osalSysLockFromISR.lto_priv.0>
	__asm volatile( "mrs %0, basepri" : "=r"( ulBasePri ) );
 800657e:	f3ef 8311 	mrs	r3, BASEPRI
	return (ulBasePri > 0)? pdTRUE : pdFALSE;
 8006582:	b12b      	cbz	r3, 8006590 <spi_lld_serve_rx_interrupt+0x66>
    if(*thread_reference) {
 8006584:	68a0      	ldr	r0, [r4, #8]
 8006586:	b930      	cbnz	r0, 8006596 <spi_lld_serve_rx_interrupt+0x6c>
}
 8006588:	e8bd 4038 	ldmia.w	sp!, {r3, r4, r5, lr}
  _spi_isr_code(spip);
 800658c:	f7ff bb20 	b.w	8005bd0 <osalSysUnlockFromISR.lto_priv.0>
    osalDbgCheckClassI();
 8006590:	f7fd fed6 	bl	8004340 <vTaskEndScheduler>
 8006594:	e7fe      	b.n	8006594 <spi_lld_serve_rx_interrupt+0x6a>
        xTaskNotifyFromISR( *thread_reference, msg, eSetValueWithOverwrite, NULL );
 8006596:	2100      	movs	r1, #0
 8006598:	f7fd ff5e 	bl	8004458 <xTaskGenericNotifyFromISR.constprop.0>
        *thread_reference = NULL;
 800659c:	2300      	movs	r3, #0
 800659e:	60a3      	str	r3, [r4, #8]
 80065a0:	e7f2      	b.n	8006588 <spi_lld_serve_rx_interrupt+0x5e>

080065a2 <i2c_lld_serve_tx_end_irq>:
static void i2c_lld_serve_tx_end_irq(I2CDriver *i2cp, uint32_t flags) {
 80065a2:	b508      	push	{r3, lr}
  if ((flags & (STM32_DMA_ISR_TEIF | STM32_DMA_ISR_DMEIF)) != 0) {
 80065a4:	070b      	lsls	r3, r1, #28
 80065a6:	d502      	bpl.n	80065ae <i2c_lld_serve_tx_end_irq+0xc>
    STM32_I2C_DMA_ERROR_HOOK(i2cp);
 80065a8:	f7fd feca 	bl	8004340 <vTaskEndScheduler>
 80065ac:	e7fe      	b.n	80065ac <i2c_lld_serve_tx_end_irq+0xa>
  dmaStreamDisable(i2cp->dmatx);
 80065ae:	e9d0 311d 	ldrd	r3, r1, [r0, #116]	; 0x74
 80065b2:	6858      	ldr	r0, [r3, #4]
 80065b4:	6802      	ldr	r2, [r0, #0]
 80065b6:	f022 020f 	bic.w	r2, r2, #15
 80065ba:	6002      	str	r2, [r0, #0]
 80065bc:	7c18      	ldrb	r0, [r3, #16]
 80065be:	681a      	ldr	r2, [r3, #0]
 80065c0:	230e      	movs	r3, #14
 80065c2:	4083      	lsls	r3, r0
 80065c4:	6053      	str	r3, [r2, #4]
  dp->CR2 |= I2C_CR2_ITEVTEN;
 80065c6:	684b      	ldr	r3, [r1, #4]
 80065c8:	f443 7300 	orr.w	r3, r3, #512	; 0x200
 80065cc:	604b      	str	r3, [r1, #4]
}
 80065ce:	bd08      	pop	{r3, pc}

080065d0 <osalThreadResumeI.lto_priv.0>:
{
 80065d0:	b510      	push	{r4, lr}
 80065d2:	4604      	mov	r4, r0
	__asm volatile( "mrs %0, basepri" : "=r"( ulBasePri ) );
 80065d4:	f3ef 8311 	mrs	r3, BASEPRI
	return (ulBasePri > 0)? pdTRUE : pdFALSE;
 80065d8:	b133      	cbz	r3, 80065e8 <osalThreadResumeI.lto_priv.0+0x18>
    if(*thread_reference) {
 80065da:	6800      	ldr	r0, [r0, #0]
 80065dc:	b118      	cbz	r0, 80065e6 <osalThreadResumeI.lto_priv.0+0x16>
        xTaskNotifyFromISR( *thread_reference, msg, eSetValueWithOverwrite, NULL );
 80065de:	f7fd ff3b 	bl	8004458 <xTaskGenericNotifyFromISR.constprop.0>
        *thread_reference = NULL;
 80065e2:	2300      	movs	r3, #0
 80065e4:	6023      	str	r3, [r4, #0]
    }
}
 80065e6:	bd10      	pop	{r4, pc}
    osalDbgCheckClassI();
 80065e8:	f7fd feaa 	bl	8004340 <vTaskEndScheduler>
 80065ec:	e7fe      	b.n	80065ec <osalThreadResumeI.lto_priv.0+0x1c>

080065ee <i2c_lld_serve_rx_end_irq>:
  if ((flags & (STM32_DMA_ISR_TEIF | STM32_DMA_ISR_DMEIF)) != 0) {
 80065ee:	f011 0108 	ands.w	r1, r1, #8
static void i2c_lld_serve_rx_end_irq(I2CDriver *i2cp, uint32_t flags) {
 80065f2:	b538      	push	{r3, r4, r5, lr}
 80065f4:	4604      	mov	r4, r0
  if ((flags & (STM32_DMA_ISR_TEIF | STM32_DMA_ISR_DMEIF)) != 0) {
 80065f6:	d002      	beq.n	80065fe <i2c_lld_serve_rx_end_irq+0x10>
    STM32_I2C_DMA_ERROR_HOOK(i2cp);
 80065f8:	f7fd fea2 	bl	8004340 <vTaskEndScheduler>
 80065fc:	e7fe      	b.n	80065fc <i2c_lld_serve_rx_end_irq+0xe>
  dmaStreamDisable(i2cp->dmarx);
 80065fe:	6f02      	ldr	r2, [r0, #112]	; 0x70
  I2C_TypeDef *dp = i2cp->i2c;
 8006600:	6f83      	ldr	r3, [r0, #120]	; 0x78
  dmaStreamDisable(i2cp->dmarx);
 8006602:	6855      	ldr	r5, [r2, #4]
 8006604:	6828      	ldr	r0, [r5, #0]
 8006606:	f020 000f 	bic.w	r0, r0, #15
 800660a:	6028      	str	r0, [r5, #0]
 800660c:	7c15      	ldrb	r5, [r2, #16]
 800660e:	6810      	ldr	r0, [r2, #0]
 8006610:	220e      	movs	r2, #14
 8006612:	40aa      	lsls	r2, r5
 8006614:	6042      	str	r2, [r0, #4]
  dp->CR2 &= ~I2C_CR2_LAST;
 8006616:	685a      	ldr	r2, [r3, #4]
 8006618:	f422 5280 	bic.w	r2, r2, #4096	; 0x1000
 800661c:	605a      	str	r2, [r3, #4]
  dp->CR1 &= ~I2C_CR1_ACK;
 800661e:	681a      	ldr	r2, [r3, #0]
 8006620:	f422 6280 	bic.w	r2, r2, #1024	; 0x400
 8006624:	601a      	str	r2, [r3, #0]
  dp->CR1 |= I2C_CR1_STOP;
 8006626:	681a      	ldr	r2, [r3, #0]
 8006628:	f442 7200 	orr.w	r2, r2, #512	; 0x200
 800662c:	601a      	str	r2, [r3, #0]
  _i2c_wakeup_isr(i2cp);
 800662e:	f7ff fad5 	bl	8005bdc <osalSysLockFromISR.lto_priv.0>
 8006632:	f104 0060 	add.w	r0, r4, #96	; 0x60
 8006636:	f7ff ffcb 	bl	80065d0 <osalThreadResumeI.lto_priv.0>
}
 800663a:	e8bd 4038 	ldmia.w	sp!, {r3, r4, r5, lr}
  _i2c_wakeup_isr(i2cp);
 800663e:	f7ff bac7 	b.w	8005bd0 <osalSysUnlockFromISR.lto_priv.0>
	...

08006644 <VectorC0>:
OSAL_IRQ_HANDLER(STM32_I2C1_ERROR_HANDLER) {
 8006644:	b5f8      	push	{r3, r4, r5, r6, r7, lr}
  uint16_t sr = I2CD1.i2c->SR1;
 8006646:	4b35      	ldr	r3, [pc, #212]	; (800671c <VectorC0+0xd8>)
 8006648:	6f9a      	ldr	r2, [r3, #120]	; 0x78
 800664a:	6951      	ldr	r1, [r2, #20]
  I2CD1.i2c->SR1 = ~(sr & I2C_ERROR_MASK);
 800664c:	f401 445f 	and.w	r4, r1, #57088	; 0xdf00
 8006650:	43e4      	mvns	r4, r4
 8006652:	6154      	str	r4, [r2, #20]
  dmaStreamDisable(i2cp->dmatx);
 8006654:	6f5c      	ldr	r4, [r3, #116]	; 0x74
  uint16_t sr = I2CD1.i2c->SR1;
 8006656:	b288      	uxth	r0, r1
  dmaStreamDisable(i2cp->dmatx);
 8006658:	6866      	ldr	r6, [r4, #4]
 800665a:	6835      	ldr	r5, [r6, #0]
 800665c:	f025 050f 	bic.w	r5, r5, #15
 8006660:	6035      	str	r5, [r6, #0]
 8006662:	7c25      	ldrb	r5, [r4, #16]
 8006664:	6826      	ldr	r6, [r4, #0]
 8006666:	240e      	movs	r4, #14
 8006668:	fa04 f505 	lsl.w	r5, r4, r5
 800666c:	6075      	str	r5, [r6, #4]
  dmaStreamDisable(i2cp->dmarx);
 800666e:	6f1d      	ldr	r5, [r3, #112]	; 0x70
 8006670:	686f      	ldr	r7, [r5, #4]
 8006672:	683e      	ldr	r6, [r7, #0]
 8006674:	f026 060f 	bic.w	r6, r6, #15
 8006678:	603e      	str	r6, [r7, #0]
 800667a:	682e      	ldr	r6, [r5, #0]
 800667c:	7c2d      	ldrb	r5, [r5, #16]
 800667e:	40ac      	lsls	r4, r5
 8006680:	6074      	str	r4, [r6, #4]
  i2cp->numInterrupts++;
 8006682:	f8d3 4080 	ldr.w	r4, [r3, #128]	; 0x80
 8006686:	3401      	adds	r4, #1
 8006688:	f8c3 4080 	str.w	r4, [r3, #128]	; 0x80
  if (sr & I2C_SR1_BERR)                            /* Bus error.           */
 800668c:	f411 7480 	ands.w	r4, r1, #256	; 0x100
    i2cp->errors |= I2C_BUS_ERROR;
 8006690:	bf18      	it	ne
 8006692:	2401      	movne	r4, #1
  if (sr & I2C_SR1_ARLO)                            /* Arbitration lost.    */
 8006694:	0587      	lsls	r7, r0, #22
    i2cp->errors |= I2C_BUS_ERROR;
 8006696:	609c      	str	r4, [r3, #8]
    i2cp->errors |= I2C_ARBITRATION_LOST;
 8006698:	bf42      	ittt	mi
 800669a:	689c      	ldrmi	r4, [r3, #8]
 800669c:	f044 0402 	orrmi.w	r4, r4, #2
 80066a0:	609c      	strmi	r4, [r3, #8]
  if (sr & I2C_SR1_AF) {                            /* Acknowledge fail.    */
 80066a2:	0546      	lsls	r6, r0, #21
 80066a4:	d50b      	bpl.n	80066be <VectorC0+0x7a>
    i2cp->i2c->CR2 &= ~I2C_CR2_ITEVTEN;
 80066a6:	6855      	ldr	r5, [r2, #4]
 80066a8:	689c      	ldr	r4, [r3, #8]
 80066aa:	f425 7500 	bic.w	r5, r5, #512	; 0x200
 80066ae:	6055      	str	r5, [r2, #4]
    i2cp->i2c->CR1 |= I2C_CR1_STOP;                 /* Setting stop bit.    */
 80066b0:	6815      	ldr	r5, [r2, #0]
    i2cp->errors |= I2C_ACK_FAILURE;
 80066b2:	f044 0404 	orr.w	r4, r4, #4
    i2cp->i2c->CR1 |= I2C_CR1_STOP;                 /* Setting stop bit.    */
 80066b6:	f445 7500 	orr.w	r5, r5, #512	; 0x200
 80066ba:	6015      	str	r5, [r2, #0]
    i2cp->errors |= I2C_ACK_FAILURE;
 80066bc:	609c      	str	r4, [r3, #8]
  if (sr & I2C_SR1_OVR)                             /* Overrun.             */
 80066be:	0505      	lsls	r5, r0, #20
    i2cp->errors |= I2C_OVERRUN;
 80066c0:	bf42      	ittt	mi
 80066c2:	689a      	ldrmi	r2, [r3, #8]
 80066c4:	f042 0208 	orrmi.w	r2, r2, #8
 80066c8:	609a      	strmi	r2, [r3, #8]
  if (sr & I2C_SR1_TIMEOUT)                         /* SMBus Timeout.       */
 80066ca:	0444      	lsls	r4, r0, #17
    i2cp->errors |= I2C_TIMEOUT;
 80066cc:	bf42      	ittt	mi
 80066ce:	689a      	ldrmi	r2, [r3, #8]
 80066d0:	f042 0220 	orrmi.w	r2, r2, #32
 80066d4:	609a      	strmi	r2, [r3, #8]
  if (sr & I2C_SR1_PECERR)                          /* PEC error.           */
 80066d6:	04c0      	lsls	r0, r0, #19
    i2cp->errors |= I2C_PEC_ERROR;
 80066d8:	bf42      	ittt	mi
 80066da:	689a      	ldrmi	r2, [r3, #8]
 80066dc:	f042 0210 	orrmi.w	r2, r2, #16
 80066e0:	609a      	strmi	r2, [r3, #8]
  if (sr & I2C_SR1_SMBALERT)                        /* SMBus alert.         */
 80066e2:	0409      	lsls	r1, r1, #16
 80066e4:	689a      	ldr	r2, [r3, #8]
 80066e6:	d50c      	bpl.n	8006702 <VectorC0+0xbe>
    i2cp->errors |= I2C_SMB_ALERT;
 80066e8:	f042 0240 	orr.w	r2, r2, #64	; 0x40
 80066ec:	609a      	str	r2, [r3, #8]
    _i2c_wakeup_error_isr(i2cp);
 80066ee:	f7ff fa75 	bl	8005bdc <osalSysLockFromISR.lto_priv.0>
 80066f2:	f06f 0101 	mvn.w	r1, #1
 80066f6:	480a      	ldr	r0, [pc, #40]	; (8006720 <VectorC0+0xdc>)
 80066f8:	f7ff ff6a 	bl	80065d0 <osalThreadResumeI.lto_priv.0>
 80066fc:	f7ff fa68 	bl	8005bd0 <osalSysUnlockFromISR.lto_priv.0>
 8006700:	e001      	b.n	8006706 <VectorC0+0xc2>
  if (i2cp->errors != I2C_NO_ERROR)
 8006702:	2a00      	cmp	r2, #0
 8006704:	d1f3      	bne.n	80066ee <VectorC0+0xaa>
 8006706:	2100      	movs	r1, #0
 8006708:	4b06      	ldr	r3, [pc, #24]	; (8006724 <VectorC0+0xe0>)
 800670a:	681a      	ldr	r2, [r3, #0]
 800670c:	6019      	str	r1, [r3, #0]
  OSAL_IRQ_EPILOGUE();
 800670e:	b11a      	cbz	r2, 8006718 <VectorC0+0xd4>
}
 8006710:	e8bd 40f8 	ldmia.w	sp!, {r3, r4, r5, r6, r7, lr}
 8006714:	f7ff bee4 	b.w	80064e0 <Vector6C.part.0>
 8006718:	bdf8      	pop	{r3, r4, r5, r6, r7, pc}
 800671a:	bf00      	nop
 800671c:	20000934 	.word	0x20000934
 8006720:	20000994 	.word	0x20000994
 8006724:	2000164c 	.word	0x2000164c

08006728 <VectorBC>:
OSAL_IRQ_HANDLER(STM32_I2C1_EVENT_HANDLER) {
 8006728:	b570      	push	{r4, r5, r6, lr}
  I2C_TypeDef *dp = i2cp->i2c;
 800672a:	4d4e      	ldr	r5, [pc, #312]	; (8006864 <VectorBC+0x13c>)
 800672c:	6fac      	ldr	r4, [r5, #120]	; 0x78
  i2cp->numInterrupts++;
 800672e:	f8d5 2080 	ldr.w	r2, [r5, #128]	; 0x80
  uint32_t regSR2 = dp->SR2;
 8006732:	69a3      	ldr	r3, [r4, #24]
  uint32_t event = dp->SR1;
 8006734:	6966      	ldr	r6, [r4, #20]
  i2cp->numInterrupts++;
 8006736:	3201      	adds	r2, #1
  if ((event & I2C_SR1_BERR) || (i2cp->numInterrupts>=30)) {
 8006738:	f416 7f80 	tst.w	r6, #256	; 0x100
 800673c:	4629      	mov	r1, r5
  i2cp->numInterrupts++;
 800673e:	f8c5 2080 	str.w	r2, [r5, #128]	; 0x80
  if ((event & I2C_SR1_BERR) || (i2cp->numInterrupts>=30)) {
 8006742:	d101      	bne.n	8006748 <VectorBC+0x20>
 8006744:	2a1d      	cmp	r2, #29
 8006746:	d91c      	bls.n	8006782 <VectorBC+0x5a>
    dp->SR1 &= ~I2C_SR1_BERR;
 8006748:	6963      	ldr	r3, [r4, #20]
 800674a:	f423 7380 	bic.w	r3, r3, #256	; 0x100
 800674e:	6163      	str	r3, [r4, #20]
    dp->CR2 &=~ I2C_CR2_ITEVTEN | I2C_CR2_ITERREN | I2C_CR2_ITBUFEN;
 8006750:	6863      	ldr	r3, [r4, #4]
 8006752:	f423 7300 	bic.w	r3, r3, #512	; 0x200
 8006756:	6063      	str	r3, [r4, #4]
    i2cp->errors = I2C_BUS_ERROR;
 8006758:	2301      	movs	r3, #1
 800675a:	608b      	str	r3, [r1, #8]
    _i2c_wakeup_error_isr(i2cp);
 800675c:	f7ff fa3e 	bl	8005bdc <osalSysLockFromISR.lto_priv.0>
 8006760:	f06f 0101 	mvn.w	r1, #1
 8006764:	4840      	ldr	r0, [pc, #256]	; (8006868 <VectorBC+0x140>)
 8006766:	f7ff ff33 	bl	80065d0 <osalThreadResumeI.lto_priv.0>
 800676a:	f7ff fa31 	bl	8005bd0 <osalSysUnlockFromISR.lto_priv.0>
 800676e:	2100      	movs	r1, #0
 8006770:	4b3e      	ldr	r3, [pc, #248]	; (800686c <VectorBC+0x144>)
 8006772:	681a      	ldr	r2, [r3, #0]
 8006774:	6019      	str	r1, [r3, #0]
  OSAL_IRQ_EPILOGUE();
 8006776:	2a00      	cmp	r2, #0
 8006778:	d072      	beq.n	8006860 <VectorBC+0x138>
}
 800677a:	e8bd 4070 	ldmia.w	sp!, {r4, r5, r6, lr}
 800677e:	f7ff beaf 	b.w	80064e0 <Vector6C.part.0>
  switch (I2C_EV_MASK & (event | (regSR2 << 16))) {
 8006782:	4a3b      	ldr	r2, [pc, #236]	; (8006870 <VectorBC+0x148>)
 8006784:	ea46 4303 	orr.w	r3, r6, r3, lsl #16
 8006788:	f023 437f 	bic.w	r3, r3, #4278190080	; 0xff000000
 800678c:	4293      	cmp	r3, r2
 800678e:	d030      	beq.n	80067f2 <VectorBC+0xca>
 8006790:	d80a      	bhi.n	80067a8 <VectorBC+0x80>
 8006792:	3a07      	subs	r2, #7
 8006794:	4293      	cmp	r3, r2
 8006796:	d01d      	beq.n	80067d4 <VectorBC+0xac>
 8006798:	3201      	adds	r2, #1
 800679a:	4293      	cmp	r3, r2
 800679c:	d02e      	beq.n	80067fc <VectorBC+0xd4>
  if (event & (I2C_SR1_ADDR | I2C_SR1_ADD10))
 800679e:	f016 0f0a 	tst.w	r6, #10
    (void)dp->SR2;
 80067a2:	bf18      	it	ne
 80067a4:	69a3      	ldrne	r3, [r4, #24]
 80067a6:	e7e2      	b.n	800676e <VectorBC+0x46>
  switch (I2C_EV_MASK & (event | (regSR2 << 16))) {
 80067a8:	4a32      	ldr	r2, [pc, #200]	; (8006874 <VectorBC+0x14c>)
 80067aa:	4293      	cmp	r3, r2
 80067ac:	d03c      	beq.n	8006828 <VectorBC+0x100>
 80067ae:	3202      	adds	r2, #2
 80067b0:	4293      	cmp	r3, r2
 80067b2:	d1f4      	bne.n	800679e <VectorBC+0x76>
    if (dmaStreamGetTransactionSize(i2cp->dmarx) > 0) {
 80067b4:	6f2b      	ldr	r3, [r5, #112]	; 0x70
 80067b6:	685b      	ldr	r3, [r3, #4]
 80067b8:	6859      	ldr	r1, [r3, #4]
 80067ba:	2900      	cmp	r1, #0
 80067bc:	d03f      	beq.n	800683e <VectorBC+0x116>
      i2cp->addr |= 0x01;
 80067be:	f8b5 3064 	ldrh.w	r3, [r5, #100]	; 0x64
 80067c2:	f043 0301 	orr.w	r3, r3, #1
 80067c6:	f8a5 3064 	strh.w	r3, [r5, #100]	; 0x64
      dp->CR1 |= I2C_CR1_START | I2C_CR1_ACK;
 80067ca:	6823      	ldr	r3, [r4, #0]
 80067cc:	f443 63a0 	orr.w	r3, r3, #1280	; 0x500
 80067d0:	6023      	str	r3, [r4, #0]
 80067d2:	e7cc      	b.n	800676e <VectorBC+0x46>
    if ((i2cp->addr >> 8) > 0) { 
 80067d4:	f8b5 2064 	ldrh.w	r2, [r5, #100]	; 0x64
 80067d8:	0a13      	lsrs	r3, r2, #8
 80067da:	d008      	beq.n	80067ee <VectorBC+0xc6>
      dp->DR = 0xF0 | (0x6 & (i2cp->addr >> 8)) | (0x1 & i2cp->addr);
 80067dc:	f003 0306 	and.w	r3, r3, #6
 80067e0:	f002 0201 	and.w	r2, r2, #1
 80067e4:	4313      	orrs	r3, r2
 80067e6:	f043 03f0 	orr.w	r3, r3, #240	; 0xf0
    dp->DR = (0xFF & (i2cp->addr >> 1));
 80067ea:	6123      	str	r3, [r4, #16]
 80067ec:	e7d7      	b.n	800679e <VectorBC+0x76>
      dp->DR = i2cp->addr;
 80067ee:	6122      	str	r2, [r4, #16]
 80067f0:	e7d5      	b.n	800679e <VectorBC+0x76>
    dp->DR = (0xFF & (i2cp->addr >> 1));
 80067f2:	f8b5 3064 	ldrh.w	r3, [r5, #100]	; 0x64
 80067f6:	f3c3 0347 	ubfx	r3, r3, #1, #8
 80067fa:	e7f6      	b.n	80067ea <VectorBC+0xc2>
    dp->CR2 &= ~I2C_CR2_ITEVTEN;
 80067fc:	6863      	ldr	r3, [r4, #4]
 80067fe:	f423 7300 	bic.w	r3, r3, #512	; 0x200
 8006802:	6063      	str	r3, [r4, #4]
    dmaStreamEnable(i2cp->dmarx);
 8006804:	6f2b      	ldr	r3, [r5, #112]	; 0x70
 8006806:	685b      	ldr	r3, [r3, #4]
 8006808:	681a      	ldr	r2, [r3, #0]
 800680a:	f042 0201 	orr.w	r2, r2, #1
 800680e:	601a      	str	r2, [r3, #0]
    dp->CR2 |= I2C_CR2_LAST;                 /* Needed in receiver mode. */
 8006810:	6862      	ldr	r2, [r4, #4]
 8006812:	f442 5280 	orr.w	r2, r2, #4096	; 0x1000
 8006816:	6062      	str	r2, [r4, #4]
    if (dmaStreamGetTransactionSize(i2cp->dmarx) < 2)
 8006818:	685b      	ldr	r3, [r3, #4]
 800681a:	2b01      	cmp	r3, #1
 800681c:	d8bf      	bhi.n	800679e <VectorBC+0x76>
      dp->CR1 &= ~I2C_CR1_ACK;
 800681e:	6823      	ldr	r3, [r4, #0]
 8006820:	f423 6380 	bic.w	r3, r3, #1024	; 0x400
 8006824:	6023      	str	r3, [r4, #0]
 8006826:	e7ba      	b.n	800679e <VectorBC+0x76>
    dp->CR2 &= ~I2C_CR2_ITEVTEN;
 8006828:	6863      	ldr	r3, [r4, #4]
 800682a:	f423 7300 	bic.w	r3, r3, #512	; 0x200
 800682e:	6063      	str	r3, [r4, #4]
    dmaStreamEnable(i2cp->dmatx);
 8006830:	6f6b      	ldr	r3, [r5, #116]	; 0x74
 8006832:	685a      	ldr	r2, [r3, #4]
 8006834:	6813      	ldr	r3, [r2, #0]
 8006836:	f043 0301 	orr.w	r3, r3, #1
 800683a:	6013      	str	r3, [r2, #0]
 800683c:	e7af      	b.n	800679e <VectorBC+0x76>
    dp->CR2 &= ~I2C_CR2_ITEVTEN;
 800683e:	6863      	ldr	r3, [r4, #4]
 8006840:	f423 7300 	bic.w	r3, r3, #512	; 0x200
 8006844:	6063      	str	r3, [r4, #4]
    dp->CR1 |= I2C_CR1_STOP;
 8006846:	6823      	ldr	r3, [r4, #0]
 8006848:	f443 7300 	orr.w	r3, r3, #512	; 0x200
 800684c:	6023      	str	r3, [r4, #0]
    _i2c_wakeup_isr(i2cp);
 800684e:	f7ff f9c5 	bl	8005bdc <osalSysLockFromISR.lto_priv.0>
 8006852:	f105 0060 	add.w	r0, r5, #96	; 0x60
 8006856:	f7ff febb 	bl	80065d0 <osalThreadResumeI.lto_priv.0>
 800685a:	f7ff f9b9 	bl	8005bd0 <osalSysUnlockFromISR.lto_priv.0>
 800685e:	e79e      	b.n	800679e <VectorBC+0x76>
}
 8006860:	bd70      	pop	{r4, r5, r6, pc}
 8006862:	bf00      	nop
 8006864:	20000934 	.word	0x20000934
 8006868:	20000994 	.word	0x20000994
 800686c:	2000164c 	.word	0x2000164c
 8006870:	00030008 	.word	0x00030008
 8006874:	00070082 	.word	0x00070082

08006878 <dmaStreamRelease>:
 *
 * @param[in] dmastp    pointer to a stm32_dma_stream_t structure
 *
 * @special
 */
void dmaStreamRelease(const stm32_dma_stream_t *dmastp) {
 8006878:	b570      	push	{r4, r5, r6, lr}

  osalDbgCheck(dmastp != NULL);
 800687a:	b910      	cbnz	r0, 8006882 <dmaStreamRelease+0xa>
 800687c:	f7fd fd60 	bl	8004340 <vTaskEndScheduler>
 8006880:	e7fe      	b.n	8006880 <dmaStreamRelease+0x8>

  /* Check if the streams is not taken.*/
  osalDbgAssert((dma_streams_mask & (1 << dmastp->selfindex)) != 0U,
 8006882:	2501      	movs	r5, #1
 8006884:	4a15      	ldr	r2, [pc, #84]	; (80068dc <dmaStreamRelease+0x64>)
 8006886:	7c46      	ldrb	r6, [r0, #17]
 8006888:	6813      	ldr	r3, [r2, #0]
 800688a:	fa05 f106 	lsl.w	r1, r5, r6
 800688e:	4219      	tst	r1, r3
 8006890:	d102      	bne.n	8006898 <dmaStreamRelease+0x20>
 8006892:	f7fd fd55 	bl	8004340 <vTaskEndScheduler>
 8006896:	e7fe      	b.n	8006896 <dmaStreamRelease+0x1e>
                "not allocated");

  /* Marks the stream as not allocated.*/
  dma_streams_mask &= ~(1U << dmastp->selfindex);
 8006898:	ea23 0301 	bic.w	r3, r3, r1

  /* Disables the associated IRQ vector if it is no more in use.*/
  if ((dma_streams_mask & dmastp->cmask) == 0U) {
 800689c:	6881      	ldr	r1, [r0, #8]
  dma_streams_mask &= ~(1U << dmastp->selfindex);
 800689e:	6013      	str	r3, [r2, #0]
  if ((dma_streams_mask & dmastp->cmask) == 0U) {
 80068a0:	ea13 0401 	ands.w	r4, r3, r1
 80068a4:	d10b      	bne.n	80068be <dmaStreamRelease+0x46>
    nvicDisableVector(dmastp->vector);
 80068a6:	7c82      	ldrb	r2, [r0, #18]
 *
 * @param[in] n         the interrupt number
 */
void nvicDisableVector(uint32_t n) {

  NVIC->ICER[n >> 5U] = 1U << (n & 0x1FU);
 80068a8:	f002 011f 	and.w	r1, r2, #31
 80068ac:	408d      	lsls	r5, r1
 80068ae:	0950      	lsrs	r0, r2, #5
 80068b0:	490b      	ldr	r1, [pc, #44]	; (80068e0 <dmaStreamRelease+0x68>)
 80068b2:	3020      	adds	r0, #32
 80068b4:	f841 5020 	str.w	r5, [r1, r0, lsl #2]
#if defined(__CORE_CM0_H_GENERIC)
  NVIC->IP[_IP_IDX(n)] = NVIC->IP[_IP_IDX(n)] & ~(0xFFU << _BIT_SHIFT(n));
#else
  NVIC->IP[n] = 0U;
 80068b8:	4411      	add	r1, r2
 80068ba:	f881 4300 	strb.w	r4, [r1, #768]	; 0x300
  }

  /* Removes the DMA handler.*/
  _stm32_dma_isr_redir[dmastp->selfindex].dma_func  = NULL;
 80068be:	2100      	movs	r1, #0
 80068c0:	4a08      	ldr	r2, [pc, #32]	; (80068e4 <dmaStreamRelease+0x6c>)
  _stm32_dma_isr_redir[dmastp->selfindex].dma_param = NULL;

  /* Shutting down clocks that are no more required, if any.*/
  if ((dma_streams_mask & STM32_DMA1_STREAMS_MASK) == 0U) {
 80068c2:	065b      	lsls	r3, r3, #25
  _stm32_dma_isr_redir[dmastp->selfindex].dma_func  = NULL;
 80068c4:	f842 1036 	str.w	r1, [r2, r6, lsl #3]
  _stm32_dma_isr_redir[dmastp->selfindex].dma_param = NULL;
 80068c8:	eb02 02c6 	add.w	r2, r2, r6, lsl #3
 80068cc:	6051      	str	r1, [r2, #4]
    rccDisableDMA1(false);
 80068ce:	bf01      	itttt	eq
 80068d0:	4a05      	ldreq	r2, [pc, #20]	; (80068e8 <dmaStreamRelease+0x70>)
 80068d2:	6953      	ldreq	r3, [r2, #20]
 80068d4:	f023 0301 	biceq.w	r3, r3, #1
 80068d8:	6153      	streq	r3, [r2, #20]
#if STM32_DMA2_NUM_CHANNELS > 0
  if ((dma_streams_mask & STM32_DMA2_STREAMS_MASK) == 0U) {
    rccDisableDMA2(false);
  }
#endif
}
 80068da:	bd70      	pop	{r4, r5, r6, pc}
 80068dc:	20001044 	.word	0x20001044
 80068e0:	e000e100 	.word	0xe000e100
 80068e4:	20000fe8 	.word	0x20000fe8
 80068e8:	40021000 	.word	0x40021000

080068ec <Vector84>:
OSAL_IRQ_HANDLER(STM32_DMA1_CH7_HANDLER) {
 80068ec:	b508      	push	{r3, lr}
  dmaServeInterrupt(STM32_DMA1_STREAM7);
 80068ee:	4b0d      	ldr	r3, [pc, #52]	; (8006924 <Vector84+0x38>)
 80068f0:	4a0d      	ldr	r2, [pc, #52]	; (8006928 <Vector84+0x3c>)
 80068f2:	6819      	ldr	r1, [r3, #0]
 80068f4:	6812      	ldr	r2, [r2, #0]
 80068f6:	0e09      	lsrs	r1, r1, #24
 80068f8:	f001 010e 	and.w	r1, r1, #14
 80068fc:	420a      	tst	r2, r1
 80068fe:	d006      	beq.n	800690e <Vector84+0x22>
 8006900:	060a      	lsls	r2, r1, #24
 8006902:	605a      	str	r2, [r3, #4]
 8006904:	4a09      	ldr	r2, [pc, #36]	; (800692c <Vector84+0x40>)
 8006906:	6b13      	ldr	r3, [r2, #48]	; 0x30
 8006908:	b10b      	cbz	r3, 800690e <Vector84+0x22>
 800690a:	6b50      	ldr	r0, [r2, #52]	; 0x34
 800690c:	4798      	blx	r3
 800690e:	2100      	movs	r1, #0
 8006910:	4b07      	ldr	r3, [pc, #28]	; (8006930 <Vector84+0x44>)
 8006912:	681a      	ldr	r2, [r3, #0]
 8006914:	6019      	str	r1, [r3, #0]
  OSAL_IRQ_EPILOGUE();
 8006916:	b11a      	cbz	r2, 8006920 <Vector84+0x34>
}
 8006918:	e8bd 4008 	ldmia.w	sp!, {r3, lr}
 800691c:	f7ff bde0 	b.w	80064e0 <Vector6C.part.0>
 8006920:	bd08      	pop	{r3, pc}
 8006922:	bf00      	nop
 8006924:	40020000 	.word	0x40020000
 8006928:	40020080 	.word	0x40020080
 800692c:	20000fe8 	.word	0x20000fe8
 8006930:	2000164c 	.word	0x2000164c

08006934 <Vector80>:
OSAL_IRQ_HANDLER(STM32_DMA1_CH6_HANDLER) {
 8006934:	b508      	push	{r3, lr}
  dmaServeInterrupt(STM32_DMA1_STREAM6);
 8006936:	4b0d      	ldr	r3, [pc, #52]	; (800696c <Vector80+0x38>)
 8006938:	4a0d      	ldr	r2, [pc, #52]	; (8006970 <Vector80+0x3c>)
 800693a:	6819      	ldr	r1, [r3, #0]
 800693c:	6812      	ldr	r2, [r2, #0]
 800693e:	0d09      	lsrs	r1, r1, #20
 8006940:	f001 010e 	and.w	r1, r1, #14
 8006944:	420a      	tst	r2, r1
 8006946:	d006      	beq.n	8006956 <Vector80+0x22>
 8006948:	050a      	lsls	r2, r1, #20
 800694a:	605a      	str	r2, [r3, #4]
 800694c:	4a09      	ldr	r2, [pc, #36]	; (8006974 <Vector80+0x40>)
 800694e:	6a93      	ldr	r3, [r2, #40]	; 0x28
 8006950:	b10b      	cbz	r3, 8006956 <Vector80+0x22>
 8006952:	6ad0      	ldr	r0, [r2, #44]	; 0x2c
 8006954:	4798      	blx	r3
 8006956:	2100      	movs	r1, #0
 8006958:	4b07      	ldr	r3, [pc, #28]	; (8006978 <Vector80+0x44>)
 800695a:	681a      	ldr	r2, [r3, #0]
 800695c:	6019      	str	r1, [r3, #0]
  OSAL_IRQ_EPILOGUE();
 800695e:	b11a      	cbz	r2, 8006968 <Vector80+0x34>
}
 8006960:	e8bd 4008 	ldmia.w	sp!, {r3, lr}
 8006964:	f7ff bdbc 	b.w	80064e0 <Vector6C.part.0>
 8006968:	bd08      	pop	{r3, pc}
 800696a:	bf00      	nop
 800696c:	40020000 	.word	0x40020000
 8006970:	4002006c 	.word	0x4002006c
 8006974:	20000fe8 	.word	0x20000fe8
 8006978:	2000164c 	.word	0x2000164c

0800697c <Vector7C>:
OSAL_IRQ_HANDLER(STM32_DMA1_CH5_HANDLER) {
 800697c:	b508      	push	{r3, lr}
  dmaServeInterrupt(STM32_DMA1_STREAM5);
 800697e:	4b0d      	ldr	r3, [pc, #52]	; (80069b4 <Vector7C+0x38>)
 8006980:	4a0d      	ldr	r2, [pc, #52]	; (80069b8 <Vector7C+0x3c>)
 8006982:	6819      	ldr	r1, [r3, #0]
 8006984:	6812      	ldr	r2, [r2, #0]
 8006986:	0c09      	lsrs	r1, r1, #16
 8006988:	f001 010e 	and.w	r1, r1, #14
 800698c:	420a      	tst	r2, r1
 800698e:	d006      	beq.n	800699e <Vector7C+0x22>
 8006990:	040a      	lsls	r2, r1, #16
 8006992:	605a      	str	r2, [r3, #4]
 8006994:	4a09      	ldr	r2, [pc, #36]	; (80069bc <Vector7C+0x40>)
 8006996:	6a13      	ldr	r3, [r2, #32]
 8006998:	b10b      	cbz	r3, 800699e <Vector7C+0x22>
 800699a:	6a50      	ldr	r0, [r2, #36]	; 0x24
 800699c:	4798      	blx	r3
 800699e:	2100      	movs	r1, #0
 80069a0:	4b07      	ldr	r3, [pc, #28]	; (80069c0 <Vector7C+0x44>)
 80069a2:	681a      	ldr	r2, [r3, #0]
 80069a4:	6019      	str	r1, [r3, #0]
  OSAL_IRQ_EPILOGUE();
 80069a6:	b11a      	cbz	r2, 80069b0 <Vector7C+0x34>
}
 80069a8:	e8bd 4008 	ldmia.w	sp!, {r3, lr}
 80069ac:	f7ff bd98 	b.w	80064e0 <Vector6C.part.0>
 80069b0:	bd08      	pop	{r3, pc}
 80069b2:	bf00      	nop
 80069b4:	40020000 	.word	0x40020000
 80069b8:	40020058 	.word	0x40020058
 80069bc:	20000fe8 	.word	0x20000fe8
 80069c0:	2000164c 	.word	0x2000164c

080069c4 <Vector78>:
OSAL_IRQ_HANDLER(STM32_DMA1_CH4_HANDLER) {
 80069c4:	b508      	push	{r3, lr}
  dmaServeInterrupt(STM32_DMA1_STREAM4);
 80069c6:	4b0d      	ldr	r3, [pc, #52]	; (80069fc <Vector78+0x38>)
 80069c8:	4a0d      	ldr	r2, [pc, #52]	; (8006a00 <Vector78+0x3c>)
 80069ca:	6819      	ldr	r1, [r3, #0]
 80069cc:	6812      	ldr	r2, [r2, #0]
 80069ce:	0b09      	lsrs	r1, r1, #12
 80069d0:	f001 010e 	and.w	r1, r1, #14
 80069d4:	420a      	tst	r2, r1
 80069d6:	d006      	beq.n	80069e6 <Vector78+0x22>
 80069d8:	030a      	lsls	r2, r1, #12
 80069da:	605a      	str	r2, [r3, #4]
 80069dc:	4a09      	ldr	r2, [pc, #36]	; (8006a04 <Vector78+0x40>)
 80069de:	6993      	ldr	r3, [r2, #24]
 80069e0:	b10b      	cbz	r3, 80069e6 <Vector78+0x22>
 80069e2:	69d0      	ldr	r0, [r2, #28]
 80069e4:	4798      	blx	r3
 80069e6:	2100      	movs	r1, #0
 80069e8:	4b07      	ldr	r3, [pc, #28]	; (8006a08 <Vector78+0x44>)
 80069ea:	681a      	ldr	r2, [r3, #0]
 80069ec:	6019      	str	r1, [r3, #0]
  OSAL_IRQ_EPILOGUE();
 80069ee:	b11a      	cbz	r2, 80069f8 <Vector78+0x34>
}
 80069f0:	e8bd 4008 	ldmia.w	sp!, {r3, lr}
 80069f4:	f7ff bd74 	b.w	80064e0 <Vector6C.part.0>
 80069f8:	bd08      	pop	{r3, pc}
 80069fa:	bf00      	nop
 80069fc:	40020000 	.word	0x40020000
 8006a00:	40020044 	.word	0x40020044
 8006a04:	20000fe8 	.word	0x20000fe8
 8006a08:	2000164c 	.word	0x2000164c

08006a0c <Vector74>:
OSAL_IRQ_HANDLER(STM32_DMA1_CH3_HANDLER) {
 8006a0c:	b508      	push	{r3, lr}
  dmaServeInterrupt(STM32_DMA1_STREAM3);
 8006a0e:	4b0d      	ldr	r3, [pc, #52]	; (8006a44 <Vector74+0x38>)
 8006a10:	4a0d      	ldr	r2, [pc, #52]	; (8006a48 <Vector74+0x3c>)
 8006a12:	6819      	ldr	r1, [r3, #0]
 8006a14:	6812      	ldr	r2, [r2, #0]
 8006a16:	0a09      	lsrs	r1, r1, #8
 8006a18:	f001 010e 	and.w	r1, r1, #14
 8006a1c:	420a      	tst	r2, r1
 8006a1e:	d006      	beq.n	8006a2e <Vector74+0x22>
 8006a20:	020a      	lsls	r2, r1, #8
 8006a22:	605a      	str	r2, [r3, #4]
 8006a24:	4a09      	ldr	r2, [pc, #36]	; (8006a4c <Vector74+0x40>)
 8006a26:	6913      	ldr	r3, [r2, #16]
 8006a28:	b10b      	cbz	r3, 8006a2e <Vector74+0x22>
 8006a2a:	6950      	ldr	r0, [r2, #20]
 8006a2c:	4798      	blx	r3
 8006a2e:	2100      	movs	r1, #0
 8006a30:	4b07      	ldr	r3, [pc, #28]	; (8006a50 <Vector74+0x44>)
 8006a32:	681a      	ldr	r2, [r3, #0]
 8006a34:	6019      	str	r1, [r3, #0]
  OSAL_IRQ_EPILOGUE();
 8006a36:	b11a      	cbz	r2, 8006a40 <Vector74+0x34>
}
 8006a38:	e8bd 4008 	ldmia.w	sp!, {r3, lr}
 8006a3c:	f7ff bd50 	b.w	80064e0 <Vector6C.part.0>
 8006a40:	bd08      	pop	{r3, pc}
 8006a42:	bf00      	nop
 8006a44:	40020000 	.word	0x40020000
 8006a48:	40020030 	.word	0x40020030
 8006a4c:	20000fe8 	.word	0x20000fe8
 8006a50:	2000164c 	.word	0x2000164c

08006a54 <Vector70>:
OSAL_IRQ_HANDLER(STM32_DMA1_CH2_HANDLER) {
 8006a54:	b508      	push	{r3, lr}
  dmaServeInterrupt(STM32_DMA1_STREAM2);
 8006a56:	4b0d      	ldr	r3, [pc, #52]	; (8006a8c <Vector70+0x38>)
 8006a58:	4a0d      	ldr	r2, [pc, #52]	; (8006a90 <Vector70+0x3c>)
 8006a5a:	6819      	ldr	r1, [r3, #0]
 8006a5c:	6812      	ldr	r2, [r2, #0]
 8006a5e:	0909      	lsrs	r1, r1, #4
 8006a60:	f001 010e 	and.w	r1, r1, #14
 8006a64:	420a      	tst	r2, r1
 8006a66:	d006      	beq.n	8006a76 <Vector70+0x22>
 8006a68:	010a      	lsls	r2, r1, #4
 8006a6a:	605a      	str	r2, [r3, #4]
 8006a6c:	4a09      	ldr	r2, [pc, #36]	; (8006a94 <Vector70+0x40>)
 8006a6e:	6893      	ldr	r3, [r2, #8]
 8006a70:	b10b      	cbz	r3, 8006a76 <Vector70+0x22>
 8006a72:	68d0      	ldr	r0, [r2, #12]
 8006a74:	4798      	blx	r3
 8006a76:	2100      	movs	r1, #0
 8006a78:	4b07      	ldr	r3, [pc, #28]	; (8006a98 <Vector70+0x44>)
 8006a7a:	681a      	ldr	r2, [r3, #0]
 8006a7c:	6019      	str	r1, [r3, #0]
  OSAL_IRQ_EPILOGUE();
 8006a7e:	b11a      	cbz	r2, 8006a88 <Vector70+0x34>
}
 8006a80:	e8bd 4008 	ldmia.w	sp!, {r3, lr}
 8006a84:	f7ff bd2c 	b.w	80064e0 <Vector6C.part.0>
 8006a88:	bd08      	pop	{r3, pc}
 8006a8a:	bf00      	nop
 8006a8c:	40020000 	.word	0x40020000
 8006a90:	4002001c 	.word	0x4002001c
 8006a94:	20000fe8 	.word	0x20000fe8
 8006a98:	2000164c 	.word	0x2000164c

08006a9c <Vector6C>:
OSAL_IRQ_HANDLER(STM32_DMA1_CH1_HANDLER) {
 8006a9c:	b508      	push	{r3, lr}
  dmaServeInterrupt(STM32_DMA1_STREAM1);
 8006a9e:	4b0c      	ldr	r3, [pc, #48]	; (8006ad0 <Vector6C+0x34>)
 8006aa0:	4a0c      	ldr	r2, [pc, #48]	; (8006ad4 <Vector6C+0x38>)
 8006aa2:	6819      	ldr	r1, [r3, #0]
 8006aa4:	6812      	ldr	r2, [r2, #0]
 8006aa6:	f001 010e 	and.w	r1, r1, #14
 8006aaa:	420a      	tst	r2, r1
 8006aac:	d005      	beq.n	8006aba <Vector6C+0x1e>
 8006aae:	4a0a      	ldr	r2, [pc, #40]	; (8006ad8 <Vector6C+0x3c>)
 8006ab0:	6059      	str	r1, [r3, #4]
 8006ab2:	6813      	ldr	r3, [r2, #0]
 8006ab4:	b10b      	cbz	r3, 8006aba <Vector6C+0x1e>
 8006ab6:	6850      	ldr	r0, [r2, #4]
 8006ab8:	4798      	blx	r3
 8006aba:	2100      	movs	r1, #0
 8006abc:	4b07      	ldr	r3, [pc, #28]	; (8006adc <Vector6C+0x40>)
 8006abe:	681a      	ldr	r2, [r3, #0]
 8006ac0:	6019      	str	r1, [r3, #0]
  OSAL_IRQ_EPILOGUE();
 8006ac2:	b11a      	cbz	r2, 8006acc <Vector6C+0x30>
}
 8006ac4:	e8bd 4008 	ldmia.w	sp!, {r3, lr}
 8006ac8:	f7ff bd0a 	b.w	80064e0 <Vector6C.part.0>
 8006acc:	bd08      	pop	{r3, pc}
 8006ace:	bf00      	nop
 8006ad0:	40020000 	.word	0x40020000
 8006ad4:	40020008 	.word	0x40020008
 8006ad8:	20000fe8 	.word	0x20000fe8
 8006adc:	2000164c 	.word	0x2000164c

08006ae0 <usbStartTransmitI>:
                       const uint8_t *buf, size_t n) {
 8006ae0:	b570      	push	{r4, r5, r6, lr}
 8006ae2:	460c      	mov	r4, r1
 8006ae4:	4611      	mov	r1, r2
	__asm volatile( "mrs %0, basepri" : "=r"( ulBasePri ) );
 8006ae6:	f3ef 8211 	mrs	r2, BASEPRI
	return (ulBasePri > 0)? pdTRUE : pdFALSE;
 8006aea:	b11a      	cbz	r2, 8006af4 <usbStartTransmitI+0x14>
  osalDbgCheck((usbp != NULL) && (ep <= (usbep_t)USB_MAX_ENDPOINTS));
 8006aec:	b928      	cbnz	r0, 8006afa <usbStartTransmitI+0x1a>
 8006aee:	f7fd fc27 	bl	8004340 <vTaskEndScheduler>
 8006af2:	e7fe      	b.n	8006af2 <usbStartTransmitI+0x12>
  osalDbgCheckClassI();
 8006af4:	f7fd fc24 	bl	8004340 <vTaskEndScheduler>
 8006af8:	e7fe      	b.n	8006af8 <usbStartTransmitI+0x18>
  osalDbgCheck((usbp != NULL) && (ep <= (usbep_t)USB_MAX_ENDPOINTS));
 8006afa:	2c07      	cmp	r4, #7
 8006afc:	d8f7      	bhi.n	8006aee <usbStartTransmitI+0xe>
  osalDbgAssert(!usbGetTransmitStatusI(usbp, ep), "already transmitting");
 8006afe:	2501      	movs	r5, #1
 8006b00:	8906      	ldrh	r6, [r0, #8]
 8006b02:	40a5      	lsls	r5, r4
 8006b04:	b2aa      	uxth	r2, r5
 8006b06:	4035      	ands	r5, r6
 8006b08:	d002      	beq.n	8006b10 <usbStartTransmitI+0x30>
 8006b0a:	f7fd fc19 	bl	8004340 <vTaskEndScheduler>
 8006b0e:	e7fe      	b.n	8006b0e <usbStartTransmitI+0x2e>
  usbp->transmitting |= (uint16_t)((unsigned)1U << (unsigned)ep);
 8006b10:	4316      	orrs	r6, r2
 8006b12:	8106      	strh	r6, [r0, #8]
  isp = usbp->epc[ep]->in_state;
 8006b14:	eb00 0084 	add.w	r0, r0, r4, lsl #2
 8006b18:	68c2      	ldr	r2, [r0, #12]
 8006b1a:	6950      	ldr	r0, [r2, #20]
  size_t n;
  USBInEndpointState *isp = usbp->epc[ep]->in_state;

  /* Transfer initialization.*/
  n = isp->txsize;
  if (n > (size_t)usbp->epc[ep]->in_maxsize)
 8006b1c:	8a12      	ldrh	r2, [r2, #16]
  isp->txcnt  = 0;
 8006b1e:	e9c0 3500 	strd	r3, r5, [r0]
 8006b22:	429a      	cmp	r2, r3
 8006b24:	bf28      	it	cs
 8006b26:	461a      	movcs	r2, r3
  isp->txbuf  = buf;
 8006b28:	6081      	str	r1, [r0, #8]
    n = (size_t)usbp->epc[ep]->in_maxsize;

  isp->txlast = n;
 8006b2a:	60c2      	str	r2, [r0, #12]
  usb_packet_write_from_buffer(ep, isp->txbuf, n);
 8006b2c:	4620      	mov	r0, r4
 8006b2e:	00a4      	lsls	r4, r4, #2
 8006b30:	f104 4480 	add.w	r4, r4, #1073741824	; 0x40000000
 8006b34:	f504 44b8 	add.w	r4, r4, #23552	; 0x5c00
 8006b38:	f7ff fb84 	bl	8006244 <usb_packet_write_from_buffer>

  EPR_SET_STAT_TX(ep, EPR_STAT_TX_VALID);
 8006b3c:	6823      	ldr	r3, [r4, #0]
 8006b3e:	f423 43f0 	bic.w	r3, r3, #30720	; 0x7800
 8006b42:	f023 0340 	bic.w	r3, r3, #64	; 0x40
 8006b46:	f083 0330 	eor.w	r3, r3, #48	; 0x30
 8006b4a:	f443 4300 	orr.w	r3, r3, #32768	; 0x8000
 8006b4e:	f043 0380 	orr.w	r3, r3, #128	; 0x80
 8006b52:	6023      	str	r3, [r4, #0]
}
 8006b54:	bd70      	pop	{r4, r5, r6, pc}
	...

08006b58 <_usb_ep0out>:
 * @param[in] usbp      pointer to the @p USBDriver object
 * @param[in] ep        endpoint number, always zero
 *
 * @notapi
 */
void _usb_ep0out(USBDriver *usbp, usbep_t ep) {
 8006b58:	b510      	push	{r4, lr}
 8006b5a:	f890 3064 	ldrb.w	r3, [r0, #100]	; 0x64
 8006b5e:	4604      	mov	r4, r0
 8006b60:	2b06      	cmp	r3, #6
 8006b62:	d83f      	bhi.n	8006be4 <_usb_ep0out+0x8c>
 8006b64:	e8df f003 	tbb	[pc, r3]
 8006b68:	131e1e1e 	.word	0x131e1e1e
 8006b6c:	1e04      	.short	0x1e04
 8006b6e:	21          	.byte	0x21
 8006b6f:	00          	.byte	0x00

  (void)ep;
  switch (usbp->ep0state) {
  case USB_EP0_RX:
    /* Receive phase over, sending the zero sized status packet.*/
    usbp->ep0state = USB_EP0_SENDING_STS;
 8006b70:	2305      	movs	r3, #5
 8006b72:	f880 3064 	strb.w	r3, [r0, #100]	; 0x64
#if (USB_EP0_STATUS_STAGE == USB_EP0_STATUS_STAGE_SW)
    osalSysLockFromISR();
 8006b76:	f7ff f831 	bl	8005bdc <osalSysLockFromISR.lto_priv.0>
    usbStartTransmitI(usbp, 0, NULL, 0);
 8006b7a:	2300      	movs	r3, #0
 8006b7c:	4620      	mov	r0, r4
 8006b7e:	461a      	mov	r2, r3
 8006b80:	4619      	mov	r1, r3
 8006b82:	f7ff ffad 	bl	8006ae0 <usbStartTransmitI>
    usbp->ep0state = USB_EP0_ERROR;
    return;
  default:
    osalDbgAssert(false, "EP0 state machine invalid state");
  }
}
 8006b86:	e8bd 4010 	ldmia.w	sp!, {r4, lr}
    osalSysUnlockFromISR();
 8006b8a:	f7ff b821 	b.w	8005bd0 <osalSysUnlockFromISR.lto_priv.0>
    if (usbGetReceiveTransactionSizeX(usbp, 0) != 0U) {
 8006b8e:	68c3      	ldr	r3, [r0, #12]
 8006b90:	699b      	ldr	r3, [r3, #24]
 8006b92:	685b      	ldr	r3, [r3, #4]
 8006b94:	b92b      	cbnz	r3, 8006ba2 <_usb_ep0out+0x4a>
    if (usbp->ep0endcb != NULL) {
 8006b96:	6f03      	ldr	r3, [r0, #112]	; 0x70
 8006b98:	b103      	cbz	r3, 8006b9c <_usb_ep0out+0x44>
      usbp->ep0endcb(usbp);
 8006b9a:	4798      	blx	r3
    usbp->ep0state = USB_EP0_WAITING_SETUP;
 8006b9c:	2300      	movs	r3, #0
    usbp->ep0state = USB_EP0_ERROR;
 8006b9e:	f884 3064 	strb.w	r3, [r4, #100]	; 0x64
}
 8006ba2:	bd10      	pop	{r4, pc}
    osalDbgAssert(false, "EP0 state machine error");
 8006ba4:	f7fd fbcc 	bl	8004340 <vTaskEndScheduler>
 8006ba8:	e7fe      	b.n	8006ba8 <_usb_ep0out+0x50>
 */
void usb_lld_stall_in(USBDriver *usbp, usbep_t ep) {

  (void)usbp;

  EPR_SET_STAT_TX(ep, EPR_STAT_TX_STALL);
 8006baa:	f248 0080 	movw	r0, #32896	; 0x8080
 8006bae:	490f      	ldr	r1, [pc, #60]	; (8006bec <_usb_ep0out+0x94>)
 8006bb0:	680b      	ldr	r3, [r1, #0]
 8006bb2:	f423 43f0 	bic.w	r3, r3, #30720	; 0x7800
 8006bb6:	f023 0340 	bic.w	r3, r3, #64	; 0x40
 8006bba:	f083 0210 	eor.w	r2, r3, #16
 8006bbe:	4302      	orrs	r2, r0
 8006bc0:	600a      	str	r2, [r1, #0]
  EPR_SET_STAT_RX(ep, EPR_STAT_RX_STALL);
 8006bc2:	680b      	ldr	r3, [r1, #0]
 8006bc4:	f423 4390 	bic.w	r3, r3, #18432	; 0x4800
 8006bc8:	f023 0370 	bic.w	r3, r3, #112	; 0x70
 8006bcc:	f483 5380 	eor.w	r3, r3, #4096	; 0x1000
 8006bd0:	4303      	orrs	r3, r0
 8006bd2:	600b      	str	r3, [r1, #0]
    _usb_isr_invoke_event_cb(usbp, USB_EVENT_STALLED);
 8006bd4:	6863      	ldr	r3, [r4, #4]
 8006bd6:	681b      	ldr	r3, [r3, #0]
 8006bd8:	b113      	cbz	r3, 8006be0 <_usb_ep0out+0x88>
 8006bda:	2106      	movs	r1, #6
 8006bdc:	4620      	mov	r0, r4
 8006bde:	4798      	blx	r3
    usbp->ep0state = USB_EP0_ERROR;
 8006be0:	2306      	movs	r3, #6
 8006be2:	e7dc      	b.n	8006b9e <_usb_ep0out+0x46>
    osalDbgAssert(false, "EP0 state machine invalid state");
 8006be4:	f7fd fbac 	bl	8004340 <vTaskEndScheduler>
 8006be8:	e7fe      	b.n	8006be8 <_usb_ep0out+0x90>
 8006bea:	bf00      	nop
 8006bec:	40005c00 	.word	0x40005c00

08006bf0 <usbStartReceiveI>:
                      uint8_t *buf, size_t n) {
 8006bf0:	b5f8      	push	{r3, r4, r5, r6, r7, lr}
	__asm volatile( "mrs %0, basepri" : "=r"( ulBasePri ) );
 8006bf2:	f3ef 8411 	mrs	r4, BASEPRI
	return (ulBasePri > 0)? pdTRUE : pdFALSE;
 8006bf6:	b11c      	cbz	r4, 8006c00 <usbStartReceiveI+0x10>
  osalDbgCheck((usbp != NULL) && (ep <= (usbep_t)USB_MAX_ENDPOINTS));
 8006bf8:	b928      	cbnz	r0, 8006c06 <usbStartReceiveI+0x16>
 8006bfa:	f7fd fba1 	bl	8004340 <vTaskEndScheduler>
 8006bfe:	e7fe      	b.n	8006bfe <usbStartReceiveI+0xe>
  osalDbgCheckClassI();
 8006c00:	f7fd fb9e 	bl	8004340 <vTaskEndScheduler>
 8006c04:	e7fe      	b.n	8006c04 <usbStartReceiveI+0x14>
  osalDbgCheck((usbp != NULL) && (ep <= (usbep_t)USB_MAX_ENDPOINTS));
 8006c06:	2907      	cmp	r1, #7
 8006c08:	d8f7      	bhi.n	8006bfa <usbStartReceiveI+0xa>
  osalDbgAssert(!usbGetReceiveStatusI(usbp, ep), "already receiving");
 8006c0a:	2401      	movs	r4, #1
 8006c0c:	8946      	ldrh	r6, [r0, #10]
 8006c0e:	fa04 f501 	lsl.w	r5, r4, r1
 8006c12:	b2af      	uxth	r7, r5
 8006c14:	4035      	ands	r5, r6
 8006c16:	d002      	beq.n	8006c1e <usbStartReceiveI+0x2e>
 8006c18:	f7fd fb92 	bl	8004340 <vTaskEndScheduler>
 8006c1c:	e7fe      	b.n	8006c1c <usbStartReceiveI+0x2c>
  usbp->receiving |= (uint16_t)((unsigned)1U << (unsigned)ep);
 8006c1e:	433e      	orrs	r6, r7
 8006c20:	8146      	strh	r6, [r0, #10]
  osp = usbp->epc[ep]->out_state;
 8006c22:	eb00 0081 	add.w	r0, r0, r1, lsl #2
 8006c26:	68c6      	ldr	r6, [r0, #12]
 8006c28:	69b0      	ldr	r0, [r6, #24]
  osp->rxcnt  = 0;
 8006c2a:	e9c0 3500 	strd	r3, r5, [r0]
  osp->rxbuf  = buf;
 8006c2e:	6082      	str	r2, [r0, #8]
  if (osp->rxsize == 0)         /* Special case for zero sized packets.*/
 8006c30:	b1c3      	cbz	r3, 8006c64 <usbStartReceiveI+0x74>
    osp->rxpkts = (uint16_t)((osp->rxsize + usbp->epc[ep]->out_maxsize - 1) /
 8006c32:	8a72      	ldrh	r2, [r6, #18]
 8006c34:	3b01      	subs	r3, #1
 8006c36:	4413      	add	r3, r2
 8006c38:	fbb3 f3f2 	udiv	r3, r3, r2
 8006c3c:	b29b      	uxth	r3, r3
 8006c3e:	0089      	lsls	r1, r1, #2
 8006c40:	f101 4180 	add.w	r1, r1, #1073741824	; 0x40000000
 8006c44:	f501 41b8 	add.w	r1, r1, #23552	; 0x5c00
 8006c48:	8183      	strh	r3, [r0, #12]
  EPR_SET_STAT_RX(ep, EPR_STAT_RX_VALID);
 8006c4a:	680b      	ldr	r3, [r1, #0]
 8006c4c:	f423 4390 	bic.w	r3, r3, #18432	; 0x4800
 8006c50:	f023 0370 	bic.w	r3, r3, #112	; 0x70
 8006c54:	f483 5340 	eor.w	r3, r3, #12288	; 0x3000
 8006c58:	f443 4300 	orr.w	r3, r3, #32768	; 0x8000
 8006c5c:	f043 0380 	orr.w	r3, r3, #128	; 0x80
 8006c60:	600b      	str	r3, [r1, #0]
}
 8006c62:	bdf8      	pop	{r3, r4, r5, r6, r7, pc}
    osp->rxpkts = 1;
 8006c64:	4623      	mov	r3, r4
 8006c66:	e7ea      	b.n	8006c3e <usbStartReceiveI+0x4e>

08006c68 <_usb_ep0in>:
void _usb_ep0in(USBDriver *usbp, usbep_t ep) {
 8006c68:	b510      	push	{r4, lr}
 8006c6a:	f890 3064 	ldrb.w	r3, [r0, #100]	; 0x64
 8006c6e:	4604      	mov	r4, r0
 8006c70:	2b06      	cmp	r3, #6
 8006c72:	d856      	bhi.n	8006d22 <_usb_ep0in+0xba>
 8006c74:	e8df f003 	tbb	[pc, r3]
 8006c78:	35210435 	.word	0x35210435
 8006c7c:	3035      	.short	0x3035
 8006c7e:	38          	.byte	0x38
 8006c7f:	00          	.byte	0x00
  hw |= (uint16_t)*p << 8U;
 8006c80:	f890 107b 	ldrb.w	r1, [r0, #123]	; 0x7b
 8006c84:	f890 207a 	ldrb.w	r2, [r0, #122]	; 0x7a
    if ((usbp->ep0n < max) &&
 8006c88:	6ec3      	ldr	r3, [r0, #108]	; 0x6c
    max = (size_t)get_hword(&usbp->setup[6]);
 8006c8a:	ea42 2201 	orr.w	r2, r2, r1, lsl #8
    if ((usbp->ep0n < max) &&
 8006c8e:	4293      	cmp	r3, r2
 8006c90:	d213      	bcs.n	8006cba <_usb_ep0in+0x52>
        ((usbp->ep0n % usbp->epc[0]->in_maxsize) == 0U)) {
 8006c92:	68c2      	ldr	r2, [r0, #12]
 8006c94:	8a12      	ldrh	r2, [r2, #16]
 8006c96:	fbb3 f1f2 	udiv	r1, r3, r2
 8006c9a:	fb02 3111 	mls	r1, r2, r1, r3
    if ((usbp->ep0n < max) &&
 8006c9e:	b961      	cbnz	r1, 8006cba <_usb_ep0in+0x52>
      osalSysLockFromISR();
 8006ca0:	f7fe ff9c 	bl	8005bdc <osalSysLockFromISR.lto_priv.0>
      usbStartTransmitI(usbp, 0, NULL, 0);
 8006ca4:	4620      	mov	r0, r4
 8006ca6:	460b      	mov	r3, r1
 8006ca8:	460a      	mov	r2, r1
 8006caa:	f7ff ff19 	bl	8006ae0 <usbStartTransmitI>
      osalSysUnlockFromISR();
 8006cae:	f7fe ff8f 	bl	8005bd0 <osalSysUnlockFromISR.lto_priv.0>
      usbp->ep0state = USB_EP0_WAITING_TX0;
 8006cb2:	2302      	movs	r3, #2
    usbp->ep0state = USB_EP0_ERROR;
 8006cb4:	f884 3064 	strb.w	r3, [r4, #100]	; 0x64
}
 8006cb8:	bd10      	pop	{r4, pc}
    usbp->ep0state = USB_EP0_WAITING_STS;
 8006cba:	2303      	movs	r3, #3
 8006cbc:	f884 3064 	strb.w	r3, [r4, #100]	; 0x64
    osalSysLockFromISR();
 8006cc0:	f7fe ff8c 	bl	8005bdc <osalSysLockFromISR.lto_priv.0>
    usbStartReceiveI(usbp, 0, NULL, 0);
 8006cc4:	2300      	movs	r3, #0
 8006cc6:	4620      	mov	r0, r4
 8006cc8:	461a      	mov	r2, r3
 8006cca:	4619      	mov	r1, r3
 8006ccc:	f7ff ff90 	bl	8006bf0 <usbStartReceiveI>
}
 8006cd0:	e8bd 4010 	ldmia.w	sp!, {r4, lr}
    osalSysUnlockFromISR();
 8006cd4:	f7fe bf7c 	b.w	8005bd0 <osalSysUnlockFromISR.lto_priv.0>
    if (usbp->ep0endcb != NULL) {
 8006cd8:	6f03      	ldr	r3, [r0, #112]	; 0x70
 8006cda:	b103      	cbz	r3, 8006cde <_usb_ep0in+0x76>
      usbp->ep0endcb(usbp);
 8006cdc:	4798      	blx	r3
    usbp->ep0state = USB_EP0_WAITING_SETUP;
 8006cde:	2300      	movs	r3, #0
 8006ce0:	e7e8      	b.n	8006cb4 <_usb_ep0in+0x4c>
    osalDbgAssert(false, "EP0 state machine error");
 8006ce2:	f7fd fb2d 	bl	8004340 <vTaskEndScheduler>
 8006ce6:	e7fe      	b.n	8006ce6 <_usb_ep0in+0x7e>
  EPR_SET_STAT_TX(ep, EPR_STAT_TX_STALL);
 8006ce8:	f248 0080 	movw	r0, #32896	; 0x8080
 8006cec:	490e      	ldr	r1, [pc, #56]	; (8006d28 <_usb_ep0in+0xc0>)
 8006cee:	680b      	ldr	r3, [r1, #0]
 8006cf0:	f423 43f0 	bic.w	r3, r3, #30720	; 0x7800
 8006cf4:	f023 0340 	bic.w	r3, r3, #64	; 0x40
 8006cf8:	f083 0210 	eor.w	r2, r3, #16
 8006cfc:	4302      	orrs	r2, r0
 8006cfe:	600a      	str	r2, [r1, #0]
  EPR_SET_STAT_RX(ep, EPR_STAT_RX_STALL);
 8006d00:	680b      	ldr	r3, [r1, #0]
 8006d02:	f423 4390 	bic.w	r3, r3, #18432	; 0x4800
 8006d06:	f023 0370 	bic.w	r3, r3, #112	; 0x70
 8006d0a:	f483 5380 	eor.w	r3, r3, #4096	; 0x1000
 8006d0e:	4303      	orrs	r3, r0
 8006d10:	600b      	str	r3, [r1, #0]
    _usb_isr_invoke_event_cb(usbp, USB_EVENT_STALLED);
 8006d12:	6863      	ldr	r3, [r4, #4]
 8006d14:	681b      	ldr	r3, [r3, #0]
 8006d16:	b113      	cbz	r3, 8006d1e <_usb_ep0in+0xb6>
 8006d18:	2106      	movs	r1, #6
 8006d1a:	4620      	mov	r0, r4
 8006d1c:	4798      	blx	r3
    usbp->ep0state = USB_EP0_ERROR;
 8006d1e:	2306      	movs	r3, #6
 8006d20:	e7c8      	b.n	8006cb4 <_usb_ep0in+0x4c>
    osalDbgAssert(false, "EP0 state machine invalid state");
 8006d22:	f7fd fb0d 	bl	8004340 <vTaskEndScheduler>
 8006d26:	e7fe      	b.n	8006d26 <_usb_ep0in+0xbe>
 8006d28:	40005c00 	.word	0x40005c00

08006d2c <_usb_ep0setup>:
  usbp->ep0state = USB_EP0_WAITING_SETUP;
 8006d2c:	2300      	movs	r3, #0
void _usb_ep0setup(USBDriver *usbp, usbep_t ep) {
 8006d2e:	b570      	push	{r4, r5, r6, lr}
 8006d30:	4604      	mov	r4, r0
  usbp->ep0state = USB_EP0_WAITING_SETUP;
 8006d32:	f880 3064 	strb.w	r3, [r0, #100]	; 0x64
  udp = USB_GET_DESCRIPTOR(ep);
 8006d36:	4bbb      	ldr	r3, [pc, #748]	; (8007024 <_usb_ep0setup+0x2f8>)
  usbReadSetup(usbp, ep, usbp->setup);
 8006d38:	f100 0274 	add.w	r2, r0, #116	; 0x74
 8006d3c:	6d1b      	ldr	r3, [r3, #80]	; 0x50
 8006d3e:	f103 4380 	add.w	r3, r3, #1073741824	; 0x40000000
 8006d42:	f503 43c0 	add.w	r3, r3, #24576	; 0x6000
 8006d46:	eb03 1301 	add.w	r3, r3, r1, lsl #4
  pmap = USB_ADDR2PTR(udp->RXADDR0);
 8006d4a:	689b      	ldr	r3, [r3, #8]
 8006d4c:	f103 5300 	add.w	r3, r3, #536870912	; 0x20000000
 8006d50:	f503 5340 	add.w	r3, r3, #12288	; 0x3000
 8006d54:	005b      	lsls	r3, r3, #1
 8006d56:	f103 0110 	add.w	r1, r3, #16
 8006d5a:	4618      	mov	r0, r3
    *(uint16_t *)buf = (uint16_t)*pmap++;
 8006d5c:	3304      	adds	r3, #4
 8006d5e:	6800      	ldr	r0, [r0, #0]
  for (n = 0; n < 4; n++) {
 8006d60:	428b      	cmp	r3, r1
    *(uint16_t *)buf = (uint16_t)*pmap++;
 8006d62:	f822 0b02 	strh.w	r0, [r2], #2
  for (n = 0; n < 4; n++) {
 8006d66:	d1f8      	bne.n	8006d5a <_usb_ep0setup+0x2e>
  if ((usbp->config->requests_hook_cb == NULL) ||
 8006d68:	6863      	ldr	r3, [r4, #4]
 8006d6a:	689b      	ldr	r3, [r3, #8]
 8006d6c:	bb1b      	cbnz	r3, 8006db6 <_usb_ep0setup+0x8a>
    if (((usbp->setup[0] & USB_RTYPE_TYPE_MASK) != USB_RTYPE_TYPE_STD) ||
 8006d6e:	f894 3074 	ldrb.w	r3, [r4, #116]	; 0x74
 8006d72:	f013 0560 	ands.w	r5, r3, #96	; 0x60
 8006d76:	d044      	beq.n	8006e02 <_usb_ep0setup+0xd6>
  EPR_SET_STAT_TX(ep, EPR_STAT_TX_STALL);
 8006d78:	f248 0080 	movw	r0, #32896	; 0x8080
 8006d7c:	49a9      	ldr	r1, [pc, #676]	; (8007024 <_usb_ep0setup+0x2f8>)
 8006d7e:	680b      	ldr	r3, [r1, #0]
 8006d80:	f423 43f0 	bic.w	r3, r3, #30720	; 0x7800
 8006d84:	f023 0340 	bic.w	r3, r3, #64	; 0x40
 8006d88:	f083 0210 	eor.w	r2, r3, #16
 8006d8c:	4302      	orrs	r2, r0
 8006d8e:	600a      	str	r2, [r1, #0]
  EPR_SET_STAT_RX(ep, EPR_STAT_RX_STALL);
 8006d90:	680b      	ldr	r3, [r1, #0]
 8006d92:	f423 4390 	bic.w	r3, r3, #18432	; 0x4800
 8006d96:	f023 0370 	bic.w	r3, r3, #112	; 0x70
 8006d9a:	f483 5380 	eor.w	r3, r3, #4096	; 0x1000
 8006d9e:	4303      	orrs	r3, r0
 8006da0:	600b      	str	r3, [r1, #0]
      _usb_isr_invoke_event_cb(usbp, USB_EVENT_STALLED);
 8006da2:	6863      	ldr	r3, [r4, #4]
 8006da4:	681b      	ldr	r3, [r3, #0]
 8006da6:	b113      	cbz	r3, 8006dae <_usb_ep0setup+0x82>
 8006da8:	2106      	movs	r1, #6
 8006daa:	4620      	mov	r0, r4
 8006dac:	4798      	blx	r3
      usbp->ep0state = USB_EP0_ERROR;
 8006dae:	2306      	movs	r3, #6
 8006db0:	f884 3064 	strb.w	r3, [r4, #100]	; 0x64
}
 8006db4:	bd70      	pop	{r4, r5, r6, pc}
      !(usbp->config->requests_hook_cb(usbp))) {
 8006db6:	4620      	mov	r0, r4
 8006db8:	4798      	blx	r3
  if ((usbp->config->requests_hook_cb == NULL) ||
 8006dba:	2800      	cmp	r0, #0
 8006dbc:	d0d7      	beq.n	8006d6e <_usb_ep0setup+0x42>
  hw |= (uint16_t)*p << 8U;
 8006dbe:	f894 207b 	ldrb.w	r2, [r4, #123]	; 0x7b
 8006dc2:	f894 307a 	ldrb.w	r3, [r4, #122]	; 0x7a
  max = (size_t)get_hword(&usbp->setup[6]);
 8006dc6:	ea43 2302 	orr.w	r3, r3, r2, lsl #8
  if (usbp->ep0n > max) {
 8006dca:	6ee2      	ldr	r2, [r4, #108]	; 0x6c
 8006dcc:	429a      	cmp	r2, r3
    usbp->ep0n = max;
 8006dce:	bf88      	it	hi
 8006dd0:	66e3      	strhi	r3, [r4, #108]	; 0x6c
  if ((usbp->setup[0] & USB_RTYPE_DIR_MASK) == USB_RTYPE_DIR_DEV2HOST) {
 8006dd2:	f994 3074 	ldrsb.w	r3, [r4, #116]	; 0x74
 8006dd6:	6ee1      	ldr	r1, [r4, #108]	; 0x6c
 8006dd8:	2b00      	cmp	r3, #0
 8006dda:	f280 815a 	bge.w	8007092 <_usb_ep0setup+0x366>
    if (usbp->ep0n != 0U) {
 8006dde:	2900      	cmp	r1, #0
 8006de0:	f000 814b 	beq.w	800707a <_usb_ep0setup+0x34e>
      usbp->ep0state = USB_EP0_TX;
 8006de4:	2301      	movs	r3, #1
 8006de6:	f884 3064 	strb.w	r3, [r4, #100]	; 0x64
      osalSysLockFromISR();
 8006dea:	f7fe fef7 	bl	8005bdc <osalSysLockFromISR.lto_priv.0>
      usbStartTransmitI(usbp, 0, usbp->ep0next, usbp->ep0n);
 8006dee:	e9d4 231a 	ldrd	r2, r3, [r4, #104]	; 0x68
 8006df2:	2100      	movs	r1, #0
 8006df4:	4620      	mov	r0, r4
 8006df6:	f7ff fe73 	bl	8006ae0 <usbStartTransmitI>
}
 8006dfa:	e8bd 4070 	ldmia.w	sp!, {r4, r5, r6, lr}
      osalSysUnlockFromISR();
 8006dfe:	f7fe bee7 	b.w	8005bd0 <osalSysUnlockFromISR.lto_priv.0>
           ((uint32_t)usbp->setup[1] << 8U))) {
 8006e02:	f894 2075 	ldrb.w	r2, [r4, #117]	; 0x75
  switch ((((uint32_t)usbp->setup[0] & (USB_RTYPE_RECIPIENT_MASK |
 8006e06:	f003 037f 	and.w	r3, r3, #127	; 0x7f
                                        USB_RTYPE_TYPE_MASK)) |
 8006e0a:	ea43 2302 	orr.w	r3, r3, r2, lsl #8
  switch ((((uint32_t)usbp->setup[0] & (USB_RTYPE_RECIPIENT_MASK |
 8006e0e:	f240 3202 	movw	r2, #770	; 0x302
 8006e12:	4293      	cmp	r3, r2
 8006e14:	f000 8110 	beq.w	8007038 <_usb_ep0setup+0x30c>
 8006e18:	d821      	bhi.n	8006e5e <_usb_ep0setup+0x132>
 8006e1a:	f5b3 7f80 	cmp.w	r3, #256	; 0x100
 8006e1e:	d04c      	beq.n	8006eba <_usb_ep0setup+0x18e>
 8006e20:	d80d      	bhi.n	8006e3e <_usb_ep0setup+0x112>
 8006e22:	2b01      	cmp	r3, #1
 8006e24:	d043      	beq.n	8006eae <_usb_ep0setup+0x182>
 8006e26:	2b02      	cmp	r3, #2
 8006e28:	f000 80b1 	beq.w	8006f8e <_usb_ep0setup+0x262>
 8006e2c:	2b00      	cmp	r3, #0
 8006e2e:	d1a3      	bne.n	8006d78 <_usb_ep0setup+0x4c>
    usbSetupTransfer(usbp, (uint8_t *)&usbp->status, 2, NULL);
 8006e30:	f104 027c 	add.w	r2, r4, #124	; 0x7c
 8006e34:	66a2      	str	r2, [r4, #104]	; 0x68
 8006e36:	2202      	movs	r2, #2
 8006e38:	66e2      	str	r2, [r4, #108]	; 0x6c
    usbSetupTransfer(usbp, NULL, 0, set_address);
 8006e3a:	6723      	str	r3, [r4, #112]	; 0x70
    return true;
 8006e3c:	e7bf      	b.n	8006dbe <_usb_ep0setup+0x92>
  switch ((((uint32_t)usbp->setup[0] & (USB_RTYPE_RECIPIENT_MASK |
 8006e3e:	f5b3 7f81 	cmp.w	r3, #258	; 0x102
 8006e42:	f000 80be 	beq.w	8006fc2 <_usb_ep0setup+0x296>
 8006e46:	f5b3 7f40 	cmp.w	r3, #768	; 0x300
 8006e4a:	d195      	bne.n	8006d78 <_usb_ep0setup+0x4c>
    if (usbp->setup[2] == USB_FEATURE_DEVICE_REMOTE_WAKEUP) {
 8006e4c:	f894 3076 	ldrb.w	r3, [r4, #118]	; 0x76
 8006e50:	2b01      	cmp	r3, #1
 8006e52:	d191      	bne.n	8006d78 <_usb_ep0setup+0x4c>
      usbp->status |= 2U;
 8006e54:	f8b4 307c 	ldrh.w	r3, [r4, #124]	; 0x7c
 8006e58:	f043 0302 	orr.w	r3, r3, #2
 8006e5c:	e036      	b.n	8006ecc <_usb_ep0setup+0x1a0>
  switch ((((uint32_t)usbp->setup[0] & (USB_RTYPE_RECIPIENT_MASK |
 8006e5e:	f5b3 6f00 	cmp.w	r3, #2048	; 0x800
 8006e62:	d03d      	beq.n	8006ee0 <_usb_ep0setup+0x1b4>
 8006e64:	d81b      	bhi.n	8006e9e <_usb_ep0setup+0x172>
 8006e66:	f5b3 6fa0 	cmp.w	r3, #1280	; 0x500
 8006e6a:	d035      	beq.n	8006ed8 <_usb_ep0setup+0x1ac>
 8006e6c:	f5b3 6fc0 	cmp.w	r3, #1536	; 0x600
 8006e70:	d182      	bne.n	8006d78 <_usb_ep0setup+0x4c>
  hw |= (uint16_t)*p << 8U;
 8006e72:	f894 2079 	ldrb.w	r2, [r4, #121]	; 0x79
    dp = usbp->config->get_descriptor_cb(usbp, usbp->setup[3],
 8006e76:	6861      	ldr	r1, [r4, #4]
  hw |= (uint16_t)*p << 8U;
 8006e78:	f894 3078 	ldrb.w	r3, [r4, #120]	; 0x78
    dp = usbp->config->get_descriptor_cb(usbp, usbp->setup[3],
 8006e7c:	684e      	ldr	r6, [r1, #4]
 8006e7e:	ea43 2302 	orr.w	r3, r3, r2, lsl #8
 8006e82:	4620      	mov	r0, r4
 8006e84:	f894 2076 	ldrb.w	r2, [r4, #118]	; 0x76
 8006e88:	f894 1077 	ldrb.w	r1, [r4, #119]	; 0x77
 8006e8c:	47b0      	blx	r6
    if (dp == NULL) {
 8006e8e:	2800      	cmp	r0, #0
 8006e90:	f43f af72 	beq.w	8006d78 <_usb_ep0setup+0x4c>
    usbSetupTransfer(usbp, (uint8_t *)dp->ud_string, dp->ud_size, NULL);
 8006e94:	6843      	ldr	r3, [r0, #4]
 8006e96:	66a3      	str	r3, [r4, #104]	; 0x68
 8006e98:	6803      	ldr	r3, [r0, #0]
    usbSetupTransfer(usbp, &usbp->configuration, 1, NULL);
 8006e9a:	66e3      	str	r3, [r4, #108]	; 0x6c
 8006e9c:	e01a      	b.n	8006ed4 <_usb_ep0setup+0x1a8>
  switch ((((uint32_t)usbp->setup[0] & (USB_RTYPE_RECIPIENT_MASK |
 8006e9e:	f5b3 6f10 	cmp.w	r3, #2304	; 0x900
 8006ea2:	d022      	beq.n	8006eea <_usb_ep0setup+0x1be>
 8006ea4:	f640 4202 	movw	r2, #3074	; 0xc02
 8006ea8:	4293      	cmp	r3, r2
 8006eaa:	f47f af65 	bne.w	8006d78 <_usb_ep0setup+0x4c>
    usbSetupTransfer(usbp, (uint8_t *)zero_status, 2, NULL);
 8006eae:	4b5e      	ldr	r3, [pc, #376]	; (8007028 <_usb_ep0setup+0x2fc>)
        usbSetupTransfer(usbp, (uint8_t *)halted_status, 2, NULL);
 8006eb0:	66a3      	str	r3, [r4, #104]	; 0x68
 8006eb2:	2302      	movs	r3, #2
 8006eb4:	66e3      	str	r3, [r4, #108]	; 0x6c
 8006eb6:	2300      	movs	r3, #0
 8006eb8:	e7bf      	b.n	8006e3a <_usb_ep0setup+0x10e>
    if (usbp->setup[2] == USB_FEATURE_DEVICE_REMOTE_WAKEUP) {
 8006eba:	f894 3076 	ldrb.w	r3, [r4, #118]	; 0x76
 8006ebe:	2b01      	cmp	r3, #1
 8006ec0:	f47f af5a 	bne.w	8006d78 <_usb_ep0setup+0x4c>
      usbp->status &= ~2U;
 8006ec4:	f8b4 307c 	ldrh.w	r3, [r4, #124]	; 0x7c
 8006ec8:	f023 0302 	bic.w	r3, r3, #2
      usbSetupTransfer(usbp, NULL, 0, NULL);
 8006ecc:	e9c4 551a 	strd	r5, r5, [r4, #104]	; 0x68
      usbp->status |= 2U;
 8006ed0:	f8a4 307c 	strh.w	r3, [r4, #124]	; 0x7c
    usbSetupTransfer(usbp, &usbp->configuration, 1, NULL);
 8006ed4:	6725      	str	r5, [r4, #112]	; 0x70
    return true;
 8006ed6:	e772      	b.n	8006dbe <_usb_ep0setup+0x92>
    usbSetupTransfer(usbp, NULL, 0, set_address);
 8006ed8:	e9c4 551a 	strd	r5, r5, [r4, #104]	; 0x68
 8006edc:	4b53      	ldr	r3, [pc, #332]	; (800702c <_usb_ep0setup+0x300>)
 8006ede:	e7ac      	b.n	8006e3a <_usb_ep0setup+0x10e>
    usbSetupTransfer(usbp, &usbp->configuration, 1, NULL);
 8006ee0:	f104 037f 	add.w	r3, r4, #127	; 0x7f
 8006ee4:	66a3      	str	r3, [r4, #104]	; 0x68
 8006ee6:	2301      	movs	r3, #1
 8006ee8:	e7d7      	b.n	8006e9a <_usb_ep0setup+0x16e>
    if (usbp->configuration != usbp->setup[2]) {
 8006eea:	f894 207f 	ldrb.w	r2, [r4, #127]	; 0x7f
 8006eee:	f894 3076 	ldrb.w	r3, [r4, #118]	; 0x76
 8006ef2:	429a      	cmp	r2, r3
 8006ef4:	d047      	beq.n	8006f86 <_usb_ep0setup+0x25a>
      if (usbp->state == USB_ACTIVE) {
 8006ef6:	7823      	ldrb	r3, [r4, #0]
 8006ef8:	2b04      	cmp	r3, #4
 8006efa:	d137      	bne.n	8006f6c <_usb_ep0setup+0x240>
        osalSysLockFromISR ();
 8006efc:	f7fe fe6e 	bl	8005bdc <osalSysLockFromISR.lto_priv.0>
	__asm volatile( "mrs %0, basepri" : "=r"( ulBasePri ) );
 8006f00:	f3ef 8311 	mrs	r3, BASEPRI
	return (ulBasePri > 0)? pdTRUE : pdFALSE;
 8006f04:	b913      	cbnz	r3, 8006f0c <_usb_ep0setup+0x1e0>
  osalDbgCheckClassI();
 8006f06:	f7fd fa1b 	bl	8004340 <vTaskEndScheduler>
 8006f0a:	e7fe      	b.n	8006f0a <_usb_ep0setup+0x1de>
  osalDbgAssert(usbp->state == USB_ACTIVE, "invalid state");
 8006f0c:	7823      	ldrb	r3, [r4, #0]
 8006f0e:	2b04      	cmp	r3, #4
 8006f10:	d002      	beq.n	8006f18 <_usb_ep0setup+0x1ec>
 8006f12:	f7fd fa15 	bl	8004340 <vTaskEndScheduler>
 8006f16:	e7fe      	b.n	8006f16 <_usb_ep0setup+0x1ea>
  usbp->transmitting &= 1U;
 8006f18:	68a3      	ldr	r3, [r4, #8]
  for (i = 1; i <= USB_ENDOPOINTS_NUMBER; i++) {
 8006f1a:	2201      	movs	r2, #1
 8006f1c:	f003 1301 	and.w	r3, r3, #65537	; 0x10001
 8006f20:	60a3      	str	r3, [r4, #8]
    usbp->epc[i] = NULL;
 8006f22:	2300      	movs	r3, #0
 8006f24:	e9c4 3304 	strd	r3, r3, [r4, #16]
 8006f28:	e9c4 3306 	strd	r3, r3, [r4, #24]
 8006f2c:	e9c4 3308 	strd	r3, r3, [r4, #32]
 8006f30:	62a3      	str	r3, [r4, #40]	; 0x28
  usbp->pmnext = 64;
 8006f32:	2340      	movs	r3, #64	; 0x40
    EPR_TOGGLE(i, 0);
 8006f34:	f248 0080 	movw	r0, #32896	; 0x8080
  usbp->pmnext = 64;
 8006f38:	f8c4 3084 	str.w	r3, [r4, #132]	; 0x84
    EPR_TOGGLE(i, 0);
 8006f3c:	0093      	lsls	r3, r2, #2
 8006f3e:	f103 4380 	add.w	r3, r3, #1073741824	; 0x40000000
 8006f42:	f503 43b8 	add.w	r3, r3, #23552	; 0x5c00
 8006f46:	6819      	ldr	r1, [r3, #0]
  for (i = 1; i <= USB_ENDOPOINTS_NUMBER; i++) {
 8006f48:	3201      	adds	r2, #1
    EPR_TOGGLE(i, 0);
 8006f4a:	4301      	orrs	r1, r0
  for (i = 1; i <= USB_ENDOPOINTS_NUMBER; i++) {
 8006f4c:	2a08      	cmp	r2, #8
    EPR_TOGGLE(i, 0);
 8006f4e:	6019      	str	r1, [r3, #0]
    EPR_SET(i, 0);
 8006f50:	6018      	str	r0, [r3, #0]
  for (i = 1; i <= USB_ENDOPOINTS_NUMBER; i++) {
 8006f52:	d1f3      	bne.n	8006f3c <_usb_ep0setup+0x210>
        osalSysUnlockFromISR ();
 8006f54:	f7fe fe3c 	bl	8005bd0 <osalSysUnlockFromISR.lto_priv.0>
        usbp->configuration = 0U;
 8006f58:	2300      	movs	r3, #0
        usbp->state = USB_SELECTED;
 8006f5a:	2103      	movs	r1, #3
        usbp->configuration = 0U;
 8006f5c:	f884 307f 	strb.w	r3, [r4, #127]	; 0x7f
        _usb_isr_invoke_event_cb(usbp, USB_EVENT_UNCONFIGURED);
 8006f60:	6863      	ldr	r3, [r4, #4]
        usbp->state = USB_SELECTED;
 8006f62:	7021      	strb	r1, [r4, #0]
        _usb_isr_invoke_event_cb(usbp, USB_EVENT_UNCONFIGURED);
 8006f64:	681b      	ldr	r3, [r3, #0]
 8006f66:	b10b      	cbz	r3, 8006f6c <_usb_ep0setup+0x240>
 8006f68:	4620      	mov	r0, r4
 8006f6a:	4798      	blx	r3
      if (usbp->setup[2] != 0U) {
 8006f6c:	f894 3076 	ldrb.w	r3, [r4, #118]	; 0x76
 8006f70:	b14b      	cbz	r3, 8006f86 <_usb_ep0setup+0x25a>
        usbp->configuration = usbp->setup[2];
 8006f72:	f884 307f 	strb.w	r3, [r4, #127]	; 0x7f
        usbp->state = USB_ACTIVE;
 8006f76:	2304      	movs	r3, #4
 8006f78:	7023      	strb	r3, [r4, #0]
        _usb_isr_invoke_event_cb(usbp, USB_EVENT_CONFIGURED);
 8006f7a:	6863      	ldr	r3, [r4, #4]
 8006f7c:	681b      	ldr	r3, [r3, #0]
 8006f7e:	b113      	cbz	r3, 8006f86 <_usb_ep0setup+0x25a>
 8006f80:	2102      	movs	r1, #2
 8006f82:	4620      	mov	r0, r4
 8006f84:	4798      	blx	r3
    usbSetupTransfer(usbp, NULL, 0, NULL);
 8006f86:	2300      	movs	r3, #0
 8006f88:	e9c4 331a 	strd	r3, r3, [r4, #104]	; 0x68
 8006f8c:	e755      	b.n	8006e3a <_usb_ep0setup+0x10e>
    if ((usbp->setup[4] & 0x80U) != 0U) {
 8006f8e:	f894 3078 	ldrb.w	r3, [r4, #120]	; 0x78
 8006f92:	f003 020f 	and.w	r2, r3, #15
 8006f96:	f013 0f80 	tst.w	r3, #128	; 0x80
 8006f9a:	4b22      	ldr	r3, [pc, #136]	; (8007024 <_usb_ep0setup+0x2f8>)
  switch (STM32_USB->EPR[ep] & EPR_STAT_TX_MASK) {
 8006f9c:	f853 3022 	ldr.w	r3, [r3, r2, lsl #2]
 8006fa0:	d008      	beq.n	8006fb4 <_usb_ep0setup+0x288>
 8006fa2:	f013 0330 	ands.w	r3, r3, #48	; 0x30
 8006fa6:	f43f aee7 	beq.w	8006d78 <_usb_ep0setup+0x4c>
 8006faa:	2b10      	cmp	r3, #16
        usbSetupTransfer(usbp, (uint8_t *)active_status, 2, NULL);
 8006fac:	bf14      	ite	ne
 8006fae:	4b20      	ldrne	r3, [pc, #128]	; (8007030 <_usb_ep0setup+0x304>)
        usbSetupTransfer(usbp, (uint8_t *)halted_status, 2, NULL);
 8006fb0:	4b20      	ldreq	r3, [pc, #128]	; (8007034 <_usb_ep0setup+0x308>)
 8006fb2:	e77d      	b.n	8006eb0 <_usb_ep0setup+0x184>
  switch (STM32_USB->EPR[ep] & EPR_STAT_RX_MASK) {
 8006fb4:	f413 5340 	ands.w	r3, r3, #12288	; 0x3000
 8006fb8:	f43f aede 	beq.w	8006d78 <_usb_ep0setup+0x4c>
 8006fbc:	f5b3 5f80 	cmp.w	r3, #4096	; 0x1000
 8006fc0:	e7f4      	b.n	8006fac <_usb_ep0setup+0x280>
    if (usbp->setup[2] != USB_FEATURE_ENDPOINT_HALT) {
 8006fc2:	f894 3076 	ldrb.w	r3, [r4, #118]	; 0x76
 8006fc6:	2b00      	cmp	r3, #0
 8006fc8:	f47f aed6 	bne.w	8006d78 <_usb_ep0setup+0x4c>
    if ((usbp->setup[4] & 0x0FU) != 0U) {
 8006fcc:	f894 2078 	ldrb.w	r2, [r4, #120]	; 0x78
 8006fd0:	f012 030f 	ands.w	r3, r2, #15
 8006fd4:	d0d7      	beq.n	8006f86 <_usb_ep0setup+0x25a>
      if ((usbp->setup[4] & 0x80U) != 0U) {
 8006fd6:	009b      	lsls	r3, r3, #2
 8006fd8:	f103 4380 	add.w	r3, r3, #1073741824	; 0x40000000
 8006fdc:	f012 0f80 	tst.w	r2, #128	; 0x80
 8006fe0:	f503 43b8 	add.w	r3, r3, #23552	; 0x5c00

  (void)usbp;

  /* Makes sure to not put to NAK an endpoint that is already
     transferring.*/
  if ((STM32_USB->EPR[ep] & EPR_STAT_TX_MASK) != EPR_STAT_TX_VALID)
 8006fe4:	681a      	ldr	r2, [r3, #0]
 8006fe6:	d00d      	beq.n	8007004 <_usb_ep0setup+0x2d8>
 8006fe8:	f002 0230 	and.w	r2, r2, #48	; 0x30
 8006fec:	2a30      	cmp	r2, #48	; 0x30
 8006fee:	d0ca      	beq.n	8006f86 <_usb_ep0setup+0x25a>
    EPR_SET_STAT_TX(ep, EPR_STAT_TX_NAK);
 8006ff0:	681a      	ldr	r2, [r3, #0]
 8006ff2:	f422 42f0 	bic.w	r2, r2, #30720	; 0x7800
 8006ff6:	f022 0240 	bic.w	r2, r2, #64	; 0x40
 8006ffa:	f082 0220 	eor.w	r2, r2, #32
  EPR_SET_STAT_TX(ep, EPR_STAT_TX_STALL);
 8006ffe:	f442 4200 	orr.w	r2, r2, #32768	; 0x8000
 8007002:	e00b      	b.n	800701c <_usb_ep0setup+0x2f0>
  if ((STM32_USB->EPR[ep] & EPR_STAT_RX_MASK) != EPR_STAT_RX_VALID)
 8007004:	f402 5240 	and.w	r2, r2, #12288	; 0x3000
 8007008:	f5b2 5f40 	cmp.w	r2, #12288	; 0x3000
 800700c:	d0bb      	beq.n	8006f86 <_usb_ep0setup+0x25a>
    EPR_SET_STAT_TX(ep, EPR_STAT_RX_NAK);
 800700e:	681a      	ldr	r2, [r3, #0]
 8007010:	f422 42f0 	bic.w	r2, r2, #30720	; 0x7800
 8007014:	f022 0240 	bic.w	r2, r2, #64	; 0x40
 8007018:	f442 4220 	orr.w	r2, r2, #40960	; 0xa000
  EPR_SET_STAT_TX(ep, EPR_STAT_TX_STALL);
 800701c:	f042 0280 	orr.w	r2, r2, #128	; 0x80
 8007020:	601a      	str	r2, [r3, #0]
 8007022:	e7b0      	b.n	8006f86 <_usb_ep0setup+0x25a>
 8007024:	40005c00 	.word	0x40005c00
 8007028:	0800cb80 	.word	0x0800cb80
 800702c:	080070b5 	.word	0x080070b5
 8007030:	0800c70c 	.word	0x0800c70c
 8007034:	0800c884 	.word	0x0800c884
    if (usbp->setup[2] != USB_FEATURE_ENDPOINT_HALT) {
 8007038:	f894 3076 	ldrb.w	r3, [r4, #118]	; 0x76
 800703c:	2b00      	cmp	r3, #0
 800703e:	f47f ae9b 	bne.w	8006d78 <_usb_ep0setup+0x4c>
    if ((usbp->setup[4] & 0x0FU) != 0U) {
 8007042:	f894 2078 	ldrb.w	r2, [r4, #120]	; 0x78
 8007046:	f012 030f 	ands.w	r3, r2, #15
 800704a:	d09c      	beq.n	8006f86 <_usb_ep0setup+0x25a>
      if ((usbp->setup[4] & 0x80U) != 0U) {
 800704c:	009b      	lsls	r3, r3, #2
 800704e:	f103 4380 	add.w	r3, r3, #1073741824	; 0x40000000
 8007052:	f012 0f80 	tst.w	r2, #128	; 0x80
 8007056:	f503 43b8 	add.w	r3, r3, #23552	; 0x5c00
 800705a:	681a      	ldr	r2, [r3, #0]
 800705c:	d006      	beq.n	800706c <_usb_ep0setup+0x340>
 800705e:	f422 42f0 	bic.w	r2, r2, #30720	; 0x7800
 8007062:	f022 0240 	bic.w	r2, r2, #64	; 0x40
 8007066:	f082 0210 	eor.w	r2, r2, #16
 800706a:	e7c8      	b.n	8006ffe <_usb_ep0setup+0x2d2>
  EPR_SET_STAT_RX(ep, EPR_STAT_RX_STALL);
 800706c:	f422 4290 	bic.w	r2, r2, #18432	; 0x4800
 8007070:	f022 0270 	bic.w	r2, r2, #112	; 0x70
 8007074:	f482 5280 	eor.w	r2, r2, #4096	; 0x1000
 8007078:	e7c1      	b.n	8006ffe <_usb_ep0setup+0x2d2>
      usbp->ep0state = USB_EP0_WAITING_STS;
 800707a:	2303      	movs	r3, #3
 800707c:	f884 3064 	strb.w	r3, [r4, #100]	; 0x64
      osalSysLockFromISR();
 8007080:	f7fe fdac 	bl	8005bdc <osalSysLockFromISR.lto_priv.0>
      usbStartReceiveI(usbp, 0, NULL, 0);
 8007084:	460b      	mov	r3, r1
 8007086:	460a      	mov	r2, r1
      usbStartReceiveI(usbp, 0, usbp->ep0next, usbp->ep0n);
 8007088:	2100      	movs	r1, #0
 800708a:	4620      	mov	r0, r4
 800708c:	f7ff fdb0 	bl	8006bf0 <usbStartReceiveI>
      osalSysUnlockFromISR();
 8007090:	e6b3      	b.n	8006dfa <_usb_ep0setup+0xce>
    if (usbp->ep0n != 0U) {
 8007092:	b139      	cbz	r1, 80070a4 <_usb_ep0setup+0x378>
      usbp->ep0state = USB_EP0_RX;
 8007094:	2304      	movs	r3, #4
 8007096:	f884 3064 	strb.w	r3, [r4, #100]	; 0x64
      osalSysLockFromISR();
 800709a:	f7fe fd9f 	bl	8005bdc <osalSysLockFromISR.lto_priv.0>
      usbStartReceiveI(usbp, 0, usbp->ep0next, usbp->ep0n);
 800709e:	e9d4 231a 	ldrd	r2, r3, [r4, #104]	; 0x68
 80070a2:	e7f1      	b.n	8007088 <_usb_ep0setup+0x35c>
      usbp->ep0state = USB_EP0_SENDING_STS;
 80070a4:	2305      	movs	r3, #5
 80070a6:	f884 3064 	strb.w	r3, [r4, #100]	; 0x64
      osalSysLockFromISR();
 80070aa:	f7fe fd97 	bl	8005bdc <osalSysLockFromISR.lto_priv.0>
      usbStartTransmitI(usbp, 0, NULL, 0);
 80070ae:	460b      	mov	r3, r1
 80070b0:	460a      	mov	r2, r1
 80070b2:	e69e      	b.n	8006df2 <_usb_ep0setup+0xc6>

080070b4 <set_address>:
  usbp->address = usbp->setup[2];
 80070b4:	f890 3076 	ldrb.w	r3, [r0, #118]	; 0x76
  STM32_USB->DADDR = (uint32_t)(usbp->address) | DADDR_EF;
 80070b8:	4a07      	ldr	r2, [pc, #28]	; (80070d8 <set_address+0x24>)
 80070ba:	f880 307e 	strb.w	r3, [r0, #126]	; 0x7e
 80070be:	f043 0380 	orr.w	r3, r3, #128	; 0x80
static void set_address(USBDriver *usbp) {
 80070c2:	b510      	push	{r4, lr}
 80070c4:	64d3      	str	r3, [r2, #76]	; 0x4c
  _usb_isr_invoke_event_cb(usbp, USB_EVENT_ADDRESS);
 80070c6:	6843      	ldr	r3, [r0, #4]
static void set_address(USBDriver *usbp) {
 80070c8:	4604      	mov	r4, r0
  _usb_isr_invoke_event_cb(usbp, USB_EVENT_ADDRESS);
 80070ca:	681b      	ldr	r3, [r3, #0]
 80070cc:	b10b      	cbz	r3, 80070d2 <set_address+0x1e>
 80070ce:	2101      	movs	r1, #1
 80070d0:	4798      	blx	r3
  usbp->state = USB_SELECTED;
 80070d2:	2303      	movs	r3, #3
 80070d4:	7023      	strb	r3, [r4, #0]
}
 80070d6:	bd10      	pop	{r4, pc}
 80070d8:	40005c00 	.word	0x40005c00

080070dc <spiReceive.part.0>:
  osalDbgCheck((spip != NULL) && (n > 0U) && (rxbuf != NULL));

  osalSysLock();
  osalDbgAssert(spip->state == SPI_READY, "not ready");
  osalDbgAssert(spip->config->end_cb == NULL, "has callback");
  spiStartReceiveI(spip, n, rxbuf);
 80070dc:	2303      	movs	r3, #3
void spiReceive(SPIDriver *spip, size_t n, void *rxbuf) {
 80070de:	b510      	push	{r4, lr}
  spiStartReceiveI(spip, n, rxbuf);
 80070e0:	7003      	strb	r3, [r0, #0]
 */
void spi_lld_receive(SPIDriver *spip, size_t n, void *rxbuf) {

  osalDbgAssert(n < 65536, "unsupported DMA transfer size");

  dmaStreamSetMemory0(spip->dmarx, rxbuf);
 80070e2:	6e43      	ldr	r3, [r0, #100]	; 0x64
 80070e4:	3008      	adds	r0, #8
 80070e6:	685c      	ldr	r4, [r3, #4]
  dmaStreamSetTransactionSize(spip->dmarx, n);
  dmaStreamSetMode(spip->dmarx, spip->rxdmamode | STM32_DMA_CR_MINC);
 80070e8:	6e43      	ldr	r3, [r0, #100]	; 0x64
  dmaStreamSetMemory0(spip->dmarx, rxbuf);
 80070ea:	60e2      	str	r2, [r4, #12]
  dmaStreamSetMode(spip->dmarx, spip->rxdmamode | STM32_DMA_CR_MINC);
 80070ec:	f043 0380 	orr.w	r3, r3, #128	; 0x80
  dmaStreamSetTransactionSize(spip->dmarx, n);
 80070f0:	6061      	str	r1, [r4, #4]
  dmaStreamSetMode(spip->dmarx, spip->rxdmamode | STM32_DMA_CR_MINC);
 80070f2:	6023      	str	r3, [r4, #0]

  dmaStreamSetMemory0(spip->dmatx, &dummytx);
 80070f4:	6e03      	ldr	r3, [r0, #96]	; 0x60
 80070f6:	4a0b      	ldr	r2, [pc, #44]	; (8007124 <spiReceive.part.0+0x48>)
 80070f8:	685b      	ldr	r3, [r3, #4]
 80070fa:	60da      	str	r2, [r3, #12]
  dmaStreamSetTransactionSize(spip->dmatx, n);
  dmaStreamSetMode(spip->dmatx, spip->txdmamode);
 80070fc:	6e82      	ldr	r2, [r0, #104]	; 0x68
  dmaStreamSetTransactionSize(spip->dmatx, n);
 80070fe:	6059      	str	r1, [r3, #4]
  dmaStreamSetMode(spip->dmatx, spip->txdmamode);
 8007100:	601a      	str	r2, [r3, #0]

  dmaStreamEnable(spip->dmarx);
 8007102:	6822      	ldr	r2, [r4, #0]
 8007104:	f04f 31ff 	mov.w	r1, #4294967295	; 0xffffffff
 8007108:	f042 0201 	orr.w	r2, r2, #1
 800710c:	6022      	str	r2, [r4, #0]
  dmaStreamEnable(spip->dmatx);
 800710e:	681a      	ldr	r2, [r3, #0]
 8007110:	f042 0201 	orr.w	r2, r2, #1
 8007114:	601a      	str	r2, [r3, #0]
 8007116:	f7fd faf7 	bl	8004708 <osalThreadSuspendTimeoutS>
  (void) osalThreadSuspendS(&spip->thread);
  osalSysUnlock();
}
 800711a:	e8bd 4010 	ldmia.w	sp!, {r4, lr}
  osalSysUnlock();
 800711e:	f7fe bb91 	b.w	8005844 <osalSysUnlock.lto_priv.0>
 8007122:	bf00      	nop
 8007124:	0800c7d8 	.word	0x0800c7d8

08007128 <sduInterruptTransmitted>:
 */
void sduInterruptTransmitted(USBDriver *usbp, usbep_t ep) {

  (void)usbp;
  (void)ep;
}
 8007128:	4770      	bx	lr
	...

0800712c <sduRequestsHook>:
  if ((usbp->setup[0] & USB_RTYPE_TYPE_MASK) == USB_RTYPE_TYPE_CLASS) {
 800712c:	f890 2074 	ldrb.w	r2, [r0, #116]	; 0x74
bool sduRequestsHook(USBDriver *usbp) {
 8007130:	4603      	mov	r3, r0
  if ((usbp->setup[0] & USB_RTYPE_TYPE_MASK) == USB_RTYPE_TYPE_CLASS) {
 8007132:	f002 0260 	and.w	r2, r2, #96	; 0x60
 8007136:	2a20      	cmp	r2, #32
 8007138:	d114      	bne.n	8007164 <sduRequestsHook+0x38>
    switch (usbp->setup[1]) {
 800713a:	f890 2075 	ldrb.w	r2, [r0, #117]	; 0x75
 800713e:	2000      	movs	r0, #0
 8007140:	2a21      	cmp	r2, #33	; 0x21
 8007142:	d802      	bhi.n	800714a <sduRequestsHook+0x1e>
 8007144:	2a1f      	cmp	r2, #31
 8007146:	d803      	bhi.n	8007150 <sduRequestsHook+0x24>
 8007148:	4770      	bx	lr
 800714a:	2a22      	cmp	r2, #34	; 0x22
 800714c:	d007      	beq.n	800715e <sduRequestsHook+0x32>
 800714e:	4770      	bx	lr
      usbSetupTransfer(usbp, (uint8_t *)&linecoding, sizeof(linecoding), NULL);
 8007150:	4a05      	ldr	r2, [pc, #20]	; (8007168 <sduRequestsHook+0x3c>)
 8007152:	669a      	str	r2, [r3, #104]	; 0x68
 8007154:	2207      	movs	r2, #7
 8007156:	66da      	str	r2, [r3, #108]	; 0x6c
      usbSetupTransfer(usbp, NULL, 0, NULL);
 8007158:	6718      	str	r0, [r3, #112]	; 0x70
      return true;
 800715a:	2001      	movs	r0, #1
 800715c:	4770      	bx	lr
      usbSetupTransfer(usbp, NULL, 0, NULL);
 800715e:	e9c3 001a 	strd	r0, r0, [r3, #104]	; 0x68
 8007162:	e7f9      	b.n	8007158 <sduRequestsHook+0x2c>
  return false;
 8007164:	2000      	movs	r0, #0
}
 8007166:	4770      	bx	lr
 8007168:	20000850 	.word	0x20000850

0800716c <sdu_start_receive>:
static bool sdu_start_receive(SerialUSBDriver *sdup) {
 800716c:	b538      	push	{r3, r4, r5, lr}
  if ((usbGetDriverStateI(sdup->config->usbp) != USB_ACTIVE) ||
 800716e:	f8d0 1498 	ldr.w	r1, [r0, #1176]	; 0x498
static bool sdu_start_receive(SerialUSBDriver *sdup) {
 8007172:	4603      	mov	r3, r0
  if ((usbGetDriverStateI(sdup->config->usbp) != USB_ACTIVE) ||
 8007174:	680c      	ldr	r4, [r1, #0]
 8007176:	7822      	ldrb	r2, [r4, #0]
 8007178:	2a04      	cmp	r2, #4
 800717a:	d11e      	bne.n	80071ba <sdu_start_receive+0x4e>
 800717c:	7d02      	ldrb	r2, [r0, #20]
 800717e:	2a02      	cmp	r2, #2
 8007180:	d11b      	bne.n	80071ba <sdu_start_receive+0x4e>
  if (usbGetReceiveStatusI(sdup->config->usbp, sdup->config->bulk_in)) {
 8007182:	2001      	movs	r0, #1
 8007184:	790a      	ldrb	r2, [r1, #4]
 8007186:	8965      	ldrh	r5, [r4, #10]
 8007188:	fa00 f202 	lsl.w	r2, r0, r2
 800718c:	422a      	tst	r2, r5
 800718e:	d110      	bne.n	80071b2 <sdu_start_receive+0x46>
	__asm volatile( "mrs %0, basepri" : "=r"( ulBasePri ) );
 8007190:	f3ef 8211 	mrs	r2, BASEPRI
	return (ulBasePri > 0)? pdTRUE : pdFALSE;
 8007194:	b172      	cbz	r2, 80071b4 <sdu_start_receive+0x48>
 */
uint8_t *ibqGetEmptyBufferI(input_buffers_queue_t *ibqp) {

  osalDbgCheckClassI();

  if (ibqIsFullI(ibqp)) {
 8007196:	e9d3 250a 	ldrd	r2, r5, [r3, #40]	; 0x28
 800719a:	42aa      	cmp	r2, r5
 800719c:	d101      	bne.n	80071a2 <sdu_start_receive+0x36>
 800719e:	6a5b      	ldr	r3, [r3, #36]	; 0x24
 80071a0:	b93b      	cbnz	r3, 80071b2 <sdu_start_receive+0x46>
  usbStartReceiveI(sdup->config->usbp, sdup->config->bulk_out,
 80071a2:	4620      	mov	r0, r4
 80071a4:	f44f 7380 	mov.w	r3, #256	; 0x100
 80071a8:	7949      	ldrb	r1, [r1, #5]
 80071aa:	3204      	adds	r2, #4
 80071ac:	f7ff fd20 	bl	8006bf0 <usbStartReceiveI>
  return false;
 80071b0:	2000      	movs	r0, #0
}
 80071b2:	bd38      	pop	{r3, r4, r5, pc}
  osalDbgCheckClassI();
 80071b4:	f7fd f8c4 	bl	8004340 <vTaskEndScheduler>
 80071b8:	e7fe      	b.n	80071b8 <sdu_start_receive+0x4c>
    return true;
 80071ba:	2001      	movs	r0, #1
 80071bc:	e7f9      	b.n	80071b2 <sdu_start_receive+0x46>

080071be <ibnotify>:
  (void) sdu_start_receive(sdup);
 80071be:	6b40      	ldr	r0, [r0, #52]	; 0x34
 80071c0:	f7ff bfd4 	b.w	800716c <sdu_start_receive>

080071c4 <sduDataReceived>:
  SerialUSBDriver *sdup = usbp->out_params[ep - 1U];
 80071c4:	3111      	adds	r1, #17
void sduDataReceived(USBDriver *usbp, usbep_t ep) {
 80071c6:	b510      	push	{r4, lr}
  SerialUSBDriver *sdup = usbp->out_params[ep - 1U];
 80071c8:	f850 4021 	ldr.w	r4, [r0, r1, lsl #2]
  if (sdup == NULL) {
 80071cc:	2c00      	cmp	r4, #0
 80071ce:	d03d      	beq.n	800724c <sduDataReceived+0x88>
  osalSysLockFromISR();
 80071d0:	f7fe fd04 	bl	8005bdc <osalSysLockFromISR.lto_priv.0>
  chnAddFlagsI(sdup, CHN_INPUT_AVAILABLE);
 80071d4:	2104      	movs	r1, #4
 80071d6:	1860      	adds	r0, r4, r1
 80071d8:	f7fd f995 	bl	8004506 <osalEventBroadcastFlagsI>
	__asm volatile( "mrs %0, basepri" : "=r"( ulBasePri ) );
 80071dc:	f3ef 8311 	mrs	r3, BASEPRI
	return (ulBasePri > 0)? pdTRUE : pdFALSE;
 80071e0:	b163      	cbz	r3, 80071fc <sduDataReceived+0x38>
                     usbGetReceiveTransactionSizeX(sdup->config->usbp,
 80071e2:	f8d4 2498 	ldr.w	r2, [r4, #1176]	; 0x498
 80071e6:	6813      	ldr	r3, [r2, #0]
 80071e8:	7952      	ldrb	r2, [r2, #5]
 80071ea:	eb03 0382 	add.w	r3, r3, r2, lsl #2
 80071ee:	68db      	ldr	r3, [r3, #12]
  ibqPostFullBufferI(&sdup->ibqueue,
 80071f0:	699b      	ldr	r3, [r3, #24]
 80071f2:	685a      	ldr	r2, [r3, #4]
 */
void ibqPostFullBufferI(input_buffers_queue_t *ibqp, size_t size) {

  osalDbgCheckClassI();

  osalDbgCheck((size > 0U) && (size <= (ibqp->bsize - sizeof (size_t))));
 80071f4:	b92a      	cbnz	r2, 8007202 <sduDataReceived+0x3e>
 80071f6:	f7fd f8a3 	bl	8004340 <vTaskEndScheduler>
 80071fa:	e7fe      	b.n	80071fa <sduDataReceived+0x36>
  osalDbgCheckClassI();
 80071fc:	f7fd f8a0 	bl	8004340 <vTaskEndScheduler>
 8007200:	e7fe      	b.n	8007200 <sduDataReceived+0x3c>
  osalDbgCheck((size > 0U) && (size <= (ibqp->bsize - sizeof (size_t))));
 8007202:	6b63      	ldr	r3, [r4, #52]	; 0x34
 8007204:	3b04      	subs	r3, #4
 8007206:	429a      	cmp	r2, r3
 8007208:	d8f5      	bhi.n	80071f6 <sduDataReceived+0x32>
  osalDbgAssert(!ibqIsFullI(ibqp), "buffers queue full");
 800720a:	e9d4 310a 	ldrd	r3, r1, [r4, #40]	; 0x28
 800720e:	428b      	cmp	r3, r1
 8007210:	d104      	bne.n	800721c <sduDataReceived+0x58>
 8007212:	6a61      	ldr	r1, [r4, #36]	; 0x24
 8007214:	b111      	cbz	r1, 800721c <sduDataReceived+0x58>
 8007216:	f7fd f893 	bl	8004340 <vTaskEndScheduler>
 800721a:	e7fe      	b.n	800721a <sduDataReceived+0x56>

  /* Writing size field in the buffer.*/
  *((size_t *)ibqp->bwrptr) = size;
 800721c:	601a      	str	r2, [r3, #0]

  /* Posting the buffer in the queue.*/
  ibqp->bcounter++;
 800721e:	6a62      	ldr	r2, [r4, #36]	; 0x24
 8007220:	3201      	adds	r2, #1
 8007222:	6262      	str	r2, [r4, #36]	; 0x24
  ibqp->bwrptr += ibqp->bsize;
 8007224:	6b62      	ldr	r2, [r4, #52]	; 0x34
 8007226:	4413      	add	r3, r2
  if (ibqp->bwrptr >= ibqp->btop) {
 8007228:	6b22      	ldr	r2, [r4, #48]	; 0x30
  ibqp->bwrptr += ibqp->bsize;
 800722a:	62a3      	str	r3, [r4, #40]	; 0x28
  if (ibqp->bwrptr >= ibqp->btop) {
 800722c:	4293      	cmp	r3, r2
 800722e:	d20a      	bcs.n	8007246 <sduDataReceived+0x82>
    ibqp->bwrptr = ibqp->buffers;
  }

  /* Waking up one waiting thread, if any.*/
  osalThreadDequeueNextI(&ibqp->waiting, MSG_OK);
 8007230:	f104 0018 	add.w	r0, r4, #24
 8007234:	f7fd f9bf 	bl	80045b6 <osalThreadDequeueNextI.constprop.0>
  (void) sdu_start_receive(sdup);
 8007238:	4620      	mov	r0, r4
 800723a:	f7ff ff97 	bl	800716c <sdu_start_receive>
}
 800723e:	e8bd 4010 	ldmia.w	sp!, {r4, lr}
  osalSysUnlockFromISR();
 8007242:	f7fe bcc5 	b.w	8005bd0 <osalSysUnlockFromISR.lto_priv.0>
    ibqp->bwrptr = ibqp->buffers;
 8007246:	6be3      	ldr	r3, [r4, #60]	; 0x3c
 8007248:	62a3      	str	r3, [r4, #40]	; 0x28
 800724a:	e7f1      	b.n	8007230 <sduDataReceived+0x6c>
}
 800724c:	bd10      	pop	{r4, pc}
	...

08007250 <osalOsRescheduleS.lto_priv.1>:
{
 8007250:	b508      	push	{r3, lr}
	__asm volatile( "mrs %0, basepri" : "=r"( ulBasePri ) );
 8007252:	f3ef 8311 	mrs	r3, BASEPRI
	return (ulBasePri > 0)? pdTRUE : pdFALSE;
 8007256:	b12b      	cbz	r3, 8007264 <osalOsRescheduleS.lto_priv.1+0x14>
	__asm volatile( "mrs %0, ipsr" : "=r"( ulCurrentInterrupt ) );
 8007258:	f3ef 8205 	mrs	r2, IPSR
	if( ulCurrentInterrupt == 0 )
 800725c:	b12a      	cbz	r2, 800726a <osalOsRescheduleS.lto_priv.1+0x1a>
    osalDbgCheckClassS();
 800725e:	f7fd f86f 	bl	8004340 <vTaskEndScheduler>
 8007262:	e7fe      	b.n	8007262 <osalOsRescheduleS.lto_priv.1+0x12>
 8007264:	f7fd f86c 	bl	8004340 <vTaskEndScheduler>
 8007268:	e7fe      	b.n	8007268 <osalOsRescheduleS.lto_priv.1+0x18>
 800726a:	4b04      	ldr	r3, [pc, #16]	; (800727c <osalOsRescheduleS.lto_priv.1+0x2c>)
 800726c:	6819      	ldr	r1, [r3, #0]
 800726e:	601a      	str	r2, [r3, #0]
    if(uxYieldPending()) taskYIELD();
 8007270:	b119      	cbz	r1, 800727a <osalOsRescheduleS.lto_priv.1+0x2a>
}
 8007272:	e8bd 4008 	ldmia.w	sp!, {r3, lr}
 8007276:	f7ff b933 	b.w	80064e0 <Vector6C.part.0>
 800727a:	bd08      	pop	{r3, pc}
 800727c:	2000164c 	.word	0x2000164c

08007280 <i2cAcquireBus>:
 *
 * @param[in] i2cp      pointer to the @p I2CDriver object
 *
 * @api
 */
void i2cAcquireBus(I2CDriver *i2cp) {
 8007280:	b508      	push	{r3, lr}

  osalDbgCheck(i2cp != NULL);
 8007282:	b910      	cbnz	r0, 800728a <i2cAcquireBus+0xa>
 8007284:	f7fd f85c 	bl	8004340 <vTaskEndScheduler>
 8007288:	e7fe      	b.n	8007288 <i2cAcquireBus+0x8>
    xSemaphoreTake(mutex->handle, portMAX_DELAY);
 800728a:	f04f 31ff 	mov.w	r1, #4294967295	; 0xffffffff

  osalMutexLock(&i2cp->mutex);
}
 800728e:	e8bd 4008 	ldmia.w	sp!, {r3, lr}
 8007292:	68c0      	ldr	r0, [r0, #12]
 8007294:	f7fd bd8a 	b.w	8004dac <xQueueSemaphoreTake>

08007298 <oqWriteTimeout>:
 * @return              The number of bytes effectively transferred.
 *
 * @api
 */
size_t oqWriteTimeout(output_queue_t *oqp, const uint8_t *bp,
                      size_t n, systime_t timeout) {
 8007298:	e92d 4ff7 	stmdb	sp!, {r0, r1, r2, r4, r5, r6, r7, r8, r9, sl, fp, lr}
 800729c:	4604      	mov	r4, r0
 800729e:	460d      	mov	r5, r1
 80072a0:	461f      	mov	r7, r3
  systime_t deadline;
  qnotify_t nfy = oqp->q_notify;
  size_t w = 0;

  osalDbgCheck(n > 0U);
 80072a2:	4616      	mov	r6, r2
 80072a4:	b912      	cbnz	r2, 80072ac <oqWriteTimeout+0x14>
 80072a6:	f7fd f84b 	bl	8004340 <vTaskEndScheduler>
 80072aa:	e7fe      	b.n	80072aa <oqWriteTimeout+0x12>
  qnotify_t nfy = oqp->q_notify;
 80072ac:	f8d0 a01c 	ldr.w	sl, [r0, #28]

  osalSysLock();
 80072b0:	f7fc ff98 	bl	80041e4 <vPortEnterCritical>
 80072b4:	f7fc ff16 	bl	80040e4 <vPortValidateInterruptPriority>
 80072b8:	4b1f      	ldr	r3, [pc, #124]	; (8007338 <oqWriteTimeout+0xa0>)
  size_t w = 0;
 80072ba:	f04f 0900 	mov.w	r9, #0
 80072be:	4698      	mov	r8, r3
 80072c0:	681a      	ldr	r2, [r3, #0]
    msg_t msg;

    while (oqIsFullI(oqp)) {
      /* TIME_INFINITE and TIME_IMMEDIATE are handled differently, no
         deadline.*/
      if ((timeout == TIME_INFINITE) || (timeout == TIME_IMMEDIATE)) {
 80072c2:	f107 3bff 	add.w	fp, r7, #4294967295	; 0xffffffff
  deadline = osalOsGetSystemTimeX() + timeout;
 80072c6:	18ba      	adds	r2, r7, r2
 80072c8:	9201      	str	r2, [sp, #4]
    while (oqIsFullI(oqp)) {
 80072ca:	68a3      	ldr	r3, [r4, #8]
 80072cc:	b1e3      	cbz	r3, 8007308 <oqWriteTimeout+0x70>
        return w;
      }
    }

    /* Putting the character into the queue.*/
    oqp->q_counter--;
 80072ce:	68a3      	ldr	r3, [r4, #8]
 80072d0:	3b01      	subs	r3, #1
 80072d2:	60a3      	str	r3, [r4, #8]
    *oqp->q_wrptr++ = *bp++;
 80072d4:	6963      	ldr	r3, [r4, #20]
 80072d6:	1c5a      	adds	r2, r3, #1
 80072d8:	6162      	str	r2, [r4, #20]
 80072da:	f815 2b01 	ldrb.w	r2, [r5], #1
 80072de:	701a      	strb	r2, [r3, #0]
    if (oqp->q_wrptr >= oqp->q_top) {
 80072e0:	e9d4 3204 	ldrd	r3, r2, [r4, #16]
 80072e4:	429a      	cmp	r2, r3
      oqp->q_wrptr = oqp->q_buffer;
 80072e6:	bf24      	itt	cs
 80072e8:	68e3      	ldrcs	r3, [r4, #12]
 80072ea:	6163      	strcs	r3, [r4, #20]
    }

    /* Inform the low side that the queue has at least one character available.*/
    if (nfy != NULL) {
 80072ec:	f1ba 0f00 	cmp.w	sl, #0
 80072f0:	d001      	beq.n	80072f6 <oqWriteTimeout+0x5e>
      nfy(oqp);
 80072f2:	4620      	mov	r0, r4
 80072f4:	47d0      	blx	sl
    }

    /* Giving a preemption chance in a controlled point.*/
    osalSysUnlock();
 80072f6:	f7fe faa5 	bl	8005844 <osalSysUnlock.lto_priv.0>

    w++;
    if (--n == 0U) {
 80072fa:	3e01      	subs	r6, #1
    w++;
 80072fc:	f109 0901 	add.w	r9, r9, #1
    if (--n == 0U) {
 8007300:	d016      	beq.n	8007330 <oqWriteTimeout+0x98>
      return w;
    }

    osalSysLock();
 8007302:	f7fc ff6f 	bl	80041e4 <vPortEnterCritical>
  while (true) {
 8007306:	e7e0      	b.n	80072ca <oqWriteTimeout+0x32>
      if ((timeout == TIME_INFINITE) || (timeout == TIME_IMMEDIATE)) {
 8007308:	f11b 0f03 	cmn.w	fp, #3
 800730c:	d906      	bls.n	800731c <oqWriteTimeout+0x84>
        msg = osalThreadEnqueueTimeoutS(&oqp->q_waiting, timeout);
 800730e:	4639      	mov	r1, r7
        msg = osalThreadEnqueueTimeoutS(&oqp->q_waiting, next_timeout);
 8007310:	4620      	mov	r0, r4
 8007312:	f7fd fa23 	bl	800475c <osalThreadEnqueueTimeoutS>
      if (msg != MSG_OK) {
 8007316:	2800      	cmp	r0, #0
 8007318:	d0d7      	beq.n	80072ca <oqWriteTimeout+0x32>
 800731a:	e007      	b.n	800732c <oqWriteTimeout+0x94>
 800731c:	f7fc fee2 	bl	80040e4 <vPortValidateInterruptPriority>
 8007320:	f8d8 1000 	ldr.w	r1, [r8]
        systime_t next_timeout = deadline - osalOsGetSystemTimeX();
 8007324:	9b01      	ldr	r3, [sp, #4]
 8007326:	1a59      	subs	r1, r3, r1
        if (next_timeout > timeout) {
 8007328:	428f      	cmp	r7, r1
 800732a:	d2f1      	bcs.n	8007310 <oqWriteTimeout+0x78>
        osalSysUnlock();
 800732c:	f7fe fa8a 	bl	8005844 <osalSysUnlock.lto_priv.0>
  }
}
 8007330:	4648      	mov	r0, r9
 8007332:	b003      	add	sp, #12
 8007334:	e8bd 8ff0 	ldmia.w	sp!, {r4, r5, r6, r7, r8, r9, sl, fp, pc}
 8007338:	20001648 	.word	0x20001648

0800733c <_writet.lto_priv.0>:
  return iqGetTimeout(&((SerialDriver *)ip)->iqueue, timeout);
}

static size_t _writet(void *ip, const uint8_t *bp, size_t n, systime_t timeout) {

  return oqWriteTimeout(&((SerialDriver *)ip)->oqueue, bp, n, timeout);
 800733c:	303c      	adds	r0, #60	; 0x3c
 800733e:	f7ff bfab 	b.w	8007298 <oqWriteTimeout>

08007342 <_write.lto_priv.0>:
  return oqWriteTimeout(&((SerialDriver *)ip)->oqueue, bp,
 8007342:	f04f 33ff 	mov.w	r3, #4294967295	; 0xffffffff
 8007346:	303c      	adds	r0, #60	; 0x3c
 8007348:	f7ff bfa6 	b.w	8007298 <oqWriteTimeout>

0800734c <oqPutTimeout>:
msg_t oqPutTimeout(output_queue_t *oqp, uint8_t b, systime_t timeout) {
 800734c:	b570      	push	{r4, r5, r6, lr}
 800734e:	4604      	mov	r4, r0
 8007350:	460d      	mov	r5, r1
 8007352:	4616      	mov	r6, r2
  osalSysLock();
 8007354:	f7fc ff46 	bl	80041e4 <vPortEnterCritical>
  while (oqIsFullI(oqp)) {
 8007358:	68a3      	ldr	r3, [r4, #8]
 800735a:	b1a3      	cbz	r3, 8007386 <oqPutTimeout+0x3a>
  oqp->q_counter--;
 800735c:	68a3      	ldr	r3, [r4, #8]
 800735e:	3b01      	subs	r3, #1
 8007360:	60a3      	str	r3, [r4, #8]
  *oqp->q_wrptr++ = b;
 8007362:	6963      	ldr	r3, [r4, #20]
 8007364:	1c5a      	adds	r2, r3, #1
 8007366:	6162      	str	r2, [r4, #20]
 8007368:	701d      	strb	r5, [r3, #0]
  if (oqp->q_wrptr >= oqp->q_top) {
 800736a:	e9d4 3204 	ldrd	r3, r2, [r4, #16]
 800736e:	429a      	cmp	r2, r3
    oqp->q_wrptr = oqp->q_buffer;
 8007370:	bf24      	itt	cs
 8007372:	68e3      	ldrcs	r3, [r4, #12]
 8007374:	6163      	strcs	r3, [r4, #20]
  if (oqp->q_notify != NULL) {
 8007376:	69e3      	ldr	r3, [r4, #28]
 8007378:	b10b      	cbz	r3, 800737e <oqPutTimeout+0x32>
    oqp->q_notify(oqp);
 800737a:	4620      	mov	r0, r4
 800737c:	4798      	blx	r3
  osalSysUnlock();
 800737e:	f7fe fa61 	bl	8005844 <osalSysUnlock.lto_priv.0>
 8007382:	2000      	movs	r0, #0
 8007384:	e007      	b.n	8007396 <oqPutTimeout+0x4a>
    msg_t msg = osalThreadEnqueueTimeoutS(&oqp->q_waiting, timeout);
 8007386:	4631      	mov	r1, r6
 8007388:	4620      	mov	r0, r4
 800738a:	f7fd f9e7 	bl	800475c <osalThreadEnqueueTimeoutS>
    if (msg < MSG_OK) {
 800738e:	2800      	cmp	r0, #0
 8007390:	dae2      	bge.n	8007358 <oqPutTimeout+0xc>
      osalSysUnlock();
 8007392:	f7fe fa57 	bl	8005844 <osalSysUnlock.lto_priv.0>
}
 8007396:	bd70      	pop	{r4, r5, r6, pc}

08007398 <_putt.lto_priv.0>:
  return oqPutTimeout(&((SerialDriver *)ip)->oqueue, b, timeout);
 8007398:	303c      	adds	r0, #60	; 0x3c
 800739a:	f7ff bfd7 	b.w	800734c <oqPutTimeout>

0800739e <_put.lto_priv.0>:
  return oqPutTimeout(&((SerialDriver *)ip)->oqueue, b, TIME_INFINITE);
 800739e:	f04f 32ff 	mov.w	r2, #4294967295	; 0xffffffff
 80073a2:	303c      	adds	r0, #60	; 0x3c
 80073a4:	f7ff bfd2 	b.w	800734c <oqPutTimeout>

080073a8 <iqReadTimeout>:
                     size_t n, systime_t timeout) {
 80073a8:	e92d 4ff7 	stmdb	sp!, {r0, r1, r2, r4, r5, r6, r7, r8, r9, sl, fp, lr}
 80073ac:	4604      	mov	r4, r0
 80073ae:	460d      	mov	r5, r1
 80073b0:	461f      	mov	r7, r3
  osalDbgCheck(n > 0U);
 80073b2:	4616      	mov	r6, r2
 80073b4:	b912      	cbnz	r2, 80073bc <iqReadTimeout+0x14>
 80073b6:	f7fc ffc3 	bl	8004340 <vTaskEndScheduler>
 80073ba:	e7fe      	b.n	80073ba <iqReadTimeout+0x12>
  qnotify_t nfy = iqp->q_notify;
 80073bc:	f8d0 a01c 	ldr.w	sl, [r0, #28]
  osalSysLock();
 80073c0:	f7fc ff10 	bl	80041e4 <vPortEnterCritical>
 80073c4:	f7fc fe8e 	bl	80040e4 <vPortValidateInterruptPriority>
 80073c8:	4b1f      	ldr	r3, [pc, #124]	; (8007448 <iqReadTimeout+0xa0>)
  size_t r = 0;
 80073ca:	f04f 0900 	mov.w	r9, #0
 80073ce:	4698      	mov	r8, r3
 80073d0:	681a      	ldr	r2, [r3, #0]
      if ((timeout == TIME_INFINITE) || (timeout == TIME_IMMEDIATE)) {
 80073d2:	f107 3bff 	add.w	fp, r7, #4294967295	; 0xffffffff
  deadline = osalOsGetSystemTimeX() + timeout;
 80073d6:	18ba      	adds	r2, r7, r2
 80073d8:	9201      	str	r2, [sp, #4]
    while (iqIsEmptyI(iqp)) {
 80073da:	68a3      	ldr	r3, [r4, #8]
 80073dc:	b1e3      	cbz	r3, 8007418 <iqReadTimeout+0x70>
    iqp->q_counter--;
 80073de:	68a3      	ldr	r3, [r4, #8]
 80073e0:	3b01      	subs	r3, #1
 80073e2:	60a3      	str	r3, [r4, #8]
    *bp++ = *iqp->q_rdptr++;
 80073e4:	69a3      	ldr	r3, [r4, #24]
 80073e6:	1c5a      	adds	r2, r3, #1
 80073e8:	61a2      	str	r2, [r4, #24]
 80073ea:	781b      	ldrb	r3, [r3, #0]
 80073ec:	f805 3b01 	strb.w	r3, [r5], #1
    if (iqp->q_rdptr >= iqp->q_top) {
 80073f0:	6923      	ldr	r3, [r4, #16]
 80073f2:	69a2      	ldr	r2, [r4, #24]
 80073f4:	429a      	cmp	r2, r3
      iqp->q_rdptr = iqp->q_buffer;
 80073f6:	bf24      	itt	cs
 80073f8:	68e3      	ldrcs	r3, [r4, #12]
 80073fa:	61a3      	strcs	r3, [r4, #24]
    if (nfy != NULL) {
 80073fc:	f1ba 0f00 	cmp.w	sl, #0
 8007400:	d001      	beq.n	8007406 <iqReadTimeout+0x5e>
      nfy(iqp);
 8007402:	4620      	mov	r0, r4
 8007404:	47d0      	blx	sl
    osalSysUnlock();
 8007406:	f7fe fa1d 	bl	8005844 <osalSysUnlock.lto_priv.0>
    if (--n == 0U) {
 800740a:	3e01      	subs	r6, #1
    r++;
 800740c:	f109 0901 	add.w	r9, r9, #1
    if (--n == 0U) {
 8007410:	d016      	beq.n	8007440 <iqReadTimeout+0x98>
    osalSysLock();
 8007412:	f7fc fee7 	bl	80041e4 <vPortEnterCritical>
  while (true) {
 8007416:	e7e0      	b.n	80073da <iqReadTimeout+0x32>
      if ((timeout == TIME_INFINITE) || (timeout == TIME_IMMEDIATE)) {
 8007418:	f11b 0f03 	cmn.w	fp, #3
 800741c:	d906      	bls.n	800742c <iqReadTimeout+0x84>
        msg = osalThreadEnqueueTimeoutS(&iqp->q_waiting, timeout);
 800741e:	4639      	mov	r1, r7
        msg = osalThreadEnqueueTimeoutS(&iqp->q_waiting, next_timeout);
 8007420:	4620      	mov	r0, r4
 8007422:	f7fd f99b 	bl	800475c <osalThreadEnqueueTimeoutS>
      if (msg != MSG_OK) {
 8007426:	2800      	cmp	r0, #0
 8007428:	d0d7      	beq.n	80073da <iqReadTimeout+0x32>
 800742a:	e007      	b.n	800743c <iqReadTimeout+0x94>
 800742c:	f7fc fe5a 	bl	80040e4 <vPortValidateInterruptPriority>
 8007430:	f8d8 1000 	ldr.w	r1, [r8]
        systime_t next_timeout = deadline - osalOsGetSystemTimeX();
 8007434:	9b01      	ldr	r3, [sp, #4]
 8007436:	1a59      	subs	r1, r3, r1
        if (next_timeout > timeout) {
 8007438:	428f      	cmp	r7, r1
 800743a:	d2f1      	bcs.n	8007420 <iqReadTimeout+0x78>
        osalSysUnlock();
 800743c:	f7fe fa02 	bl	8005844 <osalSysUnlock.lto_priv.0>
}
 8007440:	4648      	mov	r0, r9
 8007442:	b003      	add	sp, #12
 8007444:	e8bd 8ff0 	ldmia.w	sp!, {r4, r5, r6, r7, r8, r9, sl, fp, pc}
 8007448:	20001648 	.word	0x20001648

0800744c <_readt.lto_priv.0>:
}

static size_t _readt(void *ip, uint8_t *bp, size_t n, systime_t timeout) {

  return iqReadTimeout(&((SerialDriver *)ip)->iqueue, bp, n, timeout);
 800744c:	3018      	adds	r0, #24
 800744e:	f7ff bfab 	b.w	80073a8 <iqReadTimeout>

08007452 <_read.lto_priv.0>:
  return iqReadTimeout(&((SerialDriver *)ip)->iqueue, bp,
 8007452:	f04f 33ff 	mov.w	r3, #4294967295	; 0xffffffff
 8007456:	3018      	adds	r0, #24
 8007458:	f7ff bfa6 	b.w	80073a8 <iqReadTimeout>

0800745c <iqGetTimeout>:
msg_t iqGetTimeout(input_queue_t *iqp, systime_t timeout) {
 800745c:	b538      	push	{r3, r4, r5, lr}
 800745e:	4604      	mov	r4, r0
 8007460:	460d      	mov	r5, r1
  osalSysLock();
 8007462:	f7fc febf 	bl	80041e4 <vPortEnterCritical>
  while (iqIsEmptyI(iqp)) {
 8007466:	68a3      	ldr	r3, [r4, #8]
 8007468:	b19b      	cbz	r3, 8007492 <iqGetTimeout+0x36>
  iqp->q_counter--;
 800746a:	68a3      	ldr	r3, [r4, #8]
  b = *iqp->q_rdptr++;
 800746c:	69a2      	ldr	r2, [r4, #24]
  iqp->q_counter--;
 800746e:	3b01      	subs	r3, #1
 8007470:	60a3      	str	r3, [r4, #8]
  b = *iqp->q_rdptr++;
 8007472:	1c53      	adds	r3, r2, #1
 8007474:	61a3      	str	r3, [r4, #24]
 8007476:	7815      	ldrb	r5, [r2, #0]
  if (iqp->q_rdptr >= iqp->q_top) {
 8007478:	6922      	ldr	r2, [r4, #16]
 800747a:	4293      	cmp	r3, r2
    iqp->q_rdptr = iqp->q_buffer;
 800747c:	bf24      	itt	cs
 800747e:	68e3      	ldrcs	r3, [r4, #12]
 8007480:	61a3      	strcs	r3, [r4, #24]
  if (iqp->q_notify != NULL) {
 8007482:	69e3      	ldr	r3, [r4, #28]
 8007484:	b10b      	cbz	r3, 800748a <iqGetTimeout+0x2e>
    iqp->q_notify(iqp);
 8007486:	4620      	mov	r0, r4
 8007488:	4798      	blx	r3
  osalSysUnlock();
 800748a:	f7fe f9db 	bl	8005844 <osalSysUnlock.lto_priv.0>
  return (msg_t)b;
 800748e:	4628      	mov	r0, r5
 8007490:	e007      	b.n	80074a2 <iqGetTimeout+0x46>
    msg_t msg = osalThreadEnqueueTimeoutS(&iqp->q_waiting, timeout);
 8007492:	4629      	mov	r1, r5
 8007494:	4620      	mov	r0, r4
 8007496:	f7fd f961 	bl	800475c <osalThreadEnqueueTimeoutS>
    if (msg < MSG_OK) {
 800749a:	2800      	cmp	r0, #0
 800749c:	dae3      	bge.n	8007466 <iqGetTimeout+0xa>
      osalSysUnlock();
 800749e:	f7fe f9d1 	bl	8005844 <osalSysUnlock.lto_priv.0>
}
 80074a2:	bd38      	pop	{r3, r4, r5, pc}

080074a4 <_gett.lto_priv.0>:
  return iqGetTimeout(&((SerialDriver *)ip)->iqueue, timeout);
 80074a4:	3018      	adds	r0, #24
 80074a6:	f7ff bfd9 	b.w	800745c <iqGetTimeout>

080074aa <_get.lto_priv.0>:
  return iqGetTimeout(&((SerialDriver *)ip)->iqueue, TIME_INFINITE);
 80074aa:	f04f 31ff 	mov.w	r1, #4294967295	; 0xffffffff
 80074ae:	3018      	adds	r0, #24
 80074b0:	f7ff bfd4 	b.w	800745c <iqGetTimeout>

080074b4 <obqPostFullBufferS>:
 * @param[in] obqp      pointer to the @p output_buffers_queue_t object
 * @param[in] size      used size of the buffer, cannot be zero
 *
 * @sclass
 */
void obqPostFullBufferS(output_buffers_queue_t *obqp, size_t size) {
 80074b4:	b510      	push	{r4, lr}
	__asm volatile( "mrs %0, basepri" : "=r"( ulBasePri ) );
 80074b6:	f3ef 8311 	mrs	r3, BASEPRI
	return (ulBasePri > 0)? pdTRUE : pdFALSE;
 80074ba:	b12b      	cbz	r3, 80074c8 <obqPostFullBufferS+0x14>
	__asm volatile( "mrs %0, ipsr" : "=r"( ulCurrentInterrupt ) );
 80074bc:	f3ef 8305 	mrs	r3, IPSR
	if( ulCurrentInterrupt == 0 )
 80074c0:	b12b      	cbz	r3, 80074ce <obqPostFullBufferS+0x1a>

  osalDbgCheckClassS();
 80074c2:	f7fc ff3d 	bl	8004340 <vTaskEndScheduler>
 80074c6:	e7fe      	b.n	80074c6 <obqPostFullBufferS+0x12>
 80074c8:	f7fc ff3a 	bl	8004340 <vTaskEndScheduler>
 80074cc:	e7fe      	b.n	80074cc <obqPostFullBufferS+0x18>
  osalDbgCheck((size > 0U) && (size <= (obqp->bsize - sizeof (size_t))));
 80074ce:	b119      	cbz	r1, 80074d8 <obqPostFullBufferS+0x24>
 80074d0:	69c3      	ldr	r3, [r0, #28]
 80074d2:	3b04      	subs	r3, #4
 80074d4:	428b      	cmp	r3, r1
 80074d6:	d202      	bcs.n	80074de <obqPostFullBufferS+0x2a>
 80074d8:	f7fc ff32 	bl	8004340 <vTaskEndScheduler>
 80074dc:	e7fe      	b.n	80074dc <obqPostFullBufferS+0x28>
  osalDbgAssert(!obqIsFullI(obqp), "buffers queue full");
 80074de:	68c3      	ldr	r3, [r0, #12]
 80074e0:	b913      	cbnz	r3, 80074e8 <obqPostFullBufferS+0x34>
 80074e2:	f7fc ff2d 	bl	8004340 <vTaskEndScheduler>
 80074e6:	e7fe      	b.n	80074e6 <obqPostFullBufferS+0x32>

  /* Writing size field in the buffer.*/
  *((size_t *)obqp->bwrptr) = size;
 80074e8:	6903      	ldr	r3, [r0, #16]
 80074ea:	6019      	str	r1, [r3, #0]

  /* Posting the buffer in the queue.*/
  obqp->bcounter--;
 80074ec:	68c2      	ldr	r2, [r0, #12]
 80074ee:	3a01      	subs	r2, #1
 80074f0:	60c2      	str	r2, [r0, #12]
  obqp->bwrptr += obqp->bsize;
 80074f2:	69c2      	ldr	r2, [r0, #28]
 80074f4:	4413      	add	r3, r2
  if (obqp->bwrptr >= obqp->btop) {
 80074f6:	6982      	ldr	r2, [r0, #24]
  obqp->bwrptr += obqp->bsize;
 80074f8:	6103      	str	r3, [r0, #16]
  if (obqp->bwrptr >= obqp->btop) {
 80074fa:	4293      	cmp	r3, r2
    obqp->bwrptr = obqp->buffers;
 80074fc:	bf24      	itt	cs
 80074fe:	6a43      	ldrcs	r3, [r0, #36]	; 0x24
 8007500:	6103      	strcs	r3, [r0, #16]
  }

  /* No "current" buffer.*/
  obqp->ptr = NULL;
 8007502:	2300      	movs	r3, #0
 8007504:	6283      	str	r3, [r0, #40]	; 0x28

  /* Notifying the buffer release.*/
  if (obqp->notify != NULL) {
 8007506:	6b03      	ldr	r3, [r0, #48]	; 0x30
 8007508:	b113      	cbz	r3, 8007510 <obqPostFullBufferS+0x5c>
    obqp->notify(obqp);
  }
}
 800750a:	e8bd 4010 	ldmia.w	sp!, {r4, lr}
    obqp->notify(obqp);
 800750e:	4718      	bx	r3
}
 8007510:	bd10      	pop	{r4, pc}

08007512 <obqGetEmptyBufferTimeoutS>:
                                systime_t timeout) {
 8007512:	b538      	push	{r3, r4, r5, lr}
 8007514:	4604      	mov	r4, r0
 8007516:	460d      	mov	r5, r1
	__asm volatile( "mrs %0, basepri" : "=r"( ulBasePri ) );
 8007518:	f3ef 8311 	mrs	r3, BASEPRI
	return (ulBasePri > 0)? pdTRUE : pdFALSE;
 800751c:	b12b      	cbz	r3, 800752a <obqGetEmptyBufferTimeoutS+0x18>
	__asm volatile( "mrs %0, ipsr" : "=r"( ulCurrentInterrupt ) );
 800751e:	f3ef 8305 	mrs	r3, IPSR
	if( ulCurrentInterrupt == 0 )
 8007522:	b16b      	cbz	r3, 8007540 <obqGetEmptyBufferTimeoutS+0x2e>
  osalDbgCheckClassS();
 8007524:	f7fc ff0c 	bl	8004340 <vTaskEndScheduler>
 8007528:	e7fe      	b.n	8007528 <obqGetEmptyBufferTimeoutS+0x16>
 800752a:	f7fc ff09 	bl	8004340 <vTaskEndScheduler>
 800752e:	e7fe      	b.n	800752e <obqGetEmptyBufferTimeoutS+0x1c>
    if (obqp->suspended) {
 8007530:	7a23      	ldrb	r3, [r4, #8]
 8007532:	b9ab      	cbnz	r3, 8007560 <obqGetEmptyBufferTimeoutS+0x4e>
    msg_t msg = osalThreadEnqueueTimeoutS(&obqp->waiting, timeout);
 8007534:	4629      	mov	r1, r5
 8007536:	4620      	mov	r0, r4
 8007538:	f7fd f910 	bl	800475c <osalThreadEnqueueTimeoutS>
    if (msg < MSG_OK) {
 800753c:	2800      	cmp	r0, #0
 800753e:	db0e      	blt.n	800755e <obqGetEmptyBufferTimeoutS+0x4c>
  while (obqIsFullI(obqp)) {
 8007540:	68e3      	ldr	r3, [r4, #12]
 8007542:	2b00      	cmp	r3, #0
 8007544:	d0f4      	beq.n	8007530 <obqGetEmptyBufferTimeoutS+0x1e>
  osalDbgAssert(!obqIsFullI(obqp), "still full");
 8007546:	68e3      	ldr	r3, [r4, #12]
 8007548:	b913      	cbnz	r3, 8007550 <obqGetEmptyBufferTimeoutS+0x3e>
 800754a:	f7fc fef9 	bl	8004340 <vTaskEndScheduler>
 800754e:	e7fe      	b.n	800754e <obqGetEmptyBufferTimeoutS+0x3c>
  obqp->top = obqp->bwrptr + obqp->bsize;
 8007550:	2000      	movs	r0, #0
  obqp->ptr = obqp->bwrptr + sizeof (size_t);
 8007552:	6923      	ldr	r3, [r4, #16]
 8007554:	1d1a      	adds	r2, r3, #4
 8007556:	62a2      	str	r2, [r4, #40]	; 0x28
  obqp->top = obqp->bwrptr + obqp->bsize;
 8007558:	69e2      	ldr	r2, [r4, #28]
 800755a:	4413      	add	r3, r2
 800755c:	62e3      	str	r3, [r4, #44]	; 0x2c
}
 800755e:	bd38      	pop	{r3, r4, r5, pc}
      return MSG_RESET;
 8007560:	f06f 0001 	mvn.w	r0, #1
 8007564:	e7fb      	b.n	800755e <obqGetEmptyBufferTimeoutS+0x4c>

08007566 <obqPutTimeout>:
 *                      suspended state.
 *
 * @api
 */
msg_t obqPutTimeout(output_buffers_queue_t *obqp, uint8_t b,
                    systime_t timeout) {
 8007566:	b538      	push	{r3, r4, r5, lr}
 8007568:	4604      	mov	r4, r0
 800756a:	460d      	mov	r5, r1
 800756c:	4610      	mov	r0, r2
  msg_t msg;

  osalSysLock();
 800756e:	f7fc fe39 	bl	80041e4 <vPortEnterCritical>

  /* This condition indicates that a new buffer must be acquired.*/
  if (obqp->ptr == NULL) {
 8007572:	6aa3      	ldr	r3, [r4, #40]	; 0x28
 8007574:	b93b      	cbnz	r3, 8007586 <obqPutTimeout+0x20>
    msg = obqGetEmptyBufferTimeoutS(obqp, timeout);
 8007576:	4601      	mov	r1, r0
 8007578:	4620      	mov	r0, r4
 800757a:	f7ff ffca 	bl	8007512 <obqGetEmptyBufferTimeoutS>
    if (msg != MSG_OK) {
 800757e:	b110      	cbz	r0, 8007586 <obqPutTimeout+0x20>
      osalSysUnlock();
 8007580:	f7fe f960 	bl	8005844 <osalSysUnlock.lto_priv.0>
    obqPostFullBufferS(obqp, obqp->bsize - sizeof (size_t));
  }

  osalSysUnlock();
  return MSG_OK;
}
 8007584:	bd38      	pop	{r3, r4, r5, pc}
  *obqp->ptr = b;
 8007586:	6aa3      	ldr	r3, [r4, #40]	; 0x28
 8007588:	701d      	strb	r5, [r3, #0]
  obqp->ptr++;
 800758a:	6aa3      	ldr	r3, [r4, #40]	; 0x28
  if (obqp->ptr >= obqp->top) {
 800758c:	6ae2      	ldr	r2, [r4, #44]	; 0x2c
  obqp->ptr++;
 800758e:	3301      	adds	r3, #1
  if (obqp->ptr >= obqp->top) {
 8007590:	4293      	cmp	r3, r2
  obqp->ptr++;
 8007592:	62a3      	str	r3, [r4, #40]	; 0x28
  if (obqp->ptr >= obqp->top) {
 8007594:	d304      	bcc.n	80075a0 <obqPutTimeout+0x3a>
    obqPostFullBufferS(obqp, obqp->bsize - sizeof (size_t));
 8007596:	69e1      	ldr	r1, [r4, #28]
 8007598:	4620      	mov	r0, r4
 800759a:	3904      	subs	r1, #4
 800759c:	f7ff ff8a 	bl	80074b4 <obqPostFullBufferS>
  osalSysUnlock();
 80075a0:	f7fe f950 	bl	8005844 <osalSysUnlock.lto_priv.0>
  return MSG_OK;
 80075a4:	2000      	movs	r0, #0
 80075a6:	e7ed      	b.n	8007584 <obqPutTimeout+0x1e>

080075a8 <_putt.lto_priv.1>:
static msg_t _putt(void *ip, uint8_t b, systime_t timeout) {
 80075a8:	b570      	push	{r4, r5, r6, lr}
 80075aa:	4616      	mov	r6, r2
  if(sdup->config->sofCallback) sdup->config->sofCallback(sdup->config->usbp, true);
 80075ac:	f8d0 2498 	ldr.w	r2, [r0, #1176]	; 0x498
static msg_t _putt(void *ip, uint8_t b, systime_t timeout) {
 80075b0:	4604      	mov	r4, r0
  if(sdup->config->sofCallback) sdup->config->sofCallback(sdup->config->usbp, true);
 80075b2:	6893      	ldr	r3, [r2, #8]
static msg_t _putt(void *ip, uint8_t b, systime_t timeout) {
 80075b4:	460d      	mov	r5, r1
  if(sdup->config->sofCallback) sdup->config->sofCallback(sdup->config->usbp, true);
 80075b6:	b113      	cbz	r3, 80075be <_putt.lto_priv.1+0x16>
 80075b8:	2101      	movs	r1, #1
 80075ba:	6810      	ldr	r0, [r2, #0]
 80075bc:	4798      	blx	r3
  return obqPutTimeout(&((SerialUSBDriver *)ip)->obqueue, b, timeout);
 80075be:	4632      	mov	r2, r6
 80075c0:	4629      	mov	r1, r5
 80075c2:	f104 0050 	add.w	r0, r4, #80	; 0x50
}
 80075c6:	e8bd 4070 	ldmia.w	sp!, {r4, r5, r6, lr}
  return obqPutTimeout(&((SerialUSBDriver *)ip)->obqueue, b, timeout);
 80075ca:	f7ff bfcc 	b.w	8007566 <obqPutTimeout>

080075ce <_put.lto_priv.1>:
  if(sdup->config->sofCallback) sdup->config->sofCallback(sdup->config->usbp, true);
 80075ce:	f8d0 2498 	ldr.w	r2, [r0, #1176]	; 0x498
static msg_t _put(void *ip, uint8_t b) {
 80075d2:	b538      	push	{r3, r4, r5, lr}
  if(sdup->config->sofCallback) sdup->config->sofCallback(sdup->config->usbp, true);
 80075d4:	6893      	ldr	r3, [r2, #8]
static msg_t _put(void *ip, uint8_t b) {
 80075d6:	4604      	mov	r4, r0
 80075d8:	460d      	mov	r5, r1
  if(sdup->config->sofCallback) sdup->config->sofCallback(sdup->config->usbp, true);
 80075da:	b113      	cbz	r3, 80075e2 <_put.lto_priv.1+0x14>
 80075dc:	2101      	movs	r1, #1
 80075de:	6810      	ldr	r0, [r2, #0]
 80075e0:	4798      	blx	r3
  return obqPutTimeout(&((SerialUSBDriver *)ip)->obqueue, b, TIME_INFINITE);
 80075e2:	4629      	mov	r1, r5
 80075e4:	f104 0050 	add.w	r0, r4, #80	; 0x50
 80075e8:	f04f 32ff 	mov.w	r2, #4294967295	; 0xffffffff
}
 80075ec:	e8bd 4038 	ldmia.w	sp!, {r3, r4, r5, lr}
  return obqPutTimeout(&((SerialUSBDriver *)ip)->obqueue, b, TIME_INFINITE);
 80075f0:	f7ff bfb9 	b.w	8007566 <obqPutTimeout>

080075f4 <obqGetFullBufferI>:
                           size_t *sizep) {
 80075f4:	b508      	push	{r3, lr}
 80075f6:	4603      	mov	r3, r0
	__asm volatile( "mrs %0, basepri" : "=r"( ulBasePri ) );
 80075f8:	f3ef 8211 	mrs	r2, BASEPRI
	return (ulBasePri > 0)? pdTRUE : pdFALSE;
 80075fc:	b15a      	cbz	r2, 8007616 <obqGetFullBufferI+0x22>
  if (obqIsEmptyI(obqp)) {
 80075fe:	e9d0 2004 	ldrd	r2, r0, [r0, #16]
 8007602:	4282      	cmp	r2, r0
 8007604:	d101      	bne.n	800760a <obqGetFullBufferI+0x16>
 8007606:	68db      	ldr	r3, [r3, #12]
 8007608:	b91b      	cbnz	r3, 8007612 <obqGetFullBufferI+0x1e>
  *sizep = *((size_t *)obqp->brdptr);
 800760a:	f850 3b04 	ldr.w	r3, [r0], #4
 800760e:	600b      	str	r3, [r1, #0]
}
 8007610:	bd08      	pop	{r3, pc}
    return NULL;
 8007612:	2000      	movs	r0, #0
 8007614:	e7fc      	b.n	8007610 <obqGetFullBufferI+0x1c>
  osalDbgCheckClassI();
 8007616:	f7fc fe93 	bl	8004340 <vTaskEndScheduler>
 800761a:	e7fe      	b.n	800761a <obqGetFullBufferI+0x26>

0800761c <sof_handler>:
{
 800761c:	b513      	push	{r0, r1, r4, lr}
  if ((usbGetDriverStateI(sdup->config->usbp) != USB_ACTIVE) ||
 800761e:	4c28      	ldr	r4, [pc, #160]	; (80076c0 <sof_handler+0xa4>)
    osalSysLockFromISR();
 8007620:	f7fe fadc 	bl	8005bdc <osalSysLockFromISR.lto_priv.0>
 8007624:	f8d4 1498 	ldr.w	r1, [r4, #1176]	; 0x498
 8007628:	6808      	ldr	r0, [r1, #0]
 800762a:	7803      	ldrb	r3, [r0, #0]
 800762c:	2b04      	cmp	r3, #4
 800762e:	d138      	bne.n	80076a2 <sof_handler+0x86>
 8007630:	7d23      	ldrb	r3, [r4, #20]
 8007632:	2b02      	cmp	r3, #2
 8007634:	d135      	bne.n	80076a2 <sof_handler+0x86>
  if (usbGetTransmitStatusI(sdup->config->usbp, sdup->config->bulk_in)) {
 8007636:	2301      	movs	r3, #1
 8007638:	790a      	ldrb	r2, [r1, #4]
 800763a:	4093      	lsls	r3, r2
 800763c:	8902      	ldrh	r2, [r0, #8]
 800763e:	4213      	tst	r3, r2
 8007640:	d12f      	bne.n	80076a2 <sof_handler+0x86>
	__asm volatile( "mrs %0, basepri" : "=r"( ulBasePri ) );
 8007642:	f3ef 8311 	mrs	r3, BASEPRI
	return (ulBasePri > 0)? pdTRUE : pdFALSE;
 8007646:	b313      	cbz	r3, 800768e <sof_handler+0x72>

  osalDbgCheckClassI();

  /* If queue is empty and there is a buffer partially filled and
     it is not being written.*/
  if (obqIsEmptyI(obqp) && (obqp->ptr != NULL)) {
 8007648:	e9d4 3218 	ldrd	r3, r2, [r4, #96]	; 0x60
 800764c:	4293      	cmp	r3, r2
 800764e:	d130      	bne.n	80076b2 <sof_handler+0x96>
 8007650:	6de2      	ldr	r2, [r4, #92]	; 0x5c
 8007652:	2a00      	cmp	r2, #0
 8007654:	d02d      	beq.n	80076b2 <sof_handler+0x96>
 8007656:	6fa2      	ldr	r2, [r4, #120]	; 0x78
 8007658:	b35a      	cbz	r2, 80076b2 <sof_handler+0x96>
    size_t size = (size_t)obqp->ptr - ((size_t)obqp->bwrptr + sizeof (size_t));
 800765a:	3a04      	subs	r2, #4

    if (size > 0U) {
 800765c:	1ad2      	subs	r2, r2, r3
 800765e:	d028      	beq.n	80076b2 <sof_handler+0x96>

      /* Writing size field in the buffer.*/
      *((size_t *)obqp->bwrptr) = size;
 8007660:	601a      	str	r2, [r3, #0]

      /* Posting the buffer in the queue.*/
      obqp->bcounter--;
 8007662:	6de2      	ldr	r2, [r4, #92]	; 0x5c
    uint8_t *buf = obqGetFullBufferI(&sdup->obqueue, &n);
 8007664:	4817      	ldr	r0, [pc, #92]	; (80076c4 <sof_handler+0xa8>)
 8007666:	3a01      	subs	r2, #1
 8007668:	65e2      	str	r2, [r4, #92]	; 0x5c
      obqp->bwrptr += obqp->bsize;
 800766a:	6ee2      	ldr	r2, [r4, #108]	; 0x6c
 800766c:	a901      	add	r1, sp, #4
 800766e:	4413      	add	r3, r2
      if (obqp->bwrptr >= obqp->btop) {
 8007670:	6ea2      	ldr	r2, [r4, #104]	; 0x68
      obqp->bwrptr += obqp->bsize;
 8007672:	6623      	str	r3, [r4, #96]	; 0x60
      if (obqp->bwrptr >= obqp->btop) {
 8007674:	4293      	cmp	r3, r2
        obqp->bwrptr = obqp->buffers;
 8007676:	bf24      	itt	cs
 8007678:	6f63      	ldrcs	r3, [r4, #116]	; 0x74
 800767a:	6623      	strcs	r3, [r4, #96]	; 0x60
      }

      /* No "current" buffer.*/
      obqp->ptr = NULL;
 800767c:	2300      	movs	r3, #0
 800767e:	67a3      	str	r3, [r4, #120]	; 0x78
 8007680:	f7ff ffb8 	bl	80075f4 <obqGetFullBufferI>
    osalDbgAssert(buf != NULL, "queue is empty");
 8007684:	4602      	mov	r2, r0
 8007686:	b928      	cbnz	r0, 8007694 <sof_handler+0x78>
 8007688:	f7fc fe5a 	bl	8004340 <vTaskEndScheduler>
 800768c:	e7fe      	b.n	800768c <sof_handler+0x70>
  osalDbgCheckClassI();
 800768e:	f7fc fe57 	bl	8004340 <vTaskEndScheduler>
 8007692:	e7fe      	b.n	8007692 <sof_handler+0x76>
    usbStartTransmitI(sdup->config->usbp, sdup->config->bulk_in, buf, n);
 8007694:	f8d4 0498 	ldr.w	r0, [r4, #1176]	; 0x498
 8007698:	9b01      	ldr	r3, [sp, #4]
 800769a:	7901      	ldrb	r1, [r0, #4]
 800769c:	6800      	ldr	r0, [r0, #0]
 800769e:	f7ff fa1f 	bl	8006ae0 <usbStartTransmitI>
    sofCounter++;
 80076a2:	4a09      	ldr	r2, [pc, #36]	; (80076c8 <sof_handler+0xac>)
 80076a4:	6813      	ldr	r3, [r2, #0]
 80076a6:	3301      	adds	r3, #1
 80076a8:	6013      	str	r3, [r2, #0]
    osalSysUnlockFromISR();
 80076aa:	f7fe fa91 	bl	8005bd0 <osalSysUnlockFromISR.lto_priv.0>
}
 80076ae:	b002      	add	sp, #8
 80076b0:	bd10      	pop	{r4, pc}
    if(sdup->config->sofCallback) sdup->config->sofCallback(sdup->config->usbp, false);
 80076b2:	688b      	ldr	r3, [r1, #8]
 80076b4:	2b00      	cmp	r3, #0
 80076b6:	d0f4      	beq.n	80076a2 <sof_handler+0x86>
 80076b8:	2100      	movs	r1, #0
 80076ba:	4798      	blx	r3
 80076bc:	e7f1      	b.n	80076a2 <sof_handler+0x86>
 80076be:	bf00      	nop
 80076c0:	20000a44 	.word	0x20000a44
 80076c4:	20000a94 	.word	0x20000a94
 80076c8:	200012c8 	.word	0x200012c8

080076cc <obnotify>:
static void obnotify(io_buffers_queue_t *bqp) {
 80076cc:	b513      	push	{r0, r1, r4, lr}
  SerialUSBDriver *sdup = bqGetLinkX(bqp);
 80076ce:	6b44      	ldr	r4, [r0, #52]	; 0x34
  if ((usbGetDriverStateI(sdup->config->usbp) != USB_ACTIVE) ||
 80076d0:	f8d4 3498 	ldr.w	r3, [r4, #1176]	; 0x498
 80076d4:	681a      	ldr	r2, [r3, #0]
 80076d6:	7811      	ldrb	r1, [r2, #0]
 80076d8:	2904      	cmp	r1, #4
 80076da:	d116      	bne.n	800770a <obnotify+0x3e>
 80076dc:	7d21      	ldrb	r1, [r4, #20]
 80076de:	2902      	cmp	r1, #2
 80076e0:	d113      	bne.n	800770a <obnotify+0x3e>
  if (!usbGetTransmitStatusI(sdup->config->usbp, sdup->config->bulk_in)) {
 80076e2:	7919      	ldrb	r1, [r3, #4]
 80076e4:	2301      	movs	r3, #1
 80076e6:	8912      	ldrh	r2, [r2, #8]
 80076e8:	408b      	lsls	r3, r1
 80076ea:	4213      	tst	r3, r2
 80076ec:	d10d      	bne.n	800770a <obnotify+0x3e>
    uint8_t *buf = obqGetFullBufferI(&sdup->obqueue, &n);
 80076ee:	a901      	add	r1, sp, #4
 80076f0:	f104 0050 	add.w	r0, r4, #80	; 0x50
 80076f4:	f7ff ff7e 	bl	80075f4 <obqGetFullBufferI>
    if (buf != NULL) {
 80076f8:	4602      	mov	r2, r0
 80076fa:	b130      	cbz	r0, 800770a <obnotify+0x3e>
      usbStartTransmitI(sdup->config->usbp, sdup->config->bulk_in, buf, n);
 80076fc:	f8d4 0498 	ldr.w	r0, [r4, #1176]	; 0x498
 8007700:	9b01      	ldr	r3, [sp, #4]
 8007702:	7901      	ldrb	r1, [r0, #4]
 8007704:	6800      	ldr	r0, [r0, #0]
 8007706:	f7ff f9eb 	bl	8006ae0 <usbStartTransmitI>
}
 800770a:	b002      	add	sp, #8
 800770c:	bd10      	pop	{r4, pc}

0800770e <sduDataTransmitted>:
  SerialUSBDriver *sdup = usbp->in_params[ep - 1U];
 800770e:	eb00 0381 	add.w	r3, r0, r1, lsl #2
void sduDataTransmitted(USBDriver *usbp, usbep_t ep) {
 8007712:	e92d 41f3 	stmdb	sp!, {r0, r1, r4, r5, r6, r7, r8, lr}
  SerialUSBDriver *sdup = usbp->in_params[ep - 1U];
 8007716:	6a9c      	ldr	r4, [r3, #40]	; 0x28
void sduDataTransmitted(USBDriver *usbp, usbep_t ep) {
 8007718:	4605      	mov	r5, r0
 800771a:	460e      	mov	r6, r1
  if (sdup == NULL) {
 800771c:	2c00      	cmp	r4, #0
 800771e:	d035      	beq.n	800778c <sduDataTransmitted+0x7e>
  osalSysLockFromISR();
 8007720:	f7fe fa5c 	bl	8005bdc <osalSysLockFromISR.lto_priv.0>
  chnAddFlagsI(sdup, CHN_OUTPUT_EMPTY);
 8007724:	eb05 0786 	add.w	r7, r5, r6, lsl #2
 8007728:	2108      	movs	r1, #8
 800772a:	1d20      	adds	r0, r4, #4
 800772c:	f7fc feeb 	bl	8004506 <osalEventBroadcastFlagsI>
  if (usbp->epc[ep]->in_state->txsize > 0U) {
 8007730:	68fb      	ldr	r3, [r7, #12]
 8007732:	f104 0850 	add.w	r8, r4, #80	; 0x50
 8007736:	695b      	ldr	r3, [r3, #20]
 8007738:	681b      	ldr	r3, [r3, #0]
 800773a:	b1d3      	cbz	r3, 8007772 <sduDataTransmitted+0x64>
	__asm volatile( "mrs %0, basepri" : "=r"( ulBasePri ) );
 800773c:	f3ef 8311 	mrs	r3, BASEPRI
	return (ulBasePri > 0)? pdTRUE : pdFALSE;
 8007740:	b143      	cbz	r3, 8007754 <sduDataTransmitted+0x46>
  osalDbgAssert(!obqIsEmptyI(obqp), "buffers queue empty");
 8007742:	e9d4 2318 	ldrd	r2, r3, [r4, #96]	; 0x60
 8007746:	429a      	cmp	r2, r3
 8007748:	d107      	bne.n	800775a <sduDataTransmitted+0x4c>
 800774a:	6de2      	ldr	r2, [r4, #92]	; 0x5c
 800774c:	b12a      	cbz	r2, 800775a <sduDataTransmitted+0x4c>
 800774e:	f7fc fdf7 	bl	8004340 <vTaskEndScheduler>
 8007752:	e7fe      	b.n	8007752 <sduDataTransmitted+0x44>
  osalDbgCheckClassI();
 8007754:	f7fc fdf4 	bl	8004340 <vTaskEndScheduler>
 8007758:	e7fe      	b.n	8007758 <sduDataTransmitted+0x4a>
  obqp->bcounter++;
 800775a:	6de2      	ldr	r2, [r4, #92]	; 0x5c
 800775c:	3201      	adds	r2, #1
 800775e:	65e2      	str	r2, [r4, #92]	; 0x5c
  obqp->brdptr += obqp->bsize;
 8007760:	6ee2      	ldr	r2, [r4, #108]	; 0x6c
 8007762:	4413      	add	r3, r2
  if (obqp->brdptr >= obqp->btop) {
 8007764:	6ea2      	ldr	r2, [r4, #104]	; 0x68
  obqp->brdptr += obqp->bsize;
 8007766:	6663      	str	r3, [r4, #100]	; 0x64
  if (obqp->brdptr >= obqp->btop) {
 8007768:	4293      	cmp	r3, r2
 800776a:	d212      	bcs.n	8007792 <sduDataTransmitted+0x84>
  osalThreadDequeueNextI(&obqp->waiting, MSG_OK);
 800776c:	4640      	mov	r0, r8
 800776e:	f7fc ff22 	bl	80045b6 <osalThreadDequeueNextI.constprop.0>
  buf = obqGetFullBufferI(&sdup->obqueue, &n);
 8007772:	4640      	mov	r0, r8
 8007774:	a901      	add	r1, sp, #4
 8007776:	f7ff ff3d 	bl	80075f4 <obqGetFullBufferI>
  if (buf != NULL) {
 800777a:	4602      	mov	r2, r0
 800777c:	b160      	cbz	r0, 8007798 <sduDataTransmitted+0x8a>
    usbStartTransmitI(usbp, ep, buf, n);
 800777e:	9b01      	ldr	r3, [sp, #4]
    usbStartTransmitI(usbp, ep, usbp->setup, 0);
 8007780:	4631      	mov	r1, r6
 8007782:	4628      	mov	r0, r5
 8007784:	f7ff f9ac 	bl	8006ae0 <usbStartTransmitI>
  osalSysUnlockFromISR();
 8007788:	f7fe fa22 	bl	8005bd0 <osalSysUnlockFromISR.lto_priv.0>
}
 800778c:	b002      	add	sp, #8
 800778e:	e8bd 81f0 	ldmia.w	sp!, {r4, r5, r6, r7, r8, pc}
    obqp->brdptr = obqp->buffers;
 8007792:	6f63      	ldr	r3, [r4, #116]	; 0x74
 8007794:	6663      	str	r3, [r4, #100]	; 0x64
 8007796:	e7e9      	b.n	800776c <sduDataTransmitted+0x5e>
  else if ((usbp->epc[ep]->in_state->txsize > 0U) &&
 8007798:	68fb      	ldr	r3, [r7, #12]
 800779a:	695a      	ldr	r2, [r3, #20]
 800779c:	6812      	ldr	r2, [r2, #0]
 800779e:	b132      	cbz	r2, 80077ae <sduDataTransmitted+0xa0>
            ((size_t)usbp->epc[ep]->in_maxsize - 1U)) == 0U)) {
 80077a0:	8a1b      	ldrh	r3, [r3, #16]
 80077a2:	3b01      	subs	r3, #1
  else if ((usbp->epc[ep]->in_state->txsize > 0U) &&
 80077a4:	4013      	ands	r3, r2
 80077a6:	d102      	bne.n	80077ae <sduDataTransmitted+0xa0>
    usbStartTransmitI(usbp, ep, usbp->setup, 0);
 80077a8:	f105 0274 	add.w	r2, r5, #116	; 0x74
 80077ac:	e7e8      	b.n	8007780 <sduDataTransmitted+0x72>
    if(sdup->config->sofCallback) sdup->config->sofCallback(sdup->config->usbp, true);
 80077ae:	f8d4 2498 	ldr.w	r2, [r4, #1176]	; 0x498
 80077b2:	6893      	ldr	r3, [r2, #8]
 80077b4:	2b00      	cmp	r3, #0
 80077b6:	d0e7      	beq.n	8007788 <sduDataTransmitted+0x7a>
 80077b8:	2101      	movs	r1, #1
 80077ba:	6810      	ldr	r0, [r2, #0]
 80077bc:	4798      	blx	r3
 80077be:	e7e3      	b.n	8007788 <sduDataTransmitted+0x7a>

080077c0 <ibqReleaseEmptyBufferS>:
  void ibqReleaseEmptyBufferS(input_buffers_queue_t *ibqp) {
 80077c0:	b510      	push	{r4, lr}
	__asm volatile( "mrs %0, basepri" : "=r"( ulBasePri ) );
 80077c2:	f3ef 8311 	mrs	r3, BASEPRI
	return (ulBasePri > 0)? pdTRUE : pdFALSE;
 80077c6:	b12b      	cbz	r3, 80077d4 <ibqReleaseEmptyBufferS+0x14>
	__asm volatile( "mrs %0, ipsr" : "=r"( ulCurrentInterrupt ) );
 80077c8:	f3ef 8305 	mrs	r3, IPSR
	if( ulCurrentInterrupt == 0 )
 80077cc:	b12b      	cbz	r3, 80077da <ibqReleaseEmptyBufferS+0x1a>
  osalDbgCheckClassS();
 80077ce:	f7fc fdb7 	bl	8004340 <vTaskEndScheduler>
 80077d2:	e7fe      	b.n	80077d2 <ibqReleaseEmptyBufferS+0x12>
 80077d4:	f7fc fdb4 	bl	8004340 <vTaskEndScheduler>
 80077d8:	e7fe      	b.n	80077d8 <ibqReleaseEmptyBufferS+0x18>
  osalDbgAssert(!ibqIsEmptyI(ibqp), "buffers queue empty");
 80077da:	68c3      	ldr	r3, [r0, #12]
 80077dc:	b913      	cbnz	r3, 80077e4 <ibqReleaseEmptyBufferS+0x24>
 80077de:	f7fc fdaf 	bl	8004340 <vTaskEndScheduler>
 80077e2:	e7fe      	b.n	80077e2 <ibqReleaseEmptyBufferS+0x22>
  ibqp->bcounter--;
 80077e4:	68c3      	ldr	r3, [r0, #12]
  ibqp->brdptr += ibqp->bsize;
 80077e6:	69c2      	ldr	r2, [r0, #28]
  ibqp->bcounter--;
 80077e8:	3b01      	subs	r3, #1
 80077ea:	60c3      	str	r3, [r0, #12]
  ibqp->brdptr += ibqp->bsize;
 80077ec:	6943      	ldr	r3, [r0, #20]
 80077ee:	4413      	add	r3, r2
  if (ibqp->brdptr >= ibqp->btop) {
 80077f0:	6982      	ldr	r2, [r0, #24]
  ibqp->brdptr += ibqp->bsize;
 80077f2:	6143      	str	r3, [r0, #20]
  if (ibqp->brdptr >= ibqp->btop) {
 80077f4:	4293      	cmp	r3, r2
    ibqp->brdptr = ibqp->buffers;
 80077f6:	bf24      	itt	cs
 80077f8:	6a43      	ldrcs	r3, [r0, #36]	; 0x24
 80077fa:	6143      	strcs	r3, [r0, #20]
  ibqp->ptr = NULL;
 80077fc:	2300      	movs	r3, #0
 80077fe:	6283      	str	r3, [r0, #40]	; 0x28
  if (ibqp->notify != NULL) {
 8007800:	6b03      	ldr	r3, [r0, #48]	; 0x30
 8007802:	b113      	cbz	r3, 800780a <ibqReleaseEmptyBufferS+0x4a>
}
 8007804:	e8bd 4010 	ldmia.w	sp!, {r4, lr}
    ibqp->notify(ibqp);
 8007808:	4718      	bx	r3
}
 800780a:	bd10      	pop	{r4, pc}

0800780c <ibqGetFullBufferTimeoutS>:
                                 systime_t timeout) {
 800780c:	b538      	push	{r3, r4, r5, lr}
 800780e:	4604      	mov	r4, r0
 8007810:	460d      	mov	r5, r1
	__asm volatile( "mrs %0, basepri" : "=r"( ulBasePri ) );
 8007812:	f3ef 8311 	mrs	r3, BASEPRI
	return (ulBasePri > 0)? pdTRUE : pdFALSE;
 8007816:	b12b      	cbz	r3, 8007824 <ibqGetFullBufferTimeoutS+0x18>
	__asm volatile( "mrs %0, ipsr" : "=r"( ulCurrentInterrupt ) );
 8007818:	f3ef 8305 	mrs	r3, IPSR
	if( ulCurrentInterrupt == 0 )
 800781c:	b16b      	cbz	r3, 800783a <ibqGetFullBufferTimeoutS+0x2e>
  osalDbgCheckClassS();
 800781e:	f7fc fd8f 	bl	8004340 <vTaskEndScheduler>
 8007822:	e7fe      	b.n	8007822 <ibqGetFullBufferTimeoutS+0x16>
 8007824:	f7fc fd8c 	bl	8004340 <vTaskEndScheduler>
 8007828:	e7fe      	b.n	8007828 <ibqGetFullBufferTimeoutS+0x1c>
    if (ibqp->suspended) {
 800782a:	7a23      	ldrb	r3, [r4, #8]
 800782c:	b9ab      	cbnz	r3, 800785a <ibqGetFullBufferTimeoutS+0x4e>
    msg_t msg = osalThreadEnqueueTimeoutS(&ibqp->waiting, timeout);
 800782e:	4629      	mov	r1, r5
 8007830:	4620      	mov	r0, r4
 8007832:	f7fc ff93 	bl	800475c <osalThreadEnqueueTimeoutS>
    if (msg < MSG_OK) {
 8007836:	2800      	cmp	r0, #0
 8007838:	db0e      	blt.n	8007858 <ibqGetFullBufferTimeoutS+0x4c>
  while (ibqIsEmptyI(ibqp)) {
 800783a:	68e3      	ldr	r3, [r4, #12]
 800783c:	2b00      	cmp	r3, #0
 800783e:	d0f4      	beq.n	800782a <ibqGetFullBufferTimeoutS+0x1e>
  osalDbgAssert(!ibqIsEmptyI(ibqp), "still empty");
 8007840:	68e3      	ldr	r3, [r4, #12]
 8007842:	b913      	cbnz	r3, 800784a <ibqGetFullBufferTimeoutS+0x3e>
 8007844:	f7fc fd7c 	bl	8004340 <vTaskEndScheduler>
 8007848:	e7fe      	b.n	8007848 <ibqGetFullBufferTimeoutS+0x3c>
  ibqp->top = ibqp->ptr + *((size_t *)ibqp->brdptr);
 800784a:	2000      	movs	r0, #0
  ibqp->ptr = ibqp->brdptr + sizeof (size_t);
 800784c:	6962      	ldr	r2, [r4, #20]
 800784e:	1d13      	adds	r3, r2, #4
  ibqp->top = ibqp->ptr + *((size_t *)ibqp->brdptr);
 8007850:	6812      	ldr	r2, [r2, #0]
  ibqp->ptr = ibqp->brdptr + sizeof (size_t);
 8007852:	62a3      	str	r3, [r4, #40]	; 0x28
  ibqp->top = ibqp->ptr + *((size_t *)ibqp->brdptr);
 8007854:	4413      	add	r3, r2
 8007856:	62e3      	str	r3, [r4, #44]	; 0x2c
}
 8007858:	bd38      	pop	{r3, r4, r5, pc}
      return MSG_RESET;
 800785a:	f06f 0001 	mvn.w	r0, #1
 800785e:	e7fb      	b.n	8007858 <ibqGetFullBufferTimeoutS+0x4c>

08007860 <ibqGetTimeout>:
msg_t ibqGetTimeout(input_buffers_queue_t *ibqp, systime_t timeout) {
 8007860:	b538      	push	{r3, r4, r5, lr}
 8007862:	4604      	mov	r4, r0
 8007864:	4608      	mov	r0, r1
  osalSysLock();
 8007866:	f7fc fcbd 	bl	80041e4 <vPortEnterCritical>
  if (ibqp->ptr == NULL) {
 800786a:	6aa3      	ldr	r3, [r4, #40]	; 0x28
 800786c:	b94b      	cbnz	r3, 8007882 <ibqGetTimeout+0x22>
    msg = ibqGetFullBufferTimeoutS(ibqp, timeout);
 800786e:	4601      	mov	r1, r0
 8007870:	4620      	mov	r0, r4
 8007872:	f7ff ffcb 	bl	800780c <ibqGetFullBufferTimeoutS>
    if (msg != MSG_OK) {
 8007876:	4605      	mov	r5, r0
 8007878:	b118      	cbz	r0, 8007882 <ibqGetTimeout+0x22>
  osalSysUnlock();
 800787a:	f7fd ffe3 	bl	8005844 <osalSysUnlock.lto_priv.0>
}
 800787e:	4628      	mov	r0, r5
 8007880:	bd38      	pop	{r3, r4, r5, pc}
  msg = (msg_t)*ibqp->ptr;
 8007882:	6aa3      	ldr	r3, [r4, #40]	; 0x28
  if (ibqp->ptr >= ibqp->top) {
 8007884:	6ae2      	ldr	r2, [r4, #44]	; 0x2c
  msg = (msg_t)*ibqp->ptr;
 8007886:	f813 5b01 	ldrb.w	r5, [r3], #1
  if (ibqp->ptr >= ibqp->top) {
 800788a:	4293      	cmp	r3, r2
  ibqp->ptr++;
 800788c:	62a3      	str	r3, [r4, #40]	; 0x28
  if (ibqp->ptr >= ibqp->top) {
 800788e:	d3f4      	bcc.n	800787a <ibqGetTimeout+0x1a>
    ibqReleaseEmptyBufferS(ibqp);
 8007890:	4620      	mov	r0, r4
 8007892:	f7ff ff95 	bl	80077c0 <ibqReleaseEmptyBufferS>
 8007896:	e7f0      	b.n	800787a <ibqGetTimeout+0x1a>

08007898 <_gett.lto_priv.1>:
  return ibqGetTimeout(&((SerialUSBDriver *)ip)->ibqueue, timeout);
 8007898:	3018      	adds	r0, #24
 800789a:	f7ff bfe1 	b.w	8007860 <ibqGetTimeout>

0800789e <_get.lto_priv.1>:
  return ibqGetTimeout(&((SerialUSBDriver *)ip)->ibqueue, TIME_INFINITE);
 800789e:	f04f 31ff 	mov.w	r1, #4294967295	; 0xffffffff
 80078a2:	3018      	adds	r0, #24
 80078a4:	f7ff bfdc 	b.w	8007860 <ibqGetTimeout>

080078a8 <xQueueGenericReset.constprop.0>:
 80078a8:	b510      	push	{r4, lr}
 80078aa:	b900      	cbnz	r0, 80078ae <xQueueGenericReset.constprop.0+0x6>
 80078ac:	e7fe      	b.n	80078ac <xQueueGenericReset.constprop.0+0x4>
 80078ae:	f7fc fc99 	bl	80041e4 <vPortEnterCritical>
 80078b2:	e9d0 340f 	ldrd	r3, r4, [r0, #60]	; 0x3c
 80078b6:	4363      	muls	r3, r4
 80078b8:	6802      	ldr	r2, [r0, #0]
 80078ba:	18d1      	adds	r1, r2, r3
 80078bc:	1b1b      	subs	r3, r3, r4
 80078be:	4413      	add	r3, r2
 80078c0:	6041      	str	r1, [r0, #4]
 80078c2:	60c3      	str	r3, [r0, #12]
 80078c4:	2100      	movs	r1, #0
 80078c6:	23ff      	movs	r3, #255	; 0xff
 80078c8:	6082      	str	r2, [r0, #8]
 80078ca:	f04f 32ff 	mov.w	r2, #4294967295	; 0xffffffff
 80078ce:	6381      	str	r1, [r0, #56]	; 0x38
 80078d0:	f880 3044 	strb.w	r3, [r0, #68]	; 0x44
 80078d4:	f880 3045 	strb.w	r3, [r0, #69]	; 0x45
 80078d8:	f100 0318 	add.w	r3, r0, #24
 80078dc:	e9c0 2306 	strd	r2, r3, [r0, #24]
 80078e0:	6143      	str	r3, [r0, #20]
 80078e2:	6203      	str	r3, [r0, #32]
 80078e4:	f100 032c 	add.w	r3, r0, #44	; 0x2c
 80078e8:	6101      	str	r1, [r0, #16]
 80078ea:	e9c0 320a 	strd	r3, r2, [r0, #40]	; 0x28
 80078ee:	e9c0 330c 	strd	r3, r3, [r0, #48]	; 0x30
 80078f2:	6241      	str	r1, [r0, #36]	; 0x24
 80078f4:	f7fc fc6a 	bl	80041cc <vPortExitCritical>
 80078f8:	2001      	movs	r0, #1
 80078fa:	bd10      	pop	{r4, pc}

080078fc <spiSend.part.0.constprop.0>:
  spiStartSendI(spip, n, txbuf);
 80078fc:	2203      	movs	r2, #3
void spiSend(SPIDriver *spip, size_t n, const void *txbuf) {
 80078fe:	b510      	push	{r4, lr}
  dmaStreamSetTransactionSize(spip->dmarx, n);
 8007900:	2404      	movs	r4, #4
  spiStartSendI(spip, n, txbuf);
 8007902:	4b11      	ldr	r3, [pc, #68]	; (8007948 <spiSend.part.0.constprop.0+0x4c>)
 8007904:	701a      	strb	r2, [r3, #0]
  dmaStreamSetMemory0(spip->dmarx, &dummyrx);
 8007906:	6e5a      	ldr	r2, [r3, #100]	; 0x64
 8007908:	6851      	ldr	r1, [r2, #4]
 800790a:	4a10      	ldr	r2, [pc, #64]	; (800794c <spiSend.part.0.constprop.0+0x50>)
 800790c:	60ca      	str	r2, [r1, #12]
  dmaStreamSetMode(spip->dmarx, spip->rxdmamode);
 800790e:	6eda      	ldr	r2, [r3, #108]	; 0x6c
  dmaStreamSetTransactionSize(spip->dmarx, n);
 8007910:	604c      	str	r4, [r1, #4]
  dmaStreamSetMode(spip->dmarx, spip->rxdmamode);
 8007912:	600a      	str	r2, [r1, #0]
  dmaStreamSetMemory0(spip->dmatx, txbuf);
 8007914:	6e9a      	ldr	r2, [r3, #104]	; 0x68
 8007916:	6852      	ldr	r2, [r2, #4]
 8007918:	60d0      	str	r0, [r2, #12]
  dmaStreamSetMode(spip->dmatx, spip->txdmamode | STM32_DMA_CR_MINC);
 800791a:	6f18      	ldr	r0, [r3, #112]	; 0x70
  dmaStreamSetTransactionSize(spip->dmatx, n);
 800791c:	6054      	str	r4, [r2, #4]
  dmaStreamSetMode(spip->dmatx, spip->txdmamode | STM32_DMA_CR_MINC);
 800791e:	f040 0080 	orr.w	r0, r0, #128	; 0x80
 8007922:	6010      	str	r0, [r2, #0]
  dmaStreamEnable(spip->dmarx);
 8007924:	6808      	ldr	r0, [r1, #0]
 8007926:	f040 0001 	orr.w	r0, r0, #1
 800792a:	6008      	str	r0, [r1, #0]
  dmaStreamEnable(spip->dmatx);
 800792c:	6811      	ldr	r1, [r2, #0]
 800792e:	f103 0008 	add.w	r0, r3, #8
 8007932:	f041 0101 	orr.w	r1, r1, #1
 8007936:	6011      	str	r1, [r2, #0]
 8007938:	f04f 31ff 	mov.w	r1, #4294967295	; 0xffffffff
 800793c:	f7fc fee4 	bl	8004708 <osalThreadSuspendTimeoutS>
}
 8007940:	e8bd 4010 	ldmia.w	sp!, {r4, lr}
  osalSysUnlock();
 8007944:	f7fd bf7e 	b.w	8005844 <osalSysUnlock.lto_priv.0>
 8007948:	20000ee0 	.word	0x20000ee0
 800794c:	20001048 	.word	0x20001048

08007950 <spiSelect.constprop.0>:
void spiSelect(SPIDriver *spip) {
 8007950:	b508      	push	{r3, lr}
  osalSysLock();
 8007952:	f7fc fc47 	bl	80041e4 <vPortEnterCritical>
  osalDbgAssert(spip->state == SPI_READY, "not ready");
 8007956:	4b08      	ldr	r3, [pc, #32]	; (8007978 <spiSelect.constprop.0+0x28>)
 8007958:	781a      	ldrb	r2, [r3, #0]
 800795a:	2a02      	cmp	r2, #2
 800795c:	d002      	beq.n	8007964 <spiSelect.constprop.0+0x14>
 800795e:	f7fc fcef 	bl	8004340 <vTaskEndScheduler>
 8007962:	e7fe      	b.n	8007962 <spiSelect.constprop.0+0x12>
  palClearPad(spip->config->ssport, spip->config->sspad);
 8007964:	685b      	ldr	r3, [r3, #4]
 8007966:	8919      	ldrh	r1, [r3, #8]
 8007968:	685a      	ldr	r2, [r3, #4]
 800796a:	2301      	movs	r3, #1
 800796c:	408b      	lsls	r3, r1
 800796e:	6153      	str	r3, [r2, #20]
}
 8007970:	e8bd 4008 	ldmia.w	sp!, {r3, lr}
  osalSysUnlock();
 8007974:	f7fd bf66 	b.w	8005844 <osalSysUnlock.lto_priv.0>
 8007978:	20000ee0 	.word	0x20000ee0

0800797c <spiUnselect.constprop.0>:
void spiUnselect(SPIDriver *spip) {
 800797c:	b508      	push	{r3, lr}
  osalSysLock();
 800797e:	f7fc fc31 	bl	80041e4 <vPortEnterCritical>
  osalDbgAssert(spip->state == SPI_READY, "not ready");
 8007982:	4b08      	ldr	r3, [pc, #32]	; (80079a4 <spiUnselect.constprop.0+0x28>)
 8007984:	781a      	ldrb	r2, [r3, #0]
 8007986:	2a02      	cmp	r2, #2
 8007988:	d002      	beq.n	8007990 <spiUnselect.constprop.0+0x14>
 800798a:	f7fc fcd9 	bl	8004340 <vTaskEndScheduler>
 800798e:	e7fe      	b.n	800798e <spiUnselect.constprop.0+0x12>
  palSetPad(spip->config->ssport, spip->config->sspad);
 8007990:	685b      	ldr	r3, [r3, #4]
 8007992:	8919      	ldrh	r1, [r3, #8]
 8007994:	685a      	ldr	r2, [r3, #4]
 8007996:	2301      	movs	r3, #1
 8007998:	408b      	lsls	r3, r1
 800799a:	6113      	str	r3, [r2, #16]
}
 800799c:	e8bd 4008 	ldmia.w	sp!, {r3, lr}
  osalSysUnlock();
 80079a0:	f7fd bf50 	b.w	8005844 <osalSysUnlock.lto_priv.0>
 80079a4:	20000ee0 	.word	0x20000ee0

080079a8 <max2870WriteRegister>:
        spiReleaseBus(driver->config->spiPort);
    }
}

static bool max2870WriteRegister(MAX2870Driver* driver, const uint32_t addr, uint32_t value, bool force)
{
 80079a8:	b537      	push	{r0, r1, r2, r4, r5, lr}
 80079aa:	4604      	mov	r4, r0
 80079ac:	4618      	mov	r0, r3
    osalDbgCheck(addr < 0x6);
    osalDbgCheck((value & 0x7) == 0);
 80079ae:	0753      	lsls	r3, r2, #29
 80079b0:	d002      	beq.n	80079b8 <max2870WriteRegister+0x10>
 80079b2:	f7fc fcc5 	bl	8004340 <vTaskEndScheduler>
 80079b6:	e7fe      	b.n	80079b6 <max2870WriteRegister+0xe>

    if(!force && driver->registers[addr] == value) {
 80079b8:	f101 0332 	add.w	r3, r1, #50	; 0x32
 80079bc:	b918      	cbnz	r0, 80079c6 <max2870WriteRegister+0x1e>
 80079be:	f854 5023 	ldr.w	r5, [r4, r3, lsl #2]
 80079c2:	4295      	cmp	r5, r2
 80079c4:	d01e      	beq.n	8007a04 <max2870WriteRegister+0x5c>
        return false;
    }
    driver->registers[addr] = value;

    value |= addr;
 80079c6:	4311      	orrs	r1, r2
    driver->registers[addr] = value;
 80079c8:	f844 2023 	str.w	r2, [r4, r3, lsl #2]

    uint8_t data[4] = {value>>24, (value >> 16) & 0xFF, (value >> 8) & 0xFF,  (value >> 0) & 0xFF};
 80079cc:	ba09      	rev	r1, r1
 80079ce:	9101      	str	r1, [sp, #4]


    spiSelect(&SPID1);
 80079d0:	f7ff ffbe 	bl	8007950 <spiSelect.constprop.0>
  osalSysLock();
 80079d4:	f7fc fc06 	bl	80041e4 <vPortEnterCritical>
  osalDbgAssert(spip->state == SPI_READY, "not ready");
 80079d8:	4b0b      	ldr	r3, [pc, #44]	; (8007a08 <max2870WriteRegister+0x60>)
 80079da:	781a      	ldrb	r2, [r3, #0]
 80079dc:	2a02      	cmp	r2, #2
 80079de:	d002      	beq.n	80079e6 <max2870WriteRegister+0x3e>
 80079e0:	f7fc fcae 	bl	8004340 <vTaskEndScheduler>
 80079e4:	e7fe      	b.n	80079e4 <max2870WriteRegister+0x3c>
  osalDbgAssert(spip->config->end_cb == NULL, "has callback");
 80079e6:	685b      	ldr	r3, [r3, #4]
 80079e8:	681b      	ldr	r3, [r3, #0]
 80079ea:	b113      	cbz	r3, 80079f2 <max2870WriteRegister+0x4a>
 80079ec:	f7fc fca8 	bl	8004340 <vTaskEndScheduler>
 80079f0:	e7fe      	b.n	80079f0 <max2870WriteRegister+0x48>
 80079f2:	a801      	add	r0, sp, #4
 80079f4:	f7ff ff82 	bl	80078fc <spiSend.part.0.constprop.0>
    spiSend(&SPID1, 4, data);
    spiUnselect(&SPID1);
 80079f8:	f7ff ffc0 	bl	800797c <spiUnselect.constprop.0>
    }
}

static inline void osalSysPolledDelayX(rtcnt_t cycles)
{
    vPortBusyDelay(cycles);
 80079fc:	2032      	movs	r0, #50	; 0x32
 80079fe:	f7fc fb69 	bl	80040d4 <vPortBusyDelay>
    osalSysPolledDelayX(50);


    return true;
 8007a02:	2001      	movs	r0, #1
}
 8007a04:	b003      	add	sp, #12
 8007a06:	bd30      	pop	{r4, r5, pc}
 8007a08:	20000ee0 	.word	0x20000ee0

08007a0c <max2870Disable>:
    return driver->registers[6];
}

static void max2870Disable(MAX2870Driver* driver)
{
    if(driver->config->gpioChipEnable != 0xffff) {
 8007a0c:	f64f 72ff 	movw	r2, #65535	; 0xffff
 8007a10:	6803      	ldr	r3, [r0, #0]
{
 8007a12:	b510      	push	{r4, lr}
    if(driver->config->gpioChipEnable != 0xffff) {
 8007a14:	891b      	ldrh	r3, [r3, #8]
{
 8007a16:	4604      	mov	r4, r0
    if(driver->config->gpioChipEnable != 0xffff) {
 8007a18:	4293      	cmp	r3, r2
 8007a1a:	d00b      	beq.n	8007a34 <max2870Disable+0x28>
        gpioSetPin(driver->config->gpioChipEnable, false);
 8007a1c:	2100      	movs	r1, #0
 8007a1e:	4618      	mov	r0, r3
 8007a20:	f7fd fdd4 	bl	80055cc <gpioSetPin>
    } else {
        max2870WriteRegister(driver, 2, _BV(MAX2870_REG2_SHDN_OFFSET), true);
    }

    if(driver->config->lockStatus) {
 8007a24:	6823      	ldr	r3, [r4, #0]
 8007a26:	69db      	ldr	r3, [r3, #28]
 8007a28:	b10b      	cbz	r3, 8007a2e <max2870Disable+0x22>
        driver->config->lockStatus(false);
 8007a2a:	2000      	movs	r0, #0
 8007a2c:	4798      	blx	r3
    }
    driver->enabled = false;
 8007a2e:	2300      	movs	r3, #0
 8007a30:	7123      	strb	r3, [r4, #4]
}
 8007a32:	bd10      	pop	{r4, pc}
        max2870WriteRegister(driver, 2, _BV(MAX2870_REG2_SHDN_OFFSET), true);
 8007a34:	2301      	movs	r3, #1
 8007a36:	2220      	movs	r2, #32
 8007a38:	2102      	movs	r1, #2
 8007a3a:	f7ff ffb5 	bl	80079a8 <max2870WriteRegister>
 8007a3e:	e7f1      	b.n	8007a24 <max2870Disable+0x18>

08007a40 <max2870SetMUXOut>:
{
 8007a40:	b570      	push	{r4, r5, r6, lr}
    uint32_t register2 = driver->registers[2] & ~ (0x7 <<  MAX2870_REG2_MUX_OFFSET);
 8007a42:	f8d0 50d0 	ldr.w	r5, [r0, #208]	; 0xd0
    uint32_t register5 = driver->registers[5] & ~ _BV(MAX2870_REG5_MUX_OFFSET);
 8007a46:	f8d0 20dc 	ldr.w	r2, [r0, #220]	; 0xdc
    uint32_t register2 = driver->registers[2] & ~ (0x7 <<  MAX2870_REG2_MUX_OFFSET);
 8007a4a:	f025 53e0 	bic.w	r3, r5, #469762048	; 0x1c000000
    register2 |= (muxOut & 0x7) << MAX2870_REG2_MUX_OFFSET;
 8007a4e:	068d      	lsls	r5, r1, #26
 8007a50:	f005 55e0 	and.w	r5, r5, #469762048	; 0x1c000000
 8007a54:	431d      	orrs	r5, r3
    uint32_t register5 = driver->registers[5] & ~ _BV(MAX2870_REG5_MUX_OFFSET);
 8007a56:	f422 2280 	bic.w	r2, r2, #262144	; 0x40000
    if(muxOut & 0x8) {
 8007a5a:	070b      	lsls	r3, r1, #28
        register5 |= _BV(MAX2870_REG5_MUX_OFFSET);
 8007a5c:	bf48      	it	mi
 8007a5e:	f442 2280 	orrmi.w	r2, r2, #262144	; 0x40000
    bool mustUpdateOther = max2870WriteRegister(driver, 5, register5, false);
 8007a62:	2300      	movs	r3, #0
 8007a64:	2105      	movs	r1, #5
{
 8007a66:	4604      	mov	r4, r0
    bool mustUpdateOther = max2870WriteRegister(driver, 5, register5, false);
 8007a68:	f7ff ff9e 	bl	80079a8 <max2870WriteRegister>
    max2870WriteRegister(driver, 2, register2, mustUpdateOther);
 8007a6c:	462a      	mov	r2, r5
    bool mustUpdateOther = max2870WriteRegister(driver, 5, register5, false);
 8007a6e:	4603      	mov	r3, r0
    max2870WriteRegister(driver, 2, register2, mustUpdateOther);
 8007a70:	2102      	movs	r1, #2
 8007a72:	4620      	mov	r0, r4
}
 8007a74:	e8bd 4070 	ldmia.w	sp!, {r4, r5, r6, lr}
    max2870WriteRegister(driver, 2, register2, mustUpdateOther);
 8007a78:	f7ff bf96 	b.w	80079a8 <max2870WriteRegister>

08007a7c <max2870WriteAllRegisters>:
{
 8007a7c:	e92d 41f0 	stmdb	sp!, {r4, r5, r6, r7, r8, lr}
 8007a80:	4606      	mov	r6, r0
 8007a82:	460f      	mov	r7, r1
 8007a84:	4690      	mov	r8, r2
    for(int i = 5; i>=0; i--) {
 8007a86:	2505      	movs	r5, #5
    bool anyChanged = false;
 8007a88:	2400      	movs	r4, #0
        anyChanged |= max2870WriteRegister(driver, i, registers[i], force || (i==0 && anyChanged));
 8007a8a:	f857 2025 	ldr.w	r2, [r7, r5, lsl #2]
 8007a8e:	f1b8 0f00 	cmp.w	r8, #0
 8007a92:	d111      	bne.n	8007ab8 <max2870WriteAllRegisters+0x3c>
 8007a94:	2d00      	cmp	r5, #0
 8007a96:	bf0c      	ite	eq
 8007a98:	4623      	moveq	r3, r4
 8007a9a:	2300      	movne	r3, #0
 8007a9c:	4629      	mov	r1, r5
 8007a9e:	4630      	mov	r0, r6
 8007aa0:	f003 0301 	and.w	r3, r3, #1
 8007aa4:	f7ff ff80 	bl	80079a8 <max2870WriteRegister>
    for(int i = 5; i>=0; i--) {
 8007aa8:	3d01      	subs	r5, #1
        anyChanged |= max2870WriteRegister(driver, i, registers[i], force || (i==0 && anyChanged));
 8007aaa:	ea44 0400 	orr.w	r4, r4, r0
 8007aae:	b2e4      	uxtb	r4, r4
    for(int i = 5; i>=0; i--) {
 8007ab0:	d2eb      	bcs.n	8007a8a <max2870WriteAllRegisters+0xe>
}
 8007ab2:	4620      	mov	r0, r4
 8007ab4:	e8bd 81f0 	ldmia.w	sp!, {r4, r5, r6, r7, r8, pc}
        anyChanged |= max2870WriteRegister(driver, i, registers[i], force || (i==0 && anyChanged));
 8007ab8:	2301      	movs	r3, #1
 8007aba:	e7ef      	b.n	8007a9c <max2870WriteAllRegisters+0x20>

08007abc <max2870SpiState.constprop.0>:
        spiAcquireBus(driver->config->spiPort);
 8007abc:	6803      	ldr	r3, [r0, #0]
static void max2870SpiState(MAX2870Driver* driver, bool enable)
 8007abe:	b510      	push	{r4, lr}
        spiAcquireBus(driver->config->spiPort);
 8007ac0:	681b      	ldr	r3, [r3, #0]
static void max2870SpiState(MAX2870Driver* driver, bool enable)
 8007ac2:	4604      	mov	r4, r0
 *
 * @api
 */
void spiAcquireBus(SPIDriver *spip) {

  osalDbgCheck(spip != NULL);
 8007ac4:	b913      	cbnz	r3, 8007acc <max2870SpiState.constprop.0+0x10>
 8007ac6:	f7fc fc3b 	bl	8004340 <vTaskEndScheduler>
 8007aca:	e7fe      	b.n	8007aca <max2870SpiState.constprop.0+0xe>
    xSemaphoreTake(mutex->handle, portMAX_DELAY);
 8007acc:	68d8      	ldr	r0, [r3, #12]
 8007ace:	f04f 31ff 	mov.w	r1, #4294967295	; 0xffffffff
 8007ad2:	f7fd f96b 	bl	8004dac <xQueueSemaphoreTake>
        spiStart(driver->config->spiPort, driver->config->spiConfig);
 8007ad6:	6823      	ldr	r3, [r4, #0]
 8007ad8:	681c      	ldr	r4, [r3, #0]
  osalDbgCheck((spip != NULL) && (config != NULL));
 8007ada:	b10c      	cbz	r4, 8007ae0 <max2870SpiState.constprop.0+0x24>
 8007adc:	6858      	ldr	r0, [r3, #4]
 8007ade:	b910      	cbnz	r0, 8007ae6 <max2870SpiState.constprop.0+0x2a>
 8007ae0:	f7fc fc2e 	bl	8004340 <vTaskEndScheduler>
 8007ae4:	e7fe      	b.n	8007ae4 <max2870SpiState.constprop.0+0x28>
  osalSysLock();
 8007ae6:	f7fc fb7d 	bl	80041e4 <vPortEnterCritical>
  osalDbgAssert((spip->state == SPI_STOP) || (spip->state == SPI_READY),
 8007aea:	7823      	ldrb	r3, [r4, #0]
 8007aec:	1e5a      	subs	r2, r3, #1
 8007aee:	2a01      	cmp	r2, #1
 8007af0:	d902      	bls.n	8007af8 <max2870SpiState.constprop.0+0x3c>
 8007af2:	f7fc fc25 	bl	8004340 <vTaskEndScheduler>
 8007af6:	e7fe      	b.n	8007af6 <max2870SpiState.constprop.0+0x3a>
  if (spip->state == SPI_STOP) {
 8007af8:	2b01      	cmp	r3, #1
  spip->config = config;
 8007afa:	6060      	str	r0, [r4, #4]
 8007afc:	d121      	bne.n	8007b42 <max2870SpiState.constprop.0+0x86>
    if (&SPID1 == spip) {
 8007afe:	4b25      	ldr	r3, [pc, #148]	; (8007b94 <max2870SpiState.constprop.0+0xd8>)
 8007b00:	429c      	cmp	r4, r3
 8007b02:	d116      	bne.n	8007b32 <max2870SpiState.constprop.0+0x76>
      b = dmaStreamAllocate(spip->dmarx,
 8007b04:	4622      	mov	r2, r4
 8007b06:	4924      	ldr	r1, [pc, #144]	; (8007b98 <max2870SpiState.constprop.0+0xdc>)
 8007b08:	6e60      	ldr	r0, [r4, #100]	; 0x64
 8007b0a:	f7fc fc25 	bl	8004358 <dmaStreamAllocate.constprop.0>
      osalDbgAssert(!b, "stream already allocated");
 8007b0e:	b110      	cbz	r0, 8007b16 <max2870SpiState.constprop.0+0x5a>
 8007b10:	f7fc fc16 	bl	8004340 <vTaskEndScheduler>
 8007b14:	e7fe      	b.n	8007b14 <max2870SpiState.constprop.0+0x58>
      b = dmaStreamAllocate(spip->dmatx,
 8007b16:	4622      	mov	r2, r4
 8007b18:	4920      	ldr	r1, [pc, #128]	; (8007b9c <max2870SpiState.constprop.0+0xe0>)
 8007b1a:	6ea0      	ldr	r0, [r4, #104]	; 0x68
 8007b1c:	f7fc fc1c 	bl	8004358 <dmaStreamAllocate.constprop.0>
      osalDbgAssert(!b, "stream already allocated");
 8007b20:	b110      	cbz	r0, 8007b28 <max2870SpiState.constprop.0+0x6c>
 8007b22:	f7fc fc0d 	bl	8004340 <vTaskEndScheduler>
 8007b26:	e7fe      	b.n	8007b26 <max2870SpiState.constprop.0+0x6a>
      rccEnableSPI1(FALSE);
 8007b28:	4a1d      	ldr	r2, [pc, #116]	; (8007ba0 <max2870SpiState.constprop.0+0xe4>)
 8007b2a:	6993      	ldr	r3, [r2, #24]
 8007b2c:	f443 5380 	orr.w	r3, r3, #4096	; 0x1000
 8007b30:	6193      	str	r3, [r2, #24]
    dmaStreamSetPeripheral(spip->dmarx, &spip->spi->DR);
 8007b32:	6e63      	ldr	r3, [r4, #100]	; 0x64
 8007b34:	685a      	ldr	r2, [r3, #4]
 8007b36:	6e23      	ldr	r3, [r4, #96]	; 0x60
 8007b38:	330c      	adds	r3, #12
 8007b3a:	6093      	str	r3, [r2, #8]
    dmaStreamSetPeripheral(spip->dmatx, &spip->spi->DR);
 8007b3c:	6ea2      	ldr	r2, [r4, #104]	; 0x68
 8007b3e:	6852      	ldr	r2, [r2, #4]
 8007b40:	6093      	str	r3, [r2, #8]
  if ((spip->config->cr1 & SPI_CR1_DFF) == 0) {
 8007b42:	6860      	ldr	r0, [r4, #4]
 8007b44:	6ee2      	ldr	r2, [r4, #108]	; 0x6c
 8007b46:	8941      	ldrh	r1, [r0, #10]
 8007b48:	f422 6270 	bic.w	r2, r2, #3840	; 0xf00
 8007b4c:	f411 6f00 	tst.w	r1, #2048	; 0x800
                      STM32_DMA_CR_PSIZE_HWORD | STM32_DMA_CR_MSIZE_HWORD;
 8007b50:	bf16      	itet	ne
 8007b52:	f442 62a0 	orrne.w	r2, r2, #1280	; 0x500
    spip->rxdmamode = (spip->rxdmamode & ~STM32_DMA_CR_SIZE_MASK) |
 8007b56:	66e2      	streq	r2, [r4, #108]	; 0x6c
    spip->rxdmamode = (spip->rxdmamode & ~STM32_DMA_CR_SIZE_MASK) |
 8007b58:	66e2      	strne	r2, [r4, #108]	; 0x6c
  spip->spi->CR1  = 0;
 8007b5a:	f04f 0200 	mov.w	r2, #0
 8007b5e:	6f23      	ldr	r3, [r4, #112]	; 0x70
  spip->spi->CR1  = spip->config->cr1 | SPI_CR1_MSTR | SPI_CR1_SSM |
 8007b60:	f441 7141 	orr.w	r1, r1, #772	; 0x304
 8007b64:	f423 6370 	bic.w	r3, r3, #3840	; 0xf00
                      STM32_DMA_CR_PSIZE_HWORD | STM32_DMA_CR_MSIZE_HWORD;
 8007b68:	bf18      	it	ne
 8007b6a:	f443 63a0 	orrne.w	r3, r3, #1280	; 0x500
    spip->txdmamode = (spip->txdmamode & ~STM32_DMA_CR_SIZE_MASK) |
 8007b6e:	6723      	str	r3, [r4, #112]	; 0x70
  spip->spi->CR1  = 0;
 8007b70:	6e23      	ldr	r3, [r4, #96]	; 0x60
 8007b72:	601a      	str	r2, [r3, #0]
  spip->spi->CR2  = spip->config->cr2 | SPI_CR2_SSOE | SPI_CR2_RXDMAEN |
 8007b74:	8982      	ldrh	r2, [r0, #12]
  spip->spi->CR1  = spip->config->cr1 | SPI_CR1_MSTR | SPI_CR1_SSM |
 8007b76:	6019      	str	r1, [r3, #0]
  spip->spi->CR2  = spip->config->cr2 | SPI_CR2_SSOE | SPI_CR2_RXDMAEN |
 8007b78:	f042 0207 	orr.w	r2, r2, #7
 8007b7c:	605a      	str	r2, [r3, #4]
  spip->spi->CR1 |= SPI_CR1_SPE;
 8007b7e:	681a      	ldr	r2, [r3, #0]
 8007b80:	f042 0240 	orr.w	r2, r2, #64	; 0x40
 8007b84:	601a      	str	r2, [r3, #0]
  spip->state = SPI_READY;
 8007b86:	2302      	movs	r3, #2
 8007b88:	7023      	strb	r3, [r4, #0]
}
 8007b8a:	e8bd 4010 	ldmia.w	sp!, {r4, lr}
  osalSysUnlock();
 8007b8e:	f7fd be59 	b.w	8005844 <osalSysUnlock.lto_priv.0>
 8007b92:	bf00      	nop
 8007b94:	20000ee0 	.word	0x20000ee0
 8007b98:	0800652b 	.word	0x0800652b
 8007b9c:	0800651d 	.word	0x0800651d
 8007ba0:	40021000 	.word	0x40021000

08007ba4 <i2cSafeRawUnclogBus>:
{
 8007ba4:	b570      	push	{r4, r5, r6, lr}
 8007ba6:	4605      	mov	r5, r0
    gpioSetPin(config->sclPin, level);
 8007ba8:	6fc3      	ldr	r3, [r0, #124]	; 0x7c
 8007baa:	2101      	movs	r1, #1
 8007bac:	8998      	ldrh	r0, [r3, #12]
 8007bae:	f7fd fd0d 	bl	80055cc <gpioSetPin>
    gpioSetPin(config->sdaPin, level);
 8007bb2:	6feb      	ldr	r3, [r5, #124]	; 0x7c
 8007bb4:	2101      	movs	r1, #1
 8007bb6:	89d8      	ldrh	r0, [r3, #14]
 8007bb8:	f7fd fd08 	bl	80055cc <gpioSetPin>
    i2cSafeConfig* config = (i2cSafeConfig*)i2c->i2cSafeConfig;
 8007bbc:	6fec      	ldr	r4, [r5, #124]	; 0x7c
    gpioSetPinMode(config->sdaPin, PAL_MODE_OUTPUT_OPENDRAIN);
 8007bbe:	2107      	movs	r1, #7
 8007bc0:	89e0      	ldrh	r0, [r4, #14]
 8007bc2:	f7fd fce5 	bl	8005590 <gpioSetPinMode>
    gpioSetPinMode(config->sclPin, PAL_MODE_OUTPUT_OPENDRAIN);
 8007bc6:	2107      	movs	r1, #7
 8007bc8:	89a0      	ldrh	r0, [r4, #12]
 8007bca:	f7fd fce1 	bl	8005590 <gpioSetPinMode>
  osalSysLock();
 8007bce:	f7fc fb09 	bl	80041e4 <vPortEnterCritical>
  osalDbgAssert((i2cp->state == I2C_STOP) || (i2cp->state == I2C_READY) ||
 8007bd2:	782b      	ldrb	r3, [r5, #0]
 8007bd4:	1e5a      	subs	r2, r3, #1
 8007bd6:	2a01      	cmp	r2, #1
 8007bd8:	d904      	bls.n	8007be4 <i2cSafeRawUnclogBus+0x40>
 8007bda:	2b05      	cmp	r3, #5
 8007bdc:	d004      	beq.n	8007be8 <i2cSafeRawUnclogBus+0x44>
 8007bde:	f7fc fbaf 	bl	8004340 <vTaskEndScheduler>
 8007be2:	e7fe      	b.n	8007be2 <i2cSafeRawUnclogBus+0x3e>
 * @notapi
 */
void i2c_lld_stop(I2CDriver *i2cp) {

  /* If not in stopped state then disables the I2C clock.*/
  if (i2cp->state != I2C_STOP) {
 8007be4:	2b01      	cmp	r3, #1
 8007be6:	d036      	beq.n	8007c56 <i2cSafeRawUnclogBus+0xb2>
  dp->CR1 = I2C_CR1_SWRST;
 8007be8:	f44f 4200 	mov.w	r2, #32768	; 0x8000
  dp->CR1 = 0;
 8007bec:	2400      	movs	r4, #0
  I2C_TypeDef *dp = i2cp->i2c;
 8007bee:	6fab      	ldr	r3, [r5, #120]	; 0x78
  dmaStreamDisable(i2cp->dmatx);
 8007bf0:	6f68      	ldr	r0, [r5, #116]	; 0x74
  dp->CR1 = I2C_CR1_SWRST;
 8007bf2:	601a      	str	r2, [r3, #0]
  dmaStreamDisable(i2cp->dmatx);
 8007bf4:	6842      	ldr	r2, [r0, #4]
  dp->CR1 = 0;
 8007bf6:	601c      	str	r4, [r3, #0]
  dp->CR2 = 0;
 8007bf8:	605c      	str	r4, [r3, #4]
  dp->SR1 = 0;
 8007bfa:	615c      	str	r4, [r3, #20]
  dmaStreamDisable(i2cp->dmatx);
 8007bfc:	6813      	ldr	r3, [r2, #0]
 8007bfe:	6801      	ldr	r1, [r0, #0]
 8007c00:	f023 030f 	bic.w	r3, r3, #15
 8007c04:	6013      	str	r3, [r2, #0]
 8007c06:	230e      	movs	r3, #14
 8007c08:	7c02      	ldrb	r2, [r0, #16]
 8007c0a:	fa03 f202 	lsl.w	r2, r3, r2
 8007c0e:	604a      	str	r2, [r1, #4]
  dmaStreamDisable(i2cp->dmarx);
 8007c10:	6f2a      	ldr	r2, [r5, #112]	; 0x70
 8007c12:	6856      	ldr	r6, [r2, #4]
 8007c14:	6831      	ldr	r1, [r6, #0]
 8007c16:	f021 010f 	bic.w	r1, r1, #15
 8007c1a:	6031      	str	r1, [r6, #0]
 8007c1c:	6811      	ldr	r1, [r2, #0]
 8007c1e:	7c12      	ldrb	r2, [r2, #16]
 8007c20:	4093      	lsls	r3, r2
 8007c22:	604b      	str	r3, [r1, #4]

    /* I2C disable.*/
    i2c_lld_abort_operation(i2cp);
    dmaStreamRelease(i2cp->dmatx);
 8007c24:	f7fe fe28 	bl	8006878 <dmaStreamRelease>
    dmaStreamRelease(i2cp->dmarx);
 8007c28:	6f28      	ldr	r0, [r5, #112]	; 0x70
 8007c2a:	f7fe fe25 	bl	8006878 <dmaStreamRelease>

#if STM32_I2C_USE_I2C1
    if (&I2CD1 == i2cp) {
 8007c2e:	4b3a      	ldr	r3, [pc, #232]	; (8007d18 <i2cSafeRawUnclogBus+0x174>)
 8007c30:	429d      	cmp	r5, r3
 8007c32:	d110      	bne.n	8007c56 <i2cSafeRawUnclogBus+0xb2>
  NVIC->ICER[n >> 5U] = 1U << (n & 0x1FU);
 8007c34:	f04f 4200 	mov.w	r2, #2147483648	; 0x80000000
 8007c38:	4b38      	ldr	r3, [pc, #224]	; (8007d1c <i2cSafeRawUnclogBus+0x178>)
 8007c3a:	f8c3 2080 	str.w	r2, [r3, #128]	; 0x80
 8007c3e:	2201      	movs	r2, #1
  NVIC->IP[n] = 0U;
 8007c40:	f883 431f 	strb.w	r4, [r3, #799]	; 0x31f
  NVIC->ICER[n >> 5U] = 1U << (n & 0x1FU);
 8007c44:	f8c3 2084 	str.w	r2, [r3, #132]	; 0x84
      nvicDisableVector(I2C1_EV_IRQn);
      nvicDisableVector(I2C1_ER_IRQn);
      rccDisableI2C1(FALSE);
 8007c48:	4a35      	ldr	r2, [pc, #212]	; (8007d20 <i2cSafeRawUnclogBus+0x17c>)
  NVIC->IP[n] = 0U;
 8007c4a:	f883 4320 	strb.w	r4, [r3, #800]	; 0x320
 8007c4e:	69d3      	ldr	r3, [r2, #28]
 8007c50:	f423 1300 	bic.w	r3, r3, #2097152	; 0x200000
 8007c54:	61d3      	str	r3, [r2, #28]
  i2cp->config = NULL;
 8007c56:	2300      	movs	r3, #0
 8007c58:	606b      	str	r3, [r5, #4]
  i2cp->state  = I2C_STOP;
 8007c5a:	2301      	movs	r3, #1
 8007c5c:	702b      	strb	r3, [r5, #0]
  osalSysUnlock();
 8007c5e:	f7fd fdf1 	bl	8005844 <osalSysUnlock.lto_priv.0>
    vPortBusyDelay(i2cSafe_CYCLE_DELAY);
 8007c62:	f44f 70c8 	mov.w	r0, #400	; 0x190
 8007c66:	f7fc fa35 	bl	80040d4 <vPortBusyDelay>
    i2cSafeDataGoHigh(i2c);
 8007c6a:	4628      	mov	r0, r5
 8007c6c:	f7fd fda6 	bl	80057bc <i2cSafeDataGoHigh>
 8007c70:	2648      	movs	r6, #72	; 0x48
        if((retVal = i2cSafeClockGoHigh(i2c)) != I2C_BUS_OK) goto done;        
 8007c72:	4628      	mov	r0, r5
 8007c74:	f7fd fdca 	bl	800580c <i2cSafeClockGoHigh>
 8007c78:	4604      	mov	r4, r0
 8007c7a:	2800      	cmp	r0, #0
 8007c7c:	d142      	bne.n	8007d04 <i2cSafeRawUnclogBus+0x160>
        if((retVal = i2cSafeClockGoLow(i2c)) != I2C_BUS_OK) goto done;
 8007c7e:	4628      	mov	r0, r5
 8007c80:	f7fd fdb0 	bl	80057e4 <i2cSafeClockGoLow>
 8007c84:	4604      	mov	r4, r0
 8007c86:	2800      	cmp	r0, #0
 8007c88:	d13c      	bne.n	8007d04 <i2cSafeRawUnclogBus+0x160>
    for(i=0; i<clocks; i++) {
 8007c8a:	3e01      	subs	r6, #1
 8007c8c:	f016 06ff 	ands.w	r6, r6, #255	; 0xff
 8007c90:	d1ef      	bne.n	8007c72 <i2cSafeRawUnclogBus+0xce>
    if((retVal = i2cSafeClockGoHigh(i2c)) != I2C_BUS_OK) goto done;        
 8007c92:	4628      	mov	r0, r5
 8007c94:	f7fd fdba 	bl	800580c <i2cSafeClockGoHigh>
 8007c98:	4604      	mov	r4, r0
 8007c9a:	bb98      	cbnz	r0, 8007d04 <i2cSafeRawUnclogBus+0x160>
    return gpioGetPin(config->sdaPin);
 8007c9c:	6feb      	ldr	r3, [r5, #124]	; 0x7c
 8007c9e:	89d8      	ldrh	r0, [r3, #14]
 8007ca0:	f7fd fc82 	bl	80055a8 <gpioGetPin>
    if(!i2cSafeRawGetData(i2c)){
 8007ca4:	b398      	cbz	r0, 8007d0e <i2cSafeRawUnclogBus+0x16a>
    if((retVal = i2cSafeDataGoLow(i2c)) != I2C_BUS_OK) goto done;        
 8007ca6:	4628      	mov	r0, r5
 8007ca8:	f7fd fd74 	bl	8005794 <i2cSafeDataGoLow>
 8007cac:	4604      	mov	r4, r0
 8007cae:	bb48      	cbnz	r0, 8007d04 <i2cSafeRawUnclogBus+0x160>
    if((retVal = i2cSafeClockGoLow(i2c)) != I2C_BUS_OK) goto done;        
 8007cb0:	4628      	mov	r0, r5
 8007cb2:	f7fd fd97 	bl	80057e4 <i2cSafeClockGoLow>
 8007cb6:	4604      	mov	r4, r0
 8007cb8:	bb20      	cbnz	r0, 8007d04 <i2cSafeRawUnclogBus+0x160>
    i2cSafeDataGoHigh(i2c);
 8007cba:	4628      	mov	r0, r5
 8007cbc:	f7fd fd7e 	bl	80057bc <i2cSafeDataGoHigh>
 8007cc0:	2609      	movs	r6, #9
        if((retVal = i2cSafeClockGoHigh(i2c)) != I2C_BUS_OK) goto done;        
 8007cc2:	4628      	mov	r0, r5
 8007cc4:	f7fd fda2 	bl	800580c <i2cSafeClockGoHigh>
 8007cc8:	4604      	mov	r4, r0
 8007cca:	b9d8      	cbnz	r0, 8007d04 <i2cSafeRawUnclogBus+0x160>
        if((retVal = i2cSafeClockGoLow(i2c)) != I2C_BUS_OK) goto done;
 8007ccc:	4628      	mov	r0, r5
 8007cce:	f7fd fd89 	bl	80057e4 <i2cSafeClockGoLow>
 8007cd2:	4604      	mov	r4, r0
 8007cd4:	b9b0      	cbnz	r0, 8007d04 <i2cSafeRawUnclogBus+0x160>
    return gpioGetPin(config->sdaPin);
 8007cd6:	6feb      	ldr	r3, [r5, #124]	; 0x7c
 8007cd8:	89d8      	ldrh	r0, [r3, #14]
 8007cda:	f7fd fc65 	bl	80055a8 <gpioGetPin>
        if(checkData && !i2cSafeRawGetData(i2c)){
 8007cde:	b1c0      	cbz	r0, 8007d12 <i2cSafeRawUnclogBus+0x16e>
    for(i=0; i<clocks; i++) {
 8007ce0:	3e01      	subs	r6, #1
 8007ce2:	f016 06ff 	ands.w	r6, r6, #255	; 0xff
 8007ce6:	d1ec      	bne.n	8007cc2 <i2cSafeRawUnclogBus+0x11e>
    if((retVal = i2cSafeDataGoLow(i2c)) != I2C_BUS_OK) goto done;        
 8007ce8:	4628      	mov	r0, r5
 8007cea:	f7fd fd53 	bl	8005794 <i2cSafeDataGoLow>
 8007cee:	4604      	mov	r4, r0
 8007cf0:	b940      	cbnz	r0, 8007d04 <i2cSafeRawUnclogBus+0x160>
    if((retVal = i2cSafeClockGoHigh(i2c)) != I2C_BUS_OK) goto done;        
 8007cf2:	4628      	mov	r0, r5
 8007cf4:	f7fd fd8a 	bl	800580c <i2cSafeClockGoHigh>
 8007cf8:	4604      	mov	r4, r0
 8007cfa:	b918      	cbnz	r0, 8007d04 <i2cSafeRawUnclogBus+0x160>
    if((retVal = i2cSafeDataGoHigh(i2c)) != I2C_BUS_OK) goto done;        
 8007cfc:	4628      	mov	r0, r5
 8007cfe:	f7fd fd5d 	bl	80057bc <i2cSafeDataGoHigh>
 8007d02:	4604      	mov	r4, r0
    i2cSafeRawHardwareControl(i2c);
 8007d04:	4628      	mov	r0, r5
 8007d06:	f7fd fdd1 	bl	80058ac <i2cSafeRawHardwareControl>
}
 8007d0a:	4620      	mov	r0, r4
 8007d0c:	bd70      	pop	{r4, r5, r6, pc}
        retVal = I2C_BUS_STUCK_SDA_PULLED_LOW;
 8007d0e:	2402      	movs	r4, #2
 8007d10:	e7f8      	b.n	8007d04 <i2cSafeRawUnclogBus+0x160>
            return I2C_BUS_STUCK_SHORTED_TOGETHER;
 8007d12:	2405      	movs	r4, #5
 8007d14:	e7f6      	b.n	8007d04 <i2cSafeRawUnclogBus+0x160>
 8007d16:	bf00      	nop
 8007d18:	20000934 	.word	0x20000934
 8007d1c:	e000e100 	.word	0xe000e100
 8007d20:	40021000 	.word	0x40021000

08007d24 <sanityRebootMonitorTask>:
{
 8007d24:	b508      	push	{r3, lr}
    uint32_t numberOfSeconds = sanityRebootSeconds;
 8007d26:	4b14      	ldr	r3, [pc, #80]	; (8007d78 <sanityRebootMonitorTask+0x54>)
 8007d28:	6819      	ldr	r1, [r3, #0]
    if(numberOfSeconds &&
 8007d2a:	b199      	cbz	r1, 8007d54 <sanityRebootMonitorTask+0x30>
 8007d2c:	f7fc f9da 	bl	80040e4 <vPortValidateInterruptPriority>
 8007d30:	4b12      	ldr	r3, [pc, #72]	; (8007d7c <sanityRebootMonitorTask+0x58>)
 8007d32:	681a      	ldr	r2, [r3, #0]
            osalOsGetSystemTimeX() >= OSAL_S2ST(numberOfSeconds)) {
 8007d34:	f44f 737a 	mov.w	r3, #1000	; 0x3e8
 8007d38:	434b      	muls	r3, r1
    if(numberOfSeconds &&
 8007d3a:	4293      	cmp	r3, r2
 8007d3c:	d80a      	bhi.n	8007d54 <sanityRebootMonitorTask+0x30>
        RCC->APB1ENR |= (RCC_APB1ENR_PWREN | RCC_APB1ENR_BKPEN);
 8007d3e:	4a10      	ldr	r2, [pc, #64]	; (8007d80 <sanityRebootMonitorTask+0x5c>)
 8007d40:	69d3      	ldr	r3, [r2, #28]
 8007d42:	f043 53c0 	orr.w	r3, r3, #402653184	; 0x18000000
 8007d46:	61d3      	str	r3, [r2, #28]
        BKP->DR10 = 0x424D;
 8007d48:	f244 224d 	movw	r2, #16973	; 0x424d
 8007d4c:	4b0d      	ldr	r3, [pc, #52]	; (8007d84 <sanityRebootMonitorTask+0x60>)
 8007d4e:	629a      	str	r2, [r3, #40]	; 0x28
        NVIC_SystemReset();
 8007d50:	f7fd fff0 	bl	8005d34 <NVIC_SystemReset.lto_priv.0>
 */
void wdgReset(WDGDriver *wdgp) {

  osalDbgCheck(wdgp != NULL);

  osalSysLock();
 8007d54:	f7fc fa46 	bl	80041e4 <vPortEnterCritical>
  osalDbgAssert(wdgp->state == WDG_READY, "not ready");
 8007d58:	4b0b      	ldr	r3, [pc, #44]	; (8007d88 <sanityRebootMonitorTask+0x64>)
 8007d5a:	781a      	ldrb	r2, [r3, #0]
 8007d5c:	2a02      	cmp	r2, #2
 8007d5e:	d002      	beq.n	8007d66 <sanityRebootMonitorTask+0x42>
 8007d60:	f7fc faee 	bl	8004340 <vTaskEndScheduler>
 8007d64:	e7fe      	b.n	8007d64 <sanityRebootMonitorTask+0x40>
 *
 * @notapi
 */
void wdg_lld_reset(WDGDriver * wdgp) {

  wdgp->wdg->KR = KR_KEY_RELOAD;
 8007d66:	f64a 22aa 	movw	r2, #43690	; 0xaaaa
 8007d6a:	689b      	ldr	r3, [r3, #8]
 8007d6c:	601a      	str	r2, [r3, #0]
  wdgResetI(wdgp);
  osalSysUnlock();
 8007d6e:	f7fd fd69 	bl	8005844 <osalSysUnlock.lto_priv.0>
}
 8007d72:	2001      	movs	r0, #1
 8007d74:	bd08      	pop	{r3, pc}
 8007d76:	bf00      	nop
 8007d78:	20000858 	.word	0x20000858
 8007d7c:	20001648 	.word	0x20001648
 8007d80:	40021000 	.word	0x40021000
 8007d84:	40006c00 	.word	0x40006c00
 8007d88:	20000fdc 	.word	0x20000fdc

08007d8c <max2870ReadRegister6>:
{
 8007d8c:	b573      	push	{r0, r1, r4, r5, r6, lr}
    max2870SetMUXOut(driver, 0xC);
 8007d8e:	210c      	movs	r1, #12
{
 8007d90:	4605      	mov	r5, r0
    max2870SetMUXOut(driver, 0xC);
 8007d92:	f7ff fe55 	bl	8007a40 <max2870SetMUXOut>
    uint8_t data[5]= {0, 0, 0, 0x6};
 8007d96:	4b2b      	ldr	r3, [pc, #172]	; (8007e44 <max2870ReadRegister6+0xb8>)
  osalDbgAssert(spip->state == SPI_READY, "not ready");
 8007d98:	4c2b      	ldr	r4, [pc, #172]	; (8007e48 <max2870ReadRegister6+0xbc>)
 8007d9a:	6818      	ldr	r0, [r3, #0]
 8007d9c:	791b      	ldrb	r3, [r3, #4]
 8007d9e:	9000      	str	r0, [sp, #0]
 8007da0:	f88d 3004 	strb.w	r3, [sp, #4]
    spiSelect(&SPID1);
 8007da4:	f7ff fdd4 	bl	8007950 <spiSelect.constprop.0>
  osalSysLock();
 8007da8:	f7fc fa1c 	bl	80041e4 <vPortEnterCritical>
  osalDbgAssert(spip->state == SPI_READY, "not ready");
 8007dac:	7823      	ldrb	r3, [r4, #0]
 8007dae:	2b02      	cmp	r3, #2
 8007db0:	d002      	beq.n	8007db8 <max2870ReadRegister6+0x2c>
 8007db2:	f7fc fac5 	bl	8004340 <vTaskEndScheduler>
 8007db6:	e7fe      	b.n	8007db6 <max2870ReadRegister6+0x2a>
  osalDbgAssert(spip->config->end_cb == NULL, "has callback");
 8007db8:	6863      	ldr	r3, [r4, #4]
 8007dba:	681e      	ldr	r6, [r3, #0]
 8007dbc:	b116      	cbz	r6, 8007dc4 <max2870ReadRegister6+0x38>
 8007dbe:	f7fc fabf 	bl	8004340 <vTaskEndScheduler>
 8007dc2:	e7fe      	b.n	8007dc2 <max2870ReadRegister6+0x36>
 8007dc4:	4668      	mov	r0, sp
 8007dc6:	f7ff fd99 	bl	80078fc <spiSend.part.0.constprop.0>
    spiUnselect(&SPID1);
 8007dca:	f7ff fdd7 	bl	800797c <spiUnselect.constprop.0>
    data[3] = 0;
 8007dce:	f88d 6003 	strb.w	r6, [sp, #3]
  osalSysLock();
 8007dd2:	f7fc fa07 	bl	80041e4 <vPortEnterCritical>
  osalDbgAssert(spip->state == SPI_READY, "not ready");
 8007dd6:	7823      	ldrb	r3, [r4, #0]
 8007dd8:	2b02      	cmp	r3, #2
 8007dda:	d002      	beq.n	8007de2 <max2870ReadRegister6+0x56>
 8007ddc:	f7fc fab0 	bl	8004340 <vTaskEndScheduler>
 8007de0:	e7fe      	b.n	8007de0 <max2870ReadRegister6+0x54>
  osalDbgAssert(spip->config->end_cb == NULL, "has callback");
 8007de2:	6863      	ldr	r3, [r4, #4]
 8007de4:	681b      	ldr	r3, [r3, #0]
 8007de6:	b113      	cbz	r3, 8007dee <max2870ReadRegister6+0x62>
 8007de8:	f7fc faaa 	bl	8004340 <vTaskEndScheduler>
 8007dec:	e7fe      	b.n	8007dec <max2870ReadRegister6+0x60>
  spiStartExchangeI(spip, n, txbuf, rxbuf);
 8007dee:	2303      	movs	r3, #3
  dmaStreamSetTransactionSize(spip->dmarx, n);
 8007df0:	2104      	movs	r1, #4
 8007df2:	7023      	strb	r3, [r4, #0]
  dmaStreamSetMemory0(spip->dmarx, rxbuf);
 8007df4:	6e63      	ldr	r3, [r4, #100]	; 0x64
 8007df6:	f104 0008 	add.w	r0, r4, #8
 8007dfa:	685a      	ldr	r2, [r3, #4]
  dmaStreamSetMode(spip->dmarx, spip->rxdmamode| STM32_DMA_CR_MINC);
 8007dfc:	6ee3      	ldr	r3, [r4, #108]	; 0x6c
  dmaStreamSetMemory0(spip->dmarx, rxbuf);
 8007dfe:	f8c2 d00c 	str.w	sp, [r2, #12]
  dmaStreamSetMode(spip->dmarx, spip->rxdmamode| STM32_DMA_CR_MINC);
 8007e02:	f043 0380 	orr.w	r3, r3, #128	; 0x80
  dmaStreamSetTransactionSize(spip->dmarx, n);
 8007e06:	6051      	str	r1, [r2, #4]
  dmaStreamSetMode(spip->dmarx, spip->rxdmamode| STM32_DMA_CR_MINC);
 8007e08:	6013      	str	r3, [r2, #0]
  dmaStreamSetMemory0(spip->dmatx, txbuf);
 8007e0a:	6ea3      	ldr	r3, [r4, #104]	; 0x68
 8007e0c:	685b      	ldr	r3, [r3, #4]
 8007e0e:	f8c3 d00c 	str.w	sp, [r3, #12]
  dmaStreamSetTransactionSize(spip->dmatx, n);
 8007e12:	6059      	str	r1, [r3, #4]
  dmaStreamSetMode(spip->dmatx, spip->txdmamode | STM32_DMA_CR_MINC);
 8007e14:	6f21      	ldr	r1, [r4, #112]	; 0x70
 8007e16:	f041 0180 	orr.w	r1, r1, #128	; 0x80
 8007e1a:	6019      	str	r1, [r3, #0]
  dmaStreamEnable(spip->dmarx);
 8007e1c:	6811      	ldr	r1, [r2, #0]
 8007e1e:	f041 0101 	orr.w	r1, r1, #1
 8007e22:	6011      	str	r1, [r2, #0]
  dmaStreamEnable(spip->dmatx);
 8007e24:	681a      	ldr	r2, [r3, #0]
 8007e26:	f04f 31ff 	mov.w	r1, #4294967295	; 0xffffffff
 8007e2a:	f042 0201 	orr.w	r2, r2, #1
 8007e2e:	601a      	str	r2, [r3, #0]
 8007e30:	f7fc fc6a 	bl	8004708 <osalThreadSuspendTimeoutS>
  osalSysUnlock();
 8007e34:	f7fd fd06 	bl	8005844 <osalSysUnlock.lto_priv.0>
    driver->registers[6] = (data[0] << 24) | (data[1] << 16) | (data[2] << 8) | data[3];
 8007e38:	9800      	ldr	r0, [sp, #0]
 8007e3a:	ba00      	rev	r0, r0
 8007e3c:	f8c5 00e0 	str.w	r0, [r5, #224]	; 0xe0
}
 8007e40:	b002      	add	sp, #8
 8007e42:	bd70      	pop	{r4, r5, r6, pc}
 8007e44:	0800b870 	.word	0x0800b870
 8007e48:	20000ee0 	.word	0x20000ee0

08007e4c <VectorDC>:
/**
 * @brief   USART3 interrupt handler.
 *
 * @isr
 */
OSAL_IRQ_HANDLER(STM32_USART3_HANDLER) {
 8007e4c:	e92d 47f0 	stmdb	sp!, {r4, r5, r6, r7, r8, r9, sl, lr}
  USART_TypeDef *u = sdp->usart;
 8007e50:	4c62      	ldr	r4, [pc, #392]	; (8007fdc <VectorDC+0x190>)
 8007e52:	f8d4 6080 	ldr.w	r6, [r4, #128]	; 0x80
  uint16_t cr1 = u->CR1;
 8007e56:	68f7      	ldr	r7, [r6, #12]
  uint16_t sr = u->SR;
 8007e58:	6833      	ldr	r3, [r6, #0]
  if (sr & USART_SR_LBD) {
 8007e5a:	05da      	lsls	r2, r3, #23
  uint16_t sr = u->SR;
 8007e5c:	b29d      	uxth	r5, r3
  if (sr & USART_SR_LBD) {
 8007e5e:	d50b      	bpl.n	8007e78 <VectorDC+0x2c>
    osalSysLockFromISR();
 8007e60:	f7fd febc 	bl	8005bdc <osalSysLockFromISR.lto_priv.0>
    chnAddFlagsI(sdp, SD_BREAK_DETECTED);
 8007e64:	f44f 7100 	mov.w	r1, #512	; 0x200
 8007e68:	1d20      	adds	r0, r4, #4
 8007e6a:	f7fc fb4c 	bl	8004506 <osalEventBroadcastFlagsI>
    u->SR = ~USART_SR_LBD;
 8007e6e:	f46f 7380 	mvn.w	r3, #256	; 0x100
 8007e72:	6033      	str	r3, [r6, #0]
    osalSysUnlockFromISR();
 8007e74:	f7fd feac 	bl	8005bd0 <osalSysUnlockFromISR.lto_priv.0>
  osalSysLockFromISR();
 8007e78:	f7fd feb0 	bl	8005bdc <osalSysLockFromISR.lto_priv.0>
  chnAddFlagsI(sdp, sts);
 8007e7c:	f8df 8164 	ldr.w	r8, [pc, #356]	; 8007fe4 <VectorDC+0x198>
  osalThreadDequeueNextI(&iqp->q_waiting, MSG_OK);
 8007e80:	f108 0914 	add.w	r9, r8, #20
  while (sr & (USART_SR_RXNE | USART_SR_ORE | USART_SR_NE | USART_SR_FE |
 8007e84:	f015 0f2f 	tst.w	r5, #47	; 0x2f
 8007e88:	d124      	bne.n	8007ed4 <VectorDC+0x88>
  osalSysUnlockFromISR();
 8007e8a:	f7fd fea1 	bl	8005bd0 <osalSysUnlockFromISR.lto_priv.0>
  if ((cr1 & USART_CR1_TXEIE) && (sr & USART_SR_TXE)) {
 8007e8e:	0639      	lsls	r1, r7, #24
 8007e90:	d57b      	bpl.n	8007f8a <VectorDC+0x13e>
 8007e92:	062a      	lsls	r2, r5, #24
 8007e94:	d579      	bpl.n	8007f8a <VectorDC+0x13e>
    osalSysLockFromISR();
 8007e96:	f7fd fea1 	bl	8005bdc <osalSysLockFromISR.lto_priv.0>
	__asm volatile( "mrs %0, basepri" : "=r"( ulBasePri ) );
 8007e9a:	f3ef 8311 	mrs	r3, BASEPRI
	return (ulBasePri > 0)? pdTRUE : pdFALSE;
 8007e9e:	2b00      	cmp	r3, #0
 8007ea0:	f000 8097 	beq.w	8007fd2 <VectorDC+0x186>
  if (oqIsEmptyI(oqp)) {
 8007ea4:	e9d4 2314 	ldrd	r2, r3, [r4, #80]	; 0x50
 8007ea8:	429a      	cmp	r2, r3
 8007eaa:	d102      	bne.n	8007eb2 <VectorDC+0x66>
 8007eac:	6c62      	ldr	r2, [r4, #68]	; 0x44
 8007eae:	2a00      	cmp	r2, #0
 8007eb0:	d15f      	bne.n	8007f72 <VectorDC+0x126>
  oqp->q_counter++;
 8007eb2:	6c62      	ldr	r2, [r4, #68]	; 0x44
 8007eb4:	3201      	adds	r2, #1
 8007eb6:	6462      	str	r2, [r4, #68]	; 0x44
  b = *oqp->q_rdptr++;
 8007eb8:	1c5a      	adds	r2, r3, #1
 8007eba:	6562      	str	r2, [r4, #84]	; 0x54
 8007ebc:	f893 8000 	ldrb.w	r8, [r3]
  if (oqp->q_rdptr >= oqp->q_top) {
 8007ec0:	6ce3      	ldr	r3, [r4, #76]	; 0x4c
 8007ec2:	429a      	cmp	r2, r3
 8007ec4:	f080 8082 	bcs.w	8007fcc <VectorDC+0x180>
  osalThreadDequeueNextI(&oqp->q_waiting, MSG_OK);
 8007ec8:	4845      	ldr	r0, [pc, #276]	; (8007fe0 <VectorDC+0x194>)
 8007eca:	f7fc fb74 	bl	80045b6 <osalThreadDequeueNextI.constprop.0>
      u->DR = b;
 8007ece:	f8c6 8004 	str.w	r8, [r6, #4]
 8007ed2:	e058      	b.n	8007f86 <VectorDC+0x13a>
    if (sr & (USART_SR_ORE | USART_SR_NE | USART_SR_FE  | USART_SR_PE))
 8007ed4:	072b      	lsls	r3, r5, #28
 8007ed6:	d013      	beq.n	8007f00 <VectorDC+0xb4>
    sts |= SD_OVERRUN_ERROR;
 8007ed8:	f015 0f08 	tst.w	r5, #8
 8007edc:	bf0c      	ite	eq
 8007ede:	2100      	moveq	r1, #0
 8007ee0:	2180      	movne	r1, #128	; 0x80
  if (sr & USART_SR_PE)
 8007ee2:	07e8      	lsls	r0, r5, #31
    sts |= SD_PARITY_ERROR;
 8007ee4:	bf48      	it	mi
 8007ee6:	f041 0120 	orrmi.w	r1, r1, #32
  if (sr & USART_SR_FE)
 8007eea:	07aa      	lsls	r2, r5, #30
    sts |= SD_FRAMING_ERROR;
 8007eec:	bf48      	it	mi
 8007eee:	f041 0140 	orrmi.w	r1, r1, #64	; 0x40
  if (sr & USART_SR_NE)
 8007ef2:	076b      	lsls	r3, r5, #29
  chnAddFlagsI(sdp, sts);
 8007ef4:	4640      	mov	r0, r8
    sts |= SD_NOISE_ERROR;
 8007ef6:	bf48      	it	mi
 8007ef8:	f441 7180 	orrmi.w	r1, r1, #256	; 0x100
  chnAddFlagsI(sdp, sts);
 8007efc:	f7fc fb03 	bl	8004506 <osalEventBroadcastFlagsI>
    if (sr & USART_SR_RXNE)
 8007f00:	06a8      	lsls	r0, r5, #26
    b = (uint8_t)u->DR & sdp->rxmask;
 8007f02:	f8d6 a004 	ldr.w	sl, [r6, #4]
    if (sr & USART_SR_RXNE)
 8007f06:	d51b      	bpl.n	8007f40 <VectorDC+0xf4>
	__asm volatile( "mrs %0, basepri" : "=r"( ulBasePri ) );
 8007f08:	f3ef 8311 	mrs	r3, BASEPRI
	return (ulBasePri > 0)? pdTRUE : pdFALSE;
 8007f0c:	b913      	cbnz	r3, 8007f14 <VectorDC+0xc8>
 *
 * @iclass
 */
void sdIncomingDataI(SerialDriver *sdp, uint8_t b) {

  osalDbgCheckClassI();
 8007f0e:	f7fc fa17 	bl	8004340 <vTaskEndScheduler>
 8007f12:	e7fe      	b.n	8007f12 <VectorDC+0xc6>
  osalDbgCheck(sdp != NULL);

  if (iqIsEmptyI(&sdp->iqueue))
 8007f14:	6a23      	ldr	r3, [r4, #32]
    b = (uint8_t)u->DR & sdp->rxmask;
 8007f16:	f894 5084 	ldrb.w	r5, [r4, #132]	; 0x84
 8007f1a:	b91b      	cbnz	r3, 8007f24 <VectorDC+0xd8>
    chnAddFlagsI(sdp, CHN_INPUT_AVAILABLE);
 8007f1c:	2104      	movs	r1, #4
 8007f1e:	4640      	mov	r0, r8
 8007f20:	f7fc faf1 	bl	8004506 <osalEventBroadcastFlagsI>
	__asm volatile( "mrs %0, basepri" : "=r"( ulBasePri ) );
 8007f24:	f3ef 8311 	mrs	r3, BASEPRI
	return (ulBasePri > 0)? pdTRUE : pdFALSE;
 8007f28:	b303      	cbz	r3, 8007f6c <VectorDC+0x120>
  if (iqIsFullI(iqp)) {
 8007f2a:	e9d4 320b 	ldrd	r3, r2, [r4, #44]	; 0x2c
 8007f2e:	4293      	cmp	r3, r2
 8007f30:	d109      	bne.n	8007f46 <VectorDC+0xfa>
 8007f32:	6a22      	ldr	r2, [r4, #32]
 8007f34:	b13a      	cbz	r2, 8007f46 <VectorDC+0xfa>
  if (iqPutI(&sdp->iqueue, b) < MSG_OK)
    chnAddFlagsI(sdp, SD_QUEUE_FULL_ERROR);
 8007f36:	f44f 6180 	mov.w	r1, #1024	; 0x400
 8007f3a:	4640      	mov	r0, r8
 8007f3c:	f7fc fae3 	bl	8004506 <osalEventBroadcastFlagsI>
    sr = u->SR;
 8007f40:	6835      	ldr	r5, [r6, #0]
 8007f42:	b2ad      	uxth	r5, r5
 8007f44:	e79e      	b.n	8007e84 <VectorDC+0x38>
  iqp->q_counter++;
 8007f46:	6a22      	ldr	r2, [r4, #32]
    b = (uint8_t)u->DR & sdp->rxmask;
 8007f48:	ea05 050a 	and.w	r5, r5, sl
 8007f4c:	3201      	adds	r2, #1
 8007f4e:	6222      	str	r2, [r4, #32]
  *iqp->q_wrptr++ = b;
 8007f50:	1c5a      	adds	r2, r3, #1
 8007f52:	62e2      	str	r2, [r4, #44]	; 0x2c
 8007f54:	701d      	strb	r5, [r3, #0]
  if (iqp->q_wrptr >= iqp->q_top) {
 8007f56:	e9d4 320a 	ldrd	r3, r2, [r4, #40]	; 0x28
 8007f5a:	429a      	cmp	r2, r3
    iqp->q_wrptr = iqp->q_buffer;
 8007f5c:	bf28      	it	cs
 8007f5e:	6a63      	ldrcs	r3, [r4, #36]	; 0x24
  osalThreadDequeueNextI(&iqp->q_waiting, MSG_OK);
 8007f60:	4648      	mov	r0, r9
    iqp->q_wrptr = iqp->q_buffer;
 8007f62:	bf28      	it	cs
 8007f64:	62e3      	strcs	r3, [r4, #44]	; 0x2c
  osalThreadDequeueNextI(&iqp->q_waiting, MSG_OK);
 8007f66:	f7fc fb26 	bl	80045b6 <osalThreadDequeueNextI.constprop.0>
 8007f6a:	e7e9      	b.n	8007f40 <VectorDC+0xf4>
  osalDbgCheckClassI();
 8007f6c:	f7fc f9e8 	bl	8004340 <vTaskEndScheduler>
 8007f70:	e7fe      	b.n	8007f70 <VectorDC+0x124>
      chnAddFlagsI(sdp, CHN_OUTPUT_EMPTY);
 8007f72:	2108      	movs	r1, #8
 8007f74:	481b      	ldr	r0, [pc, #108]	; (8007fe4 <VectorDC+0x198>)
 8007f76:	f7fc fac6 	bl	8004506 <osalEventBroadcastFlagsI>
      u->CR1 = (cr1 & ~USART_CR1_TXEIE) | USART_CR1_TCIE;
 8007f7a:	f64f 733f 	movw	r3, #65343	; 0xff3f
 8007f7e:	403b      	ands	r3, r7
 8007f80:	f043 0340 	orr.w	r3, r3, #64	; 0x40
 8007f84:	60f3      	str	r3, [r6, #12]
    osalSysUnlockFromISR();
 8007f86:	f7fd fe23 	bl	8005bd0 <osalSysUnlockFromISR.lto_priv.0>
  if (sr & USART_SR_TC) {
 8007f8a:	066b      	lsls	r3, r5, #25
 8007f8c:	d515      	bpl.n	8007fba <VectorDC+0x16e>
    osalSysLockFromISR();
 8007f8e:	f7fd fe25 	bl	8005bdc <osalSysLockFromISR.lto_priv.0>
    if (oqIsEmptyI(&sdp->oqueue))
 8007f92:	e9d4 2314 	ldrd	r2, r3, [r4, #80]	; 0x50
 8007f96:	429a      	cmp	r2, r3
 8007f98:	d105      	bne.n	8007fa6 <VectorDC+0x15a>
 8007f9a:	6c63      	ldr	r3, [r4, #68]	; 0x44
 8007f9c:	b11b      	cbz	r3, 8007fa6 <VectorDC+0x15a>
      chnAddFlagsI(sdp, CHN_TRANSMISSION_END);
 8007f9e:	2110      	movs	r1, #16
 8007fa0:	4810      	ldr	r0, [pc, #64]	; (8007fe4 <VectorDC+0x198>)
 8007fa2:	f7fc fab0 	bl	8004506 <osalEventBroadcastFlagsI>
    u->SR = ~USART_SR_TC;
 8007fa6:	f06f 0340 	mvn.w	r3, #64	; 0x40
    u->CR1 = cr1 & ~USART_CR1_TCIE;
 8007faa:	f027 0740 	bic.w	r7, r7, #64	; 0x40
 8007fae:	043f      	lsls	r7, r7, #16
 8007fb0:	0c3f      	lsrs	r7, r7, #16
 8007fb2:	60f7      	str	r7, [r6, #12]
    u->SR = ~USART_SR_TC;
 8007fb4:	6033      	str	r3, [r6, #0]
    osalSysUnlockFromISR();
 8007fb6:	f7fd fe0b 	bl	8005bd0 <osalSysUnlockFromISR.lto_priv.0>
 8007fba:	2100      	movs	r1, #0
 8007fbc:	4b0a      	ldr	r3, [pc, #40]	; (8007fe8 <VectorDC+0x19c>)
 8007fbe:	681a      	ldr	r2, [r3, #0]
 8007fc0:	6019      	str	r1, [r3, #0]

  OSAL_IRQ_PROLOGUE();

  serve_interrupt(&SD3);

  OSAL_IRQ_EPILOGUE();
 8007fc2:	b14a      	cbz	r2, 8007fd8 <VectorDC+0x18c>
}
 8007fc4:	e8bd 47f0 	ldmia.w	sp!, {r4, r5, r6, r7, r8, r9, sl, lr}
 8007fc8:	f7fe ba8a 	b.w	80064e0 <Vector6C.part.0>
    oqp->q_rdptr = oqp->q_buffer;
 8007fcc:	6ca3      	ldr	r3, [r4, #72]	; 0x48
 8007fce:	6563      	str	r3, [r4, #84]	; 0x54
 8007fd0:	e77a      	b.n	8007ec8 <VectorDC+0x7c>
  osalDbgCheckClassI();
 8007fd2:	f7fc f9b5 	bl	8004340 <vTaskEndScheduler>
 8007fd6:	e7fe      	b.n	8007fd6 <VectorDC+0x18a>
 8007fd8:	e8bd 87f0 	ldmia.w	sp!, {r4, r5, r6, r7, r8, r9, sl, pc}
 8007fdc:	200009bc 	.word	0x200009bc
 8007fe0:	200009f8 	.word	0x200009f8
 8007fe4:	200009c0 	.word	0x200009c0
 8007fe8:	2000164c 	.word	0x2000164c

08007fec <xQueueGenericSend.constprop.0>:
 8007fec:	e92d 41ff 	stmdb	sp!, {r0, r1, r2, r3, r4, r5, r6, r7, r8, lr}
 8007ff0:	2300      	movs	r3, #0
 8007ff2:	4604      	mov	r4, r0
 8007ff4:	9301      	str	r3, [sp, #4]
 8007ff6:	b900      	cbnz	r0, 8007ffa <xQueueGenericSend.constprop.0+0xe>
 8007ff8:	e7fe      	b.n	8007ff8 <xQueueGenericSend.constprop.0+0xc>
 8007ffa:	6c06      	ldr	r6, [r0, #64]	; 0x40
 8007ffc:	b106      	cbz	r6, 8008000 <xQueueGenericSend.constprop.0+0x14>
 8007ffe:	e7fe      	b.n	8007ffe <xQueueGenericSend.constprop.0+0x12>
 8008000:	f8df 81f4 	ldr.w	r8, [pc, #500]	; 80081f8 <xQueueGenericSend.constprop.0+0x20c>
 8008004:	4d75      	ldr	r5, [pc, #468]	; (80081dc <xQueueGenericSend.constprop.0+0x1f0>)
 8008006:	4f76      	ldr	r7, [pc, #472]	; (80081e0 <xQueueGenericSend.constprop.0+0x1f4>)
 8008008:	e0b5      	b.n	8008176 <xQueueGenericSend.constprop.0+0x18a>
 800800a:	6865      	ldr	r5, [r4, #4]
 800800c:	bb1d      	cbnz	r5, 8008056 <xQueueGenericSend.constprop.0+0x6a>
 800800e:	2500      	movs	r5, #0
 8008010:	2200      	movs	r2, #0
 8008012:	6062      	str	r2, [r4, #4]
 8008014:	3601      	adds	r6, #1
 8008016:	63a6      	str	r6, [r4, #56]	; 0x38
 8008018:	6a62      	ldr	r2, [r4, #36]	; 0x24
 800801a:	2a00      	cmp	r2, #0
 800801c:	d060      	beq.n	80080e0 <xQueueGenericSend.constprop.0+0xf4>
 800801e:	f104 0024 	add.w	r0, r4, #36	; 0x24
 8008022:	f7fc fbe1 	bl	80047e8 <xTaskRemoveFromEventList>
 8008026:	2800      	cmp	r0, #0
 8008028:	d05c      	beq.n	80080e4 <xQueueGenericSend.constprop.0+0xf8>
 800802a:	4b6c      	ldr	r3, [pc, #432]	; (80081dc <xQueueGenericSend.constprop.0+0x1f0>)
 800802c:	4a6d      	ldr	r2, [pc, #436]	; (80081e4 <xQueueGenericSend.constprop.0+0x1f8>)
 800802e:	6819      	ldr	r1, [r3, #0]
 8008030:	6011      	str	r1, [r2, #0]
 8008032:	4a6d      	ldr	r2, [pc, #436]	; (80081e8 <xQueueGenericSend.constprop.0+0x1fc>)
 8008034:	6812      	ldr	r2, [r2, #0]
 8008036:	b12a      	cbz	r2, 8008044 <xQueueGenericSend.constprop.0+0x58>
 8008038:	681a      	ldr	r2, [r3, #0]
 800803a:	f422 027f 	bic.w	r2, r2, #16711680	; 0xff0000
 800803e:	601a      	str	r2, [r3, #0]
 8008040:	681a      	ldr	r2, [r3, #0]
 8008042:	601a      	str	r2, [r3, #0]
 8008044:	f04f 5280 	mov.w	r2, #268435456	; 0x10000000
 8008048:	4b65      	ldr	r3, [pc, #404]	; (80081e0 <xQueueGenericSend.constprop.0+0x1f4>)
 800804a:	601a      	str	r2, [r3, #0]
 800804c:	f3bf 8f4f 	dsb	sy
 8008050:	f3bf 8f6f 	isb	sy
 8008054:	e046      	b.n	80080e4 <xQueueGenericSend.constprop.0+0xf8>
 8008056:	4b65      	ldr	r3, [pc, #404]	; (80081ec <xQueueGenericSend.constprop.0+0x200>)
 8008058:	681b      	ldr	r3, [r3, #0]
 800805a:	429d      	cmp	r5, r3
 800805c:	d000      	beq.n	8008060 <xQueueGenericSend.constprop.0+0x74>
 800805e:	e7fe      	b.n	800805e <xQueueGenericSend.constprop.0+0x72>
 8008060:	6d2b      	ldr	r3, [r5, #80]	; 0x50
 8008062:	b903      	cbnz	r3, 8008066 <xQueueGenericSend.constprop.0+0x7a>
 8008064:	e7fe      	b.n	8008064 <xQueueGenericSend.constprop.0+0x78>
 8008066:	6ae9      	ldr	r1, [r5, #44]	; 0x2c
 8008068:	6cea      	ldr	r2, [r5, #76]	; 0x4c
 800806a:	3b01      	subs	r3, #1
 800806c:	4291      	cmp	r1, r2
 800806e:	652b      	str	r3, [r5, #80]	; 0x50
 8008070:	d0cd      	beq.n	800800e <xQueueGenericSend.constprop.0+0x22>
 8008072:	2b00      	cmp	r3, #0
 8008074:	d1cb      	bne.n	800800e <xQueueGenericSend.constprop.0+0x22>
 8008076:	f105 0804 	add.w	r8, r5, #4
 800807a:	4640      	mov	r0, r8
 800807c:	f7fc f9b8 	bl	80043f0 <uxListRemove>
 8008080:	f8df c178 	ldr.w	ip, [pc, #376]	; 80081fc <xQueueGenericSend.constprop.0+0x210>
 8008084:	4a5a      	ldr	r2, [pc, #360]	; (80081f0 <xQueueGenericSend.constprop.0+0x204>)
 8008086:	b958      	cbnz	r0, 80080a0 <xQueueGenericSend.constprop.0+0xb4>
 8008088:	2014      	movs	r0, #20
 800808a:	6aef      	ldr	r7, [r5, #44]	; 0x2c
 800808c:	4378      	muls	r0, r7
 800808e:	f85c 3000 	ldr.w	r3, [ip, r0]
 8008092:	b92b      	cbnz	r3, 80080a0 <xQueueGenericSend.constprop.0+0xb4>
 8008094:	2101      	movs	r1, #1
 8008096:	6813      	ldr	r3, [r2, #0]
 8008098:	40b9      	lsls	r1, r7
 800809a:	ea23 0301 	bic.w	r3, r3, r1
 800809e:	6013      	str	r3, [r2, #0]
 80080a0:	6ceb      	ldr	r3, [r5, #76]	; 0x4c
 80080a2:	2014      	movs	r0, #20
 80080a4:	f1c3 0105 	rsb	r1, r3, #5
 80080a8:	62eb      	str	r3, [r5, #44]	; 0x2c
 80080aa:	61a9      	str	r1, [r5, #24]
 80080ac:	2501      	movs	r5, #1
 80080ae:	6811      	ldr	r1, [r2, #0]
 80080b0:	fa05 f703 	lsl.w	r7, r5, r3
 80080b4:	430f      	orrs	r7, r1
 80080b6:	fb00 c003 	mla	r0, r0, r3, ip
 80080ba:	4641      	mov	r1, r8
 80080bc:	6017      	str	r7, [r2, #0]
 80080be:	f7fc f9be 	bl	800443e <vListInsertEnd>
 80080c2:	e7a5      	b.n	8008010 <xQueueGenericSend.constprop.0+0x24>
 80080c4:	2100      	movs	r1, #0
 80080c6:	68a0      	ldr	r0, [r4, #8]
 80080c8:	f7fb fcfc 	bl	8003ac4 <memcpy>
 80080cc:	68a3      	ldr	r3, [r4, #8]
 80080ce:	6c22      	ldr	r2, [r4, #64]	; 0x40
 80080d0:	4413      	add	r3, r2
 80080d2:	6862      	ldr	r2, [r4, #4]
 80080d4:	60a3      	str	r3, [r4, #8]
 80080d6:	4293      	cmp	r3, r2
 80080d8:	bf24      	itt	cs
 80080da:	6823      	ldrcs	r3, [r4, #0]
 80080dc:	60a3      	strcs	r3, [r4, #8]
 80080de:	e058      	b.n	8008192 <xQueueGenericSend.constprop.0+0x1a6>
 80080e0:	2d00      	cmp	r5, #0
 80080e2:	d1a2      	bne.n	800802a <xQueueGenericSend.constprop.0+0x3e>
 80080e4:	f7fc f872 	bl	80041cc <vPortExitCritical>
 80080e8:	2001      	movs	r0, #1
 80080ea:	b004      	add	sp, #16
 80080ec:	e8bd 81f0 	ldmia.w	sp!, {r4, r5, r6, r7, r8, pc}
 80080f0:	9801      	ldr	r0, [sp, #4]
 80080f2:	b910      	cbnz	r0, 80080fa <xQueueGenericSend.constprop.0+0x10e>
 80080f4:	f7fc f86a 	bl	80041cc <vPortExitCritical>
 80080f8:	e7f7      	b.n	80080ea <xQueueGenericSend.constprop.0+0xfe>
 80080fa:	b92e      	cbnz	r6, 8008108 <xQueueGenericSend.constprop.0+0x11c>
 80080fc:	f8d8 3000 	ldr.w	r3, [r8]
 8008100:	9302      	str	r3, [sp, #8]
 8008102:	4b3c      	ldr	r3, [pc, #240]	; (80081f4 <xQueueGenericSend.constprop.0+0x208>)
 8008104:	681b      	ldr	r3, [r3, #0]
 8008106:	9303      	str	r3, [sp, #12]
 8008108:	f7fc f860 	bl	80041cc <vPortExitCritical>
 800810c:	f7fc f910 	bl	8004330 <vTaskSuspendAll>
 8008110:	f7fc f868 	bl	80041e4 <vPortEnterCritical>
 8008114:	f894 3044 	ldrb.w	r3, [r4, #68]	; 0x44
 8008118:	2bff      	cmp	r3, #255	; 0xff
 800811a:	bf04      	itt	eq
 800811c:	2300      	moveq	r3, #0
 800811e:	f884 3044 	strbeq.w	r3, [r4, #68]	; 0x44
 8008122:	f894 3045 	ldrb.w	r3, [r4, #69]	; 0x45
 8008126:	2bff      	cmp	r3, #255	; 0xff
 8008128:	bf04      	itt	eq
 800812a:	2300      	moveq	r3, #0
 800812c:	f884 3045 	strbeq.w	r3, [r4, #69]	; 0x45
 8008130:	f7fc f84c 	bl	80041cc <vPortExitCritical>
 8008134:	a901      	add	r1, sp, #4
 8008136:	a802      	add	r0, sp, #8
 8008138:	f7fc f8b2 	bl	80042a0 <xTaskCheckForTimeOut>
 800813c:	2800      	cmp	r0, #0
 800813e:	d146      	bne.n	80081ce <xQueueGenericSend.constprop.0+0x1e2>
 8008140:	f7fc f850 	bl	80041e4 <vPortEnterCritical>
 8008144:	6ba2      	ldr	r2, [r4, #56]	; 0x38
 8008146:	6be3      	ldr	r3, [r4, #60]	; 0x3c
 8008148:	429a      	cmp	r2, r3
 800814a:	d124      	bne.n	8008196 <xQueueGenericSend.constprop.0+0x1aa>
 800814c:	f7fc f83e 	bl	80041cc <vPortExitCritical>
 8008150:	4b26      	ldr	r3, [pc, #152]	; (80081ec <xQueueGenericSend.constprop.0+0x200>)
 8008152:	9e01      	ldr	r6, [sp, #4]
 8008154:	6819      	ldr	r1, [r3, #0]
 8008156:	f104 0010 	add.w	r0, r4, #16
 800815a:	3118      	adds	r1, #24
 800815c:	f7fc f958 	bl	8004410 <vListInsert>
 8008160:	2101      	movs	r1, #1
 8008162:	4630      	mov	r0, r6
 8008164:	f7fc fa38 	bl	80045d8 <prvAddCurrentTaskToDelayedList>
 8008168:	4620      	mov	r0, r4
 800816a:	f7fc fddd 	bl	8004d28 <prvUnlockQueue>
 800816e:	f7fc fc19 	bl	80049a4 <xTaskResumeAll>
 8008172:	b1c0      	cbz	r0, 80081a6 <xQueueGenericSend.constprop.0+0x1ba>
 8008174:	2601      	movs	r6, #1
 8008176:	f7fc f835 	bl	80041e4 <vPortEnterCritical>
 800817a:	6ba2      	ldr	r2, [r4, #56]	; 0x38
 800817c:	6be3      	ldr	r3, [r4, #60]	; 0x3c
 800817e:	429a      	cmp	r2, r3
 8008180:	d2b6      	bcs.n	80080f0 <xQueueGenericSend.constprop.0+0x104>
 8008182:	6c22      	ldr	r2, [r4, #64]	; 0x40
 8008184:	6ba6      	ldr	r6, [r4, #56]	; 0x38
 8008186:	2a00      	cmp	r2, #0
 8008188:	d19c      	bne.n	80080c4 <xQueueGenericSend.constprop.0+0xd8>
 800818a:	6823      	ldr	r3, [r4, #0]
 800818c:	2b00      	cmp	r3, #0
 800818e:	f43f af3c 	beq.w	800800a <xQueueGenericSend.constprop.0+0x1e>
 8008192:	2500      	movs	r5, #0
 8008194:	e73e      	b.n	8008014 <xQueueGenericSend.constprop.0+0x28>
 8008196:	f7fc f819 	bl	80041cc <vPortExitCritical>
 800819a:	4620      	mov	r0, r4
 800819c:	f7fc fdc4 	bl	8004d28 <prvUnlockQueue>
 80081a0:	f7fc fc00 	bl	80049a4 <xTaskResumeAll>
 80081a4:	e7e6      	b.n	8008174 <xQueueGenericSend.constprop.0+0x188>
 80081a6:	4b0f      	ldr	r3, [pc, #60]	; (80081e4 <xQueueGenericSend.constprop.0+0x1f8>)
 80081a8:	682a      	ldr	r2, [r5, #0]
 80081aa:	601a      	str	r2, [r3, #0]
 80081ac:	4b0e      	ldr	r3, [pc, #56]	; (80081e8 <xQueueGenericSend.constprop.0+0x1fc>)
 80081ae:	681b      	ldr	r3, [r3, #0]
 80081b0:	b12b      	cbz	r3, 80081be <xQueueGenericSend.constprop.0+0x1d2>
 80081b2:	682b      	ldr	r3, [r5, #0]
 80081b4:	f423 037f 	bic.w	r3, r3, #16711680	; 0xff0000
 80081b8:	602b      	str	r3, [r5, #0]
 80081ba:	682b      	ldr	r3, [r5, #0]
 80081bc:	602b      	str	r3, [r5, #0]
 80081be:	f04f 5380 	mov.w	r3, #268435456	; 0x10000000
 80081c2:	603b      	str	r3, [r7, #0]
 80081c4:	f3bf 8f4f 	dsb	sy
 80081c8:	f3bf 8f6f 	isb	sy
 80081cc:	e7d2      	b.n	8008174 <xQueueGenericSend.constprop.0+0x188>
 80081ce:	4620      	mov	r0, r4
 80081d0:	f7fc fdaa 	bl	8004d28 <prvUnlockQueue>
 80081d4:	f7fc fbe6 	bl	80049a4 <xTaskResumeAll>
 80081d8:	2000      	movs	r0, #0
 80081da:	e786      	b.n	80080ea <xQueueGenericSend.constprop.0+0xfe>
 80081dc:	e000ed20 	.word	0xe000ed20
 80081e0:	e000ed04 	.word	0xe000ed04
 80081e4:	2000134c 	.word	0x2000134c
 80081e8:	20001358 	.word	0x20001358
 80081ec:	200011a8 	.word	0x200011a8
 80081f0:	20001374 	.word	0x20001374
 80081f4:	20001648 	.word	0x20001648
 80081f8:	200015fc 	.word	0x200015fc
 80081fc:	200011b8 	.word	0x200011b8

08008200 <xQueueCreateMutexStatic.constprop.0>:
 8008200:	2350      	movs	r3, #80	; 0x50
 8008202:	b573      	push	{r0, r1, r4, r5, r6, lr}
 8008204:	9301      	str	r3, [sp, #4]
 8008206:	9b01      	ldr	r3, [sp, #4]
 8008208:	4604      	mov	r4, r0
 800820a:	2b50      	cmp	r3, #80	; 0x50
 800820c:	d000      	beq.n	8008210 <xQueueCreateMutexStatic.constprop.0+0x10>
 800820e:	e7fe      	b.n	800820e <xQueueCreateMutexStatic.constprop.0+0xe>
 8008210:	2601      	movs	r6, #1
 8008212:	2500      	movs	r5, #0
 8008214:	f880 6046 	strb.w	r6, [r0, #70]	; 0x46
 8008218:	6020      	str	r0, [r4, #0]
 800821a:	63c6      	str	r6, [r0, #60]	; 0x3c
 800821c:	6405      	str	r5, [r0, #64]	; 0x40
 800821e:	f7ff fb43 	bl	80078a8 <xQueueGenericReset.constprop.0>
 8008222:	4620      	mov	r0, r4
 8008224:	e9c4 5500 	strd	r5, r5, [r4]
 8008228:	f884 604c 	strb.w	r6, [r4, #76]	; 0x4c
 800822c:	60e5      	str	r5, [r4, #12]
 800822e:	f7ff fedd 	bl	8007fec <xQueueGenericSend.constprop.0>
 8008232:	4620      	mov	r0, r4
 8008234:	b002      	add	sp, #8
 8008236:	bd70      	pop	{r4, r5, r6, pc}

08008238 <max2870SpiState.part.0>:
static void max2870SpiState(MAX2870Driver* driver, bool enable)
 8008238:	b510      	push	{r4, lr}
 800823a:	4604      	mov	r4, r0
        max2870SetMUXOut(driver, 0x0);
 800823c:	2100      	movs	r1, #0
 800823e:	f7ff fbff 	bl	8007a40 <max2870SetMUXOut>
        monitorKick(&driver->pllMon, driver->enabled);
 8008242:	7921      	ldrb	r1, [r4, #4]
 8008244:	f104 00e8 	add.w	r0, r4, #232	; 0xe8
 8008248:	f7fd f9f4 	bl	8005634 <monitorKick>
        spiReleaseBus(driver->config->spiPort);
 800824c:	6823      	ldr	r3, [r4, #0]
 800824e:	681b      	ldr	r3, [r3, #0]
 *
 * @api
 */
void spiReleaseBus(SPIDriver *spip) {

  osalDbgCheck(spip != NULL);
 8008250:	b913      	cbnz	r3, 8008258 <max2870SpiState.part.0+0x20>
 8008252:	f7fc f875 	bl	8004340 <vTaskEndScheduler>
 8008256:	e7fe      	b.n	8008256 <max2870SpiState.part.0+0x1e>
    xSemaphoreGive(mutex->handle);
 8008258:	68d8      	ldr	r0, [r3, #12]
}
 800825a:	e8bd 4010 	ldmia.w	sp!, {r4, lr}
 800825e:	f7ff bec5 	b.w	8007fec <xQueueGenericSend.constprop.0>

08008262 <i2cReleaseBus>:
 *
 * @param[in] i2cp      pointer to the @p I2CDriver object
 *
 * @api
 */
void i2cReleaseBus(I2CDriver *i2cp) {
 8008262:	b508      	push	{r3, lr}

  osalDbgCheck(i2cp != NULL);
 8008264:	b910      	cbnz	r0, 800826c <i2cReleaseBus+0xa>
 8008266:	f7fc f86b 	bl	8004340 <vTaskEndScheduler>
 800826a:	e7fe      	b.n	800826a <i2cReleaseBus+0x8>
 800826c:	68c0      	ldr	r0, [r0, #12]

  osalMutexUnlock(&i2cp->mutex);
}
 800826e:	e8bd 4008 	ldmia.w	sp!, {r3, lr}
 8008272:	f7ff bebb 	b.w	8007fec <xQueueGenericSend.constprop.0>

08008276 <_reads>:
static size_t _reads(void *ip, uint8_t *bp, size_t n) {
 8008276:	b538      	push	{r3, r4, r5, lr}
 8008278:	4605      	mov	r5, r0
 800827a:	4608      	mov	r0, r1
  if (msp->eos - msp->offset < n)
 800827c:	e9d5 3103 	ldrd	r3, r1, [r5, #12]
 8008280:	1a5c      	subs	r4, r3, r1
 8008282:	4294      	cmp	r4, r2
 8008284:	bf28      	it	cs
 8008286:	4614      	movcs	r4, r2
  memcpy(bp, msp->buffer + msp->offset, n);
 8008288:	686b      	ldr	r3, [r5, #4]
 800828a:	4622      	mov	r2, r4
 800828c:	4419      	add	r1, r3
 800828e:	f7fb fc19 	bl	8003ac4 <memcpy>
  msp->offset += n;
 8008292:	692b      	ldr	r3, [r5, #16]
}
 8008294:	4620      	mov	r0, r4
  msp->offset += n;
 8008296:	4423      	add	r3, r4
 8008298:	612b      	str	r3, [r5, #16]
}
 800829a:	bd38      	pop	{r3, r4, r5, pc}

0800829c <_writes>:
static size_t _writes(void *ip, const uint8_t *bp, size_t n) {
 800829c:	b538      	push	{r3, r4, r5, lr}
 800829e:	4605      	mov	r5, r0
  if (msp->size - msp->eos < n)
 80082a0:	e9d0 3002 	ldrd	r3, r0, [r0, #8]
 80082a4:	1a1c      	subs	r4, r3, r0
 80082a6:	4294      	cmp	r4, r2
 80082a8:	bf28      	it	cs
 80082aa:	4614      	movcs	r4, r2
  memcpy(msp->buffer + msp->eos, bp, n);
 80082ac:	686b      	ldr	r3, [r5, #4]
 80082ae:	4622      	mov	r2, r4
 80082b0:	4418      	add	r0, r3
 80082b2:	f7fb fc07 	bl	8003ac4 <memcpy>
  msp->eos += n;
 80082b6:	68eb      	ldr	r3, [r5, #12]
}
 80082b8:	4620      	mov	r0, r4
  msp->eos += n;
 80082ba:	4423      	add	r3, r4
 80082bc:	60eb      	str	r3, [r5, #12]
}
 80082be:	bd38      	pop	{r3, r4, r5, pc}

080082c0 <obqWriteTimeout.part.0>:
size_t obqWriteTimeout(output_buffers_queue_t *obqp, const uint8_t *bp,
 80082c0:	e92d 4ff7 	stmdb	sp!, {r0, r1, r2, r4, r5, r6, r7, r8, r9, sl, fp, lr}
 80082c4:	461f      	mov	r7, r3
 80082c6:	4690      	mov	r8, r2
 80082c8:	4604      	mov	r4, r0
 80082ca:	460d      	mov	r5, r1
  osalSysLock();
 80082cc:	f7fb ff8a 	bl	80041e4 <vPortEnterCritical>
 80082d0:	f7fb ff08 	bl	80040e4 <vPortValidateInterruptPriority>
 80082d4:	4b28      	ldr	r3, [pc, #160]	; (8008378 <obqWriteTimeout.part.0+0xb8>)
  size_t w = 0;
 80082d6:	2600      	movs	r6, #0
 80082d8:	4699      	mov	r9, r3
 80082da:	681a      	ldr	r2, [r3, #0]
      if ((timeout == TIME_INFINITE) || (timeout == TIME_IMMEDIATE)) {
 80082dc:	f107 3bff 	add.w	fp, r7, #4294967295	; 0xffffffff
  deadline = osalOsGetSystemTimeX() + timeout;
 80082e0:	eb07 0a02 	add.w	sl, r7, r2
    if (obqp->ptr == NULL) {
 80082e4:	6aa3      	ldr	r3, [r4, #40]	; 0x28
 80082e6:	b93b      	cbnz	r3, 80082f8 <obqWriteTimeout.part.0+0x38>
      if ((timeout == TIME_INFINITE) || (timeout == TIME_IMMEDIATE)) {
 80082e8:	f11b 0f03 	cmn.w	fp, #3
 80082ec:	d92a      	bls.n	8008344 <obqWriteTimeout.part.0+0x84>
        msg = obqGetEmptyBufferTimeoutS(obqp, timeout);
 80082ee:	4639      	mov	r1, r7
        msg = obqGetEmptyBufferTimeoutS(obqp, next_timeout);
 80082f0:	4620      	mov	r0, r4
 80082f2:	f7ff f90e 	bl	8007512 <obqGetEmptyBufferTimeoutS>
      if (msg != MSG_OK) {
 80082f6:	bb68      	cbnz	r0, 8008354 <obqWriteTimeout.part.0+0x94>
    size = (size_t)obqp->top - (size_t)obqp->ptr;
 80082f8:	e9d4 020a 	ldrd	r0, r2, [r4, #40]	; 0x28
    if (size > (n - w)) {
 80082fc:	eba8 0306 	sub.w	r3, r8, r6
    size = (size_t)obqp->top - (size_t)obqp->ptr;
 8008300:	1a12      	subs	r2, r2, r0
    if (size > (n - w)) {
 8008302:	429a      	cmp	r2, r3
 8008304:	bf28      	it	cs
 8008306:	461a      	movcs	r2, r3
    if (size > 64U) {
 8008308:	2a40      	cmp	r2, #64	; 0x40
 800830a:	d929      	bls.n	8008360 <obqWriteTimeout.part.0+0xa0>
      memcpy(obqp->ptr, bp, 64U);
 800830c:	f105 0340 	add.w	r3, r5, #64	; 0x40
 8008310:	f855 2b04 	ldr.w	r2, [r5], #4
 8008314:	429d      	cmp	r5, r3
 8008316:	f840 2b04 	str.w	r2, [r0], #4
 800831a:	d1f9      	bne.n	8008310 <obqWriteTimeout.part.0+0x50>
      obqp->ptr += 64U;
 800831c:	6aa3      	ldr	r3, [r4, #40]	; 0x28
      w         += 64U;
 800831e:	3640      	adds	r6, #64	; 0x40
      obqp->ptr += 64U;
 8008320:	3340      	adds	r3, #64	; 0x40
 8008322:	62a3      	str	r3, [r4, #40]	; 0x28
    if (obqp->ptr >= obqp->top) {
 8008324:	e9d4 230a 	ldrd	r2, r3, [r4, #40]	; 0x28
 8008328:	429a      	cmp	r2, r3
 800832a:	d304      	bcc.n	8008336 <obqWriteTimeout.part.0+0x76>
      obqPostFullBufferS(obqp, obqp->bsize - sizeof (size_t));
 800832c:	69e1      	ldr	r1, [r4, #28]
 800832e:	4620      	mov	r0, r4
 8008330:	3904      	subs	r1, #4
 8008332:	f7ff f8bf 	bl	80074b4 <obqPostFullBufferS>
    osalSysUnlock();
 8008336:	f7fd fa85 	bl	8005844 <osalSysUnlock.lto_priv.0>
    if (w >= n) {
 800833a:	45b0      	cmp	r8, r6
 800833c:	d90c      	bls.n	8008358 <obqWriteTimeout.part.0+0x98>
    osalSysLock();
 800833e:	f7fb ff51 	bl	80041e4 <vPortEnterCritical>
  while (true) {
 8008342:	e7cf      	b.n	80082e4 <obqWriteTimeout.part.0+0x24>
 8008344:	f7fb fece 	bl	80040e4 <vPortValidateInterruptPriority>
 8008348:	f8d9 1000 	ldr.w	r1, [r9]
        systime_t next_timeout = deadline - osalOsGetSystemTimeX();
 800834c:	ebaa 0101 	sub.w	r1, sl, r1
        if (next_timeout > timeout) {
 8008350:	428f      	cmp	r7, r1
 8008352:	d2cd      	bcs.n	80082f0 <obqWriteTimeout.part.0+0x30>
        osalSysUnlock();
 8008354:	f7fd fa76 	bl	8005844 <osalSysUnlock.lto_priv.0>
}
 8008358:	4630      	mov	r0, r6
 800835a:	b003      	add	sp, #12
 800835c:	e8bd 8ff0 	ldmia.w	sp!, {r4, r5, r6, r7, r8, r9, sl, fp, pc}
      memcpy(obqp->ptr, bp, size);
 8008360:	4629      	mov	r1, r5
 8008362:	9201      	str	r2, [sp, #4]
 8008364:	f7fb fbae 	bl	8003ac4 <memcpy>
      bp        += size;
 8008368:	9a01      	ldr	r2, [sp, #4]
      obqp->ptr += size;
 800836a:	6aa3      	ldr	r3, [r4, #40]	; 0x28
      bp        += size;
 800836c:	4415      	add	r5, r2
      obqp->ptr += size;
 800836e:	4413      	add	r3, r2
 8008370:	62a3      	str	r3, [r4, #40]	; 0x28
      w         += size;
 8008372:	4416      	add	r6, r2
 8008374:	e7d6      	b.n	8008324 <obqWriteTimeout.part.0+0x64>
 8008376:	bf00      	nop
 8008378:	20001648 	.word	0x20001648

0800837c <_write.lto_priv.1>:
static size_t _write(void *ip, const uint8_t *bp, size_t n) {
 800837c:	b570      	push	{r4, r5, r6, lr}
 800837e:	4615      	mov	r5, r2
  if(sdup->config->sofCallback) sdup->config->sofCallback(sdup->config->usbp, true);
 8008380:	f8d0 2498 	ldr.w	r2, [r0, #1176]	; 0x498
static size_t _write(void *ip, const uint8_t *bp, size_t n) {
 8008384:	4604      	mov	r4, r0
  if(sdup->config->sofCallback) sdup->config->sofCallback(sdup->config->usbp, true);
 8008386:	6893      	ldr	r3, [r2, #8]
static size_t _write(void *ip, const uint8_t *bp, size_t n) {
 8008388:	460e      	mov	r6, r1
  if(sdup->config->sofCallback) sdup->config->sofCallback(sdup->config->usbp, true);
 800838a:	b113      	cbz	r3, 8008392 <_write.lto_priv.1+0x16>
 800838c:	2101      	movs	r1, #1
 800838e:	6810      	ldr	r0, [r2, #0]
 8008390:	4798      	blx	r3
  osalDbgCheck(n > 0U);
 8008392:	b915      	cbnz	r5, 800839a <_write.lto_priv.1+0x1e>
 8008394:	f7fb ffd4 	bl	8004340 <vTaskEndScheduler>
 8008398:	e7fe      	b.n	8008398 <_write.lto_priv.1+0x1c>
 800839a:	462a      	mov	r2, r5
 800839c:	4631      	mov	r1, r6
 800839e:	f104 0050 	add.w	r0, r4, #80	; 0x50
 80083a2:	f04f 33ff 	mov.w	r3, #4294967295	; 0xffffffff
}
 80083a6:	e8bd 4070 	ldmia.w	sp!, {r4, r5, r6, lr}
 80083aa:	f7ff bf89 	b.w	80082c0 <obqWriteTimeout.part.0>

080083ae <_writet.lto_priv.1>:
static size_t _writet(void *ip, const uint8_t *bp, size_t n, systime_t timeout) {
 80083ae:	e92d 41f0 	stmdb	sp!, {r4, r5, r6, r7, r8, lr}
 80083b2:	4615      	mov	r5, r2
  if(sdup->config->sofCallback) sdup->config->sofCallback(sdup->config->usbp, true);
 80083b4:	f8d0 2498 	ldr.w	r2, [r0, #1176]	; 0x498
static size_t _writet(void *ip, const uint8_t *bp, size_t n, systime_t timeout) {
 80083b8:	461f      	mov	r7, r3
  if(sdup->config->sofCallback) sdup->config->sofCallback(sdup->config->usbp, true);
 80083ba:	6893      	ldr	r3, [r2, #8]
static size_t _writet(void *ip, const uint8_t *bp, size_t n, systime_t timeout) {
 80083bc:	4604      	mov	r4, r0
 80083be:	460e      	mov	r6, r1
  if(sdup->config->sofCallback) sdup->config->sofCallback(sdup->config->usbp, true);
 80083c0:	b113      	cbz	r3, 80083c8 <_writet.lto_priv.1+0x1a>
 80083c2:	2101      	movs	r1, #1
 80083c4:	6810      	ldr	r0, [r2, #0]
 80083c6:	4798      	blx	r3
 80083c8:	b915      	cbnz	r5, 80083d0 <_writet.lto_priv.1+0x22>
 80083ca:	f7fb ffb9 	bl	8004340 <vTaskEndScheduler>
 80083ce:	e7fe      	b.n	80083ce <_writet.lto_priv.1+0x20>
 80083d0:	463b      	mov	r3, r7
 80083d2:	462a      	mov	r2, r5
 80083d4:	4631      	mov	r1, r6
 80083d6:	f104 0050 	add.w	r0, r4, #80	; 0x50
}
 80083da:	e8bd 41f0 	ldmia.w	sp!, {r4, r5, r6, r7, r8, lr}
 80083de:	f7ff bf6f 	b.w	80082c0 <obqWriteTimeout.part.0>
	...

080083e4 <ibqReadTimeout.part.0>:
size_t ibqReadTimeout(input_buffers_queue_t *ibqp, uint8_t *bp,
 80083e4:	e92d 4ff7 	stmdb	sp!, {r0, r1, r2, r4, r5, r6, r7, r8, r9, sl, fp, lr}
 80083e8:	461f      	mov	r7, r3
 80083ea:	4690      	mov	r8, r2
 80083ec:	4604      	mov	r4, r0
 80083ee:	460d      	mov	r5, r1
  osalSysLock();
 80083f0:	f7fb fef8 	bl	80041e4 <vPortEnterCritical>
 80083f4:	f7fb fe76 	bl	80040e4 <vPortValidateInterruptPriority>
 80083f8:	4b28      	ldr	r3, [pc, #160]	; (800849c <ibqReadTimeout.part.0+0xb8>)
  size_t r = 0;
 80083fa:	2600      	movs	r6, #0
 80083fc:	4699      	mov	r9, r3
 80083fe:	681a      	ldr	r2, [r3, #0]
      if ((timeout == TIME_INFINITE) || (timeout == TIME_IMMEDIATE)) {
 8008400:	f107 3bff 	add.w	fp, r7, #4294967295	; 0xffffffff
  deadline = osalOsGetSystemTimeX() + timeout;
 8008404:	eb07 0a02 	add.w	sl, r7, r2
    if (ibqp->ptr == NULL) {
 8008408:	6aa3      	ldr	r3, [r4, #40]	; 0x28
 800840a:	b93b      	cbnz	r3, 800841c <ibqReadTimeout.part.0+0x38>
      if ((timeout == TIME_INFINITE) || (timeout == TIME_IMMEDIATE)) {
 800840c:	f11b 0f03 	cmn.w	fp, #3
 8008410:	d92a      	bls.n	8008468 <ibqReadTimeout.part.0+0x84>
        msg = ibqGetFullBufferTimeoutS(ibqp, timeout);
 8008412:	4639      	mov	r1, r7
        msg = ibqGetFullBufferTimeoutS(ibqp, next_timeout);
 8008414:	4620      	mov	r0, r4
 8008416:	f7ff f9f9 	bl	800780c <ibqGetFullBufferTimeoutS>
      if (msg != MSG_OK) {
 800841a:	bb68      	cbnz	r0, 8008478 <ibqReadTimeout.part.0+0x94>
    size = (size_t)ibqp->top - (size_t)ibqp->ptr;
 800841c:	e9d4 120a 	ldrd	r1, r2, [r4, #40]	; 0x28
    if (size > (n - r)) {
 8008420:	eba8 0306 	sub.w	r3, r8, r6
    size = (size_t)ibqp->top - (size_t)ibqp->ptr;
 8008424:	1a52      	subs	r2, r2, r1
    if (size > (n - r)) {
 8008426:	429a      	cmp	r2, r3
 8008428:	bf28      	it	cs
 800842a:	461a      	movcs	r2, r3
    if (size > 64U) {
 800842c:	2a40      	cmp	r2, #64	; 0x40
 800842e:	d929      	bls.n	8008484 <ibqReadTimeout.part.0+0xa0>
      memcpy(bp, ibqp->ptr, 64U);
 8008430:	462b      	mov	r3, r5
 8008432:	f101 0240 	add.w	r2, r1, #64	; 0x40
 8008436:	f851 0b04 	ldr.w	r0, [r1], #4
 800843a:	4291      	cmp	r1, r2
 800843c:	f843 0b04 	str.w	r0, [r3], #4
 8008440:	d1f9      	bne.n	8008436 <ibqReadTimeout.part.0+0x52>
      ibqp->ptr += 64U;
 8008442:	6aa3      	ldr	r3, [r4, #40]	; 0x28
      bp        += 64U;
 8008444:	3540      	adds	r5, #64	; 0x40
      ibqp->ptr += 64U;
 8008446:	3340      	adds	r3, #64	; 0x40
 8008448:	62a3      	str	r3, [r4, #40]	; 0x28
      r         += 64U;
 800844a:	3640      	adds	r6, #64	; 0x40
    if (ibqp->ptr >= ibqp->top) {
 800844c:	e9d4 230a 	ldrd	r2, r3, [r4, #40]	; 0x28
 8008450:	429a      	cmp	r2, r3
 8008452:	d302      	bcc.n	800845a <ibqReadTimeout.part.0+0x76>
      ibqReleaseEmptyBufferS(ibqp);
 8008454:	4620      	mov	r0, r4
 8008456:	f7ff f9b3 	bl	80077c0 <ibqReleaseEmptyBufferS>
    osalSysUnlock();
 800845a:	f7fd f9f3 	bl	8005844 <osalSysUnlock.lto_priv.0>
    if (r >= n) {
 800845e:	45b0      	cmp	r8, r6
 8008460:	d90c      	bls.n	800847c <ibqReadTimeout.part.0+0x98>
    osalSysLock();
 8008462:	f7fb febf 	bl	80041e4 <vPortEnterCritical>
  while (true) {
 8008466:	e7cf      	b.n	8008408 <ibqReadTimeout.part.0+0x24>
 8008468:	f7fb fe3c 	bl	80040e4 <vPortValidateInterruptPriority>
 800846c:	f8d9 1000 	ldr.w	r1, [r9]
        systime_t next_timeout = deadline - osalOsGetSystemTimeX();
 8008470:	ebaa 0101 	sub.w	r1, sl, r1
        if (next_timeout > timeout) {
 8008474:	428f      	cmp	r7, r1
 8008476:	d2cd      	bcs.n	8008414 <ibqReadTimeout.part.0+0x30>
        osalSysUnlock();
 8008478:	f7fd f9e4 	bl	8005844 <osalSysUnlock.lto_priv.0>
}
 800847c:	4630      	mov	r0, r6
 800847e:	b003      	add	sp, #12
 8008480:	e8bd 8ff0 	ldmia.w	sp!, {r4, r5, r6, r7, r8, r9, sl, fp, pc}
      memcpy(bp, ibqp->ptr, size);
 8008484:	4628      	mov	r0, r5
 8008486:	9201      	str	r2, [sp, #4]
 8008488:	f7fb fb1c 	bl	8003ac4 <memcpy>
      bp        += size;
 800848c:	9a01      	ldr	r2, [sp, #4]
      ibqp->ptr += size;
 800848e:	6aa3      	ldr	r3, [r4, #40]	; 0x28
      bp        += size;
 8008490:	4415      	add	r5, r2
      ibqp->ptr += size;
 8008492:	4413      	add	r3, r2
 8008494:	62a3      	str	r3, [r4, #40]	; 0x28
      r         += size;
 8008496:	4416      	add	r6, r2
 8008498:	e7d8      	b.n	800844c <ibqReadTimeout.part.0+0x68>
 800849a:	bf00      	nop
 800849c:	20001648 	.word	0x20001648

080084a0 <_read.lto_priv.1>:
static size_t _read(void *ip, uint8_t *bp, size_t n) {
 80084a0:	b510      	push	{r4, lr}
  osalDbgCheck(n > 0U);
 80084a2:	b912      	cbnz	r2, 80084aa <_read.lto_priv.1+0xa>
 80084a4:	f7fb ff4c 	bl	8004340 <vTaskEndScheduler>
 80084a8:	e7fe      	b.n	80084a8 <_read.lto_priv.1+0x8>
 80084aa:	f04f 33ff 	mov.w	r3, #4294967295	; 0xffffffff
}
 80084ae:	e8bd 4010 	ldmia.w	sp!, {r4, lr}
 80084b2:	3018      	adds	r0, #24
 80084b4:	f7ff bf96 	b.w	80083e4 <ibqReadTimeout.part.0>

080084b8 <_readt.lto_priv.1>:
static size_t _readt(void *ip, uint8_t *bp, size_t n, systime_t timeout) {
 80084b8:	b510      	push	{r4, lr}
 80084ba:	b912      	cbnz	r2, 80084c2 <_readt.lto_priv.1+0xa>
 80084bc:	f7fb ff40 	bl	8004340 <vTaskEndScheduler>
 80084c0:	e7fe      	b.n	80084c0 <_readt.lto_priv.1+0x8>
 80084c2:	3018      	adds	r0, #24
}
 80084c4:	e8bd 4010 	ldmia.w	sp!, {r4, lr}
 80084c8:	f7ff bf8c 	b.w	80083e4 <ibqReadTimeout.part.0>

080084cc <prvInitialiseNewTask.isra.0>:
 80084cc:	e92d 47f0 	stmdb	sp!, {r4, r5, r6, r7, r8, r9, sl, lr}
 80084d0:	460d      	mov	r5, r1
 80084d2:	e9dd 9808 	ldrd	r9, r8, [sp, #32]
 80084d6:	9c0a      	ldr	r4, [sp, #40]	; 0x28
 80084d8:	0096      	lsls	r6, r2, #2
 80084da:	4632      	mov	r2, r6
 80084dc:	21a5      	movs	r1, #165	; 0xa5
 80084de:	4607      	mov	r7, r0
 80084e0:	6b20      	ldr	r0, [r4, #48]	; 0x30
 80084e2:	469a      	mov	sl, r3
 80084e4:	f7fb fb64 	bl	8003bb0 <memset>
 80084e8:	6b22      	ldr	r2, [r4, #48]	; 0x30
 80084ea:	3e04      	subs	r6, #4
 80084ec:	4432      	add	r2, r6
 80084ee:	1e6b      	subs	r3, r5, #1
 80084f0:	f022 0207 	bic.w	r2, r2, #7
 80084f4:	f104 0134 	add.w	r1, r4, #52	; 0x34
 80084f8:	350f      	adds	r5, #15
 80084fa:	f813 0f01 	ldrb.w	r0, [r3, #1]!
 80084fe:	f801 0b01 	strb.w	r0, [r1], #1
 8008502:	7818      	ldrb	r0, [r3, #0]
 8008504:	b108      	cbz	r0, 800850a <prvInitialiseNewTask.isra.0+0x3e>
 8008506:	42ab      	cmp	r3, r5
 8008508:	d1f7      	bne.n	80084fa <prvInitialiseNewTask.isra.0+0x2e>
 800850a:	f1c9 0305 	rsb	r3, r9, #5
 800850e:	2100      	movs	r1, #0
 8008510:	61a3      	str	r3, [r4, #24]
 8008512:	f04f 7380 	mov.w	r3, #16777216	; 0x1000000
 8008516:	6621      	str	r1, [r4, #96]	; 0x60
 8008518:	e9c4 9113 	strd	r9, r1, [r4, #76]	; 0x4c
 800851c:	e9c4 1115 	strd	r1, r1, [r4, #84]	; 0x54
 8008520:	f884 1043 	strb.w	r1, [r4, #67]	; 0x43
 8008524:	f8c4 902c 	str.w	r9, [r4, #44]	; 0x2c
 8008528:	6161      	str	r1, [r4, #20]
 800852a:	62a1      	str	r1, [r4, #40]	; 0x28
 800852c:	6124      	str	r4, [r4, #16]
 800852e:	6264      	str	r4, [r4, #36]	; 0x24
 8008530:	65e1      	str	r1, [r4, #92]	; 0x5c
 8008532:	f884 1064 	strb.w	r1, [r4, #100]	; 0x64
 8008536:	f842 3c04 	str.w	r3, [r2, #-4]
 800853a:	4b0a      	ldr	r3, [pc, #40]	; (8008564 <prvInitialiseNewTask.isra.0+0x98>)
 800853c:	f027 0701 	bic.w	r7, r7, #1
 8008540:	f842 7c08 	str.w	r7, [r2, #-8]
 8008544:	f842 3c0c 	str.w	r3, [r2, #-12]
 8008548:	f842 ac20 	str.w	sl, [r2, #-32]
 800854c:	f842 1c44 	str.w	r1, [r2, #-68]
 8008550:	f842 1d48 	str.w	r1, [r2, #-72]!
 8008554:	6022      	str	r2, [r4, #0]
 8008556:	f1b8 0f00 	cmp.w	r8, #0
 800855a:	d001      	beq.n	8008560 <prvInitialiseNewTask.isra.0+0x94>
 800855c:	f8c8 4000 	str.w	r4, [r8]
 8008560:	e8bd 87f0 	ldmia.w	sp!, {r4, r5, r6, r7, r8, r9, sl, pc}
 8008564:	08004265 	.word	0x08004265

08008568 <xTaskCreate>:
 8008568:	e92d 43f0 	stmdb	sp!, {r4, r5, r6, r7, r8, r9, lr}
 800856c:	4607      	mov	r7, r0
 800856e:	b085      	sub	sp, #20
 8008570:	0090      	lsls	r0, r2, #2
 8008572:	4688      	mov	r8, r1
 8008574:	4616      	mov	r6, r2
 8008576:	4699      	mov	r9, r3
 8008578:	f7fc fe58 	bl	800522c <pvPortMalloc>
 800857c:	4605      	mov	r5, r0
 800857e:	b1e8      	cbz	r0, 80085bc <xTaskCreate+0x54>
 8008580:	2068      	movs	r0, #104	; 0x68
 8008582:	f7fc fe53 	bl	800522c <pvPortMalloc>
 8008586:	4604      	mov	r4, r0
 8008588:	b1a8      	cbz	r0, 80085b6 <xTaskCreate+0x4e>
 800858a:	2300      	movs	r3, #0
 800858c:	f880 3065 	strb.w	r3, [r0, #101]	; 0x65
 8008590:	9b0d      	ldr	r3, [sp, #52]	; 0x34
 8008592:	6305      	str	r5, [r0, #48]	; 0x30
 8008594:	9301      	str	r3, [sp, #4]
 8008596:	9b0c      	ldr	r3, [sp, #48]	; 0x30
 8008598:	4632      	mov	r2, r6
 800859a:	4641      	mov	r1, r8
 800859c:	9002      	str	r0, [sp, #8]
 800859e:	9300      	str	r3, [sp, #0]
 80085a0:	4638      	mov	r0, r7
 80085a2:	464b      	mov	r3, r9
 80085a4:	f7ff ff92 	bl	80084cc <prvInitialiseNewTask.isra.0>
 80085a8:	4620      	mov	r0, r4
 80085aa:	f7fc fb0d 	bl	8004bc8 <prvAddNewTaskToReadyList>
 80085ae:	2001      	movs	r0, #1
 80085b0:	b005      	add	sp, #20
 80085b2:	e8bd 83f0 	ldmia.w	sp!, {r4, r5, r6, r7, r8, r9, pc}
 80085b6:	4628      	mov	r0, r5
 80085b8:	f7fc fd8c 	bl	80050d4 <vPortFree>
 80085bc:	f04f 30ff 	mov.w	r0, #4294967295	; 0xffffffff
 80085c0:	e7f6      	b.n	80085b0 <xTaskCreate+0x48>
	...

080085c4 <shellStart.constprop.0>:
    syslog("Shell 0x%08x started (%s).", activeShell, activeShell->taskName);

    shellThread(&activeShell->shellCfg);
}

bool shellStart(BaseSequentialStream* stream,
 80085c4:	e92d 41f3 	stmdb	sp!, {r0, r1, r4, r5, r6, r7, r8, lr}
 80085c8:	4606      	mov	r6, r0
                unsigned int histSize, const char* taskName,
                void(*terminateCallback)(void* param), void* param)
{
    ActiveShell* activeShell = pvPortMalloc(sizeof(ActiveShell));
 80085ca:	2020      	movs	r0, #32
bool shellStart(BaseSequentialStream* stream,
 80085cc:	460d      	mov	r5, r1
 80085ce:	4690      	mov	r8, r2
    ActiveShell* activeShell = pvPortMalloc(sizeof(ActiveShell));
 80085d0:	f7fc fe2c 	bl	800522c <pvPortMalloc>
 80085d4:	2700      	movs	r7, #0
    if(!activeShell) {
 80085d6:	4604      	mov	r4, r0
 80085d8:	b318      	cbz	r0, 8008622 <shellStart.constprop.0+0x5e>
        return false;
    }

    memset(activeShell, 0, sizeof(*activeShell));
 80085da:	2220      	movs	r2, #32
 80085dc:	4639      	mov	r1, r7
 80085de:	f7fb fae7 	bl	8003bb0 <memset>

    activeShell->param = param;
    activeShell->terminateCallback = terminateCallback;

    activeShell->shellCfg.sc_channel = stream;
    activeShell->shellCfg.sc_commands = shellCommands;
 80085e2:	4b11      	ldr	r3, [pc, #68]	; (8008628 <shellStart.constprop.0+0x64>)

    if(histSize) {
        activeShell->shellCfg.sc_histbuf = pvPortMalloc(histSize);
 80085e4:	2080      	movs	r0, #128	; 0x80
    activeShell->terminateCallback = terminateCallback;
 80085e6:	e9c4 8706 	strd	r8, r7, [r4, #24]
    activeShell->shellCfg.sc_channel = stream;
 80085ea:	6066      	str	r6, [r4, #4]
    activeShell->shellCfg.sc_commands = shellCommands;
 80085ec:	60a3      	str	r3, [r4, #8]
        activeShell->shellCfg.sc_histbuf = pvPortMalloc(histSize);
 80085ee:	f7fc fe1d 	bl	800522c <pvPortMalloc>
 80085f2:	60e0      	str	r0, [r4, #12]
        if(activeShell->shellCfg.sc_histbuf) {
 80085f4:	b138      	cbz	r0, 8008606 <shellStart.constprop.0+0x42>
            memset(activeShell->shellCfg.sc_histbuf, 0, histSize);
 80085f6:	f04f 0880 	mov.w	r8, #128	; 0x80
 80085fa:	4639      	mov	r1, r7
 80085fc:	4642      	mov	r2, r8
 80085fe:	f7fb fad7 	bl	8003bb0 <memset>
            activeShell->shellCfg.sc_histsize = histSize;
 8008602:	f8c4 8010 	str.w	r8, [r4, #16]
        }
    }

    activeShell->stream = stream;
    activeShell->taskName = taskName;
    xTaskCreate(shellStartThread, taskName, 256, activeShell, 2, NULL);
 8008606:	2302      	movs	r3, #2
 8008608:	2200      	movs	r2, #0
    activeShell->stream = stream;
 800860a:	6166      	str	r6, [r4, #20]
    activeShell->taskName = taskName;
 800860c:	6025      	str	r5, [r4, #0]
    xTaskCreate(shellStartThread, taskName, 256, activeShell, 2, NULL);
 800860e:	4629      	mov	r1, r5
 8008610:	e9cd 3200 	strd	r3, r2, [sp]
 8008614:	4805      	ldr	r0, [pc, #20]	; (800862c <shellStart.constprop.0+0x68>)
 8008616:	4623      	mov	r3, r4
 8008618:	f44f 7280 	mov.w	r2, #256	; 0x100
 800861c:	f7ff ffa4 	bl	8008568 <xTaskCreate>

    return true;
 8008620:	2001      	movs	r0, #1
}
 8008622:	b002      	add	sp, #8
 8008624:	e8bd 81f0 	ldmia.w	sp!, {r4, r5, r6, r7, r8, pc}
 8008628:	2000085c 	.word	0x2000085c
 800862c:	0800aed1 	.word	0x0800aed1

08008630 <get_history>:
    shp->sh_end -= shp->sh_size;
  *(shp->sh_buffer + shp->sh_end) = 0;
  shp->sh_cur = 0;
}

static int get_history(ShellHistory *shp, char *line, int dir) {
 8008630:	e92d 41f0 	stmdb	sp!, {r4, r5, r6, r7, r8, lr}
  if (shp == NULL)
    return -1;

  /* Count the number of lines saved in the buffer */
  int idx = shp->sh_beg;
  while (idx != shp->sh_end) {
 8008634:	e9d0 5602 	ldrd	r5, r6, [r0, #8]
static int get_history(ShellHistory *shp, char *line, int dir) {
 8008638:	4604      	mov	r4, r0
 800863a:	4688      	mov	r8, r1
  int idx = shp->sh_beg;
 800863c:	4628      	mov	r0, r5
  int count=0;
 800863e:	2100      	movs	r1, #0
  while (idx != shp->sh_end) {
 8008640:	4286      	cmp	r6, r0
 8008642:	d12a      	bne.n	800869a <get_history+0x6a>
    if (idx >= shp->sh_size)
      idx -= shp->sh_size;
    count++;
  }

  if (dir == SHELL_HIST_DIR_FW) {
 8008644:	2a01      	cmp	r2, #1
 8008646:	d104      	bne.n	8008652 <get_history+0x22>
 8008648:	6923      	ldr	r3, [r4, #16]
    if (shp->sh_cur > 0)
 800864a:	2b00      	cmp	r3, #0
 800864c:	dd48      	ble.n	80086e0 <get_history+0xb0>
      shp->sh_cur -= 2;
 800864e:	3b02      	subs	r3, #2
 8008650:	6123      	str	r3, [r4, #16]
    else
      return 0;
  }

  if (count >= shp->sh_cur) {
 8008652:	6923      	ldr	r3, [r4, #16]
 8008654:	428b      	cmp	r3, r1
 8008656:	dc45      	bgt.n	80086e4 <get_history+0xb4>
 8008658:	f8d4 c000 	ldr.w	ip, [r4]
 800865c:	3901      	subs	r1, #1
    idx = shp->sh_beg;
    int i = 0;
    while (idx != shp->sh_end && shp->sh_cur != (count - i - 1)) {
 800865e:	f81c 7005 	ldrb.w	r7, [ip, r5]
 8008662:	42a8      	cmp	r0, r5
 8008664:	463e      	mov	r6, r7
 8008666:	d001      	beq.n	800866c <get_history+0x3c>
 8008668:	428b      	cmp	r3, r1
 800866a:	d120      	bne.n	80086ae <get_history+0x7e>
      i++;
    }

    int length = *(shp->sh_buffer + idx);

    if (length > 0) {
 800866c:	b39f      	cbz	r7, 80086d6 <get_history+0xa6>
      shp->sh_cur++;
 800866e:	3301      	adds	r3, #1

      memset(line, 0, SHELL_MAX_LINE_LENGTH);
 8008670:	2240      	movs	r2, #64	; 0x40
 8008672:	2100      	movs	r1, #0
      shp->sh_cur++;
 8008674:	6123      	str	r3, [r4, #16]
      memset(line, 0, SHELL_MAX_LINE_LENGTH);
 8008676:	4640      	mov	r0, r8
 8008678:	f7fb fa9a 	bl	8003bb0 <memset>
      if ((idx + length) < shp->sh_size) {
 800867c:	6863      	ldr	r3, [r4, #4]
 800867e:	19ea      	adds	r2, r5, r7
 8008680:	429a      	cmp	r2, r3
 8008682:	6820      	ldr	r0, [r4, #0]
 8008684:	f105 0101 	add.w	r1, r5, #1
 8008688:	da19      	bge.n	80086be <get_history+0x8e>
        memcpy(line, (shp->sh_buffer + idx + 1), length);
 800868a:	4401      	add	r1, r0
 800868c:	463a      	mov	r2, r7
 800868e:	4640      	mov	r0, r8
         * Since the saved line was split at the end of the buffer,
         * get the line in two parts.
         */
        int part_len = shp->sh_size - idx - 1;
        memcpy(line, shp->sh_buffer + idx + 1, part_len);
        memcpy(line + part_len, shp->sh_buffer, length - part_len);
 8008690:	f7fb fa18 	bl	8003ac4 <memcpy>
      shp->sh_cur++;
      return 0;
    }
  }
  return -1;
}
 8008694:	4630      	mov	r0, r6
 8008696:	e8bd 81f0 	ldmia.w	sp!, {r4, r5, r6, r7, r8, pc}
    idx += *(shp->sh_buffer + idx) + 1;
 800869a:	6823      	ldr	r3, [r4, #0]
    count++;
 800869c:	3101      	adds	r1, #1
    idx += *(shp->sh_buffer + idx) + 1;
 800869e:	5c1b      	ldrb	r3, [r3, r0]
 80086a0:	3301      	adds	r3, #1
 80086a2:	4418      	add	r0, r3
    if (idx >= shp->sh_size)
 80086a4:	6863      	ldr	r3, [r4, #4]
 80086a6:	4283      	cmp	r3, r0
      idx -= shp->sh_size;
 80086a8:	bfd8      	it	le
 80086aa:	1ac0      	suble	r0, r0, r3
    count++;
 80086ac:	e7c8      	b.n	8008640 <get_history+0x10>
      if (idx >= shp->sh_size)
 80086ae:	6866      	ldr	r6, [r4, #4]
      idx += *(shp->sh_buffer + idx) + 1;
 80086b0:	3701      	adds	r7, #1
 80086b2:	443d      	add	r5, r7
      if (idx >= shp->sh_size)
 80086b4:	42ae      	cmp	r6, r5
        idx -= shp->sh_size;
 80086b6:	bfd8      	it	le
 80086b8:	1bad      	suble	r5, r5, r6
      i++;
 80086ba:	3901      	subs	r1, #1
 80086bc:	e7cf      	b.n	800865e <get_history+0x2e>
        int part_len = shp->sh_size - idx - 1;
 80086be:	1b5d      	subs	r5, r3, r5
 80086c0:	3d01      	subs	r5, #1
        memcpy(line, shp->sh_buffer + idx + 1, part_len);
 80086c2:	4401      	add	r1, r0
 80086c4:	462a      	mov	r2, r5
 80086c6:	4640      	mov	r0, r8
 80086c8:	f7fb f9fc 	bl	8003ac4 <memcpy>
        memcpy(line + part_len, shp->sh_buffer, length - part_len);
 80086cc:	6821      	ldr	r1, [r4, #0]
 80086ce:	1b7a      	subs	r2, r7, r5
 80086d0:	eb08 0005 	add.w	r0, r8, r5
 80086d4:	e7dc      	b.n	8008690 <get_history+0x60>
    else if (dir == SHELL_HIST_DIR_FW) {
 80086d6:	2a01      	cmp	r2, #1
 80086d8:	d104      	bne.n	80086e4 <get_history+0xb4>
      shp->sh_cur++;
 80086da:	3301      	adds	r3, #1
 80086dc:	6123      	str	r3, [r4, #16]
      return 0;
 80086de:	e7d9      	b.n	8008694 <get_history+0x64>
      return 0;
 80086e0:	2600      	movs	r6, #0
 80086e2:	e7d7      	b.n	8008694 <get_history+0x64>
  return -1;
 80086e4:	f04f 36ff 	mov.w	r6, #4294967295	; 0xffffffff
 80086e8:	e7d4      	b.n	8008694 <get_history+0x64>

080086ea <usbInitEndpointI>:
                      const USBEndpointConfig *epcp) {
 80086ea:	b570      	push	{r4, r5, r6, lr}
 80086ec:	4604      	mov	r4, r0
 80086ee:	460e      	mov	r6, r1
 80086f0:	4615      	mov	r5, r2
	__asm volatile( "mrs %0, basepri" : "=r"( ulBasePri ) );
 80086f2:	f3ef 8311 	mrs	r3, BASEPRI
	return (ulBasePri > 0)? pdTRUE : pdFALSE;
 80086f6:	b11b      	cbz	r3, 8008700 <usbInitEndpointI+0x16>
  osalDbgCheck((usbp != NULL) && (epcp != NULL));
 80086f8:	b928      	cbnz	r0, 8008706 <usbInitEndpointI+0x1c>
 80086fa:	f7fb fe21 	bl	8004340 <vTaskEndScheduler>
 80086fe:	e7fe      	b.n	80086fe <usbInitEndpointI+0x14>
  osalDbgCheckClassI();
 8008700:	f7fb fe1e 	bl	8004340 <vTaskEndScheduler>
 8008704:	e7fe      	b.n	8008704 <usbInitEndpointI+0x1a>
  osalDbgAssert(usbp->state == USB_ACTIVE,
 8008706:	7803      	ldrb	r3, [r0, #0]
 8008708:	2b04      	cmp	r3, #4
 800870a:	d002      	beq.n	8008712 <usbInitEndpointI+0x28>
 800870c:	f7fb fe18 	bl	8004340 <vTaskEndScheduler>
 8008710:	e7fe      	b.n	8008710 <usbInitEndpointI+0x26>
  osalDbgAssert(usbp->epc[ep] == NULL, "already initialized");
 8008712:	eb00 0381 	add.w	r3, r0, r1, lsl #2
 8008716:	68d9      	ldr	r1, [r3, #12]
 8008718:	b111      	cbz	r1, 8008720 <usbInitEndpointI+0x36>
 800871a:	f7fb fe11 	bl	8004340 <vTaskEndScheduler>
 800871e:	e7fe      	b.n	800871e <usbInitEndpointI+0x34>
  if (epcp->in_state != NULL) {
 8008720:	6950      	ldr	r0, [r2, #20]
  usbp->epc[ep] = epcp;
 8008722:	60da      	str	r2, [r3, #12]
  if (epcp->in_state != NULL) {
 8008724:	b110      	cbz	r0, 800872c <usbInitEndpointI+0x42>
    memset(epcp->in_state, 0, sizeof(USBInEndpointState));
 8008726:	2210      	movs	r2, #16
 8008728:	f7fb fa42 	bl	8003bb0 <memset>
  if (epcp->out_state != NULL) {
 800872c:	69a8      	ldr	r0, [r5, #24]
 800872e:	b118      	cbz	r0, 8008738 <usbInitEndpointI+0x4e>
    memset(epcp->out_state, 0, sizeof(USBOutEndpointState));
 8008730:	2210      	movs	r2, #16
 8008732:	2100      	movs	r1, #0
 8008734:	f7fb fa3c 	bl	8003bb0 <memset>
  usb_lld_init_endpoint(usbp, ep);
 8008738:	4631      	mov	r1, r6
 800873a:	4620      	mov	r0, r4
}
 800873c:	e8bd 4070 	ldmia.w	sp!, {r4, r5, r6, lr}
  usb_lld_init_endpoint(usbp, ep);
 8008740:	f7fd bcce 	b.w	80060e0 <usb_lld_init_endpoint>

08008744 <cmdexec>:
                      char *name, int argc, char *argv[]) {
 8008744:	e92d 41f0 	stmdb	sp!, {r4, r5, r6, r7, r8, lr}
 8008748:	4605      	mov	r5, r0
 800874a:	460e      	mov	r6, r1
 800874c:	4617      	mov	r7, r2
 800874e:	4698      	mov	r8, r3
  while (scp->sc_name != NULL) {
 8008750:	6828      	ldr	r0, [r5, #0]
 8008752:	b908      	cbnz	r0, 8008758 <cmdexec+0x14>
  return true;
 8008754:	2001      	movs	r0, #1
 8008756:	e00b      	b.n	8008770 <cmdexec+0x2c>
    if (strcmp(scp->sc_name, name) == 0) {
 8008758:	4639      	mov	r1, r7
 800875a:	f7fb fadd 	bl	8003d18 <strcmp>
 800875e:	4604      	mov	r4, r0
 8008760:	b940      	cbnz	r0, 8008774 <cmdexec+0x30>
      scp->sc_function(scp->sc_user, chp, argc, argv);
 8008762:	68a8      	ldr	r0, [r5, #8]
 8008764:	4642      	mov	r2, r8
 8008766:	4631      	mov	r1, r6
 8008768:	686f      	ldr	r7, [r5, #4]
 800876a:	9b06      	ldr	r3, [sp, #24]
 800876c:	47b8      	blx	r7
      return false;
 800876e:	4620      	mov	r0, r4
}
 8008770:	e8bd 81f0 	ldmia.w	sp!, {r4, r5, r6, r7, r8, pc}
    scp++;
 8008774:	350c      	adds	r5, #12
 8008776:	e7eb      	b.n	8008750 <cmdexec+0xc>

08008778 <printfFixed>:
{
 8008778:	b40c      	push	{r2, r3}
 800877a:	e92d 41f3 	stmdb	sp!, {r0, r1, r4, r5, r6, r7, r8, lr}
 800877e:	aa08      	add	r2, sp, #32
 8008780:	460c      	mov	r4, r1
 8008782:	f852 1b04 	ldr.w	r1, [r2], #4
 8008786:	4606      	mov	r6, r0
    va_start(args, format);
 8008788:	9201      	str	r2, [sp, #4]
    int result = chvprintf(chn, format, args);
 800878a:	f7fd fb43 	bl	8005e14 <chvprintf>
 800878e:	4605      	mov	r5, r0
 8008790:	4607      	mov	r7, r0
        chnWrite(chn, (unsigned char*)" ", 1);
 8008792:	f8df 8028 	ldr.w	r8, [pc, #40]	; 80087bc <printfFixed+0x44>
    for(; result<minLength; result++) {
 8008796:	42a7      	cmp	r7, r4
 8008798:	db08      	blt.n	80087ac <printfFixed+0x34>
}
 800879a:	42a5      	cmp	r5, r4
 800879c:	4628      	mov	r0, r5
 800879e:	bfb8      	it	lt
 80087a0:	4620      	movlt	r0, r4
 80087a2:	b002      	add	sp, #8
 80087a4:	e8bd 41f0 	ldmia.w	sp!, {r4, r5, r6, r7, r8, lr}
 80087a8:	b002      	add	sp, #8
 80087aa:	4770      	bx	lr
        chnWrite(chn, (unsigned char*)" ", 1);
 80087ac:	6833      	ldr	r3, [r6, #0]
 80087ae:	2201      	movs	r2, #1
 80087b0:	4641      	mov	r1, r8
 80087b2:	4630      	mov	r0, r6
 80087b4:	681b      	ldr	r3, [r3, #0]
 80087b6:	4798      	blx	r3
    for(; result<minLength; result++) {
 80087b8:	3701      	adds	r7, #1
 80087ba:	e7ec      	b.n	8008796 <printfFixed+0x1e>
 80087bc:	0800c4ca 	.word	0x0800c4ca

080087c0 <chprintf>:
 * @param[in] chp       pointer to a @p BaseSequentialStream implementing object
 * @param[in] fmt       formatting string
 *
 * @api
 */
int chprintf(BaseSequentialStream *chp, const char *fmt, ...) {
 80087c0:	b40e      	push	{r1, r2, r3}
 80087c2:	b503      	push	{r0, r1, lr}
 80087c4:	aa03      	add	r2, sp, #12
 80087c6:	f852 1b04 	ldr.w	r1, [r2], #4
  va_list ap;
  int formatted_bytes;

  va_start(ap, fmt);
 80087ca:	9201      	str	r2, [sp, #4]
  formatted_bytes = chvprintf(chp, fmt, ap);
 80087cc:	f7fd fb22 	bl	8005e14 <chvprintf>
  va_end(ap);

  return formatted_bytes;
}
 80087d0:	b002      	add	sp, #8
 80087d2:	f85d eb04 	ldr.w	lr, [sp], #4
 80087d6:	b003      	add	sp, #12
 80087d8:	4770      	bx	lr
	...

080087dc <prvIdleTask>:
 80087dc:	b580      	push	{r7, lr}
 80087de:	f8df a2bc 	ldr.w	sl, [pc, #700]	; 8008a9c <prvIdleTask+0x2c0>
 80087e2:	4c95      	ldr	r4, [pc, #596]	; (8008a38 <prvIdleTask+0x25c>)
 80087e4:	4e95      	ldr	r6, [pc, #596]	; (8008a3c <prvIdleTask+0x260>)
 80087e6:	4f96      	ldr	r7, [pc, #600]	; (8008a40 <prvIdleTask+0x264>)
 80087e8:	6833      	ldr	r3, [r6, #0]
 80087ea:	2b00      	cmp	r3, #0
 80087ec:	d16f      	bne.n	80088ce <prvIdleTask+0xf2>
 80087ee:	4b95      	ldr	r3, [pc, #596]	; (8008a44 <prvIdleTask+0x268>)
 80087f0:	681b      	ldr	r3, [r3, #0]
 80087f2:	2b01      	cmp	r3, #1
 80087f4:	d913      	bls.n	800881e <prvIdleTask+0x42>
 80087f6:	4b94      	ldr	r3, [pc, #592]	; (8008a48 <prvIdleTask+0x26c>)
 80087f8:	6822      	ldr	r2, [r4, #0]
 80087fa:	601a      	str	r2, [r3, #0]
 80087fc:	4b93      	ldr	r3, [pc, #588]	; (8008a4c <prvIdleTask+0x270>)
 80087fe:	681b      	ldr	r3, [r3, #0]
 8008800:	b12b      	cbz	r3, 800880e <prvIdleTask+0x32>
 8008802:	6823      	ldr	r3, [r4, #0]
 8008804:	f423 037f 	bic.w	r3, r3, #16711680	; 0xff0000
 8008808:	6023      	str	r3, [r4, #0]
 800880a:	6823      	ldr	r3, [r4, #0]
 800880c:	6023      	str	r3, [r4, #0]
 800880e:	f04f 5280 	mov.w	r2, #268435456	; 0x10000000
 8008812:	4b8f      	ldr	r3, [pc, #572]	; (8008a50 <prvIdleTask+0x274>)
 8008814:	601a      	str	r2, [r3, #0]
 8008816:	f3bf 8f4f 	dsb	sy
 800881a:	f3bf 8f6f 	isb	sy
    /*
     * Some events may happen from IRQs with unknown priority (possibly above kernel),
     * so they are written to a buffer (one entry only) and added to the syslog in
     * the IDLE thread.
     */
    if(__atomic_load_n(&syslogISRHasSomething, __ATOMIC_ACQUIRE)) {
 800881e:	f8df 8280 	ldr.w	r8, [pc, #640]	; 8008aa0 <prvIdleTask+0x2c4>
 8008822:	f898 3000 	ldrb.w	r3, [r8]
 8008826:	f3bf 8f5b 	dmb	ish
 800882a:	b373      	cbz	r3, 800888a <prvIdleTask+0xae>
        if(xSemaphoreTake(syslogSemaphore, 0)) {
 800882c:	f8df 9274 	ldr.w	r9, [pc, #628]	; 8008aa4 <prvIdleTask+0x2c8>
 8008830:	2100      	movs	r1, #0
 8008832:	f8d9 0000 	ldr.w	r0, [r9]
 8008836:	f7fc fab9 	bl	8004dac <xQueueSemaphoreTake>
 800883a:	b330      	cbz	r0, 800888a <prvIdleTask+0xae>
    queue->pktLen = 0;
 800883c:	2600      	movs	r6, #0
    queue->lenHeaderStart = queue->writePtr;
 800883e:	4f85      	ldr	r7, [pc, #532]	; (8008a54 <prvIdleTask+0x278>)
    packetQueueWriteByte(queue, 0x00);
 8008840:	2000      	movs	r0, #0
    queue->lenHeaderStart = queue->writePtr;
 8008842:	693b      	ldr	r3, [r7, #16]
 8008844:	61fb      	str	r3, [r7, #28]
    packetQueueWriteByte(queue, 0x00);
 8008846:	f7fb fc05 	bl	8004054 <packetQueueWriteByte.constprop.0>
    packetQueueWriteByte(queue, 0x00);
 800884a:	2000      	movs	r0, #0
 800884c:	f7fb fc02 	bl	8004054 <packetQueueWriteByte.constprop.0>
    queue->pktLen = 0;
 8008850:	61be      	str	r6, [r7, #24]
 8008852:	f7fb fc47 	bl	80040e4 <vPortValidateInterruptPriority>
 8008856:	4b80      	ldr	r3, [pc, #512]	; (8008a58 <prvIdleTask+0x27c>)
            packetQueueStartWritePacket(&syslogQueue);
            chprintf((BaseSequentialStream*)&syslogStream, "[%-11u] {ISR} ", osalOsGetSystemTimeX());
            syslogISRBuffer[sizeof(syslogISRBuffer)-1] = 0;
 8008858:	4f80      	ldr	r7, [pc, #512]	; (8008a5c <prvIdleTask+0x280>)
 800885a:	681a      	ldr	r2, [r3, #0]
            chprintf((BaseSequentialStream*)&syslogStream, "[%-11u] {ISR} ", osalOsGetSystemTimeX());
 800885c:	4980      	ldr	r1, [pc, #512]	; (8008a60 <prvIdleTask+0x284>)
 800885e:	4881      	ldr	r0, [pc, #516]	; (8008a64 <prvIdleTask+0x288>)
 8008860:	f7ff ffae 	bl	80087c0 <chprintf>
            packetQueuePutBytes(&syslogQueue, (uint8_t*)syslogISRBuffer, strlen(syslogISRBuffer));
 8008864:	4638      	mov	r0, r7
            syslogISRBuffer[sizeof(syslogISRBuffer)-1] = 0;
 8008866:	f887 603f 	strb.w	r6, [r7, #63]	; 0x3f
            packetQueuePutBytes(&syslogQueue, (uint8_t*)syslogISRBuffer, strlen(syslogISRBuffer));
 800886a:	f7fb fb33 	bl	8003ed4 <strlen>
 800886e:	b281      	uxth	r1, r0
 8008870:	4638      	mov	r0, r7
 8008872:	f7fb fc1d 	bl	80040b0 <packetQueuePutBytes.constprop.0>
            packetQueueEndWritePacket(&syslogQueue);
 8008876:	f7fb fbb5 	bl	8003fe4 <packetQueueEndWritePacket.constprop.0>
            xSemaphoreGive(syslogSemaphore);
 800887a:	f8d9 0000 	ldr.w	r0, [r9]
 800887e:	f7ff fbb5 	bl	8007fec <xQueueGenericSend.constprop.0>

            __atomic_clear(&syslogISRHasSomething, __ATOMIC_RELEASE);
 8008882:	f3bf 8f5b 	dmb	ish
 8008886:	f888 6000 	strb.w	r6, [r8]

void vApplicationIdleHook(void)
{
    syslogIdleHook();

    if(usbConnectState && !usbShellIsUp) {
 800888a:	4b77      	ldr	r3, [pc, #476]	; (8008a68 <prvIdleTask+0x28c>)
 800888c:	781b      	ldrb	r3, [r3, #0]
 800888e:	b18b      	cbz	r3, 80088b4 <prvIdleTask+0xd8>
 8008890:	4e76      	ldr	r6, [pc, #472]	; (8008a6c <prvIdleTask+0x290>)
 8008892:	7833      	ldrb	r3, [r6, #0]
 8008894:	f003 01ff 	and.w	r1, r3, #255	; 0xff
 8008898:	b963      	cbnz	r3, 80088b4 <prvIdleTask+0xd8>
        usbShellIsUp = true;
 800889a:	2301      	movs	r3, #1
        /*
         * Setting the pin from the idle hook requires a non-blocking
         * GPIO driver. In practice this means almost always a native
         * CPU pin.
         */
        gpioSetPin(GPIO_LED_USB, false);
 800889c:	f240 1003 	movw	r0, #259	; 0x103
        usbShellIsUp = true;
 80088a0:	7033      	strb	r3, [r6, #0]
        gpioSetPin(GPIO_LED_USB, false);
 80088a2:	f7fc fe93 	bl	80055cc <gpioSetPin>

        /* Try to start the shell */
        if(!shellStart((BaseSequentialStream*)&SDU1, 128, "ShellUSB", usbShellTerminated, NULL)) {
 80088a6:	4a72      	ldr	r2, [pc, #456]	; (8008a70 <prvIdleTask+0x294>)
 80088a8:	4972      	ldr	r1, [pc, #456]	; (8008a74 <prvIdleTask+0x298>)
 80088aa:	4873      	ldr	r0, [pc, #460]	; (8008a78 <prvIdleTask+0x29c>)
 80088ac:	f7ff fe8a 	bl	80085c4 <shellStart.constprop.0>
 80088b0:	b900      	cbnz	r0, 80088b4 <prvIdleTask+0xd8>
            /* We are very low on memory. This will keep trying, but priority is IDLE */
            usbShellIsUp = false;
 80088b2:	7030      	strb	r0, [r6, #0]
 80088b4:	f7fb fd1e 	bl	80042f4 <prvGetExpectedIdleTime>
 80088b8:	2801      	cmp	r0, #1
 80088ba:	d993      	bls.n	80087e4 <prvIdleTask+0x8>
 80088bc:	f7fb fd38 	bl	8004330 <vTaskSuspendAll>
 80088c0:	4e6e      	ldr	r6, [pc, #440]	; (8008a7c <prvIdleTask+0x2a0>)
 80088c2:	4965      	ldr	r1, [pc, #404]	; (8008a58 <prvIdleTask+0x27c>)
 80088c4:	6832      	ldr	r2, [r6, #0]
 80088c6:	680b      	ldr	r3, [r1, #0]
 80088c8:	429a      	cmp	r2, r3
 80088ca:	d216      	bcs.n	80088fa <prvIdleTask+0x11e>
 80088cc:	e7fe      	b.n	80088cc <prvIdleTask+0xf0>
 80088ce:	f7fb fc89 	bl	80041e4 <vPortEnterCritical>
 80088d2:	f8da 300c 	ldr.w	r3, [sl, #12]
 80088d6:	f8d3 800c 	ldr.w	r8, [r3, #12]
 80088da:	f108 0004 	add.w	r0, r8, #4
 80088de:	f7fb fd87 	bl	80043f0 <uxListRemove>
 80088e2:	683b      	ldr	r3, [r7, #0]
 80088e4:	3b01      	subs	r3, #1
 80088e6:	603b      	str	r3, [r7, #0]
 80088e8:	6833      	ldr	r3, [r6, #0]
 80088ea:	3b01      	subs	r3, #1
 80088ec:	6033      	str	r3, [r6, #0]
 80088ee:	f7fb fc6d 	bl	80041cc <vPortExitCritical>
 80088f2:	4640      	mov	r0, r8
 80088f4:	f7fc fc14 	bl	8005120 <prvDeleteTCB>
 80088f8:	e776      	b.n	80087e8 <prvIdleTask+0xc>
 80088fa:	f7fb fcfb 	bl	80042f4 <prvGetExpectedIdleTime>
 80088fe:	2801      	cmp	r0, #1
 8008900:	d97b      	bls.n	80089fa <prvIdleTask+0x21e>
 8008902:	4b5f      	ldr	r3, [pc, #380]	; (8008a80 <prvIdleTask+0x2a4>)
 8008904:	4a5f      	ldr	r2, [pc, #380]	; (8008a84 <prvIdleTask+0x2a8>)
 8008906:	681b      	ldr	r3, [r3, #0]
 8008908:	4f5f      	ldr	r7, [pc, #380]	; (8008a88 <prvIdleTask+0x2ac>)
 800890a:	4298      	cmp	r0, r3
 800890c:	bf28      	it	cs
 800890e:	4618      	movcs	r0, r3
 8008910:	6813      	ldr	r3, [r2, #0]
 8008912:	f8df e194 	ldr.w	lr, [pc, #404]	; 8008aa8 <prvIdleTask+0x2cc>
 8008916:	f023 0301 	bic.w	r3, r3, #1
 800891a:	6013      	str	r3, [r2, #0]
 800891c:	4b5b      	ldr	r3, [pc, #364]	; (8008a8c <prvIdleTask+0x2b0>)
 800891e:	683d      	ldr	r5, [r7, #0]
 8008920:	681b      	ldr	r3, [r3, #0]
 8008922:	1e42      	subs	r2, r0, #1
 8008924:	fb05 3c02 	mla	ip, r5, r2, r3
 8008928:	f8de 3000 	ldr.w	r3, [lr]
 800892c:	459c      	cmp	ip, r3
 800892e:	bf88      	it	hi
 8008930:	ebac 0c03 	subhi.w	ip, ip, r3
 8008934:	b672      	cpsid	i
 8008936:	f3bf 8f4f 	dsb	sy
 800893a:	f3bf 8f6f 	isb	sy
 800893e:	4b54      	ldr	r3, [pc, #336]	; (8008a90 <prvIdleTask+0x2b4>)
 8008940:	681b      	ldr	r3, [r3, #0]
 8008942:	2b00      	cmp	r3, #0
 8008944:	d14c      	bne.n	80089e0 <prvIdleTask+0x204>
 8008946:	4b53      	ldr	r3, [pc, #332]	; (8008a94 <prvIdleTask+0x2b8>)
 8008948:	681b      	ldr	r3, [r3, #0]
 800894a:	2b00      	cmp	r3, #0
 800894c:	d148      	bne.n	80089e0 <prvIdleTask+0x204>
 800894e:	f8df 815c 	ldr.w	r8, [pc, #348]	; 8008aac <prvIdleTask+0x2d0>
 8008952:	f8d8 8000 	ldr.w	r8, [r8]
 8008956:	f8df 80e8 	ldr.w	r8, [pc, #232]	; 8008a40 <prvIdleTask+0x264>
 800895a:	f8d8 8000 	ldr.w	r8, [r8]
 800895e:	f8df 8138 	ldr.w	r8, [pc, #312]	; 8008a98 <prvIdleTask+0x2bc>
 8008962:	f8c8 c000 	str.w	ip, [r8]
 8008966:	f8c8 3004 	str.w	r3, [r8, #4]
 800896a:	f858 3c04 	ldr.w	r3, [r8, #-4]
 800896e:	f043 0301 	orr.w	r3, r3, #1
 8008972:	f848 3c04 	str.w	r3, [r8, #-4]
 8008976:	2800      	cmp	r0, #0
 8008978:	d142      	bne.n	8008a00 <prvIdleTask+0x224>
 800897a:	b662      	cpsie	i
 800897c:	f3bf 8f4f 	dsb	sy
 8008980:	f3bf 8f6f 	isb	sy
 8008984:	b672      	cpsid	i
 8008986:	f3bf 8f4f 	dsb	sy
 800898a:	f3bf 8f6f 	isb	sy
 800898e:	f04f 0802 	mov.w	r8, #2
 8008992:	4b3c      	ldr	r3, [pc, #240]	; (8008a84 <prvIdleTask+0x2a8>)
 8008994:	f8c3 8000 	str.w	r8, [r3]
 8008998:	681b      	ldr	r3, [r3, #0]
 800899a:	f8df 80f0 	ldr.w	r8, [pc, #240]	; 8008a8c <prvIdleTask+0x2b0>
 800899e:	f413 3f80 	tst.w	r3, #65536	; 0x10000
 80089a2:	d033      	beq.n	8008a0c <prvIdleTask+0x230>
 80089a4:	6838      	ldr	r0, [r7, #0]
 80089a6:	f8d8 3000 	ldr.w	r3, [r8]
 80089aa:	4403      	add	r3, r0
 80089ac:	3b01      	subs	r3, #1
 80089ae:	eba3 030c 	sub.w	r3, r3, ip
 80089b2:	f8de c000 	ldr.w	ip, [lr]
 80089b6:	4563      	cmp	r3, ip
 80089b8:	d301      	bcc.n	80089be <prvIdleTask+0x1e2>
 80089ba:	4298      	cmp	r0, r3
 80089bc:	d200      	bcs.n	80089c0 <prvIdleTask+0x1e4>
 80089be:	1e43      	subs	r3, r0, #1
 80089c0:	4835      	ldr	r0, [pc, #212]	; (8008a98 <prvIdleTask+0x2bc>)
 80089c2:	6003      	str	r3, [r0, #0]
 80089c4:	2000      	movs	r0, #0
 80089c6:	4b31      	ldr	r3, [pc, #196]	; (8008a8c <prvIdleTask+0x2b0>)
 80089c8:	6018      	str	r0, [r3, #0]
 80089ca:	482e      	ldr	r0, [pc, #184]	; (8008a84 <prvIdleTask+0x2a8>)
 80089cc:	6803      	ldr	r3, [r0, #0]
 80089ce:	f043 0301 	orr.w	r3, r3, #1
 80089d2:	6003      	str	r3, [r0, #0]
 80089d4:	680b      	ldr	r3, [r1, #0]
 80089d6:	6830      	ldr	r0, [r6, #0]
 80089d8:	4413      	add	r3, r2
 80089da:	4283      	cmp	r3, r0
 80089dc:	d924      	bls.n	8008a28 <prvIdleTask+0x24c>
 80089de:	e7fe      	b.n	80089de <prvIdleTask+0x202>
 80089e0:	4b2a      	ldr	r3, [pc, #168]	; (8008a8c <prvIdleTask+0x2b0>)
 80089e2:	4a2d      	ldr	r2, [pc, #180]	; (8008a98 <prvIdleTask+0x2bc>)
 80089e4:	681b      	ldr	r3, [r3, #0]
 80089e6:	4927      	ldr	r1, [pc, #156]	; (8008a84 <prvIdleTask+0x2a8>)
 80089e8:	6013      	str	r3, [r2, #0]
 80089ea:	680b      	ldr	r3, [r1, #0]
 80089ec:	f043 0301 	orr.w	r3, r3, #1
 80089f0:	600b      	str	r3, [r1, #0]
 80089f2:	683b      	ldr	r3, [r7, #0]
 80089f4:	3b01      	subs	r3, #1
 80089f6:	6013      	str	r3, [r2, #0]
 80089f8:	b662      	cpsie	i
 80089fa:	f7fb ffd3 	bl	80049a4 <xTaskResumeAll>
 80089fe:	e6f1      	b.n	80087e4 <prvIdleTask+0x8>
 8008a00:	f3bf 8f4f 	dsb	sy
 8008a04:	bf30      	wfi
 8008a06:	f3bf 8f6f 	isb	sy
 8008a0a:	e7b6      	b.n	800897a <prvIdleTask+0x19e>
 8008a0c:	683b      	ldr	r3, [r7, #0]
 8008a0e:	f8d8 c000 	ldr.w	ip, [r8]
 8008a12:	4358      	muls	r0, r3
 8008a14:	eba0 020c 	sub.w	r2, r0, ip
 8008a18:	fbb2 f2f3 	udiv	r2, r2, r3
 8008a1c:	fb02 3303 	mla	r3, r2, r3, r3
 8008a20:	ebac 0000 	sub.w	r0, ip, r0
 8008a24:	4403      	add	r3, r0
 8008a26:	e7cb      	b.n	80089c0 <prvIdleTask+0x1e4>
 8008a28:	680b      	ldr	r3, [r1, #0]
 8008a2a:	441a      	add	r2, r3
 8008a2c:	683b      	ldr	r3, [r7, #0]
 8008a2e:	600a      	str	r2, [r1, #0]
 8008a30:	3b01      	subs	r3, #1
 8008a32:	4a19      	ldr	r2, [pc, #100]	; (8008a98 <prvIdleTask+0x2bc>)
 8008a34:	e7df      	b.n	80089f6 <prvIdleTask+0x21a>
 8008a36:	bf00      	nop
 8008a38:	e000ed20 	.word	0xe000ed20
 8008a3c:	20001360 	.word	0x20001360
 8008a40:	2000135c 	.word	0x2000135c
 8008a44:	200011b8 	.word	0x200011b8
 8008a48:	2000134c 	.word	0x2000134c
 8008a4c:	20001358 	.word	0x20001358
 8008a50:	e000ed04 	.word	0xe000ed04
 8008a54:	20001310 	.word	0x20001310
 8008a58:	20001648 	.word	0x20001648
 8008a5c:	200012cc 	.word	0x200012cc
 8008a60:	0800b8f1 	.word	0x0800b8f1
 8008a64:	0800c9e8 	.word	0x0800c9e8
 8008a68:	20001354 	.word	0x20001354
 8008a6c:	20001355 	.word	0x20001355
 8008a70:	080055ed 	.word	0x080055ed
 8008a74:	0800b900 	.word	0x0800b900
 8008a78:	20000a44 	.word	0x20000a44
 8008a7c:	200015f8 	.word	0x200015f8
 8008a80:	200015f0 	.word	0x200015f0
 8008a84:	e000e010 	.word	0xe000e010
 8008a88:	20001350 	.word	0x20001350
 8008a8c:	e000e018 	.word	0xe000e018
 8008a90:	20001600 	.word	0x20001600
 8008a94:	2000164c 	.word	0x2000164c
 8008a98:	e000e014 	.word	0xe000e014
 8008a9c:	20001634 	.word	0x20001634
 8008aa0:	2000130c 	.word	0x2000130c
 8008aa4:	20001334 	.word	0x20001334
 8008aa8:	20001348 	.word	0x20001348
 8008aac:	20001620 	.word	0x20001620

08008ab0 <cmdSanity>:

void cmdSanity(void* user, BaseSequentialStream *chp, int argc, char *argv[])
{
    (void)user;

    if(argc == 1) {
 8008ab0:	2a01      	cmp	r2, #1
{
 8008ab2:	b570      	push	{r4, r5, r6, lr}
 8008ab4:	460c      	mov	r4, r1
 8008ab6:	4615      	mov	r5, r2
    if(argc == 1) {
 8008ab8:	d117      	bne.n	8008aea <cmdSanity+0x3a>
        if(sanitySettingsLocked){
 8008aba:	4e11      	ldr	r6, [pc, #68]	; (8008b00 <cmdSanity+0x50>)
 8008abc:	7832      	ldrb	r2, [r6, #0]
 8008abe:	b12a      	cbz	r2, 8008acc <cmdSanity+0x1c>
            chprintf(chp, "Settings locked!"SHELL_NEWLINE_STR);
 8008ac0:	4910      	ldr	r1, [pc, #64]	; (8008b04 <cmdSanity+0x54>)
    chprintf(chp, "\tsanity [delaysec]"SHELL_NEWLINE_STR);
 8008ac2:	4620      	mov	r0, r4
        }
        return;
    };

    cmdSanityUsage(chp);
}
 8008ac4:	e8bd 4070 	ldmia.w	sp!, {r4, r5, r6, lr}
    chprintf(chp, "\tsanity [delaysec]"SHELL_NEWLINE_STR);
 8008ac8:	f7ff be7a 	b.w	80087c0 <chprintf>
        }else if(!strcmp(argv[0], "lock")) {
 8008acc:	681c      	ldr	r4, [r3, #0]
 8008ace:	490e      	ldr	r1, [pc, #56]	; (8008b08 <cmdSanity+0x58>)
 8008ad0:	4620      	mov	r0, r4
 8008ad2:	f7fb f921 	bl	8003d18 <strcmp>
 8008ad6:	b908      	cbnz	r0, 8008adc <cmdSanity+0x2c>
            sanitySettingsLocked = true;
 8008ad8:	7035      	strb	r5, [r6, #0]
}
 8008ada:	bd70      	pop	{r4, r5, r6, pc}
            sanityRebootSeconds = strToInt(argv[0], 10);
 8008adc:	210a      	movs	r1, #10
 8008ade:	4620      	mov	r0, r4
 8008ae0:	f7fd f94e 	bl	8005d80 <strToInt>
 8008ae4:	4b09      	ldr	r3, [pc, #36]	; (8008b0c <cmdSanity+0x5c>)
 8008ae6:	6018      	str	r0, [r3, #0]
 8008ae8:	e7f7      	b.n	8008ada <cmdSanity+0x2a>
    chprintf(chp, "Usage:"SHELL_NEWLINE_STR);
 8008aea:	4909      	ldr	r1, [pc, #36]	; (8008b10 <cmdSanity+0x60>)
 8008aec:	4620      	mov	r0, r4
 8008aee:	f7ff fe67 	bl	80087c0 <chprintf>
    chprintf(chp, "\tsanity lock"SHELL_NEWLINE_STR);
 8008af2:	4908      	ldr	r1, [pc, #32]	; (8008b14 <cmdSanity+0x64>)
 8008af4:	4620      	mov	r0, r4
 8008af6:	f7ff fe63 	bl	80087c0 <chprintf>
    chprintf(chp, "\tsanity [delaysec]"SHELL_NEWLINE_STR);
 8008afa:	4907      	ldr	r1, [pc, #28]	; (8008b18 <cmdSanity+0x68>)
 8008afc:	e7e1      	b.n	8008ac2 <cmdSanity+0x12>
 8008afe:	bf00      	nop
 8008b00:	20001230 	.word	0x20001230
 8008b04:	0800b909 	.word	0x0800b909
 8008b08:	0800b91c 	.word	0x0800b91c
 8008b0c:	20000858 	.word	0x20000858
 8008b10:	0800b921 	.word	0x0800b921
 8008b14:	0800b92a 	.word	0x0800b92a
 8008b18:	0800b939 	.word	0x0800b939

08008b1c <gpioCPUStatus>:
{
 8008b1c:	e92d 43f7 	stmdb	sp!, {r0, r1, r2, r4, r5, r6, r7, r8, r9, lr}
 8008b20:	460d      	mov	r5, r1
    chprintf(chp, "\tDriver: HAL (MM 0x%08x)"SHELL_NEWLINE_STR, (uint32_t)driver->driver);
 8008b22:	6802      	ldr	r2, [r0, #0]
{
 8008b24:	4606      	mov	r6, r0
    chprintf(chp, "\tDriver: HAL (MM 0x%08x)"SHELL_NEWLINE_STR, (uint32_t)driver->driver);
 8008b26:	4915      	ldr	r1, [pc, #84]	; (8008b7c <gpioCPUStatus+0x60>)
 8008b28:	4628      	mov	r0, r5
 8008b2a:	f7ff fe49 	bl	80087c0 <chprintf>
 8008b2e:	2400      	movs	r4, #0
    uint8_t mode = gpioCPUGetPinMode(driver, pin);
 8008b30:	f8df 8054 	ldr.w	r8, [pc, #84]	; 8008b88 <gpioCPUStatus+0x6c>
 8008b34:	f8df 9054 	ldr.w	r9, [pc, #84]	; 8008b8c <gpioCPUStatus+0x70>
        printfFixed(chp, 32, "\tPin %u (%s):",
 8008b38:	4f11      	ldr	r7, [pc, #68]	; (8008b80 <gpioCPUStatus+0x64>)
    uint8_t mode = gpioCPUGetPinMode(driver, pin);
 8008b3a:	4621      	mov	r1, r4
 8008b3c:	4630      	mov	r0, r6
 8008b3e:	f7fc fcb9 	bl	80054b4 <gpioCPUGetPinMode>
    switch(mode) {
 8008b42:	1e43      	subs	r3, r0, #1
 8008b44:	b2db      	uxtb	r3, r3
 8008b46:	2b10      	cmp	r3, #16
    uint8_t mode = gpioCPUGetPinMode(driver, pin);
 8008b48:	bf8c      	ite	hi
 8008b4a:	4643      	movhi	r3, r8
 8008b4c:	f859 3023 	ldrls.w	r3, [r9, r3, lsl #2]
        printfFixed(chp, 32, "\tPin %u (%s):",
 8008b50:	463a      	mov	r2, r7
 8008b52:	2120      	movs	r1, #32
 8008b54:	9300      	str	r3, [sp, #0]
 8008b56:	4628      	mov	r0, r5
 8008b58:	4623      	mov	r3, r4
 8008b5a:	f7ff fe0d 	bl	8008778 <printfFixed>
        chprintf(chp,  "%u"SHELL_NEWLINE_STR, palReadPad((ioportid_t)driver->driver, i));
 8008b5e:	6833      	ldr	r3, [r6, #0]
 8008b60:	4628      	mov	r0, r5
 8008b62:	689a      	ldr	r2, [r3, #8]
 8008b64:	4907      	ldr	r1, [pc, #28]	; (8008b84 <gpioCPUStatus+0x68>)
 8008b66:	40e2      	lsrs	r2, r4
 8008b68:	f002 0201 	and.w	r2, r2, #1
 8008b6c:	3401      	adds	r4, #1
 8008b6e:	f7ff fe27 	bl	80087c0 <chprintf>
    for(uint8_t i=0; i<16; i++) {
 8008b72:	2c10      	cmp	r4, #16
 8008b74:	d1e1      	bne.n	8008b3a <gpioCPUStatus+0x1e>
}
 8008b76:	b003      	add	sp, #12
 8008b78:	e8bd 83f0 	ldmia.w	sp!, {r4, r5, r6, r7, r8, r9, pc}
 8008b7c:	0800b94e 	.word	0x0800b94e
 8008b80:	0800b969 	.word	0x0800b969
 8008b84:	0800bc1b 	.word	0x0800bc1b
 8008b88:	0800b8e2 	.word	0x0800b8e2
 8008b8c:	0800c628 	.word	0x0800c628

08008b90 <gpioDummyStatus>:

    return false;
}

void gpioDummyStatus(const GPIOPort* driver, BaseSequentialStream* chp)
{
 8008b90:	4608      	mov	r0, r1
    (void)driver;

    chprintf(chp, "\tDriver: Dummy"SHELL_NEWLINE_STR);
 8008b92:	4901      	ldr	r1, [pc, #4]	; (8008b98 <gpioDummyStatus+0x8>)
 8008b94:	f7ff be14 	b.w	80087c0 <chprintf>
 8008b98:	0800b977 	.word	0x0800b977

08008b9c <syslog>:
{
 8008b9c:	b40f      	push	{r0, r1, r2, r3}
 8008b9e:	b573      	push	{r0, r1, r4, r5, r6, lr}
    xSemaphoreTake(syslogSemaphore, portMAX_DELAY);
 8008ba0:	4d16      	ldr	r5, [pc, #88]	; (8008bfc <syslog+0x60>)
{
 8008ba2:	ab06      	add	r3, sp, #24
 8008ba4:	f853 6b04 	ldr.w	r6, [r3], #4
    queue->lenHeaderStart = queue->writePtr;
 8008ba8:	4c15      	ldr	r4, [pc, #84]	; (8008c00 <syslog+0x64>)
    xSemaphoreTake(syslogSemaphore, portMAX_DELAY);
 8008baa:	f04f 31ff 	mov.w	r1, #4294967295	; 0xffffffff
 8008bae:	6828      	ldr	r0, [r5, #0]
    va_start(args, format);
 8008bb0:	9301      	str	r3, [sp, #4]
    xSemaphoreTake(syslogSemaphore, portMAX_DELAY);
 8008bb2:	f7fc f8fb 	bl	8004dac <xQueueSemaphoreTake>
 8008bb6:	6923      	ldr	r3, [r4, #16]
    packetQueueWriteByte(queue, 0x00);
 8008bb8:	2000      	movs	r0, #0
    queue->lenHeaderStart = queue->writePtr;
 8008bba:	61e3      	str	r3, [r4, #28]
    packetQueueWriteByte(queue, 0x00);
 8008bbc:	f7fb fa4a 	bl	8004054 <packetQueueWriteByte.constprop.0>
    packetQueueWriteByte(queue, 0x00);
 8008bc0:	2000      	movs	r0, #0
 8008bc2:	f7fb fa47 	bl	8004054 <packetQueueWriteByte.constprop.0>
    queue->pktLen = 0;
 8008bc6:	2300      	movs	r3, #0
 8008bc8:	61a3      	str	r3, [r4, #24]
 8008bca:	f7fb fa8b 	bl	80040e4 <vPortValidateInterruptPriority>
    chprintf((BaseSequentialStream*)&syslogStream, "[%-11u] ", osalOsGetSystemTimeX());
 8008bce:	4c0d      	ldr	r4, [pc, #52]	; (8008c04 <syslog+0x68>)
 8008bd0:	4b0d      	ldr	r3, [pc, #52]	; (8008c08 <syslog+0x6c>)
 8008bd2:	4620      	mov	r0, r4
 8008bd4:	681a      	ldr	r2, [r3, #0]
 8008bd6:	490d      	ldr	r1, [pc, #52]	; (8008c0c <syslog+0x70>)
 8008bd8:	f7ff fdf2 	bl	80087c0 <chprintf>
    chvprintf((BaseSequentialStream*)&syslogStream, format, args);
 8008bdc:	4631      	mov	r1, r6
 8008bde:	9a01      	ldr	r2, [sp, #4]
 8008be0:	4620      	mov	r0, r4
 8008be2:	f7fd f917 	bl	8005e14 <chvprintf>
    packetQueueEndWritePacket(&syslogQueue);
 8008be6:	f7fb f9fd 	bl	8003fe4 <packetQueueEndWritePacket.constprop.0>
    xSemaphoreGive(syslogSemaphore);
 8008bea:	6828      	ldr	r0, [r5, #0]
 8008bec:	f7ff f9fe 	bl	8007fec <xQueueGenericSend.constprop.0>
}
 8008bf0:	b002      	add	sp, #8
 8008bf2:	e8bd 4070 	ldmia.w	sp!, {r4, r5, r6, lr}
 8008bf6:	b004      	add	sp, #16
 8008bf8:	4770      	bx	lr
 8008bfa:	bf00      	nop
 8008bfc:	20001334 	.word	0x20001334
 8008c00:	20001310 	.word	0x20001310
 8008c04:	0800c9e8 	.word	0x0800c9e8
 8008c08:	20001648 	.word	0x20001648
 8008c0c:	0800b988 	.word	0x0800b988

08008c10 <i2cSafeMasterTransmitTimeoutWithRetry.part.0.constprop.0>:
i2c_result i2cSafeMasterTransmitTimeoutWithRetry (
 8008c10:	e92d 4ff7 	stmdb	sp!, {r0, r1, r2, r4, r5, r6, r7, r8, r9, sl, fp, lr}
 8008c14:	4604      	mov	r4, r0
 8008c16:	460e      	mov	r6, r1

  /* Resetting error flags for this transfer.*/
  i2cp->errors = I2C_NO_ERROR;

  /* Initializes driver fields, LSB = 0 -> transmit.*/
  i2cp->addr = (addr << 1);
 8008c18:	f04f 0803 	mov.w	r8, #3
  i2cp->errors = I2C_NO_ERROR;
 8008c1c:	f04f 0900 	mov.w	r9, #0
 8008c20:	461f      	mov	r7, r3
 8008c22:	f8df a120 	ldr.w	sl, [pc, #288]	; 8008d44 <i2cSafeMasterTransmitTimeoutWithRetry.part.0.constprop.0+0x134>
 8008c26:	004b      	lsls	r3, r1, #1
 8008c28:	9201      	str	r2, [sp, #4]
 8008c2a:	fa1f fb83 	uxth.w	fp, r3
  osalDbgCheck((i2cp != NULL) && (addr != 0U) &&
 8008c2e:	b12c      	cbz	r4, 8008c3c <i2cSafeMasterTransmitTimeoutWithRetry.part.0.constprop.0+0x2c>
 8008c30:	b126      	cbz	r6, 8008c3c <i2cSafeMasterTransmitTimeoutWithRetry.part.0.constprop.0+0x2c>
 8008c32:	b11f      	cbz	r7, 8008c3c <i2cSafeMasterTransmitTimeoutWithRetry.part.0.constprop.0+0x2c>
 8008c34:	9b0d      	ldr	r3, [sp, #52]	; 0x34
 8008c36:	b123      	cbz	r3, 8008c42 <i2cSafeMasterTransmitTimeoutWithRetry.part.0.constprop.0+0x32>
 8008c38:	9b0c      	ldr	r3, [sp, #48]	; 0x30
 8008c3a:	b913      	cbnz	r3, 8008c42 <i2cSafeMasterTransmitTimeoutWithRetry.part.0.constprop.0+0x32>
 8008c3c:	f7fb fb80 	bl	8004340 <vTaskEndScheduler>
 8008c40:	e7fe      	b.n	8008c40 <i2cSafeMasterTransmitTimeoutWithRetry.part.0.constprop.0+0x30>
  osalDbgAssert(i2cp->state == I2C_READY, "not ready");
 8008c42:	7825      	ldrb	r5, [r4, #0]
 8008c44:	2d02      	cmp	r5, #2
 8008c46:	d002      	beq.n	8008c4e <i2cSafeMasterTransmitTimeoutWithRetry.part.0.constprop.0+0x3e>
 8008c48:	f7fb fb7a 	bl	8004340 <vTaskEndScheduler>
 8008c4c:	e7fe      	b.n	8008c4c <i2cSafeMasterTransmitTimeoutWithRetry.part.0.constprop.0+0x3c>
  osalSysLock();
 8008c4e:	f7fb fac9 	bl	80041e4 <vPortEnterCritical>
  i2cp->state = I2C_ACTIVE_TX;
 8008c52:	2303      	movs	r3, #3
 8008c54:	7023      	strb	r3, [r4, #0]
  osalDbgCheck((rxbytes == 0) || ((rxbytes > 1) && (rxbuf != NULL)));
 8008c56:	9b0d      	ldr	r3, [sp, #52]	; 0x34
  i2cp->errors = I2C_NO_ERROR;
 8008c58:	f8c4 9008 	str.w	r9, [r4, #8]
 8008c5c:	b123      	cbz	r3, 8008c68 <i2cSafeMasterTransmitTimeoutWithRetry.part.0.constprop.0+0x58>
 8008c5e:	9b0c      	ldr	r3, [sp, #48]	; 0x30
 8008c60:	b913      	cbnz	r3, 8008c68 <i2cSafeMasterTransmitTimeoutWithRetry.part.0.constprop.0+0x58>
 8008c62:	f7fb fb6d 	bl	8004340 <vTaskEndScheduler>
 8008c66:	e7fe      	b.n	8008c66 <i2cSafeMasterTransmitTimeoutWithRetry.part.0.constprop.0+0x56>
  i2cp->numInterrupts = 0;
 8008c68:	f8c4 9080 	str.w	r9, [r4, #128]	; 0x80
  i2cp->addr = (addr << 1);
 8008c6c:	f8a4 b064 	strh.w	fp, [r4, #100]	; 0x64
  I2C_TypeDef *dp = i2cp->i2c;
 8008c70:	6fa0      	ldr	r0, [r4, #120]	; 0x78

  /* Releases the lock from high level driver.*/
  osalSysUnlock();
 8008c72:	f7fc fde7 	bl	8005844 <osalSysUnlock.lto_priv.0>

  /* TX DMA setup.*/
  dmaStreamSetMode(i2cp->dmatx, i2cp->txdmamode);
 8008c76:	6f63      	ldr	r3, [r4, #116]	; 0x74
 8008c78:	6ee2      	ldr	r2, [r4, #108]	; 0x6c
 8008c7a:	685b      	ldr	r3, [r3, #4]
 8008c7c:	601a      	str	r2, [r3, #0]
  dmaStreamSetMemory0(i2cp->dmatx, txbuf);
 8008c7e:	9a01      	ldr	r2, [sp, #4]
 8008c80:	60da      	str	r2, [r3, #12]
  dmaStreamSetTransactionSize(i2cp->dmatx, txbytes);
 8008c82:	605f      	str	r7, [r3, #4]

  /* RX DMA setup.*/
  dmaStreamSetMode(i2cp->dmarx, i2cp->rxdmamode);
 8008c84:	6f23      	ldr	r3, [r4, #112]	; 0x70
 8008c86:	6ea2      	ldr	r2, [r4, #104]	; 0x68
 8008c88:	685b      	ldr	r3, [r3, #4]
 8008c8a:	601a      	str	r2, [r3, #0]
  dmaStreamSetMemory0(i2cp->dmarx, rxbuf);
 8008c8c:	9a0c      	ldr	r2, [sp, #48]	; 0x30
 8008c8e:	60da      	str	r2, [r3, #12]
  dmaStreamSetTransactionSize(i2cp->dmarx, rxbytes);
 8008c90:	9a0d      	ldr	r2, [sp, #52]	; 0x34
 8008c92:	605a      	str	r2, [r3, #4]
 8008c94:	f7fb fa26 	bl	80040e4 <vPortValidateInterruptPriority>
 8008c98:	f8da 3000 	ldr.w	r3, [sl]
 8008c9c:	9300      	str	r3, [sp, #0]
  end = start + OSAL_MS2ST(STM32_I2C_BUSY_TIMEOUT);

  /* Waits until BUSY flag is reset or, alternatively, for a timeout
     condition.*/
  while (true) {
    osalSysLock();
 8008c9e:	f7fb faa1 	bl	80041e4 <vPortEnterCritical>

    /* If the bus is not busy then the operation can continue, note, the
       loop is exited in the locked state.*/
    if (!(dp->SR2 & I2C_SR2_BUSY) && !(dp->CR1 & I2C_CR1_STOP))
 8008ca2:	6983      	ldr	r3, [r0, #24]
 8008ca4:	0799      	lsls	r1, r3, #30
 8008ca6:	d402      	bmi.n	8008cae <i2cSafeMasterTransmitTimeoutWithRetry.part.0.constprop.0+0x9e>
 8008ca8:	6803      	ldr	r3, [r0, #0]
 8008caa:	059a      	lsls	r2, r3, #22
 8008cac:	d50a      	bpl.n	8008cc4 <i2cSafeMasterTransmitTimeoutWithRetry.part.0.constprop.0+0xb4>
 8008cae:	f7fb fa19 	bl	80040e4 <vPortValidateInterruptPriority>
 8008cb2:	f8da 3000 	ldr.w	r3, [sl]

/* Why is this in the OSAL? It is always the same? */
static inline bool osalOsIsTimeWithinX(systime_t now, systime_t begin, systime_t end)
{
    systime_t duration = end - begin;
    systime_t past = now - begin;
 8008cb6:	9a00      	ldr	r2, [sp, #0]
 8008cb8:	1a9b      	subs	r3, r3, r2

    if(past < duration) return true;
 8008cba:	2b31      	cmp	r3, #49	; 0x31
 8008cbc:	d82e      	bhi.n	8008d1c <i2cSafeMasterTransmitTimeoutWithRetry.part.0.constprop.0+0x10c>
    /* If the system time went outside the allowed window then a timeout
       condition is returned.*/
    if (!osalOsIsTimeWithinX(osalOsGetSystemTimeX(), start, end))
      return MSG_TIMEOUT;

    osalSysUnlock();
 8008cbe:	f7fc fdc1 	bl	8005844 <osalSysUnlock.lto_priv.0>
 8008cc2:	e7ec      	b.n	8008c9e <i2cSafeMasterTransmitTimeoutWithRetry.part.0.constprop.0+0x8e>
  }

  /* Starts the operation.*/
  dp->CR2 |= I2C_CR2_ITEVTEN;
 8008cc4:	6843      	ldr	r3, [r0, #4]
  dp->CR1 |= I2C_CR1_START;

  /* Waits for the operation completion or a timeout.*/
  return osalThreadSuspendTimeoutS(&i2cp->thread, timeout);
 8008cc6:	2105      	movs	r1, #5
  dp->CR2 |= I2C_CR2_ITEVTEN;
 8008cc8:	f443 7300 	orr.w	r3, r3, #512	; 0x200
 8008ccc:	6043      	str	r3, [r0, #4]
  dp->CR1 |= I2C_CR1_START;
 8008cce:	6803      	ldr	r3, [r0, #0]
 8008cd0:	f443 7380 	orr.w	r3, r3, #256	; 0x100
 8008cd4:	6003      	str	r3, [r0, #0]
  return osalThreadSuspendTimeoutS(&i2cp->thread, timeout);
 8008cd6:	f104 0060 	add.w	r0, r4, #96	; 0x60
 8008cda:	f7fb fd15 	bl	8004708 <osalThreadSuspendTimeoutS>
    i2cp->state = I2C_LOCKED;
 8008cde:	1c43      	adds	r3, r0, #1
 8008ce0:	bf08      	it	eq
 8008ce2:	2505      	moveq	r5, #5
 8008ce4:	7025      	strb	r5, [r4, #0]
  osalSysUnlock();
 8008ce6:	f7fc fdad 	bl	8005844 <osalSysUnlock.lto_priv.0>
        if(status == MSG_OK){
 8008cea:	b328      	cbz	r0, 8008d38 <i2cSafeMasterTransmitTimeoutWithRetry.part.0.constprop.0+0x128>
        osalSysLock();
 8008cec:	f7fb fa7a 	bl	80041e4 <vPortEnterCritical>
        i2c->i2cErrors++;
 8008cf0:	f8d4 3084 	ldr.w	r3, [r4, #132]	; 0x84
 8008cf4:	3301      	adds	r3, #1
 8008cf6:	f8c4 3084 	str.w	r3, [r4, #132]	; 0x84
        osalSysUnlock();
 8008cfa:	f7fc fda3 	bl	8005844 <osalSysUnlock.lto_priv.0>
        if((retVal = i2cSafeRawUnclogBus(i2c))) {
 8008cfe:	4620      	mov	r0, r4
 8008d00:	f7fe ff50 	bl	8007ba4 <i2cSafeRawUnclogBus>
 8008d04:	4605      	mov	r5, r0
 8008d06:	b168      	cbz	r0, 8008d24 <i2cSafeMasterTransmitTimeoutWithRetry.part.0.constprop.0+0x114>
            syslog("I2C error, bus failure: %s.", i2cSafeResultToString(retVal));
 8008d08:	f7fc fd10 	bl	800572c <i2cSafeResultToString>
 8008d0c:	4601      	mov	r1, r0
 8008d0e:	480b      	ldr	r0, [pc, #44]	; (8008d3c <i2cSafeMasterTransmitTimeoutWithRetry.part.0.constprop.0+0x12c>)
 8008d10:	f7ff ff44 	bl	8008b9c <syslog>
}
 8008d14:	4628      	mov	r0, r5
 8008d16:	b003      	add	sp, #12
 8008d18:	e8bd 8ff0 	ldmia.w	sp!, {r4, r5, r6, r7, r8, r9, sl, fp, pc}
    i2cp->state = I2C_LOCKED;
 8008d1c:	2505      	movs	r5, #5
      return MSG_TIMEOUT;
 8008d1e:	f04f 30ff 	mov.w	r0, #4294967295	; 0xffffffff
 8008d22:	e7df      	b.n	8008ce4 <i2cSafeMasterTransmitTimeoutWithRetry.part.0.constprop.0+0xd4>
    for(i=0; i<maxTries; i++) {
 8008d24:	f1b8 0801 	subs.w	r8, r8, #1
 8008d28:	d181      	bne.n	8008c2e <i2cSafeMasterTransmitTimeoutWithRetry.part.0.constprop.0+0x1e>
    syslog("I2C error, %u failed attempts.", maxTries);
 8008d2a:	2103      	movs	r1, #3
 8008d2c:	4804      	ldr	r0, [pc, #16]	; (8008d40 <i2cSafeMasterTransmitTimeoutWithRetry.part.0.constprop.0+0x130>)
 8008d2e:	f7ff ff35 	bl	8008b9c <syslog>
    retVal = I2C_BUS_RESET;
 8008d32:	f06f 0501 	mvn.w	r5, #1
 8008d36:	e7ed      	b.n	8008d14 <i2cSafeMasterTransmitTimeoutWithRetry.part.0.constprop.0+0x104>
            retVal = status;
 8008d38:	4605      	mov	r5, r0
 8008d3a:	e7eb      	b.n	8008d14 <i2cSafeMasterTransmitTimeoutWithRetry.part.0.constprop.0+0x104>
 8008d3c:	0800b991 	.word	0x0800b991
 8008d40:	0800b9ad 	.word	0x0800b9ad
 8008d44:	20001648 	.word	0x20001648

08008d48 <i2cSafeWriteRegBulkStandard.constprop.0>:
i2c_result i2cSafeWriteRegBulkStandard(I2CDriver* i2c,
 8008d48:	b530      	push	{r4, r5, lr}
 8008d4a:	460d      	mov	r5, r1
    osalDbgAssert(i2c != NULL, "i2c == NULL");
 8008d4c:	4604      	mov	r4, r0
i2c_result i2cSafeWriteRegBulkStandard(I2CDriver* i2c,
 8008d4e:	b085      	sub	sp, #20
    osalDbgAssert(i2c != NULL, "i2c == NULL");
 8008d50:	b910      	cbnz	r0, 8008d58 <i2cSafeWriteRegBulkStandard.constprop.0+0x10>
 8008d52:	f7fb faf5 	bl	8004340 <vTaskEndScheduler>
 8008d56:	e7fe      	b.n	8008d56 <i2cSafeWriteRegBulkStandard.constprop.0+0xe>
    memcpy(&txBuf[1], values, len);
 8008d58:	781b      	ldrb	r3, [r3, #0]
    txBuf[0]=addr;
 8008d5a:	f88d 200c 	strb.w	r2, [sp, #12]
    memcpy(&txBuf[1], values, len);
 8008d5e:	f88d 300d 	strb.w	r3, [sp, #13]
    i2cAcquireBus(i2c);
 8008d62:	f7fe fa8d 	bl	8007280 <i2cAcquireBus>
    i2c_status = i2cSafeMasterTransmitTimeoutWithRetry(i2c, devAddr, txBuf,
 8008d66:	b2a9      	uxth	r1, r5
    if(!devAddr) return MSG_RESET;
 8008d68:	b175      	cbz	r5, 8008d88 <i2cSafeWriteRegBulkStandard.constprop.0+0x40>
 8008d6a:	2300      	movs	r3, #0
 8008d6c:	4620      	mov	r0, r4
 8008d6e:	e9cd 3300 	strd	r3, r3, [sp]
 8008d72:	aa03      	add	r2, sp, #12
 8008d74:	2302      	movs	r3, #2
 8008d76:	f7ff ff4b 	bl	8008c10 <i2cSafeMasterTransmitTimeoutWithRetry.part.0.constprop.0>
 8008d7a:	4605      	mov	r5, r0
    i2cReleaseBus(i2c);
 8008d7c:	4620      	mov	r0, r4
 8008d7e:	f7ff fa70 	bl	8008262 <i2cReleaseBus>
}
 8008d82:	4628      	mov	r0, r5
 8008d84:	b005      	add	sp, #20
 8008d86:	bd30      	pop	{r4, r5, pc}
    if(!devAddr) return MSG_RESET;
 8008d88:	f06f 0501 	mvn.w	r5, #1
 8008d8c:	e7f6      	b.n	8008d7c <i2cSafeWriteRegBulkStandard.constprop.0+0x34>

08008d8e <i2cSafeReadRegBulkStandard.constprop.0>:
i2c_result i2cSafeReadRegBulkStandard(I2CDriver* i2c,
 8008d8e:	b57f      	push	{r0, r1, r2, r3, r4, r5, r6, lr}
 8008d90:	460e      	mov	r6, r1
 8008d92:	461d      	mov	r5, r3
    osalDbgAssert(i2c != NULL, "i2c == NULL");
 8008d94:	4604      	mov	r4, r0
 8008d96:	b910      	cbnz	r0, 8008d9e <i2cSafeReadRegBulkStandard.constprop.0+0x10>
 8008d98:	f7fb fad2 	bl	8004340 <vTaskEndScheduler>
 8008d9c:	e7fe      	b.n	8008d9c <i2cSafeReadRegBulkStandard.constprop.0+0xe>
    uint8_t txBuf[1] = {addr};
 8008d9e:	f88d 200c 	strb.w	r2, [sp, #12]
    i2cAcquireBus(i2c);
 8008da2:	f7fe fa6d 	bl	8007280 <i2cAcquireBus>
    i2c_status = i2cSafeMasterTransmitTimeoutWithRetry(i2c, devAddr, txBuf,
 8008da6:	b2b1      	uxth	r1, r6
    if(!devAddr) return MSG_RESET;
 8008da8:	b18e      	cbz	r6, 8008dce <i2cSafeReadRegBulkStandard.constprop.0+0x40>
    memset(rxbuf, 0xFE, rxbytes);
 8008daa:	f64f 63fe 	movw	r3, #65278	; 0xfefe
 8008dae:	802b      	strh	r3, [r5, #0]
 8008db0:	2302      	movs	r3, #2
 8008db2:	4620      	mov	r0, r4
 8008db4:	e9cd 5300 	strd	r5, r3, [sp]
 8008db8:	aa03      	add	r2, sp, #12
 8008dba:	2301      	movs	r3, #1
 8008dbc:	f7ff ff28 	bl	8008c10 <i2cSafeMasterTransmitTimeoutWithRetry.part.0.constprop.0>
 8008dc0:	4605      	mov	r5, r0
    i2cReleaseBus(i2c);
 8008dc2:	4620      	mov	r0, r4
 8008dc4:	f7ff fa4d 	bl	8008262 <i2cReleaseBus>
}
 8008dc8:	4628      	mov	r0, r5
 8008dca:	b004      	add	sp, #16
 8008dcc:	bd70      	pop	{r4, r5, r6, pc}
    if(!devAddr) return MSG_RESET;
 8008dce:	f06f 0501 	mvn.w	r5, #1
 8008dd2:	e7f6      	b.n	8008dc2 <i2cSafeReadRegBulkStandard.constprop.0+0x34>

08008dd4 <MCP9804MeasureTemperature.part.0>:
#include "mcp9804.h"
#include "../i2csafe/i2csafe.h"
#include <string.h>
#include "../system.h"

int16_t MCP9804MeasureTemperature(MCP9804Driver* driver, bool newMeasurement)
 8008dd4:	b513      	push	{r0, r1, r4, lr}
 8008dd6:	4604      	mov	r4, r0
    if(!newMeasurement) {
        return driver->temperature;
    }

    uint8_t data[2];
    i2c_result result = i2cSafeReadRegBulkStandard(driver->config->i2cPort, driver->config->i2cAddr, 0x5, data, 2);
 8008dd8:	6800      	ldr	r0, [r0, #0]
 8008dda:	2205      	movs	r2, #5
 8008ddc:	7901      	ldrb	r1, [r0, #4]
 8008dde:	ab01      	add	r3, sp, #4
 8008de0:	6800      	ldr	r0, [r0, #0]
 8008de2:	f7ff ffd4 	bl	8008d8e <i2cSafeReadRegBulkStandard.constprop.0>

    if(result != I2C_BUS_OK) {
 8008de6:	b130      	cbz	r0, 8008df6 <MCP9804MeasureTemperature.part.0+0x22>
        driver->temperature = 0x7FFF;
 8008de8:	f647 73ff 	movw	r3, #32767	; 0x7fff

        driver->temperature = temp;

        /* Check sign */
        if(data[0] & 0x10) {
            driver->temperature = 4096 - temp;
 8008dec:	80a3      	strh	r3, [r4, #4]
        }
    }

    return driver->temperature;
}
 8008dee:	f9b4 0004 	ldrsh.w	r0, [r4, #4]
 8008df2:	b002      	add	sp, #8
 8008df4:	bd10      	pop	{r4, pc}
        uint16_t temp = ((data[0] & 0xF) << 8) | data[1];
 8008df6:	f89d 1004 	ldrb.w	r1, [sp, #4]
 8008dfa:	020b      	lsls	r3, r1, #8
 8008dfc:	f403 6270 	and.w	r2, r3, #3840	; 0xf00
 8008e00:	f89d 3005 	ldrb.w	r3, [sp, #5]
 8008e04:	4313      	orrs	r3, r2
        if(data[0] & 0x10) {
 8008e06:	06ca      	lsls	r2, r1, #27
            driver->temperature = 4096 - temp;
 8008e08:	bf48      	it	mi
 8008e0a:	f5c3 5380 	rsbmi	r3, r3, #4096	; 0x1000
 8008e0e:	e7ed      	b.n	8008dec <MCP9804MeasureTemperature.part.0+0x18>

08008e10 <i2cSafeReadRegStandard>:
{
 8008e10:	b513      	push	{r0, r1, r4, lr}
 8008e12:	461c      	mov	r4, r3
    osalDbgAssert(i2c != NULL, "i2c == NULL");
 8008e14:	b910      	cbnz	r0, 8008e1c <i2cSafeReadRegStandard+0xc>
 8008e16:	f7fb fa93 	bl	8004340 <vTaskEndScheduler>
 8008e1a:	e7fe      	b.n	8008e1a <i2cSafeReadRegStandard+0xa>
    i2c_result result = i2cSafeReadRegBulkStandard(i2c, devAddr, addr, values, sizeof(values));
 8008e1c:	ab01      	add	r3, sp, #4
 8008e1e:	f7ff ffb6 	bl	8008d8e <i2cSafeReadRegBulkStandard.constprop.0>
    *value=values[0];
 8008e22:	f89d 3004 	ldrb.w	r3, [sp, #4]
 8008e26:	7023      	strb	r3, [r4, #0]
}
 8008e28:	b002      	add	sp, #8
 8008e2a:	bd10      	pop	{r4, pc}

08008e2c <gpioDummyGetValue>:
{
 8008e2c:	b508      	push	{r3, lr}
    syslog("Use of dummy GPIO %u!", (uint32_t)driver->driver);
 8008e2e:	6801      	ldr	r1, [r0, #0]
 8008e30:	4802      	ldr	r0, [pc, #8]	; (8008e3c <gpioDummyGetValue+0x10>)
 8008e32:	f7ff feb3 	bl	8008b9c <syslog>
}
 8008e36:	2000      	movs	r0, #0
 8008e38:	bd08      	pop	{r3, pc}
 8008e3a:	bf00      	nop
 8008e3c:	0800b9cc 	.word	0x0800b9cc

08008e40 <gpioDummySetValue>:
{
 8008e40:	b508      	push	{r3, lr}
    syslog("Use of dummy GPIO %u!", (uint32_t)driver->driver);
 8008e42:	6801      	ldr	r1, [r0, #0]
 8008e44:	4802      	ldr	r0, [pc, #8]	; (8008e50 <gpioDummySetValue+0x10>)
 8008e46:	f7ff fea9 	bl	8008b9c <syslog>
}
 8008e4a:	2000      	movs	r0, #0
 8008e4c:	bd08      	pop	{r3, pc}
 8008e4e:	bf00      	nop
 8008e50:	0800b9cc 	.word	0x0800b9cc

08008e54 <gpioDummyGetPinMode>:
{
 8008e54:	b508      	push	{r3, lr}
    syslog("Use of dummy GPIO %u!", (uint32_t)driver->driver);
 8008e56:	6801      	ldr	r1, [r0, #0]
 8008e58:	4802      	ldr	r0, [pc, #8]	; (8008e64 <gpioDummyGetPinMode+0x10>)
 8008e5a:	f7ff fe9f 	bl	8008b9c <syslog>
}
 8008e5e:	2002      	movs	r0, #2
 8008e60:	bd08      	pop	{r3, pc}
 8008e62:	bf00      	nop
 8008e64:	0800b9cc 	.word	0x0800b9cc

08008e68 <gpioDummySetPinMode>:
{
 8008e68:	b508      	push	{r3, lr}
    syslog("Use of dummy GPIO %u!", (uint32_t)driver->driver);
 8008e6a:	6801      	ldr	r1, [r0, #0]
 8008e6c:	4802      	ldr	r0, [pc, #8]	; (8008e78 <gpioDummySetPinMode+0x10>)
 8008e6e:	f7ff fe95 	bl	8008b9c <syslog>
}
 8008e72:	2000      	movs	r0, #0
 8008e74:	bd08      	pop	{r3, pc}
 8008e76:	bf00      	nop
 8008e78:	0800b9cc 	.word	0x0800b9cc
 8008e7c:	00000000 	.word	0x00000000

08008e80 <max2870TuneNoLock>:

static MAX2870TuneResult max2870TuneNoLock(MAX2870Driver* driver, MAX2870TuneRequest* tune)
{
 8008e80:	e92d 4ff0 	stmdb	sp!, {r4, r5, r6, r7, r8, r9, sl, fp, lr}
 8008e84:	460c      	mov	r4, r1
 8008e86:	b08b      	sub	sp, #44	; 0x2c
 8008e88:	4605      	mov	r5, r0
    MAX2870TuneResult result = TUNE_OK;
    uint32_t registers[6] = {};
 8008e8a:	2218      	movs	r2, #24
 8008e8c:	2100      	movs	r1, #0
 8008e8e:	a804      	add	r0, sp, #16
 8008e90:	f7fa fe8e 	bl	8003bb0 <memset>

    uint64_t frequency = tune->frequency;
 8008e94:	e9d4 6700 	ldrd	r6, r7, [r4]

    if(frequency == 0) {
 8008e98:	ea56 0307 	orrs.w	r3, r6, r7
 8008e9c:	d108      	bne.n	8008eb0 <max2870TuneNoLock+0x30>
        max2870Disable(driver);
 8008e9e:	4628      	mov	r0, r5
 8008ea0:	f7fe fdb4 	bl	8007a0c <max2870Disable>
        return TUNE_OK;
 8008ea4:	f04f 0800 	mov.w	r8, #0

    /* Save current tuning */
    driver->currentTune = *tune;

    return result;
}
 8008ea8:	4640      	mov	r0, r8
 8008eaa:	b00b      	add	sp, #44	; 0x2c
 8008eac:	e8bd 8ff0 	ldmia.w	sp!, {r4, r5, r6, r7, r8, r9, sl, fp, pc}
    if(frequency > MAX2870_VCO_MAX_FREQUENCY || frequency < MAX2870_VCO_MIN_FREQUENCY/128) {
 8008eb0:	4bbd      	ldr	r3, [pc, #756]	; (80091a8 <max2870TuneNoLock+0x328>)
 8008eb2:	eb16 0803 	adds.w	r8, r6, r3
 8008eb6:	f147 39ff 	adc.w	r9, r7, #4294967295	; 0xffffffff
 8008eba:	a3b5      	add	r3, pc, #724	; (adr r3, 8009190 <max2870TuneNoLock+0x310>)
 8008ebc:	e9d3 2300 	ldrd	r2, r3, [r3]
 8008ec0:	454b      	cmp	r3, r9
 8008ec2:	bf08      	it	eq
 8008ec4:	4542      	cmpeq	r2, r8
 8008ec6:	f0c0 81e3 	bcc.w	8009290 <max2870TuneNoLock+0x410>
    while(frequency < MAX2870_VCO_MIN_FREQUENCY) {
 8008eca:	a3b3      	add	r3, pc, #716	; (adr r3, 8009198 <max2870TuneNoLock+0x318>)
 8008ecc:	e9d3 2300 	ldrd	r2, r3, [r3]
    if(frequency > MAX2870_VCO_MAX_FREQUENCY || frequency < MAX2870_VCO_MIN_FREQUENCY/128) {
 8008ed0:	f04f 0b00 	mov.w	fp, #0
    while(frequency < MAX2870_VCO_MIN_FREQUENCY) {
 8008ed4:	42bb      	cmp	r3, r7
 8008ed6:	bf08      	it	eq
 8008ed8:	42b2      	cmpeq	r2, r6
 8008eda:	f10b 0101 	add.w	r1, fp, #1
 8008ede:	f080 8101 	bcs.w	80090e4 <max2870TuneNoLock+0x264>
    uint32_t steps = frequency / driver->config->stepFrequency;
 8008ee2:	f8d5 a000 	ldr.w	sl, [r5]
 8008ee6:	2300      	movs	r3, #0
 8008ee8:	f8da 2018 	ldr.w	r2, [sl, #24]
 8008eec:	4630      	mov	r0, r6
 8008eee:	4639      	mov	r1, r7
 8008ef0:	f7fa fc6c 	bl	80037cc <__aeabi_uldivmod>
    uint32_t pllN = steps / driver->fracDivider;
 8008ef4:	f8b5 80bc 	ldrh.w	r8, [r5, #188]	; 0xbc
    uint32_t steps = frequency / driver->config->stepFrequency;
 8008ef8:	4681      	mov	r9, r0
    uint32_t pllN = steps / driver->fracDivider;
 8008efa:	fbb0 f0f8 	udiv	r0, r0, r8
    if(pllN < 16 || pllN > 4091) {
 8008efe:	f640 73eb 	movw	r3, #4075	; 0xfeb
 8008f02:	f1a0 0110 	sub.w	r1, r0, #16
 8008f06:	4299      	cmp	r1, r3
    uint32_t pllN = steps / driver->fracDivider;
 8008f08:	4642      	mov	r2, r8
    if(pllN < 16 || pllN > 4091) {
 8008f0a:	f200 81c4 	bhi.w	8009296 <max2870TuneNoLock+0x416>
    uint16_t pllFracF = steps - (pllN * driver->fracDivider);
 8008f0e:	fb00 9118 	mls	r1, r0, r8, r9
 8008f12:	b289      	uxth	r1, r1
    if(pllFracF) {
 8008f14:	2900      	cmp	r1, #0
 8008f16:	f000 80f2 	beq.w	80090fe <max2870TuneNoLock+0x27e>
        uint16_t pllFracGcd = gcd(pllFracF, pllFracM);
 8008f1a:	460b      	mov	r3, r1
    if (v == 0) return u;
 8008f1c:	f1b8 0f00 	cmp.w	r8, #0
 8008f20:	d018      	beq.n	8008f54 <max2870TuneNoLock+0xd4>
    for (shift = 0; ((u | v) & 1) == 0; ++shift) {
 8008f22:	f04f 0c00 	mov.w	ip, #0
 8008f26:	ea43 0e02 	orr.w	lr, r3, r2
 8008f2a:	f01e 0f01 	tst.w	lr, #1
 8008f2e:	f000 80dd 	beq.w	80090ec <max2870TuneNoLock+0x26c>
    while ((u & 1) == 0) {
 8008f32:	f013 0f01 	tst.w	r3, #1
 8008f36:	f000 80de 	beq.w	80090f6 <max2870TuneNoLock+0x276>
        while ((v & 1) == 0) {
 8008f3a:	f012 0f01 	tst.w	r2, #1
 8008f3e:	f000 80dc 	beq.w	80090fa <max2870TuneNoLock+0x27a>
        if (u > v) {
 8008f42:	429a      	cmp	r2, r3
 8008f44:	bf3e      	ittt	cc
 8008f46:	469e      	movcc	lr, r3
 8008f48:	4613      	movcc	r3, r2
 8008f4a:	4672      	movcc	r2, lr
    } while (v != 0);
 8008f4c:	1ad2      	subs	r2, r2, r3
 8008f4e:	d1f4      	bne.n	8008f3a <max2870TuneNoLock+0xba>
    return u << shift;
 8008f50:	fa03 f30c 	lsl.w	r3, r3, ip
 8008f54:	b29b      	uxth	r3, r3
        pllFracM /= pllFracGcd;
 8008f56:	fbb8 f8f3 	udiv	r8, r8, r3
        pllFracF /= pllFracGcd;
 8008f5a:	fbb1 f1f3 	udiv	r1, r1, r3
        registers[1] |= _BV(MAX2870_REG1_CPL_OFFSET);
 8008f5e:	f04f 5300 	mov.w	r3, #536870912	; 0x20000000
 8008f62:	9305      	str	r3, [sp, #20]
    registers[0] |= pllN << MAX2870_REG0_N_OFFSET;
 8008f64:	9b04      	ldr	r3, [sp, #16]
    registers[2] |= driver->refDividerRegister2;
 8008f66:	f8d5 20c0 	ldr.w	r2, [r5, #192]	; 0xc0
    registers[0] |= pllN << MAX2870_REG0_N_OFFSET;
 8008f6a:	ea43 33c0 	orr.w	r3, r3, r0, lsl #15
    registers[0] |= pllFracF << MAX2870_REG0_FRAC_OFFSET;
 8008f6e:	ea43 01c1 	orr.w	r1, r3, r1, lsl #3
    registers[1] |= pllFracM << MAX2870_REG1_M_OFFSET;
 8008f72:	9b05      	ldr	r3, [sp, #20]
    registers[0] |= pllFracF << MAX2870_REG0_FRAC_OFFSET;
 8008f74:	9104      	str	r1, [sp, #16]
    registers[1] |= pllFracM << MAX2870_REG1_M_OFFSET;
 8008f76:	ea43 03c8 	orr.w	r3, r3, r8, lsl #3
 8008f7a:	f443 4300 	orr.w	r3, r3, #32768	; 0x8000
 8008f7e:	9305      	str	r3, [sp, #20]
    registers[2] |= driver->refDividerRegister2;
 8008f80:	9b06      	ldr	r3, [sp, #24]
 8008f82:	4313      	orrs	r3, r2
    registers[4] |= outDivide << MAX2870_REG4_DIVA_OFFSET;
 8008f84:	fa5f f28b 	uxtb.w	r2, fp
 8008f88:	ea4f 5b02 	mov.w	fp, r2, lsl #20
 8008f8c:	9201      	str	r2, [sp, #4]
    registers[2] |= 0x6 <<  MAX2870_REG2_MUX_OFFSET;
 8008f8e:	f043 52c0 	orr.w	r2, r3, #402653184	; 0x18000000
 8008f92:	9206      	str	r2, [sp, #24]
    if(!driver->config->invertingLoopFilter) {
 8008f94:	f89a 200a 	ldrb.w	r2, [sl, #10]
    registers[4] |= outDivide << MAX2870_REG4_DIVA_OFFSET;
 8008f98:	f8cd b020 	str.w	fp, [sp, #32]
    if(!driver->config->invertingLoopFilter) {
 8008f9c:	b922      	cbnz	r2, 8008fa8 <max2870TuneNoLock+0x128>
        registers[2] |= _BV(MAX2870_REG2_PDP_OFFSET);
 8008f9e:	f043 53c0 	orr.w	r3, r3, #402653184	; 0x18000000
 8008fa2:	f043 0340 	orr.w	r3, r3, #64	; 0x40
 8008fa6:	9306      	str	r3, [sp, #24]
    registers[2] |= driver->config->chargePumpCurrent << MAX2870_REG2_CP_OFFSET;
 8008fa8:	f89a 200b 	ldrb.w	r2, [sl, #11]
    registers[2] |= driver->config->spurMode << MAX2870_REG2_SDN_OFFSET;
 8008fac:	f89a 100c 	ldrb.w	r1, [sl, #12]
    registers[2] |= driver->config->chargePumpCurrent << MAX2870_REG2_CP_OFFSET;
 8008fb0:	0253      	lsls	r3, r2, #9
    registers[2] |= driver->config->spurMode << MAX2870_REG2_SDN_OFFSET;
 8008fb2:	ea43 7341 	orr.w	r3, r3, r1, lsl #29
 8008fb6:	9906      	ldr	r1, [sp, #24]
    if(driver->pfdFrequency > 32000000) {
 8008fb8:	487c      	ldr	r0, [pc, #496]	; (80091ac <max2870TuneNoLock+0x32c>)
    registers[2] |= driver->config->spurMode << MAX2870_REG2_SDN_OFFSET;
 8008fba:	430b      	orrs	r3, r1
    if(driver->pfdFrequency > 32000000) {
 8008fbc:	f8d5 10b8 	ldr.w	r1, [r5, #184]	; 0xb8
    registers[2] |= driver->config->spurMode << MAX2870_REG2_SDN_OFFSET;
 8008fc0:	9306      	str	r3, [sp, #24]
    if(driver->pfdFrequency > 32000000) {
 8008fc2:	4281      	cmp	r1, r0
    if(tune->fastLockDurationMicroseconds) {
 8008fc4:	68e0      	ldr	r0, [r4, #12]
        registers[2] |= _BV(MAX2870_REG2_LDS_OFFSET);
 8008fc6:	bf84      	itt	hi
 8008fc8:	f043 4300 	orrhi.w	r3, r3, #2147483648	; 0x80000000
 8008fcc:	9306      	strhi	r3, [sp, #24]
    if(tune->fastLockDurationMicroseconds) {
 8008fce:	b1a0      	cbz	r0, 8008ffa <max2870TuneNoLock+0x17a>
        if(driver->config->chargePumpCurrent) {
 8008fd0:	2a00      	cmp	r2, #0
 8008fd2:	f040 8163 	bne.w	800929c <max2870TuneNoLock+0x41c>
        uint32_t tmp = (uint64_t)driver->pfdFrequency * (uint64_t)tune->fastLockDurationMicroseconds / 1000000;
 8008fd6:	2300      	movs	r3, #0
 8008fd8:	fba1 0100 	umull	r0, r1, r1, r0
 8008fdc:	4a74      	ldr	r2, [pc, #464]	; (80091b0 <max2870TuneNoLock+0x330>)
 8008fde:	f7fa fbf5 	bl	80037cc <__aeabi_uldivmod>
        tmp /= pllFracM;
 8008fe2:	fbb0 f3f8 	udiv	r3, r0, r8
        if(tmp>4095) {
 8008fe6:	f5b3 5f80 	cmp.w	r3, #4096	; 0x1000
 8008fea:	f080 8090 	bcs.w	800910e <max2870TuneNoLock+0x28e>
        if(tmp) {
 8008fee:	4580      	cmp	r8, r0
 8008ff0:	d803      	bhi.n	8008ffa <max2870TuneNoLock+0x17a>
            registers[3] |= tmp << MAX2870_REG3_CDIV_OFFSET;
 8008ff2:	00db      	lsls	r3, r3, #3
 8008ff4:	f443 4300 	orr.w	r3, r3, #32768	; 0x8000
 8008ff8:	9307      	str	r3, [sp, #28]
    if(!tune->outBfundamental) {
 8008ffa:	7aa3      	ldrb	r3, [r4, #10]
 8008ffc:	b913      	cbnz	r3, 8009004 <max2870TuneNoLock+0x184>
        registers[4] |= _BV(MAX2870_REG4_BDIV_OFFSET);
 8008ffe:	f44b 7300 	orr.w	r3, fp, #512	; 0x200
 8009002:	9308      	str	r3, [sp, #32]
    registers[4] |= (driver->bsValue & 0xFF) << MAX2870_REG4_BS_OFFSET;
 8009004:	f8b5 20c4 	ldrh.w	r2, [r5, #196]	; 0xc4
    uint16_t vcoIndex = (frequency - MAX2870_VCO_MIN_FREQUENCY) / MAX2870_VCO_INCREMENT;
 8009008:	486a      	ldr	r0, [pc, #424]	; (80091b4 <max2870TuneNoLock+0x334>)
    registers[4] |= (driver->bsValue & 0xFF) << MAX2870_REG4_BS_OFFSET;
 800900a:	0313      	lsls	r3, r2, #12
 800900c:	f403 237f 	and.w	r3, r3, #1044480	; 0xff000
    registers[4] |= (driver->bsValue >> 8) << MAX2870_REG4_BS_MSB_OFFSET;
 8009010:	0a12      	lsrs	r2, r2, #8
 8009012:	ea43 6302 	orr.w	r3, r3, r2, lsl #24
 8009016:	9a08      	ldr	r2, [sp, #32]
    uint16_t vcoIndex = (frequency - MAX2870_VCO_MIN_FREQUENCY) / MAX2870_VCO_INCREMENT;
 8009018:	1830      	adds	r0, r6, r0
    registers[4] |= (driver->bsValue >> 8) << MAX2870_REG4_BS_MSB_OFFSET;
 800901a:	ea43 0302 	orr.w	r3, r3, r2
    registers[4] |= _BV(MAX2870_REG4_FB_OFFSET);
 800901e:	f443 0300 	orr.w	r3, r3, #8388608	; 0x800000
 8009022:	9308      	str	r3, [sp, #32]
    registers[5] = 0;
 8009024:	f04f 0300 	mov.w	r3, #0
    uint16_t vcoIndex = (frequency - MAX2870_VCO_MIN_FREQUENCY) / MAX2870_VCO_INCREMENT;
 8009028:	f147 31ff 	adc.w	r1, r7, #4294967295	; 0xffffffff
    registers[5] = 0;
 800902c:	9309      	str	r3, [sp, #36]	; 0x24
    uint16_t vcoIndex = (frequency - MAX2870_VCO_MIN_FREQUENCY) / MAX2870_VCO_INCREMENT;
 800902e:	a35c      	add	r3, pc, #368	; (adr r3, 80091a0 <max2870TuneNoLock+0x320>)
 8009030:	e9d3 2300 	ldrd	r2, r3, [r3]
 8009034:	f7fa fbca 	bl	80037cc <__aeabi_uldivmod>
    if((driver->vcoCache[vcoIndex] & 0x80) && !tune->useVCOAutotune) {
 8009038:	182f      	adds	r7, r5, r0
 800903a:	f997 3020 	ldrsb.w	r3, [r7, #32]
 800903e:	f897 2020 	ldrb.w	r2, [r7, #32]
 8009042:	2b00      	cmp	r3, #0
 8009044:	da66      	bge.n	8009114 <max2870TuneNoLock+0x294>
 8009046:	7c26      	ldrb	r6, [r4, #16]
 8009048:	b92e      	cbnz	r6, 8009056 <max2870TuneNoLock+0x1d6>
        registers[3] |= (driver->vcoCache[vcoIndex] & 0x3F) << MAX2870_REG3_VCO_OFFSET;
 800904a:	9b07      	ldr	r3, [sp, #28]
 800904c:	ea43 6382 	orr.w	r3, r3, r2, lsl #26
        registers[3] |= _BV(MAX2870_REG3_VAS_SHDN_OFFSET);
 8009050:	f043 7300 	orr.w	r3, r3, #33554432	; 0x2000000
 8009054:	9307      	str	r3, [sp, #28]
    if(!driver->enabled) {
 8009056:	792b      	ldrb	r3, [r5, #4]
 8009058:	b99b      	cbnz	r3, 8009082 <max2870TuneNoLock+0x202>
        if(driver->config->gpioChipEnable != 0xffff) {
 800905a:	f64f 73ff 	movw	r3, #65535	; 0xffff
 800905e:	f8ba 0008 	ldrh.w	r0, [sl, #8]
 8009062:	4298      	cmp	r0, r3
 8009064:	d005      	beq.n	8009072 <max2870TuneNoLock+0x1f2>
            gpioSetPin(driver->config->gpioChipEnable, true);
 8009066:	2101      	movs	r1, #1
 8009068:	f7fc fab0 	bl	80055cc <gpioSetPin>
            osalThreadSleepMilliseconds(20);
 800906c:	2014      	movs	r0, #20
 800906e:	f7fb fd7b 	bl	8004b68 <vTaskDelay>
        max2870WriteAllRegisters(driver, registers, true);
 8009072:	2201      	movs	r2, #1
 8009074:	4628      	mov	r0, r5
 8009076:	a904      	add	r1, sp, #16
 8009078:	f7fe fd00 	bl	8007a7c <max2870WriteAllRegisters>
        osalThreadSleepMilliseconds(20);
 800907c:	2014      	movs	r0, #20
 800907e:	f7fb fd73 	bl	8004b68 <vTaskDelay>
        *power = -4;
 8009082:	f04f 08fc 	mov.w	r8, #252	; 0xfc
        *power = 2;
 8009086:	f04f 0a02 	mov.w	sl, #2
    if(*power < -4) {
 800908a:	f994 3008 	ldrsb.w	r3, [r4, #8]
 800908e:	1d18      	adds	r0, r3, #4
 8009090:	da42      	bge.n	8009118 <max2870TuneNoLock+0x298>
        *power = -127;
 8009092:	2381      	movs	r3, #129	; 0x81
        return registerValue;
 8009094:	2200      	movs	r2, #0
        *power = -127;
 8009096:	7223      	strb	r3, [r4, #8]
        registers[4] |= max2870PowerToRegister(&tune->powerA) << MAX2870_REG4_APWR_OFFSET;
 8009098:	9b08      	ldr	r3, [sp, #32]
 800909a:	ea43 03c2 	orr.w	r3, r3, r2, lsl #3
    if(*power < -4) {
 800909e:	f994 2009 	ldrsb.w	r2, [r4, #9]
 80090a2:	1d11      	adds	r1, r2, #4
 80090a4:	da4e      	bge.n	8009144 <max2870TuneNoLock+0x2c4>
        *power = -127;
 80090a6:	2281      	movs	r2, #129	; 0x81
 80090a8:	7262      	strb	r2, [r4, #9]
        return registerValue;
 80090aa:	2200      	movs	r2, #0
        registers[4] |= max2870PowerToRegister(&tune->powerB) << MAX2870_REG4_BPWR_OFFSET;
 80090ac:	ea43 1382 	orr.w	r3, r3, r2, lsl #6
 80090b0:	9308      	str	r3, [sp, #32]
        if(driver->pllMonReloadCounter >= 20) {
 80090b2:	f895 30e4 	ldrb.w	r3, [r5, #228]	; 0xe4
            max2870WriteAllRegisters(driver, registers, !driver->enabled);
 80090b6:	4628      	mov	r0, r5
        if(driver->pllMonReloadCounter >= 20) {
 80090b8:	2b13      	cmp	r3, #19
            driver->pllMonReloadCounter = 0;
 80090ba:	bf89      	itett	hi
 80090bc:	2300      	movhi	r3, #0
            max2870WriteAllRegisters(driver, registers, !driver->enabled);
 80090be:	792a      	ldrbls	r2, [r5, #4]
            max2870WriteAllRegisters(driver, registers, true);
 80090c0:	2201      	movhi	r2, #1
            driver->pllMonReloadCounter = 0;
 80090c2:	f885 30e4 	strbhi.w	r3, [r5, #228]	; 0xe4
            max2870WriteAllRegisters(driver, registers, !driver->enabled);
 80090c6:	bf98      	it	ls
 80090c8:	f082 0201 	eorls.w	r2, r2, #1
 80090cc:	a904      	add	r1, sp, #16
 80090ce:	f7fe fcd5 	bl	8007a7c <max2870WriteAllRegisters>
    registerValue = _BV(2); /* Output enabled */
 80090d2:	f04f 0b00 	mov.w	fp, #0
            spiReceive(driver->config->spiPort, sizeof(lock), &lock);
 80090d6:	682a      	ldr	r2, [r5, #0]
 80090d8:	6810      	ldr	r0, [r2, #0]
  osalDbgCheck((spip != NULL) && (n > 0U) && (rxbuf != NULL));
 80090da:	2800      	cmp	r0, #0
 80090dc:	d148      	bne.n	8009170 <max2870TuneNoLock+0x2f0>
 80090de:	f7fb f92f 	bl	8004340 <vTaskEndScheduler>
 80090e2:	e7fe      	b.n	80090e2 <max2870TuneNoLock+0x262>
        frequency *= 2;
 80090e4:	19b6      	adds	r6, r6, r6
 80090e6:	468b      	mov	fp, r1
 80090e8:	417f      	adcs	r7, r7
        outDivide++;
 80090ea:	e6f3      	b.n	8008ed4 <max2870TuneNoLock+0x54>
        u >>= 1;
 80090ec:	085b      	lsrs	r3, r3, #1
        v >>= 1;
 80090ee:	0852      	lsrs	r2, r2, #1
    for (shift = 0; ((u | v) & 1) == 0; ++shift) {
 80090f0:	f10c 0c01 	add.w	ip, ip, #1
 80090f4:	e717      	b.n	8008f26 <max2870TuneNoLock+0xa6>
        u >>= 1;
 80090f6:	085b      	lsrs	r3, r3, #1
 80090f8:	e71b      	b.n	8008f32 <max2870TuneNoLock+0xb2>
            v >>= 1;
 80090fa:	0852      	lsrs	r2, r2, #1
 80090fc:	e71d      	b.n	8008f3a <max2870TuneNoLock+0xba>
        registers[0] |= _BV(MAX2870_REG0_INT_OFFSET);
 80090fe:	f04f 4300 	mov.w	r3, #2147483648	; 0x80000000
        registers[1] |= _BV(MAX2870_REG1_CPOC_OFFSET);
 8009102:	e9cd 3304 	strd	r3, r3, [sp, #16]
        registers[2] |= _BV(MAX2870_REG2_LDF_OFFSET);
 8009106:	f44f 7380 	mov.w	r3, #256	; 0x100
 800910a:	9306      	str	r3, [sp, #24]
 800910c:	e72a      	b.n	8008f64 <max2870TuneNoLock+0xe4>
            tmp = 4095;
 800910e:	f640 73ff 	movw	r3, #4095	; 0xfff
 8009112:	e76e      	b.n	8008ff2 <max2870TuneNoLock+0x172>
    bool vcoAutoTune = true;
 8009114:	2601      	movs	r6, #1
 8009116:	e79e      	b.n	8009056 <max2870TuneNoLock+0x1d6>
    if(*power >= 5) {
 8009118:	2b04      	cmp	r3, #4
 800911a:	dd03      	ble.n	8009124 <max2870TuneNoLock+0x2a4>
        *power = 5;
 800911c:	2305      	movs	r3, #5
        registerValue |= 3;
 800911e:	2207      	movs	r2, #7
        *power = 5;
 8009120:	7223      	strb	r3, [r4, #8]
        registerValue |= 3;
 8009122:	e7b9      	b.n	8009098 <max2870TuneNoLock+0x218>
    } else if(*power >= 2) {
 8009124:	2b01      	cmp	r3, #1
 8009126:	dd03      	ble.n	8009130 <max2870TuneNoLock+0x2b0>
        registerValue |= 2;
 8009128:	2206      	movs	r2, #6
        *power = 2;
 800912a:	f884 a008 	strb.w	sl, [r4, #8]
        registerValue |= 2;
 800912e:	e7b3      	b.n	8009098 <max2870TuneNoLock+0x218>
    } else if(*power >= -1) {
 8009130:	3301      	adds	r3, #1
        *power = -1;
 8009132:	bfa5      	ittet	ge
 8009134:	23ff      	movge	r3, #255	; 0xff
        registerValue |= 1;
 8009136:	2205      	movge	r2, #5
    registerValue = _BV(2); /* Output enabled */
 8009138:	2204      	movlt	r2, #4
        *power = -1;
 800913a:	7223      	strbge	r3, [r4, #8]
        *power = -4;
 800913c:	bfb8      	it	lt
 800913e:	f884 8008 	strblt.w	r8, [r4, #8]
 8009142:	e7a9      	b.n	8009098 <max2870TuneNoLock+0x218>
    if(*power >= 5) {
 8009144:	2a04      	cmp	r2, #4
 8009146:	dd03      	ble.n	8009150 <max2870TuneNoLock+0x2d0>
        *power = 5;
 8009148:	2205      	movs	r2, #5
 800914a:	7262      	strb	r2, [r4, #9]
        registerValue |= 3;
 800914c:	2207      	movs	r2, #7
 800914e:	e7ad      	b.n	80090ac <max2870TuneNoLock+0x22c>
    } else if(*power >= 2) {
 8009150:	2a01      	cmp	r2, #1
 8009152:	dd03      	ble.n	800915c <max2870TuneNoLock+0x2dc>
        registerValue |= 2;
 8009154:	2206      	movs	r2, #6
        *power = 2;
 8009156:	f884 a009 	strb.w	sl, [r4, #9]
        registerValue |= 2;
 800915a:	e7a7      	b.n	80090ac <max2870TuneNoLock+0x22c>
    } else if(*power >= -1) {
 800915c:	3201      	adds	r2, #1
        *power = -1;
 800915e:	bfab      	itete	ge
 8009160:	22ff      	movge	r2, #255	; 0xff
    registerValue = _BV(2); /* Output enabled */
 8009162:	2204      	movlt	r2, #4
        *power = -1;
 8009164:	7262      	strbge	r2, [r4, #9]
        *power = -4;
 8009166:	f884 8009 	strblt.w	r8, [r4, #9]
        registerValue |= 1;
 800916a:	bfa8      	it	ge
 800916c:	2205      	movge	r2, #5
        *power = -4;
 800916e:	e79d      	b.n	80090ac <max2870TuneNoLock+0x22c>
  osalSysLock();
 8009170:	f7fb f838 	bl	80041e4 <vPortEnterCritical>
  osalDbgAssert(spip->state == SPI_READY, "not ready");
 8009174:	7801      	ldrb	r1, [r0, #0]
 8009176:	2902      	cmp	r1, #2
 8009178:	d002      	beq.n	8009180 <max2870TuneNoLock+0x300>
 800917a:	f7fb f8e1 	bl	8004340 <vTaskEndScheduler>
 800917e:	e7fe      	b.n	800917e <max2870TuneNoLock+0x2fe>
  osalDbgAssert(spip->config->end_cb == NULL, "has callback");
 8009180:	6842      	ldr	r2, [r0, #4]
 8009182:	6812      	ldr	r2, [r2, #0]
 8009184:	b1c2      	cbz	r2, 80091b8 <max2870TuneNoLock+0x338>
 8009186:	f7fb f8db 	bl	8004340 <vTaskEndScheduler>
 800918a:	e7fe      	b.n	800918a <max2870TuneNoLock+0x30a>
 800918c:	f3af 8000 	nop.w
 8009190:	643b1b44 	.word	0x643b1b44
 8009194:	00000001 	.word	0x00000001
 8009198:	b2d05dff 	.word	0xb2d05dff
 800919c:	00000000 	.word	0x00000000
 80091a0:	01312d00 	.word	0x01312d00
 80091a4:	00000000 	.word	0x00000000
 80091a8:	fe9a5f44 	.word	0xfe9a5f44
 80091ac:	01e84800 	.word	0x01e84800
 80091b0:	000f4240 	.word	0x000f4240
 80091b4:	4d2fa200 	.word	0x4d2fa200
 80091b8:	f10d 020e 	add.w	r2, sp, #14
 80091bc:	f7fd ff8e 	bl	80070dc <spiReceive.part.0>
            if(timeoutCnt == 255) {
 80091c0:	f1bb 0fff 	cmp.w	fp, #255	; 0xff
 80091c4:	d14e      	bne.n	8009264 <max2870TuneNoLock+0x3e4>
                if(!vcoAutoTune) {
 80091c6:	b9e6      	cbnz	r6, 8009202 <max2870TuneNoLock+0x382>
                    registers[3] &=~ _BV(MAX2870_REG3_VAS_SHDN_OFFSET);
 80091c8:	9a07      	ldr	r2, [sp, #28]
    } while(lock != 0xFFFF);
 80091ca:	f8bd 100e 	ldrh.w	r1, [sp, #14]
                    registers[3] &=~ _BV(MAX2870_REG3_VAS_SHDN_OFFSET);
 80091ce:	f022 7200 	bic.w	r2, r2, #33554432	; 0x2000000
 80091d2:	9207      	str	r2, [sp, #28]
    } while(lock != 0xFFFF);
 80091d4:	f64f 72ff 	movw	r2, #65535	; 0xffff
 80091d8:	4291      	cmp	r1, r2
                    driver->vcoCache[vcoIndex] = 0;
 80091da:	f887 6020 	strb.w	r6, [r7, #32]
                    vcoAutoTune = true;
 80091de:	f04f 0601 	mov.w	r6, #1
    } while(lock != 0xFFFF);
 80091e2:	f47f af52 	bne.w	800908a <max2870TuneNoLock+0x20a>
 80091e6:	465a      	mov	r2, fp
    tune->frequency = ((uint64_t)steps * (uint64_t)driver->config->stepFrequency);
 80091e8:	682b      	ldr	r3, [r5, #0]
 80091ea:	6998      	ldr	r0, [r3, #24]
 80091ec:	fba0 0109 	umull	r0, r1, r0, r9
 80091f0:	e9c4 0100 	strd	r0, r1, [r4]
    for(int i=0; i<outDivide; i++) {
 80091f4:	2000      	movs	r0, #0
 80091f6:	9b01      	ldr	r3, [sp, #4]
 80091f8:	4283      	cmp	r3, r0
 80091fa:	dc3f      	bgt.n	800927c <max2870TuneNoLock+0x3fc>
    MAX2870TuneResult result = TUNE_OK;
 80091fc:	f04f 0800 	mov.w	r8, #0
 8009200:	e005      	b.n	800920e <max2870TuneNoLock+0x38e>
                    syslog("MAX2870 Tuning failed.");
 8009202:	4828      	ldr	r0, [pc, #160]	; (80092a4 <max2870TuneNoLock+0x424>)
 8009204:	f7ff fcca 	bl	8008b9c <syslog>
                    result = TUNE_NOT_LOCKED;
 8009208:	f06f 0803 	mvn.w	r8, #3
                    syslog("MAX2870 Tuning failed.");
 800920c:	465a      	mov	r2, fp
    reg6 = max2870ReadRegister6(driver);
 800920e:	4628      	mov	r0, r5
 8009210:	9201      	str	r2, [sp, #4]
 8009212:	f7fe fdbb 	bl	8007d8c <max2870ReadRegister6>
    if(vcoAutoTune && result==TUNE_OK) {
 8009216:	9a01      	ldr	r2, [sp, #4]
 8009218:	0843      	lsrs	r3, r0, #1
 800921a:	b146      	cbz	r6, 800922e <max2870TuneNoLock+0x3ae>
 800921c:	f1b8 0f00 	cmp.w	r8, #0
 8009220:	d105      	bne.n	800922e <max2870TuneNoLock+0x3ae>
        driver->vcoCache[vcoIndex] = 0x80 | ((reg6 >> MAX2870_REG6_V_OFFSET) & 0x3F);
 8009222:	f003 013f 	and.w	r1, r3, #63	; 0x3f
 8009226:	f061 017f 	orn	r1, r1, #127	; 0x7f
 800922a:	f887 1020 	strb.w	r1, [r7, #32]
    tune->adcVoltage = (reg6 >>MAX2870_REG6_ADC_OFFSET) & 7;
 800922e:	f3c0 4082 	ubfx	r0, r0, #18, #3
 8009232:	74a0      	strb	r0, [r4, #18]
    tune->isLocked = (result == TUNE_OK);
 8009234:	fab8 f088 	clz	r0, r8
    tune->usedVCO = (reg6 >> MAX2870_REG6_V_OFFSET) & 0x3F;
 8009238:	f003 033f 	and.w	r3, r3, #63	; 0x3f
 800923c:	7463      	strb	r3, [r4, #17]
    tune->lockTime = timeoutCnt;
 800923e:	74e2      	strb	r2, [r4, #19]
    if(driver->config->lockStatus) {
 8009240:	682b      	ldr	r3, [r5, #0]
    tune->isLocked = (result == TUNE_OK);
 8009242:	0940      	lsrs	r0, r0, #5
    if(driver->config->lockStatus) {
 8009244:	69db      	ldr	r3, [r3, #28]
    tune->usedVCOAutotune = vcoAutoTune;
 8009246:	7566      	strb	r6, [r4, #21]
    tune->isLocked = (result == TUNE_OK);
 8009248:	7520      	strb	r0, [r4, #20]
    if(driver->config->lockStatus) {
 800924a:	b103      	cbz	r3, 800924e <max2870TuneNoLock+0x3ce>
        driver->config->lockStatus(tune->isLocked);
 800924c:	4798      	blx	r3
    driver->enabled = true;
 800924e:	2301      	movs	r3, #1
    driver->currentTune = *tune;
 8009250:	3508      	adds	r5, #8
    driver->enabled = true;
 8009252:	f805 3c04 	strb.w	r3, [r5, #-4]
    driver->currentTune = *tune;
 8009256:	cc0f      	ldmia	r4!, {r0, r1, r2, r3}
 8009258:	c50f      	stmia	r5!, {r0, r1, r2, r3}
 800925a:	e894 0003 	ldmia.w	r4, {r0, r1}
 800925e:	e885 0003 	stmia.w	r5, {r0, r1}
    return result;
 8009262:	e621      	b.n	8008ea8 <max2870TuneNoLock+0x28>
            timeoutCnt++;
 8009264:	f10b 0301 	add.w	r3, fp, #1
 8009268:	469b      	mov	fp, r3
 800926a:	b2da      	uxtb	r2, r3
        } while(lock != 0xFFFF);
 800926c:	f64f 73ff 	movw	r3, #65535	; 0xffff
 8009270:	f8bd 100e 	ldrh.w	r1, [sp, #14]
 8009274:	4299      	cmp	r1, r3
 8009276:	f47f af2e 	bne.w	80090d6 <max2870TuneNoLock+0x256>
 800927a:	e7b5      	b.n	80091e8 <max2870TuneNoLock+0x368>
        tune->frequency /= 2;
 800927c:	e9d4 3100 	ldrd	r3, r1, [r4]
 8009280:	085b      	lsrs	r3, r3, #1
 8009282:	ea43 73c1 	orr.w	r3, r3, r1, lsl #31
 8009286:	0849      	lsrs	r1, r1, #1
 8009288:	e9c4 3100 	strd	r3, r1, [r4]
    for(int i=0; i<outDivide; i++) {
 800928c:	3001      	adds	r0, #1
 800928e:	e7b2      	b.n	80091f6 <max2870TuneNoLock+0x376>
        return TUNE_FREQUENCY_OUT_OF_RANGE;
 8009290:	f04f 38ff 	mov.w	r8, #4294967295	; 0xffffffff
 8009294:	e608      	b.n	8008ea8 <max2870TuneNoLock+0x28>
        return TUNE_PLL_N_OUT_OF_RANGE;
 8009296:	f06f 0801 	mvn.w	r8, #1
 800929a:	e605      	b.n	8008ea8 <max2870TuneNoLock+0x28>
            return TUNE_CANT_FASTLOCK;
 800929c:	f06f 0802 	mvn.w	r8, #2
 80092a0:	e602      	b.n	8008ea8 <max2870TuneNoLock+0x28>
 80092a2:	bf00      	nop
 80092a4:	0800b9e2 	.word	0x0800b9e2

080092a8 <max2870VcoPrecal>:

    return result;
}

bool max2870VcoPrecal(MAX2870Driver* driver)
{
 80092a8:	e92d 4ff0 	stmdb	sp!, {r4, r5, r6, r7, r8, r9, sl, fp, lr}
    tune.powerB = -127;
    tune.fastLockDurationMicroseconds = 0;

    max2870SpiState(driver, true);

    for(tune.frequency = MAX2870_VCO_MIN_FREQUENCY + MAX2870_VCO_INCREMENT/2;
 80092ac:	f20f 09b0 	addw	r9, pc, #176	; 0xb0
 80092b0:	e9d9 8900 	ldrd	r8, r9, [r9]
{
 80092b4:	b08f      	sub	sp, #60	; 0x3c
    bool pllWasEnabled = driver->enabled;
 80092b6:	7903      	ldrb	r3, [r0, #4]
    MAX2870TuneRequest previousTune = driver->currentTune;
 80092b8:	ad08      	add	r5, sp, #32
 80092ba:	f100 0c08 	add.w	ip, r0, #8
{
 80092be:	4604      	mov	r4, r0
    bool pllWasEnabled = driver->enabled;
 80092c0:	9301      	str	r3, [sp, #4]
    MAX2870TuneRequest previousTune = driver->currentTune;
 80092c2:	e8bc 000f 	ldmia.w	ip!, {r0, r1, r2, r3}
 80092c6:	c50f      	stmia	r5!, {r0, r1, r2, r3}
 80092c8:	e89c 0003 	ldmia.w	ip, {r0, r1}
    MAX2870TuneRequest tune = {};
 80092cc:	2218      	movs	r2, #24
    MAX2870TuneRequest previousTune = driver->currentTune;
 80092ce:	e885 0003 	stmia.w	r5, {r0, r1}
    MAX2870TuneRequest tune = {};
 80092d2:	2100      	movs	r1, #0
 80092d4:	a802      	add	r0, sp, #8
 80092d6:	f7fa fc6b 	bl	8003bb0 <memset>
    tune.useVCOAutotune = true;
 80092da:	2501      	movs	r5, #1
    tune.powerA = -127;
 80092dc:	f248 1381 	movw	r3, #33153	; 0x8181
            tune.frequency < MAX2870_VCO_MAX_FREQUENCY;
            tune.frequency += MAX2870_VCO_INCREMENT) {
 80092e0:	f04f 0b00 	mov.w	fp, #0
    max2870SpiState(driver, true);
 80092e4:	4620      	mov	r0, r4
    tune.powerA = -127;
 80092e6:	f8ad 3010 	strh.w	r3, [sp, #16]
    tune.useVCOAutotune = true;
 80092ea:	f88d 5018 	strb.w	r5, [sp, #24]
    max2870SpiState(driver, true);
 80092ee:	f7fe fbe5 	bl	8007abc <max2870SpiState.constprop.0>
    for(tune.frequency = MAX2870_VCO_MIN_FREQUENCY + MAX2870_VCO_INCREMENT/2;
 80092f2:	a31d      	add	r3, pc, #116	; (adr r3, 8009368 <max2870VcoPrecal+0xc0>)
 80092f4:	e9d3 2300 	ldrd	r2, r3, [r3]
 80092f8:	e9cd 2302 	strd	r2, r3, [sp, #8]
            tune.frequency += MAX2870_VCO_INCREMENT) {
 80092fc:	f8df a070 	ldr.w	sl, [pc, #112]	; 8009370 <max2870VcoPrecal+0xc8>

        if(max2870TuneNoLock(driver, &tune)) {
 8009300:	4620      	mov	r0, r4
 8009302:	a902      	add	r1, sp, #8
 8009304:	f7ff fdbc 	bl	8008e80 <max2870TuneNoLock>
            tune.frequency += MAX2870_VCO_INCREMENT) {
 8009308:	9b02      	ldr	r3, [sp, #8]
            allGood = false;
 800930a:	2800      	cmp	r0, #0
 800930c:	bf18      	it	ne
 800930e:	2500      	movne	r5, #0
            tune.frequency += MAX2870_VCO_INCREMENT) {
 8009310:	eb13 060a 	adds.w	r6, r3, sl
 8009314:	9b03      	ldr	r3, [sp, #12]
 8009316:	eb43 070b 	adc.w	r7, r3, fp
    for(tune.frequency = MAX2870_VCO_MIN_FREQUENCY + MAX2870_VCO_INCREMENT/2;
 800931a:	45b9      	cmp	r9, r7
 800931c:	bf08      	it	eq
 800931e:	45b0      	cmpeq	r8, r6
            tune.frequency += MAX2870_VCO_INCREMENT) {
 8009320:	e9cd 6702 	strd	r6, r7, [sp, #8]
    for(tune.frequency = MAX2870_VCO_MIN_FREQUENCY + MAX2870_VCO_INCREMENT/2;
 8009324:	d2ec      	bcs.n	8009300 <max2870VcoPrecal+0x58>
        }
    }

    if(!pllWasEnabled) {
 8009326:	9b01      	ldr	r3, [sp, #4]
 8009328:	b993      	cbnz	r3, 8009350 <max2870VcoPrecal+0xa8>
        max2870Disable(driver);
 800932a:	4620      	mov	r0, r4
 800932c:	f7fe fb6e 	bl	8007a0c <max2870Disable>
    } else {
        max2870TuneNoLock(driver, &previousTune);
    }

    /* Limited sanity check */
    if(driver->vcoCache[0] >= 0x9f ||
 8009330:	f894 3020 	ldrb.w	r3, [r4, #32]
 8009334:	2b9e      	cmp	r3, #158	; 0x9e
 8009336:	d810      	bhi.n	800935a <max2870VcoPrecal+0xb2>
 8009338:	f894 30b5 	ldrb.w	r3, [r4, #181]	; 0xb5
    		driver->vcoCache[sizeof(driver->vcoCache)-1] <= 0x9f) {
    	allGood = false;
 800933c:	2b9f      	cmp	r3, #159	; 0x9f
 800933e:	bf98      	it	ls
 8009340:	2500      	movls	r5, #0
    if(enable) {
 8009342:	4620      	mov	r0, r4
 8009344:	f7fe ff78 	bl	8008238 <max2870SpiState.part.0>
    }

    max2870SpiState(driver, false);

    return allGood;
}
 8009348:	4628      	mov	r0, r5
 800934a:	b00f      	add	sp, #60	; 0x3c
 800934c:	e8bd 8ff0 	ldmia.w	sp!, {r4, r5, r6, r7, r8, r9, sl, fp, pc}
        max2870TuneNoLock(driver, &previousTune);
 8009350:	4620      	mov	r0, r4
 8009352:	a908      	add	r1, sp, #32
 8009354:	f7ff fd94 	bl	8008e80 <max2870TuneNoLock>
 8009358:	e7ea      	b.n	8009330 <max2870VcoPrecal+0x88>
    	allGood = false;
 800935a:	2500      	movs	r5, #0
 800935c:	e7f1      	b.n	8009342 <max2870VcoPrecal+0x9a>
 800935e:	bf00      	nop
 8009360:	65a0bbff 	.word	0x65a0bbff
 8009364:	00000001 	.word	0x00000001
 8009368:	b368f480 	.word	0xb368f480
 800936c:	00000000 	.word	0x00000000
 8009370:	01312d00 	.word	0x01312d00

08009374 <max2870Tune>:
{
 8009374:	b538      	push	{r3, r4, r5, lr}
 8009376:	4604      	mov	r4, r0
 8009378:	460d      	mov	r5, r1
    max2870SpiState(driver, true);
 800937a:	f7fe fb9f 	bl	8007abc <max2870SpiState.constprop.0>
    MAX2870TuneResult result = max2870TuneNoLock(driver, tune);
 800937e:	4629      	mov	r1, r5
 8009380:	4620      	mov	r0, r4
 8009382:	f7ff fd7d 	bl	8008e80 <max2870TuneNoLock>
 8009386:	4605      	mov	r5, r0
    if(enable) {
 8009388:	4620      	mov	r0, r4
 800938a:	f7fe ff55 	bl	8008238 <max2870SpiState.part.0>
}
 800938e:	4628      	mov	r0, r5
 8009390:	bd38      	pop	{r3, r4, r5, pc}
	...

08009394 <converterSHFLoTune>:
{
 8009394:	b57f      	push	{r0, r1, r2, r3, r4, r5, r6, lr}
    tune.fastLockDurationMicroseconds = 0;
 8009396:	2300      	movs	r3, #0
 8009398:	9303      	str	r3, [sp, #12]
    tune.useVCOAutotune = false;
 800939a:	f88d 3010 	strb.w	r3, [sp, #16]
    tune.powerB = -127;
 800939e:	2381      	movs	r3, #129	; 0x81
 80093a0:	f88d 3009 	strb.w	r3, [sp, #9]
    tune.frequency = (uint64_t)freqKHz * 1000;
 80093a4:	f44f 737a 	mov.w	r3, #1000	; 0x3e8
    tune.powerA = power;
 80093a8:	f88d 1008 	strb.w	r1, [sp, #8]
    tune.frequency = (uint64_t)freqKHz * 1000;
 80093ac:	fba0 0103 	umull	r0, r1, r0, r3
 80093b0:	e9cd 0100 	strd	r0, r1, [sp]
    return max2870Tune(&loPLL, &tune) == TUNE_OK;
 80093b4:	4669      	mov	r1, sp
 80093b6:	4804      	ldr	r0, [pc, #16]	; (80093c8 <converterSHFLoTune+0x34>)
 80093b8:	f7ff ffdc 	bl	8009374 <max2870Tune>
}
 80093bc:	fab0 f080 	clz	r0, r0
 80093c0:	0940      	lsrs	r0, r0, #5
 80093c2:	b007      	add	sp, #28
 80093c4:	f85d fb04 	ldr.w	pc, [sp], #4
 80093c8:	20001098 	.word	0x20001098

080093cc <max2870DoMonitorTask>:
{
 80093cc:	b538      	push	{r3, r4, r5, lr}
 80093ce:	4604      	mov	r4, r0
    max2870SpiState(driver, true);
 80093d0:	f7fe fb74 	bl	8007abc <max2870SpiState.constprop.0>
    if(driver->enabled) {
 80093d4:	7925      	ldrb	r5, [r4, #4]
 80093d6:	b165      	cbz	r5, 80093f2 <max2870DoMonitorTask+0x26>
        if(driver->pllMonReloadCounter >= 29) {
 80093d8:	f894 30e4 	ldrb.w	r3, [r4, #228]	; 0xe4
 80093dc:	2b1c      	cmp	r3, #28
 80093de:	d90d      	bls.n	80093fc <max2870DoMonitorTask+0x30>
            max2870WriteAllRegisters(driver, driver->registers, true);
 80093e0:	2201      	movs	r2, #1
 80093e2:	4620      	mov	r0, r4
 80093e4:	f104 01c8 	add.w	r1, r4, #200	; 0xc8
 80093e8:	f7fe fb48 	bl	8007a7c <max2870WriteAllRegisters>
            driver->pllMonReloadCounter = 0;
 80093ec:	2300      	movs	r3, #0
 80093ee:	f884 30e4 	strb.w	r3, [r4, #228]	; 0xe4
    if(enable) {
 80093f2:	4620      	mov	r0, r4
 80093f4:	f7fe ff20 	bl	8008238 <max2870SpiState.part.0>
}
 80093f8:	4628      	mov	r0, r5
 80093fa:	bd38      	pop	{r3, r4, r5, pc}
            driver->pllMonReloadCounter++;
 80093fc:	3301      	adds	r3, #1
 80093fe:	f884 30e4 	strb.w	r3, [r4, #228]	; 0xe4
            uint32_t reg6 = max2870ReadRegister6(driver);
 8009402:	4620      	mov	r0, r4
 8009404:	f7fe fcc2 	bl	8007d8c <max2870ReadRegister6>
            driver->currentTune.adcVoltage = (reg6 >>MAX2870_REG6_ADC_OFFSET) & 7;
 8009408:	f3c0 4382 	ubfx	r3, r0, #18, #3
            driver->currentTune.usedVCO = (reg6 >> MAX2870_REG6_V_OFFSET) & 0x3F;
 800940c:	f3c0 0045 	ubfx	r0, r0, #1, #6
            driver->currentTune.adcVoltage = (reg6 >>MAX2870_REG6_ADC_OFFSET) & 7;
 8009410:	76a3      	strb	r3, [r4, #26]
            driver->currentTune.usedVCO = (reg6 >> MAX2870_REG6_V_OFFSET) & 0x3F;
 8009412:	7660      	strb	r0, [r4, #25]
            if(driver->currentTune.adcVoltage == 0 ||
 8009414:	b11b      	cbz	r3, 800941e <max2870DoMonitorTask+0x52>
 8009416:	2b07      	cmp	r3, #7
 8009418:	d001      	beq.n	800941e <max2870DoMonitorTask+0x52>
                    !driver->currentTune.isLocked) {
 800941a:	7f23      	ldrb	r3, [r4, #28]
                    driver->currentTune.adcVoltage == 7 ||
 800941c:	b953      	cbnz	r3, 8009434 <max2870DoMonitorTask+0x68>
                syslog("MAX2870 Lost lock, retuning.");
 800941e:	4806      	ldr	r0, [pc, #24]	; (8009438 <max2870DoMonitorTask+0x6c>)
 8009420:	f7ff fbbc 	bl	8008b9c <syslog>
                driver->currentTune.useVCOAutotune = true;
 8009424:	2301      	movs	r3, #1
                max2870TuneNoLock(driver, &driver->currentTune);
 8009426:	4620      	mov	r0, r4
                driver->currentTune.useVCOAutotune = true;
 8009428:	7623      	strb	r3, [r4, #24]
                max2870TuneNoLock(driver, &driver->currentTune);
 800942a:	f104 0108 	add.w	r1, r4, #8
 800942e:	f7ff fd27 	bl	8008e80 <max2870TuneNoLock>
 8009432:	e7de      	b.n	80093f2 <max2870DoMonitorTask+0x26>
        didWork = true;
 8009434:	461d      	mov	r5, r3
 8009436:	e7dc      	b.n	80093f2 <max2870DoMonitorTask+0x26>
 8009438:	0800b9f9 	.word	0x0800b9f9

0800943c <main_>:
{
 800943c:	e92d 41ff 	stmdb	sp!, {r0, r1, r2, r3, r4, r5, r6, r7, r8, lr}
    void* syslogBuffer = pvPortMalloc(bufferSize);
 8009440:	f44f 6080 	mov.w	r0, #1024	; 0x400
 8009444:	f7fb fef2 	bl	800522c <pvPortMalloc>
    }
}

void packetQueueInit(PacketQueue_t* queue, void* buffer, uint32_t bufferSize)
{
    memset(queue, 0, sizeof(*queue));
 8009448:	4cac      	ldr	r4, [pc, #688]	; (80096fc <main_+0x2c0>)
 800944a:	4605      	mov	r5, r0
 800944c:	221c      	movs	r2, #28
 800944e:	2100      	movs	r1, #0
 8009450:	f104 0008 	add.w	r0, r4, #8
 8009454:	f7fa fbac 	bl	8003bb0 <memset>

    queue->buffer = buffer;
    queue->bufferSize = bufferSize;
 8009458:	f44f 6380 	mov.w	r3, #1024	; 0x400
 800945c:	2050      	movs	r0, #80	; 0x50
    queue->buffer = buffer;
 800945e:	6025      	str	r5, [r4, #0]
    queue->bufferSize = bufferSize;
 8009460:	6063      	str	r3, [r4, #4]
 8009462:	f7fb fee3 	bl	800522c <pvPortMalloc>
 8009466:	4604      	mov	r4, r0
 8009468:	b180      	cbz	r0, 800948c <main_+0x50>
 800946a:	2500      	movs	r5, #0
 800946c:	2601      	movs	r6, #1
 800946e:	f880 5046 	strb.w	r5, [r0, #70]	; 0x46
 8009472:	e9c0 650f 	strd	r6, r5, [r0, #60]	; 0x3c
 8009476:	6000      	str	r0, [r0, #0]
 8009478:	f7fe fa16 	bl	80078a8 <xQueueGenericReset.constprop.0>
 800947c:	4620      	mov	r0, r4
 800947e:	e9c4 5500 	strd	r5, r5, [r4]
 8009482:	f884 604c 	strb.w	r6, [r4, #76]	; 0x4c
 8009486:	60e5      	str	r5, [r4, #12]
 8009488:	f7fe fdb0 	bl	8007fec <xQueueGenericSend.constprop.0>
    syslogSemaphore = xSemaphoreCreateMutex();
 800948c:	4b9c      	ldr	r3, [pc, #624]	; (8009700 <main_+0x2c4>)
    syslog("Syslog started.");
 800948e:	489d      	ldr	r0, [pc, #628]	; (8009704 <main_+0x2c8>)
    syslogSemaphore = xSemaphoreCreateMutex();
 8009490:	601c      	str	r4, [r3, #0]
    syslog("Syslog started.");
 8009492:	f7ff fb83 	bl	8008b9c <syslog>
    usbDisconnectBus(serusbcfg.usbp);
 8009496:	f44f 6380 	mov.w	r3, #1024	; 0x400
    event_source->setEvents = 0;
 800949a:	2400      	movs	r4, #0
 800949c:	4d9a      	ldr	r5, [pc, #616]	; (8009708 <main_+0x2cc>)
 800949e:	489b      	ldr	r0, [pc, #620]	; (800970c <main_+0x2d0>)
 80094a0:	616b      	str	r3, [r5, #20]
    event_source->firstRepeater = NULL;
 80094a2:	e9c0 4400 	strd	r4, r4, [r0]
    event_source->waitThread = NULL;
 80094a6:	6084      	str	r4, [r0, #8]
    osalSysLock();
 80094a8:	f7fa fe9c 	bl	80041e4 <vPortEnterCritical>
 80094ac:	f3ef 8311 	mrs	r3, BASEPRI
 80094b0:	b1b3      	cbz	r3, 80094e0 <main_+0xa4>
 80094b2:	4b97      	ldr	r3, [pc, #604]	; (8009710 <main_+0x2d4>)
    GPIODriverData.numPorts = numPorts;
 80094b4:	4e97      	ldr	r6, [pc, #604]	; (8009714 <main_+0x2d8>)
 80094b6:	60c3      	str	r3, [r0, #12]
    osalSysUnlock();
 80094b8:	f7fc f9c4 	bl	8005844 <osalSysUnlock.lto_priv.0>
 80094bc:	2304      	movs	r3, #4
    GPIODriverData.ports = pvPortMalloc(sizeof(GPIOPort) * numPorts);
 80094be:	2030      	movs	r0, #48	; 0x30
    GPIODriverData.numPorts = numPorts;
 80094c0:	7133      	strb	r3, [r6, #4]
    GPIODriverData.ports = pvPortMalloc(sizeof(GPIOPort) * numPorts);
 80094c2:	f7fb feb3 	bl	800522c <pvPortMalloc>
 80094c6:	6030      	str	r0, [r6, #0]
    if(!GPIODriverData.ports) {
 80094c8:	b968      	cbnz	r0, 80094e6 <main_+0xaa>
        syslog("GPIO subsystem init failed.");
 80094ca:	4893      	ldr	r0, [pc, #588]	; (8009718 <main_+0x2dc>)
    syslog("USB init done.");
 80094cc:	f7ff fb66 	bl	8008b9c <syslog>
    shellStart((BaseSequentialStream*)&SD3, 128, "ShellTTL", NULL, NULL);
 80094d0:	2200      	movs	r2, #0
 80094d2:	4992      	ldr	r1, [pc, #584]	; (800971c <main_+0x2e0>)
 80094d4:	4892      	ldr	r0, [pc, #584]	; (8009720 <main_+0x2e4>)
 80094d6:	f7ff f875 	bl	80085c4 <shellStart.constprop.0>
}
 80094da:	b004      	add	sp, #16
 80094dc:	e8bd 81f0 	ldmia.w	sp!, {r4, r5, r6, r7, r8, pc}
 80094e0:	f7fa ff2e 	bl	8004340 <vTaskEndScheduler>
 80094e4:	e7fe      	b.n	80094e4 <main_+0xa8>
        GPIODriverData.ports[i].numPins = 0;
 80094e6:	4623      	mov	r3, r4
        GPIODriverData.ports[i].functions = &gpioDummyFunctions;
 80094e8:	4a8e      	ldr	r2, [pc, #568]	; (8009724 <main_+0x2e8>)
        GPIODriverData.ports[i].driver = (void*)(unsigned int)i;
 80094ea:	6004      	str	r4, [r0, #0]
 80094ec:	3401      	adds	r4, #1
    for(uint8_t i=0; i<numPorts; i++) {
 80094ee:	2c04      	cmp	r4, #4
        GPIODriverData.ports[i].numPins = 0;
 80094f0:	e9c0 3201 	strd	r3, r2, [r0, #4]
 80094f4:	f100 000c 	add.w	r0, r0, #12
    for(uint8_t i=0; i<numPorts; i++) {
 80094f8:	d1f7      	bne.n	80094ea <main_+0xae>
        syslog("GPIO subsystem init done.");
 80094fa:	488b      	ldr	r0, [pc, #556]	; (8009728 <main_+0x2ec>)
 80094fc:	f7ff fb4e 	bl	8008b9c <syslog>
        gpioCPUInit(GPIO_PORT_GPIOA, GPIOA);
 8009500:	2000      	movs	r0, #0
 8009502:	4981      	ldr	r1, [pc, #516]	; (8009708 <main_+0x2cc>)
 8009504:	f7fb ffaa 	bl	800545c <gpioCPUInit>
        gpioCPUInit(GPIO_PORT_GPIOB, GPIOB);
 8009508:	2001      	movs	r0, #1
 800950a:	4988      	ldr	r1, [pc, #544]	; (800972c <main_+0x2f0>)
 800950c:	f7fb ffa6 	bl	800545c <gpioCPUInit>
        gpioCPUInit(GPIO_PORT_GPIOC, GPIOC);
 8009510:	2002      	movs	r0, #2
 8009512:	4987      	ldr	r1, [pc, #540]	; (8009730 <main_+0x2f4>)
 8009514:	f7fb ffa2 	bl	800545c <gpioCPUInit>
        shellCommandRegister("gpio", cmdGPIO, NULL);
 8009518:	2200      	movs	r2, #0
 800951a:	4986      	ldr	r1, [pc, #536]	; (8009734 <main_+0x2f8>)
 800951c:	4886      	ldr	r0, [pc, #536]	; (8009738 <main_+0x2fc>)
 800951e:	f7fc fc1b 	bl	8005d58 <shellCommandRegister>
    gpioSetPinMode(gpioPin, PAL_MODE_INPUT_PULLUP);
 8009522:	2103      	movs	r1, #3
 8009524:	f44f 7084 	mov.w	r0, #264	; 0x108
 8009528:	f7fc f832 	bl	8005590 <gpioSetPinMode>
    osalThreadSleepMilliseconds(1);
 800952c:	2001      	movs	r0, #1
 800952e:	f7fb fb1b 	bl	8004b68 <vTaskDelay>
    if(gpioGetPin(gpioPin) == 0) {
 8009532:	f44f 7084 	mov.w	r0, #264	; 0x108
 8009536:	f7fc f837 	bl	80055a8 <gpioGetPin>
 800953a:	b158      	cbz	r0, 8009554 <main_+0x118>
    gpioSetPinMode(gpioPin, PAL_MODE_INPUT_PULLDOWN);
 800953c:	4621      	mov	r1, r4
 800953e:	f44f 7084 	mov.w	r0, #264	; 0x108
 8009542:	f7fc f825 	bl	8005590 <gpioSetPinMode>
    osalThreadSleepMilliseconds(1);
 8009546:	2001      	movs	r0, #1
 8009548:	f7fb fb0e 	bl	8004b68 <vTaskDelay>
    if(gpioGetPin(gpioPin) == 1) {
 800954c:	f44f 7084 	mov.w	r0, #264	; 0x108
 8009550:	f7fc f82a 	bl	80055a8 <gpioGetPin>
    uint32_t index = 0;

    for(;;) {
        const GPIOPinInit* pin = &pins[index];

        if(pin->gpioPin == 0xffff) {
 8009554:	f64f 76ff 	movw	r6, #65535	; 0xffff
 8009558:	4c78      	ldr	r4, [pc, #480]	; (800973c <main_+0x300>)
 800955a:	f834 0b04 	ldrh.w	r0, [r4], #4
 800955e:	42b0      	cmp	r0, r6
 8009560:	d00a      	beq.n	8009578 <main_+0x13c>
            return;
        }

        gpioSetPinMode(pin->gpioPin, pin->gpioMode);
 8009562:	f814 1c02 	ldrb.w	r1, [r4, #-2]
 8009566:	f7fc f813 	bl	8005590 <gpioSetPinMode>
        gpioSetPin(pin->gpioPin, pin->defaultValue);
 800956a:	f814 1c01 	ldrb.w	r1, [r4, #-1]
 800956e:	f834 0c04 	ldrh.w	r0, [r4, #-4]
 8009572:	f7fc f82b 	bl	80055cc <gpioSetPin>
 8009576:	e7f0      	b.n	800955a <main_+0x11e>
    i2c->i2cSafeConfig = (void*)config;
 8009578:	4c71      	ldr	r4, [pc, #452]	; (8009740 <main_+0x304>)
 800957a:	4b72      	ldr	r3, [pc, #456]	; (8009744 <main_+0x308>)
    i2cSafeRawHardwareControl(i2c);
 800957c:	4620      	mov	r0, r4
    i2c->i2cSafeConfig = (void*)config;
 800957e:	67e3      	str	r3, [r4, #124]	; 0x7c
    i2cSafeRawHardwareControl(i2c);
 8009580:	f7fc f994 	bl	80058ac <i2cSafeRawHardwareControl>
    shellCommandRegister("i2c", cmdI2C, &I2CD1);
 8009584:	4622      	mov	r2, r4
 8009586:	4970      	ldr	r1, [pc, #448]	; (8009748 <main_+0x30c>)
 8009588:	4870      	ldr	r0, [pc, #448]	; (800974c <main_+0x310>)
 800958a:	f7fc fbe5 	bl	8005d58 <shellCommandRegister>
  osalSysLock();
 800958e:	f7fa fe29 	bl	80041e4 <vPortEnterCritical>
  osalDbgAssert((sdp->state == SD_STOP) || (sdp->state == SD_READY),
 8009592:	4b63      	ldr	r3, [pc, #396]	; (8009720 <main_+0x2e4>)
 8009594:	7d1a      	ldrb	r2, [r3, #20]
 8009596:	1e51      	subs	r1, r2, #1
 8009598:	2901      	cmp	r1, #1
 800959a:	d902      	bls.n	80095a2 <main_+0x166>
 800959c:	f7fa fed0 	bl	8004340 <vTaskEndScheduler>
 80095a0:	e7fe      	b.n	80095a0 <main_+0x164>
void sd_lld_start(SerialDriver *sdp, const SerialConfig *config) {

  if (config == NULL)
    config = &default_config;

  if (sdp->state == SD_STOP) {
 80095a2:	2a01      	cmp	r2, #1
 80095a4:	d10c      	bne.n	80095c0 <main_+0x184>
      nvicEnableVector(STM32_USART2_NUMBER, STM32_SERIAL_USART2_PRIORITY);
    }
#endif
#if STM32_SERIAL_USE_USART3
    if (&SD3 == sdp) {
      rccEnableUSART3(FALSE);
 80095a6:	496a      	ldr	r1, [pc, #424]	; (8009750 <main_+0x314>)
 80095a8:	69ca      	ldr	r2, [r1, #28]
 80095aa:	f442 2280 	orr.w	r2, r2, #262144	; 0x40000
 80095ae:	61ca      	str	r2, [r1, #28]
  NVIC->IP[n] = NVIC_PRIORITY_MASK(prio);
 80095b0:	21c0      	movs	r1, #192	; 0xc0
 80095b2:	4a68      	ldr	r2, [pc, #416]	; (8009754 <main_+0x318>)
 80095b4:	f882 1327 	strb.w	r1, [r2, #807]	; 0x327
  NVIC->ICPR[n >> 5U] = 1U << (n & 0x1FU);
 80095b8:	2180      	movs	r1, #128	; 0x80
 80095ba:	f8c2 1184 	str.w	r1, [r2, #388]	; 0x184
  NVIC->ISER[n >> 5U] = 1U << (n & 0x1FU);
 80095be:	6051      	str	r1, [r2, #4]
static void usart_init(SerialDriver *sdp, const SerialConfig *config) {
 80095c0:	f44f 729c 	mov.w	r2, #312	; 0x138
  USART_TypeDef *u = sdp->usart;
 80095c4:	f8d3 1080 	ldr.w	r1, [r3, #128]	; 0x80
  u->CR2 = config->cr2 | USART_CR2_LBDIE;
 80095c8:	2040      	movs	r0, #64	; 0x40
    u->BRR = STM32_PCLK2 / config->speed;
 80095ca:	608a      	str	r2, [r1, #8]
  u->CR3 = config->cr3 | USART_CR3_EIE;
 80095cc:	2401      	movs	r4, #1
  u->SR = 0;
 80095ce:	2600      	movs	r6, #0
  u->CR1 = config->cr1 | USART_CR1_UE | USART_CR1_PEIE |
 80095d0:	f242 122c 	movw	r2, #8492	; 0x212c
  u->CR2 = config->cr2 | USART_CR2_LBDIE;
 80095d4:	6108      	str	r0, [r1, #16]
  u->CR3 = config->cr3 | USART_CR3_EIE;
 80095d6:	614c      	str	r4, [r1, #20]
  u->CR1 = config->cr1 | USART_CR1_UE | USART_CR1_PEIE |
 80095d8:	60ca      	str	r2, [r1, #12]
  u->SR = 0;
 80095da:	600e      	str	r6, [r1, #0]
  (void)u->SR;  /* SR reset step 1.*/
 80095dc:	680a      	ldr	r2, [r1, #0]
  (void)u->DR;  /* SR reset step 2.*/
 80095de:	684a      	ldr	r2, [r1, #4]
    sdp->rxmask = 0xFF;
 80095e0:	22ff      	movs	r2, #255	; 0xff
 80095e2:	f883 2084 	strb.w	r2, [r3, #132]	; 0x84
  sdp->state = SD_READY;
 80095e6:	2202      	movs	r2, #2
 80095e8:	751a      	strb	r2, [r3, #20]
    osalOsRescheduleS();
 80095ea:	f7fd fe31 	bl	8007250 <osalOsRescheduleS.lto_priv.1>
    taskEXIT_CRITICAL();
 80095ee:	f7fa fded 	bl	80041cc <vPortExitCritical>
    xTaskCreate(mixLedTask, "Led", 64, (void*)&mixLedDelay, 1, &mixLedTaskHandle);
 80095f2:	4b59      	ldr	r3, [pc, #356]	; (8009758 <main_+0x31c>)
 80095f4:	4602      	mov	r2, r0
 80095f6:	e9cd 4300 	strd	r4, r3, [sp]
    memset(driver, 0, sizeof(*driver));
 80095fa:	4c58      	ldr	r4, [pc, #352]	; (800975c <main_+0x320>)
 80095fc:	4b58      	ldr	r3, [pc, #352]	; (8009760 <main_+0x324>)
 80095fe:	4959      	ldr	r1, [pc, #356]	; (8009764 <main_+0x328>)
 8009600:	4859      	ldr	r0, [pc, #356]	; (8009768 <main_+0x32c>)
 8009602:	f7fe ffb1 	bl	8008568 <xTaskCreate>
 8009606:	22fc      	movs	r2, #252	; 0xfc
 8009608:	4631      	mov	r1, r6
 800960a:	1d20      	adds	r0, r4, #4
 800960c:	f7fa fad0 	bl	8003bb0 <memset>
    driver->config = config;
 8009610:	4b56      	ldr	r3, [pc, #344]	; (800976c <main_+0x330>)
    max2870Tune(driver, &driver->currentTune);
 8009612:	f104 0108 	add.w	r1, r4, #8
    driver->config = config;
 8009616:	6023      	str	r3, [r4, #0]
    driver->currentTune.powerA = -127;
 8009618:	f248 1381 	movw	r3, #33153	; 0x8181
    max2870Tune(driver, &driver->currentTune);
 800961c:	4620      	mov	r0, r4
    driver->currentTune.powerA = -127;
 800961e:	8223      	strh	r3, [r4, #16]
    max2870Tune(driver, &driver->currentTune);
 8009620:	f7ff fea8 	bl	8009374 <max2870Tune>
    uint16_t pfdDivider = driver->config->referenceToPfdDivider;
 8009624:	6827      	ldr	r7, [r4, #0]
 8009626:	4620      	mov	r0, r4
 8009628:	8abb      	ldrh	r3, [r7, #20]
    uint32_t pfdFrequency = driver->config->inputFrequency;
 800962a:	693a      	ldr	r2, [r7, #16]
    if(!(pfdDivider % 2)) {
 800962c:	f013 0f01 	tst.w	r3, #1
        pfdDivider /= 2;
 8009630:	bf05      	ittet	eq
 8009632:	085b      	lsreq	r3, r3, #1
        register2 |= _BV(MAX2870_REG2_RDIV2_OFFSET);
 8009634:	f04f 7180 	moveq.w	r1, #16777216	; 0x1000000
    uint32_t register2 = 0;
 8009638:	4631      	movne	r1, r6
        pfdFrequency /= 2;
 800963a:	0852      	lsreq	r2, r2, #1
    if(pfdDivider > 1023) {
 800963c:	f5b3 6f80 	cmp.w	r3, #1024	; 0x400
 8009640:	d25a      	bcs.n	80096f8 <main_+0x2bc>
    pfdFrequency /= pfdDivider;
 8009642:	fbb2 f2f3 	udiv	r2, r2, r3
    if(pfdFrequency % driver->config->stepFrequency) {
 8009646:	69bc      	ldr	r4, [r7, #24]
        pfdDivider = 0;
 8009648:	2b01      	cmp	r3, #1
    if(pfdFrequency % driver->config->stepFrequency) {
 800964a:	fbb2 f6f4 	udiv	r6, r2, r4
 800964e:	fb04 2416 	mls	r4, r4, r6, r2
        pfdDivider = 0;
 8009652:	bf08      	it	eq
 8009654:	2300      	moveq	r3, #0
    if(pfdFrequency % driver->config->stepFrequency) {
 8009656:	2c00      	cmp	r4, #0
 8009658:	d14e      	bne.n	80096f8 <main_+0x2bc>
    if(fracDivider > 4095) {
 800965a:	f5b6 5f80 	cmp.w	r6, #4096	; 0x1000
 800965e:	d24b      	bcs.n	80096f8 <main_+0x2bc>
    register2 |= pfdDivider << MAX2870_REG2_R_OFFSET;
 8009660:	ea41 3383 	orr.w	r3, r1, r3, lsl #14
    driver->bsValue = (pfdFrequency + 49999) / 50000;
 8009664:	f24c 3150 	movw	r1, #50000	; 0xc350
    driver->refDividerRegister2 = register2;
 8009668:	f8c0 30c0 	str.w	r3, [r0, #192]	; 0xc0
    driver->bsValue = (pfdFrequency + 49999) / 50000;
 800966c:	f502 4343 	add.w	r3, r2, #49920	; 0xc300
 8009670:	334f      	adds	r3, #79	; 0x4f
 8009672:	fbb3 f3f1 	udiv	r3, r3, r1
 8009676:	b29b      	uxth	r3, r3
    if(driver->bsValue > 1023) {
 8009678:	f5b3 6f80 	cmp.w	r3, #1024	; 0x400
    driver->fracDivider = fracDivider;
 800967c:	f8a0 60bc 	strh.w	r6, [r0, #188]	; 0xbc
    driver->bsValue = (pfdFrequency + 49999) / 50000;
 8009680:	f8a0 30c4 	strh.w	r3, [r0, #196]	; 0xc4
    if(driver->bsValue > 1023) {
 8009684:	d238      	bcs.n	80096f8 <main_+0x2bc>

void monitorEntryRegister(MonitorEntry* entry, bool(*callback)(void* param), void* param, char* name)
{
    entry->name = name;
 8009686:	4b3a      	ldr	r3, [pc, #232]	; (8009770 <main_+0x334>)
    entry->callback = callback;
    entry->param = param;
    entry->next = monThreadFirst;
    monThreadFirst = entry;
 8009688:	4c3a      	ldr	r4, [pc, #232]	; (8009774 <main_+0x338>)
    entry->name = name;
 800968a:	f8c0 30f4 	str.w	r3, [r0, #244]	; 0xf4
    entry->callback = callback;
 800968e:	4b3a      	ldr	r3, [pc, #232]	; (8009778 <main_+0x33c>)
    driver->pfdFrequency = pfdFrequency;
 8009690:	f8c0 20b8 	str.w	r2, [r0, #184]	; 0xb8
    entry->param = param;
 8009694:	e9c0 303a 	strd	r3, r0, [r0, #232]	; 0xe8
    entry->next = monThreadFirst;
 8009698:	4b38      	ldr	r3, [pc, #224]	; (800977c <main_+0x340>)
 800969a:	681a      	ldr	r2, [r3, #0]
    monThreadFirst = entry;
 800969c:	601c      	str	r4, [r3, #0]
    entry->next = monThreadFirst;
 800969e:	f8c0 20f0 	str.w	r2, [r0, #240]	; 0xf0
    if(max2870Init(&loPLL, &max2870Config) && max2870VcoPrecal(&loPLL)) {
 80096a2:	f1a4 00e8 	sub.w	r0, r4, #232	; 0xe8
 80096a6:	f7ff fdff 	bl	80092a8 <max2870VcoPrecal>
 80096aa:	b328      	cbz	r0, 80096f8 <main_+0x2bc>
		shellCommandRegister("max", cmdMax, &loPLL);
 80096ac:	4834      	ldr	r0, [pc, #208]	; (8009780 <main_+0x344>)
 80096ae:	4935      	ldr	r1, [pc, #212]	; (8009784 <main_+0x348>)
 80096b0:	f1a4 02e8 	sub.w	r2, r4, #232	; 0xe8
 80096b4:	f7fc fb50 	bl	8005d58 <shellCommandRegister>
		syslog("MAX2870 init done.");
 80096b8:	4833      	ldr	r0, [pc, #204]	; (8009788 <main_+0x34c>)
    	syslog("MAX2870 init failed.");
 80096ba:	f7ff fa6f 	bl	8008b9c <syslog>

bool MCP9804Init(MCP9804Driver* driver, const MCP9804Driver_config* config)
{
    memset(driver, 0, sizeof(*driver));
 80096be:	2300      	movs	r3, #0
 80096c0:	4c32      	ldr	r4, [pc, #200]	; (800978c <main_+0x350>)

    driver->config = config;

    /* Read device id */
    uint8_t devId;
    if(i2cSafeReadRegStandard(driver->config->i2cPort, driver->config->i2cAddr, 0x7, &devId) != MSG_OK) {
 80096c2:	2207      	movs	r2, #7
    memset(driver, 0, sizeof(*driver));
 80096c4:	6063      	str	r3, [r4, #4]
    driver->config = config;
 80096c6:	4b32      	ldr	r3, [pc, #200]	; (8009790 <main_+0x354>)
    if(i2cSafeReadRegStandard(driver->config->i2cPort, driver->config->i2cAddr, 0x7, &devId) != MSG_OK) {
 80096c8:	2118      	movs	r1, #24
    driver->config = config;
 80096ca:	6023      	str	r3, [r4, #0]
    if(i2cSafeReadRegStandard(driver->config->i2cPort, driver->config->i2cAddr, 0x7, &devId) != MSG_OK) {
 80096cc:	481c      	ldr	r0, [pc, #112]	; (8009740 <main_+0x304>)
 80096ce:	f10d 030e 	add.w	r3, sp, #14
 80096d2:	f7ff fb9d 	bl	8008e10 <i2cSafeReadRegStandard>
 80096d6:	2800      	cmp	r0, #0
 80096d8:	d16c      	bne.n	80097b4 <main_+0x378>
        return false;
    }

    if(devId != 0x2) {
 80096da:	f89d 300e 	ldrb.w	r3, [sp, #14]
 80096de:	2b02      	cmp	r3, #2
 80096e0:	d168      	bne.n	80097b4 <main_+0x378>
        return false;
    }

    /* Set resolution to the highest */
    if(i2cSafeWriteRegStandard(driver->config->i2cPort, driver->config->i2cAddr, 0x8, 0x3) != MSG_OK) {
 80096e2:	6823      	ldr	r3, [r4, #0]
 80096e4:	6818      	ldr	r0, [r3, #0]
 80096e6:	7919      	ldrb	r1, [r3, #4]
 80096e8:	2303      	movs	r3, #3
 80096ea:	f88d 300f 	strb.w	r3, [sp, #15]
    osalDbgAssert(i2c != NULL, "i2c == NULL");
 80096ee:	2800      	cmp	r0, #0
 80096f0:	d152      	bne.n	8009798 <main_+0x35c>
 80096f2:	f7fa fe25 	bl	8004340 <vTaskEndScheduler>
 80096f6:	e7fe      	b.n	80096f6 <main_+0x2ba>
 80096f8:	4826      	ldr	r0, [pc, #152]	; (8009794 <main_+0x358>)
 80096fa:	e7de      	b.n	80096ba <main_+0x27e>
 80096fc:	20001310 	.word	0x20001310
 8009700:	20001334 	.word	0x20001334
 8009704:	0800ba16 	.word	0x0800ba16
 8009708:	40010800 	.word	0x40010800
 800970c:	200012b8 	.word	0x200012b8
 8009710:	0800a3c5 	.word	0x0800a3c5
 8009714:	20000928 	.word	0x20000928
 8009718:	0800ba26 	.word	0x0800ba26
 800971c:	0800bb38 	.word	0x0800bb38
 8009720:	200009bc 	.word	0x200009bc
 8009724:	0800c860 	.word	0x0800c860
 8009728:	0800ba42 	.word	0x0800ba42
 800972c:	40010c00 	.word	0x40010c00
 8009730:	40011000 	.word	0x40011000
 8009734:	08009c25 	.word	0x08009c25
 8009738:	0800ba5c 	.word	0x0800ba5c
 800973c:	0800c8b0 	.word	0x0800c8b0
 8009740:	20000934 	.word	0x20000934
 8009744:	0800c66c 	.word	0x0800c66c
 8009748:	08009df5 	.word	0x08009df5
 800974c:	0800ba61 	.word	0x0800ba61
 8009750:	40021000 	.word	0x40021000
 8009754:	e000e100 	.word	0xe000e100
 8009758:	2000119c 	.word	0x2000119c
 800975c:	20001098 	.word	0x20001098
 8009760:	20001198 	.word	0x20001198
 8009764:	0800ba65 	.word	0x0800ba65
 8009768:	0800b319 	.word	0x0800b319
 800976c:	0800c888 	.word	0x0800c888
 8009770:	0800ba69 	.word	0x0800ba69
 8009774:	20001180 	.word	0x20001180
 8009778:	080093cd 	.word	0x080093cd
 800977c:	200011a0 	.word	0x200011a0
 8009780:	0800ba71 	.word	0x0800ba71
 8009784:	0800a885 	.word	0x0800a885
 8009788:	0800ba75 	.word	0x0800ba75
 800978c:	20001338 	.word	0x20001338
 8009790:	0800c8a8 	.word	0x0800c8a8
 8009794:	0800ba88 	.word	0x0800ba88
    return i2cSafeWriteRegBulkStandard(i2c, devAddr, addr, &value, 1);
 8009798:	2208      	movs	r2, #8
 800979a:	f10d 030f 	add.w	r3, sp, #15
 800979e:	f7ff fad3 	bl	8008d48 <i2cSafeWriteRegBulkStandard.constprop.0>
 80097a2:	b938      	cbnz	r0, 80097b4 <main_+0x378>
bool MCP9804Init(MCP9804Driver* driver, const MCP9804Driver_config* config)
 80097a4:	4620      	mov	r0, r4
 80097a6:	f7ff fb15 	bl	8008dd4 <MCP9804MeasureTemperature.part.0>
    if(!MCP9804Init(&tcxoTempSensor, &mcp9804Config)) {
 80097aa:	f647 73ff 	movw	r3, #32767	; 0x7fff
 80097ae:	4298      	cmp	r0, r3
        return false;
    }

    driver->temperature = MCP9804MeasureTemperature(driver, true);
 80097b0:	80a0      	strh	r0, [r4, #4]
 80097b2:	d138      	bne.n	8009826 <main_+0x3ea>
        syslog("Temperature sensor init failed.");
 80097b4:	485f      	ldr	r0, [pc, #380]	; (8009934 <main_+0x4f8>)
 80097b6:	f7ff f9f1 	bl	8008b9c <syslog>

bool converterInit(ConverterManager* converter, const ConverterBand* bands,
                   void(*setGpio)(const ConverterManager* converter,uint32_t gpioValues))
{
    converter->activeBand = 0xff;
 80097ba:	23ff      	movs	r3, #255	; 0xff
 80097bc:	4a5e      	ldr	r2, [pc, #376]	; (8009938 <main_+0x4fc>)
        shellCommandRegister("convert", cmdConvert, &converter);
 80097be:	495f      	ldr	r1, [pc, #380]	; (800993c <main_+0x500>)
 80097c0:	7613      	strb	r3, [r2, #24]
    converter->bands = bands;
 80097c2:	4b5f      	ldr	r3, [pc, #380]	; (8009940 <main_+0x504>)
 80097c4:	485f      	ldr	r0, [pc, #380]	; (8009944 <main_+0x508>)
 80097c6:	6153      	str	r3, [r2, #20]
    converter->setConverterGpio = setGpio;
 80097c8:	4b5f      	ldr	r3, [pc, #380]	; (8009948 <main_+0x50c>)
 80097ca:	6213      	str	r3, [r2, #32]
 80097cc:	f7fc fac4 	bl	8005d58 <shellCommandRegister>
        if(!converterTune(&converter, &startupTuneRequest)) {
 80097d0:	495e      	ldr	r1, [pc, #376]	; (800994c <main_+0x510>)
 80097d2:	4610      	mov	r0, r2
 80097d4:	f7fb fdfe 	bl	80053d4 <converterTune>
 80097d8:	2800      	cmp	r0, #0
 80097da:	d12d      	bne.n	8009838 <main_+0x3fc>
            syslog("Converter startup failed.");
 80097dc:	485c      	ldr	r0, [pc, #368]	; (8009950 <main_+0x514>)
    entry->param = param;
 80097de:	2400      	movs	r4, #0
            syslog("Converter startup done.");
 80097e0:	f7ff f9dc 	bl	8008b9c <syslog>
    entry->name = name;
 80097e4:	485b      	ldr	r0, [pc, #364]	; (8009954 <main_+0x518>)
 80097e6:	4b5c      	ldr	r3, [pc, #368]	; (8009958 <main_+0x51c>)
    monitorKick(&sanityReboot, true);
 80097e8:	2101      	movs	r1, #1
 80097ea:	60c3      	str	r3, [r0, #12]
    entry->callback = callback;
 80097ec:	4b5b      	ldr	r3, [pc, #364]	; (800995c <main_+0x520>)
    entry->param = param;
 80097ee:	6044      	str	r4, [r0, #4]
    entry->callback = callback;
 80097f0:	6003      	str	r3, [r0, #0]
    entry->next = monThreadFirst;
 80097f2:	4b5b      	ldr	r3, [pc, #364]	; (8009960 <main_+0x524>)
  osalDbgAssert((usbp->state == USB_STOP) || (usbp->state == USB_READY),
 80097f4:	4e5b      	ldr	r6, [pc, #364]	; (8009964 <main_+0x528>)
 80097f6:	681a      	ldr	r2, [r3, #0]
    monThreadFirst = entry;
 80097f8:	6018      	str	r0, [r3, #0]
    entry->next = monThreadFirst;
 80097fa:	6082      	str	r2, [r0, #8]
 80097fc:	f7fb ff1a 	bl	8005634 <monitorKick>
    xTaskCreate(taskPeriodicMon, "Monitor", stackSize, NULL, 1, &monThreadHandle );
 8009800:	4b59      	ldr	r3, [pc, #356]	; (8009968 <main_+0x52c>)
 8009802:	2280      	movs	r2, #128	; 0x80
 8009804:	9301      	str	r3, [sp, #4]
 8009806:	2301      	movs	r3, #1
 8009808:	4958      	ldr	r1, [pc, #352]	; (800996c <main_+0x530>)
 800980a:	9300      	str	r3, [sp, #0]
 800980c:	4858      	ldr	r0, [pc, #352]	; (8009970 <main_+0x534>)
 800980e:	4623      	mov	r3, r4
 8009810:	f7fe feaa 	bl	8008568 <xTaskCreate>
  osalSysLock();
 8009814:	f7fa fce6 	bl	80041e4 <vPortEnterCritical>
  osalDbgAssert((usbp->state == USB_STOP) || (usbp->state == USB_READY),
 8009818:	7833      	ldrb	r3, [r6, #0]
 800981a:	1e5a      	subs	r2, r3, #1
 800981c:	2a01      	cmp	r2, #1
 800981e:	d90d      	bls.n	800983c <main_+0x400>
 8009820:	f7fa fd8e 	bl	8004340 <vTaskEndScheduler>
 8009824:	e7fe      	b.n	8009824 <main_+0x3e8>
        syslog("Temperature sensor init done.");
 8009826:	4853      	ldr	r0, [pc, #332]	; (8009974 <main_+0x538>)
 8009828:	f7ff f9b8 	bl	8008b9c <syslog>
        shellCommandRegister("temp", cmdTemp, &tcxoTempSensor);
 800982c:	4622      	mov	r2, r4
 800982e:	4952      	ldr	r1, [pc, #328]	; (8009978 <main_+0x53c>)
 8009830:	4852      	ldr	r0, [pc, #328]	; (800997c <main_+0x540>)
 8009832:	f7fc fa91 	bl	8005d58 <shellCommandRegister>
 8009836:	e7c0      	b.n	80097ba <main_+0x37e>
            syslog("Converter startup done.");
 8009838:	4851      	ldr	r0, [pc, #324]	; (8009980 <main_+0x544>)
 800983a:	e7d0      	b.n	80097de <main_+0x3a2>
  usbp->config = config;
 800983c:	4a51      	ldr	r2, [pc, #324]	; (8009984 <main_+0x548>)
  if (usbp->state == USB_STOP) {
 800983e:	2b01      	cmp	r3, #1
    usbp->epc[i] = NULL;
 8009840:	e9c6 4403 	strd	r4, r4, [r6, #12]
 8009844:	e9c6 4405 	strd	r4, r4, [r6, #20]
 8009848:	e9c6 4407 	strd	r4, r4, [r6, #28]
 800984c:	e9c6 4409 	strd	r4, r4, [r6, #36]	; 0x24
  usbp->config = config;
 8009850:	6072      	str	r2, [r6, #4]
 8009852:	d11a      	bne.n	800988a <main_+0x44e>
      rccEnableUSB(FALSE);
 8009854:	494c      	ldr	r1, [pc, #304]	; (8009988 <main_+0x54c>)
 8009856:	69ca      	ldr	r2, [r1, #28]
 8009858:	f442 0200 	orr.w	r2, r2, #8388608	; 0x800000
 800985c:	61ca      	str	r2, [r1, #28]
  NVIC->IP[n] = NVIC_PRIORITY_MASK(prio);
 800985e:	21d0      	movs	r1, #208	; 0xd0
      STM32_USB->CNTR = CNTR_FRES;
 8009860:	4a4a      	ldr	r2, [pc, #296]	; (800998c <main_+0x550>)
 8009862:	6413      	str	r3, [r2, #64]	; 0x40
 8009864:	4b4a      	ldr	r3, [pc, #296]	; (8009990 <main_+0x554>)
 8009866:	f883 1313 	strb.w	r1, [r3, #787]	; 0x313
  NVIC->ICPR[n >> 5U] = 1U << (n & 0x1FU);
 800986a:	f44f 2100 	mov.w	r1, #524288	; 0x80000
 800986e:	f8c3 1180 	str.w	r1, [r3, #384]	; 0x180
  NVIC->ISER[n >> 5U] = 1U << (n & 0x1FU);
 8009872:	6019      	str	r1, [r3, #0]
  NVIC->IP[n] = NVIC_PRIORITY_MASK(prio);
 8009874:	21e0      	movs	r1, #224	; 0xe0
 8009876:	f883 1314 	strb.w	r1, [r3, #788]	; 0x314
  NVIC->ICPR[n >> 5U] = 1U << (n & 0x1FU);
 800987a:	f44f 1180 	mov.w	r1, #1048576	; 0x100000
 800987e:	f8c3 1180 	str.w	r1, [r3, #384]	; 0x180
  NVIC->ISER[n >> 5U] = 1U << (n & 0x1FU);
 8009882:	6019      	str	r1, [r3, #0]
      STM32_USB->CNTR = 0;
 8009884:	6414      	str	r4, [r2, #64]	; 0x40
    _usb_reset(usbp);
 8009886:	f7fc fca7 	bl	80061d8 <_usb_reset.constprop.0>
  usbp->state = USB_READY;
 800988a:	f04f 0802 	mov.w	r8, #2
 800988e:	f886 8000 	strb.w	r8, [r6]
    osalOsRescheduleS();
 8009892:	f7fd fcdd 	bl	8007250 <osalOsRescheduleS.lto_priv.1>
    taskEXIT_CRITICAL();
 8009896:	f7fa fc99 	bl	80041cc <vPortExitCritical>
  sdup->vmt = &vmt;
 800989a:	483e      	ldr	r0, [pc, #248]	; (8009994 <main_+0x558>)
 800989c:	4b3e      	ldr	r3, [pc, #248]	; (8009998 <main_+0x55c>)
  sdup->state = SDU_STOP;
 800989e:	2101      	movs	r1, #1
  sdup->vmt = &vmt;
 80098a0:	6003      	str	r3, [r0, #0]
    event_source->setEvents = 0;
 80098a2:	2300      	movs	r3, #0
  ibqp->bsize     = size + sizeof (size_t);
 80098a4:	f44f 7782 	mov.w	r7, #260	; 0x104
  ibqp->brdptr    = bp;
 80098a8:	f100 0488 	add.w	r4, r0, #136	; 0x88
  ibqp->ptr       = NULL;
 80098ac:	e9c0 430f 	strd	r4, r3, [r0, #60]	; 0x3c
  ibqp->bcounter  = 0;
 80098b0:	6243      	str	r3, [r0, #36]	; 0x24
    event_source->firstRepeater = NULL;
 80098b2:	e9c0 3301 	strd	r3, r3, [r0, #4]
    thread_queue->tail = NULL;
 80098b6:	e9c0 3306 	strd	r3, r3, [r0, #24]
  ibqp->bwrptr    = bp;
 80098ba:	e9c0 440a 	strd	r4, r4, [r0, #40]	; 0x28
 80098be:	e9c0 3314 	strd	r3, r3, [r0, #80]	; 0x50
  obqp->top       = NULL;
 80098c2:	e9c0 331e 	strd	r3, r3, [r0, #120]	; 0x78
    event_source->waitThread = NULL;
 80098c6:	60c3      	str	r3, [r0, #12]
  ibqp->top       = NULL;
 80098c8:	6443      	str	r3, [r0, #68]	; 0x44
  ibqp->notify    = infy;
 80098ca:	4c34      	ldr	r4, [pc, #208]	; (800999c <main_+0x560>)
  obqp->notify    = onfy;
 80098cc:	4b34      	ldr	r3, [pc, #208]	; (80099a0 <main_+0x564>)
  ibqp->btop      = bp + ((size + sizeof (size_t)) * n);
 80098ce:	f500 7224 	add.w	r2, r0, #656	; 0x290
  sdup->state = SDU_STOP;
 80098d2:	7501      	strb	r1, [r0, #20]
  ibqp->suspended = suspended;
 80098d4:	f880 1020 	strb.w	r1, [r0, #32]
  obqp->suspended = suspended;
 80098d8:	f880 1058 	strb.w	r1, [r0, #88]	; 0x58
  obqp->btop      = bp + ((size + sizeof (size_t)) * n);
 80098dc:	f500 6193 	add.w	r1, r0, #1176	; 0x498
  ibqp->bn        = n;
 80098e0:	e9c0 780d 	strd	r7, r8, [r0, #52]	; 0x34
  ibqp->link      = link;
 80098e4:	e9c0 4012 	strd	r4, r0, [r0, #72]	; 0x48
  obqp->bwrptr    = bp;
 80098e8:	e9c0 2218 	strd	r2, r2, [r0, #96]	; 0x60
  obqp->bsize     = size + sizeof (size_t);
 80098ec:	e9c0 171a 	strd	r1, r7, [r0, #104]	; 0x68
  obqp->buffers   = bp;
 80098f0:	e9c0 821c 	strd	r8, r2, [r0, #112]	; 0x70
  ibqp->btop      = bp + ((size + sizeof (size_t)) * n);
 80098f4:	6302      	str	r2, [r0, #48]	; 0x30
  obqp->bcounter  = n;
 80098f6:	f8c0 805c 	str.w	r8, [r0, #92]	; 0x5c
  obqp->link      = link;
 80098fa:	e9c0 3020 	strd	r3, r0, [r0, #128]	; 0x80
  osalSysLock();
 80098fe:	f7fa fc71 	bl	80041e4 <vPortEnterCritical>
  osalDbgAssert((sdup->state == SDU_STOP) || (sdup->state == SDU_READY),
 8009902:	7d03      	ldrb	r3, [r0, #20]
 8009904:	3b01      	subs	r3, #1
 8009906:	2b01      	cmp	r3, #1
 8009908:	d902      	bls.n	8009910 <main_+0x4d4>
 800990a:	f7fa fd19 	bl	8004340 <vTaskEndScheduler>
 800990e:	e7fe      	b.n	800990e <main_+0x4d2>
  sdup->config = config;
 8009910:	4b24      	ldr	r3, [pc, #144]	; (80099a4 <main_+0x568>)
  usbp->in_params[config->bulk_in - 1U]   = sdup;
 8009912:	62f0      	str	r0, [r6, #44]	; 0x2c
  sdup->config = config;
 8009914:	f8c0 3498 	str.w	r3, [r0, #1176]	; 0x498
  usbp->out_params[config->bulk_out - 1U] = sdup;
 8009918:	64b0      	str	r0, [r6, #72]	; 0x48
    usbp->in_params[config->int_in - 1U]  = sdup;
 800991a:	6330      	str	r0, [r6, #48]	; 0x30
  sdup->state = SDU_READY;
 800991c:	f880 8014 	strb.w	r8, [r0, #20]
    osalOsRescheduleS();
 8009920:	f7fd fc96 	bl	8007250 <osalOsRescheduleS.lto_priv.1>
    taskEXIT_CRITICAL();
 8009924:	f7fa fc52 	bl	80041cc <vPortExitCritical>
{
    usbStart(&USBD1, &usbcfg);
    sduObjectInit(&SDU1);
    sduStart(&SDU1, &serusbcfg);

    usbConnectBus(serusbcfg.usbp);
 8009928:	f44f 6380 	mov.w	r3, #1024	; 0x400
    syslog("USB init done.");
 800992c:	481e      	ldr	r0, [pc, #120]	; (80099a8 <main_+0x56c>)
 800992e:	612b      	str	r3, [r5, #16]
 8009930:	e5cc      	b.n	80094cc <main_+0x90>
 8009932:	bf00      	nop
 8009934:	0800ba9d 	.word	0x0800ba9d
 8009938:	20001020 	.word	0x20001020
 800993c:	080099ad 	.word	0x080099ad
 8009940:	0800c74c 	.word	0x0800c74c
 8009944:	0800bae0 	.word	0x0800bae0
 8009948:	08005c21 	.word	0x08005c21
 800994c:	20000914 	.word	0x20000914
 8009950:	0800bae8 	.word	0x0800bae8
 8009954:	2000121c 	.word	0x2000121c
 8009958:	0800bb1a 	.word	0x0800bb1a
 800995c:	08007d25 	.word	0x08007d25
 8009960:	200011a0 	.word	0x200011a0
 8009964:	20000f54 	.word	0x20000f54
 8009968:	200011a4 	.word	0x200011a4
 800996c:	0800bb21 	.word	0x0800bb21
 8009970:	080056f1 	.word	0x080056f1
 8009974:	0800babd 	.word	0x0800babd
 8009978:	08009d81 	.word	0x08009d81
 800997c:	0800badb 	.word	0x0800badb
 8009980:	0800bb02 	.word	0x0800bb02
 8009984:	0800c9fc 	.word	0x0800c9fc
 8009988:	40021000 	.word	0x40021000
 800998c:	40005c00 	.word	0x40005c00
 8009990:	e000e100 	.word	0xe000e100
 8009994:	20000a44 	.word	0x20000a44
 8009998:	0800cb48 	.word	0x0800cb48
 800999c:	080071bf 	.word	0x080071bf
 80099a0:	080076cd 	.word	0x080076cd
 80099a4:	0800c994 	.word	0x0800c994
 80099a8:	0800bb29 	.word	0x0800bb29

080099ac <cmdConvert>:
    chprintf(chp, "\tconvert hs [shfband] [1/0]"SHELL_NEWLINE_STR);
    chprintf(chp, "\tconvert status"SHELL_NEWLINE_STR);
}

void cmdConvert(void* user, BaseSequentialStream *chp, int argc, char *argv[])
{
 80099ac:	e92d 47f0 	stmdb	sp!, {r4, r5, r6, r7, r8, r9, sl, lr}
    ConverterManager* converter = (ConverterManager*)user;

    if(argc == 1) {
 80099b0:	2a01      	cmp	r2, #1
{
 80099b2:	4605      	mov	r5, r0
 80099b4:	460c      	mov	r4, r1
 80099b6:	4690      	mov	r8, r2
 80099b8:	461e      	mov	r6, r3
 80099ba:	b088      	sub	sp, #32
    if(argc == 1) {
 80099bc:	d175      	bne.n	8009aaa <cmdConvert+0xfe>
        if(!strcmp(argv[0], "status")) {
 80099be:	4965      	ldr	r1, [pc, #404]	; (8009b54 <cmdConvert+0x1a8>)
 80099c0:	6818      	ldr	r0, [r3, #0]
 80099c2:	f7fa f9a9 	bl	8003d18 <strcmp>
 80099c6:	4606      	mov	r6, r0
 80099c8:	2800      	cmp	r0, #0
 80099ca:	f040 80b5 	bne.w	8009b38 <cmdConvert+0x18c>
    return true;
}

void converterStatus(BaseSequentialStream* chp, ConverterManager* converter)
{
    chprintf(chp, "Bands: [Disable mask: 0x%08x]"SHELL_NEWLINE_STR, converter->disabledBands);
 80099ce:	69ea      	ldr	r2, [r5, #28]
 80099d0:	4961      	ldr	r1, [pc, #388]	; (8009b58 <cmdConvert+0x1ac>)
 80099d2:	4620      	mov	r0, r4
 80099d4:	f7fe fef4 	bl	80087c0 <chprintf>
    printfFixed(chp, 9, "\tBand ID");
 80099d8:	2109      	movs	r1, #9
 80099da:	4a60      	ldr	r2, [pc, #384]	; (8009b5c <cmdConvert+0x1b0>)
 80099dc:	4620      	mov	r0, r4
 80099de:	f7fe fecb 	bl	8008778 <printfFixed>
    printfFixed(chp, 7, "Name");
 80099e2:	2107      	movs	r1, #7
 80099e4:	4a5e      	ldr	r2, [pc, #376]	; (8009b60 <cmdConvert+0x1b4>)
 80099e6:	4620      	mov	r0, r4
 80099e8:	f7fe fec6 	bl	8008778 <printfFixed>
    printfFixed(chp, 14, "FreqMin [kHz]");
 80099ec:	210e      	movs	r1, #14
 80099ee:	4a5d      	ldr	r2, [pc, #372]	; (8009b64 <cmdConvert+0x1b8>)
 80099f0:	4620      	mov	r0, r4
 80099f2:	f7fe fec1 	bl	8008778 <printfFixed>
    chprintf(chp,	     "FreqMax [kHz]"SHELL_NEWLINE_STR);
 80099f6:	4620      	mov	r0, r4
 80099f8:	495b      	ldr	r1, [pc, #364]	; (8009b68 <cmdConvert+0x1bc>)
 80099fa:	f7fe fee1 	bl	80087c0 <chprintf>
        if(i == converter->activeBand) {
            printfFixed(chp, 9, "\t%u [*]", i);
        } else {
            printfFixed(chp, 9, "\t%u", i);
        }
        printfFixed(chp, 7, "%s", converter->bands[i].bandName);
 80099fe:	f8df 81b0 	ldr.w	r8, [pc, #432]	; 8009bb0 <cmdConvert+0x204>
        printfFixed(chp, 14, "%u", converter->bands[i].minFrequencyKHz);
 8009a02:	f8df 91b0 	ldr.w	r9, [pc, #432]	; 8009bb4 <cmdConvert+0x208>
        chprintf(chp,	     "%u"SHELL_NEWLINE_STR, converter->bands[i].maxFrequencyKHz);
 8009a06:	f8df a1b0 	ldr.w	sl, [pc, #432]	; 8009bb8 <cmdConvert+0x20c>
    for(uint8_t i=0; converter->bands[i].functions; i++) {
 8009a0a:	2714      	movs	r7, #20
 8009a0c:	b2f3      	uxtb	r3, r6
 8009a0e:	435f      	muls	r7, r3
 8009a10:	696a      	ldr	r2, [r5, #20]
 8009a12:	443a      	add	r2, r7
 8009a14:	6912      	ldr	r2, [r2, #16]
 8009a16:	b95a      	cbnz	r2, 8009a30 <cmdConvert+0x84>
    }

    chprintf(chp, SHELL_NEWLINE_STR);
 8009a18:	4620      	mov	r0, r4
 8009a1a:	4954      	ldr	r1, [pc, #336]	; (8009b6c <cmdConvert+0x1c0>)
 8009a1c:	f7fe fed0 	bl	80087c0 <chprintf>

    if(converter->activeBand == 0xff) {
 8009a20:	7e2b      	ldrb	r3, [r5, #24]
 8009a22:	2bff      	cmp	r3, #255	; 0xff
 8009a24:	d12a      	bne.n	8009a7c <cmdConvert+0xd0>
        chprintf(chp, "Converter disabled." SHELL_NEWLINE_STR);
 8009a26:	4952      	ldr	r1, [pc, #328]	; (8009b70 <cmdConvert+0x1c4>)
    chprintf(chp, "\tconvert status"SHELL_NEWLINE_STR);
 8009a28:	4620      	mov	r0, r4
 8009a2a:	f7fe fec9 	bl	80087c0 <chprintf>
 8009a2e:	e039      	b.n	8009aa4 <cmdConvert+0xf8>
        if(_BV(i) & converter-> disabledBands) {
 8009a30:	69ea      	ldr	r2, [r5, #28]
 8009a32:	40da      	lsrs	r2, r3
 8009a34:	07d1      	lsls	r1, r2, #31
 8009a36:	d41f      	bmi.n	8009a78 <cmdConvert+0xcc>
        if(i == converter->activeBand) {
 8009a38:	7e2a      	ldrb	r2, [r5, #24]
            printfFixed(chp, 9, "\t%u", i);
 8009a3a:	2109      	movs	r1, #9
        if(i == converter->activeBand) {
 8009a3c:	429a      	cmp	r2, r3
            printfFixed(chp, 9, "\t%u [*]", i);
 8009a3e:	bf0a      	itet	eq
 8009a40:	4613      	moveq	r3, r2
            printfFixed(chp, 9, "\t%u", i);
 8009a42:	4a4c      	ldrne	r2, [pc, #304]	; (8009b74 <cmdConvert+0x1c8>)
            printfFixed(chp, 9, "\t%u [*]", i);
 8009a44:	4a4c      	ldreq	r2, [pc, #304]	; (8009b78 <cmdConvert+0x1cc>)
            printfFixed(chp, 9, "\t%u", i);
 8009a46:	4620      	mov	r0, r4
 8009a48:	f7fe fe96 	bl	8008778 <printfFixed>
        printfFixed(chp, 7, "%s", converter->bands[i].bandName);
 8009a4c:	696b      	ldr	r3, [r5, #20]
 8009a4e:	4642      	mov	r2, r8
 8009a50:	59db      	ldr	r3, [r3, r7]
 8009a52:	2107      	movs	r1, #7
 8009a54:	4620      	mov	r0, r4
 8009a56:	f7fe fe8f 	bl	8008778 <printfFixed>
        printfFixed(chp, 14, "%u", converter->bands[i].minFrequencyKHz);
 8009a5a:	696b      	ldr	r3, [r5, #20]
 8009a5c:	464a      	mov	r2, r9
 8009a5e:	443b      	add	r3, r7
 8009a60:	210e      	movs	r1, #14
 8009a62:	685b      	ldr	r3, [r3, #4]
 8009a64:	4620      	mov	r0, r4
 8009a66:	f7fe fe87 	bl	8008778 <printfFixed>
        chprintf(chp,	     "%u"SHELL_NEWLINE_STR, converter->bands[i].maxFrequencyKHz);
 8009a6a:	696b      	ldr	r3, [r5, #20]
 8009a6c:	4651      	mov	r1, sl
 8009a6e:	441f      	add	r7, r3
 8009a70:	4620      	mov	r0, r4
 8009a72:	68ba      	ldr	r2, [r7, #8]
 8009a74:	f7fe fea4 	bl	80087c0 <chprintf>
    for(uint8_t i=0; converter->bands[i].functions; i++) {
 8009a78:	3601      	adds	r6, #1
 8009a7a:	e7c6      	b.n	8009a0a <cmdConvert+0x5e>
    } else {
        chprintf(chp, "Input Frequency:    %u kHz" SHELL_NEWLINE_STR, converter->currentTune.inputFrequencyKHz);
 8009a7c:	682a      	ldr	r2, [r5, #0]
 8009a7e:	493f      	ldr	r1, [pc, #252]	; (8009b7c <cmdConvert+0x1d0>)
 8009a80:	4620      	mov	r0, r4
 8009a82:	f7fe fe9d 	bl	80087c0 <chprintf>
        chprintf(chp, "Output Frequency:   %u kHz" SHELL_NEWLINE_STR, converter->currentTune.outputFrequencyKHz);
 8009a86:	68ea      	ldr	r2, [r5, #12]
 8009a88:	493d      	ldr	r1, [pc, #244]	; (8009b80 <cmdConvert+0x1d4>)
 8009a8a:	4620      	mov	r0, r4
 8009a8c:	f7fe fe98 	bl	80087c0 <chprintf>
        chprintf(chp, "Spectral inversion: %u" SHELL_NEWLINE_STR, converter->currentTune.spectrumInversion);
 8009a90:	7c2a      	ldrb	r2, [r5, #16]
 8009a92:	493c      	ldr	r1, [pc, #240]	; (8009b84 <cmdConvert+0x1d8>)
 8009a94:	4620      	mov	r0, r4
 8009a96:	f7fe fe93 	bl	80087c0 <chprintf>
        chprintf(chp, "Selected antenna:   %u" SHELL_NEWLINE_STR , converter->currentTune.antennaInput);
 8009a9a:	4620      	mov	r0, r4
 8009a9c:	686a      	ldr	r2, [r5, #4]
 8009a9e:	493a      	ldr	r1, [pc, #232]	; (8009b88 <cmdConvert+0x1dc>)
 8009aa0:	f7fe fe8e 	bl	80087c0 <chprintf>
            return;
        }
    }

    cmdConvertUsage(chp);
}
 8009aa4:	b008      	add	sp, #32
 8009aa6:	e8bd 87f0 	ldmia.w	sp!, {r4, r5, r6, r7, r8, r9, sl, pc}
    } else if (argc >= 2) {
 8009aaa:	dd45      	ble.n	8009b38 <cmdConvert+0x18c>
        if(argc == 3 && !strcmp(argv[0], "hs")) {
 8009aac:	2a03      	cmp	r2, #3
 8009aae:	681f      	ldr	r7, [r3, #0]
 8009ab0:	d115      	bne.n	8009ade <cmdConvert+0x132>
 8009ab2:	4638      	mov	r0, r7
 8009ab4:	4935      	ldr	r1, [pc, #212]	; (8009b8c <cmdConvert+0x1e0>)
 8009ab6:	f7fa f92f 	bl	8003d18 <strcmp>
 8009aba:	b980      	cbnz	r0, 8009ade <cmdConvert+0x132>
            uint32_t band = strToInt(argv[1], 10);
 8009abc:	210a      	movs	r1, #10
 8009abe:	6870      	ldr	r0, [r6, #4]
 8009ac0:	f7fc f95e 	bl	8005d80 <strToInt>
            if(band < sizeof(converterSHFBandConfig)/sizeof(ConverterSHFConfig)) {
 8009ac4:	2803      	cmp	r0, #3
 8009ac6:	d80a      	bhi.n	8009ade <cmdConvert+0x132>
                converterSHFBandConfig[band].useHighSideMixing = (argv[2][0] == '1');
 8009ac8:	230c      	movs	r3, #12
 8009aca:	4358      	muls	r0, r3
 8009acc:	68b3      	ldr	r3, [r6, #8]
 8009ace:	781b      	ldrb	r3, [r3, #0]
 8009ad0:	f1a3 0231 	sub.w	r2, r3, #49	; 0x31
 8009ad4:	4253      	negs	r3, r2
 8009ad6:	4153      	adcs	r3, r2
 8009ad8:	4a2d      	ldr	r2, [pc, #180]	; (8009b90 <cmdConvert+0x1e4>)
 8009ada:	5413      	strb	r3, [r2, r0]
                return;
 8009adc:	e7e2      	b.n	8009aa4 <cmdConvert+0xf8>
        if(!strcmp(argv[0], "setup")) {
 8009ade:	4638      	mov	r0, r7
 8009ae0:	492c      	ldr	r1, [pc, #176]	; (8009b94 <cmdConvert+0x1e8>)
 8009ae2:	f7fa f919 	bl	8003d18 <strcmp>
 8009ae6:	4607      	mov	r7, r0
 8009ae8:	bb30      	cbnz	r0, 8009b38 <cmdConvert+0x18c>
            uint32_t frequency = strToInt(argv[1], 10);
 8009aea:	210a      	movs	r1, #10
 8009aec:	6870      	ldr	r0, [r6, #4]
 8009aee:	f7fc f947 	bl	8005d80 <strToInt>
            if(argc >= 3) {
 8009af2:	f1b8 0f02 	cmp.w	r8, #2
            tuneRequest.antennaInput = 0;
 8009af6:	e9cd 0703 	strd	r0, r7, [sp, #12]
            if(argc >= 3) {
 8009afa:	d111      	bne.n	8009b20 <cmdConvert+0x174>
            tuneRequest.forceBand = false;
 8009afc:	f88d 7014 	strb.w	r7, [sp, #20]
            bool result = converterTune(converter, &tuneRequest);
 8009b00:	4628      	mov	r0, r5
 8009b02:	a903      	add	r1, sp, #12
 8009b04:	f7fb fc66 	bl	80053d4 <converterTune>
            if(result) {
 8009b08:	b1a0      	cbz	r0, 8009b34 <cmdConvert+0x188>
                chprintf(chp, "IF Frequency: %u kHz, inversion: %u (band %u)"SHELL_NEWLINE_STR, tuneRequest.outputFrequencyKHz, tuneRequest.spectrumInversion, tuneRequest.bandId);
 8009b0a:	f89d 3015 	ldrb.w	r3, [sp, #21]
 8009b0e:	4620      	mov	r0, r4
 8009b10:	9300      	str	r3, [sp, #0]
 8009b12:	9a06      	ldr	r2, [sp, #24]
 8009b14:	f89d 301c 	ldrb.w	r3, [sp, #28]
 8009b18:	491f      	ldr	r1, [pc, #124]	; (8009b98 <cmdConvert+0x1ec>)
 8009b1a:	f7fe fe51 	bl	80087c0 <chprintf>
 8009b1e:	e7c1      	b.n	8009aa4 <cmdConvert+0xf8>
                tuneRequest.forceBand = true;
 8009b20:	2301      	movs	r3, #1
                tuneRequest.bandId = strToInt(argv[2], 10);
 8009b22:	210a      	movs	r1, #10
 8009b24:	68b0      	ldr	r0, [r6, #8]
                tuneRequest.forceBand = true;
 8009b26:	f88d 3014 	strb.w	r3, [sp, #20]
                tuneRequest.bandId = strToInt(argv[2], 10);
 8009b2a:	f7fc f929 	bl	8005d80 <strToInt>
 8009b2e:	f88d 0015 	strb.w	r0, [sp, #21]
 8009b32:	e7e5      	b.n	8009b00 <cmdConvert+0x154>
                chprintf(chp, "Error!"SHELL_NEWLINE_STR);
 8009b34:	4919      	ldr	r1, [pc, #100]	; (8009b9c <cmdConvert+0x1f0>)
 8009b36:	e777      	b.n	8009a28 <cmdConvert+0x7c>
    chprintf(chp, "Usage:"SHELL_NEWLINE_STR);
 8009b38:	4919      	ldr	r1, [pc, #100]	; (8009ba0 <cmdConvert+0x1f4>)
 8009b3a:	4620      	mov	r0, r4
 8009b3c:	f7fe fe40 	bl	80087c0 <chprintf>
    chprintf(chp, "\tconvert setup [freqkHz] [forceBand]"SHELL_NEWLINE_STR);
 8009b40:	4918      	ldr	r1, [pc, #96]	; (8009ba4 <cmdConvert+0x1f8>)
 8009b42:	4620      	mov	r0, r4
 8009b44:	f7fe fe3c 	bl	80087c0 <chprintf>
    chprintf(chp, "\tconvert hs [shfband] [1/0]"SHELL_NEWLINE_STR);
 8009b48:	4917      	ldr	r1, [pc, #92]	; (8009ba8 <cmdConvert+0x1fc>)
 8009b4a:	4620      	mov	r0, r4
 8009b4c:	f7fe fe38 	bl	80087c0 <chprintf>
    chprintf(chp, "\tconvert status"SHELL_NEWLINE_STR);
 8009b50:	4916      	ldr	r1, [pc, #88]	; (8009bac <cmdConvert+0x200>)
 8009b52:	e769      	b.n	8009a28 <cmdConvert+0x7c>
 8009b54:	0800bb41 	.word	0x0800bb41
 8009b58:	0800bb48 	.word	0x0800bb48
 8009b5c:	0800bb68 	.word	0x0800bb68
 8009b60:	0800bf82 	.word	0x0800bf82
 8009b64:	0800bb71 	.word	0x0800bb71
 8009b68:	0800bb7f 	.word	0x0800bb7f
 8009b6c:	0800c115 	.word	0x0800c115
 8009b70:	0800bb9e 	.word	0x0800bb9e
 8009b74:	0800bb97 	.word	0x0800bb97
 8009b78:	0800bb8f 	.word	0x0800bb8f
 8009b7c:	0800bbb4 	.word	0x0800bbb4
 8009b80:	0800bbd1 	.word	0x0800bbd1
 8009b84:	0800bbee 	.word	0x0800bbee
 8009b88:	0800bc07 	.word	0x0800bc07
 8009b8c:	0800bc20 	.word	0x0800bc20
 8009b90:	2000080c 	.word	0x2000080c
 8009b94:	0800bc23 	.word	0x0800bc23
 8009b98:	0800bc29 	.word	0x0800bc29
 8009b9c:	0800bc59 	.word	0x0800bc59
 8009ba0:	0800b921 	.word	0x0800b921
 8009ba4:	0800bc62 	.word	0x0800bc62
 8009ba8:	0800bc89 	.word	0x0800bc89
 8009bac:	0800bca7 	.word	0x0800bca7
 8009bb0:	0800bb9b 	.word	0x0800bb9b
 8009bb4:	0800bb98 	.word	0x0800bb98
 8009bb8:	0800bc1b 	.word	0x0800bc1b

08009bbc <cmdGPIOUsage>:

#include <string.h>
#include <stdlib.h>

static void cmdGPIOUsage(BaseSequentialStream *chp)
{
 8009bbc:	b510      	push	{r4, lr}
 8009bbe:	4604      	mov	r4, r0
    chprintf(chp, "Usage:"SHELL_NEWLINE_STR);
 8009bc0:	4910      	ldr	r1, [pc, #64]	; (8009c04 <cmdGPIOUsage+0x48>)
 8009bc2:	f7fe fdfd 	bl	80087c0 <chprintf>
    chprintf(chp, "\tgpio status"SHELL_NEWLINE_STR);
 8009bc6:	4620      	mov	r0, r4
 8009bc8:	490f      	ldr	r1, [pc, #60]	; (8009c08 <cmdGPIOUsage+0x4c>)
 8009bca:	f7fe fdf9 	bl	80087c0 <chprintf>
    chprintf(chp, "\tgpio [port] [pin] output"SHELL_NEWLINE_STR);
 8009bce:	4620      	mov	r0, r4
 8009bd0:	490e      	ldr	r1, [pc, #56]	; (8009c0c <cmdGPIOUsage+0x50>)
 8009bd2:	f7fe fdf5 	bl	80087c0 <chprintf>
    chprintf(chp, "\tgpio [port] [pin] input"SHELL_NEWLINE_STR);
 8009bd6:	4620      	mov	r0, r4
 8009bd8:	490d      	ldr	r1, [pc, #52]	; (8009c10 <cmdGPIOUsage+0x54>)
 8009bda:	f7fe fdf1 	bl	80087c0 <chprintf>
    chprintf(chp, "\tgpio [port] [pin] set"SHELL_NEWLINE_STR);
 8009bde:	4620      	mov	r0, r4
 8009be0:	490c      	ldr	r1, [pc, #48]	; (8009c14 <cmdGPIOUsage+0x58>)
 8009be2:	f7fe fded 	bl	80087c0 <chprintf>
    chprintf(chp, "\tgpio [port] [pin] clear"SHELL_NEWLINE_STR);
 8009be6:	4620      	mov	r0, r4
 8009be8:	490b      	ldr	r1, [pc, #44]	; (8009c18 <cmdGPIOUsage+0x5c>)
 8009bea:	f7fe fde9 	bl	80087c0 <chprintf>
    chprintf(chp, "\tgpio [port] [pin] get"SHELL_NEWLINE_STR);
 8009bee:	4620      	mov	r0, r4
 8009bf0:	490a      	ldr	r1, [pc, #40]	; (8009c1c <cmdGPIOUsage+0x60>)
 8009bf2:	f7fe fde5 	bl	80087c0 <chprintf>
    chprintf(chp, "\tgpio [port] bus [on/off]"SHELL_NEWLINE_STR);
 8009bf6:	4620      	mov	r0, r4

}
 8009bf8:	e8bd 4010 	ldmia.w	sp!, {r4, lr}
    chprintf(chp, "\tgpio [port] bus [on/off]"SHELL_NEWLINE_STR);
 8009bfc:	4908      	ldr	r1, [pc, #32]	; (8009c20 <cmdGPIOUsage+0x64>)
 8009bfe:	f7fe bddf 	b.w	80087c0 <chprintf>
 8009c02:	bf00      	nop
 8009c04:	0800b921 	.word	0x0800b921
 8009c08:	0800bcb9 	.word	0x0800bcb9
 8009c0c:	0800bcc8 	.word	0x0800bcc8
 8009c10:	0800bce4 	.word	0x0800bce4
 8009c14:	0800bcff 	.word	0x0800bcff
 8009c18:	0800bd18 	.word	0x0800bd18
 8009c1c:	0800bd33 	.word	0x0800bd33
 8009c20:	0800bd4c 	.word	0x0800bd4c

08009c24 <cmdGPIO>:

void cmdGPIO(void* user, BaseSequentialStream *chp, int argc, char *argv[])
{
 8009c24:	e92d 47f0 	stmdb	sp!, {r4, r5, r6, r7, r8, r9, sl, lr}
    (void) user;

    if(argc < 1) {
 8009c28:	1e16      	subs	r6, r2, #0
{
 8009c2a:	460d      	mov	r5, r1
 8009c2c:	461f      	mov	r7, r3
    if(argc < 1) {
 8009c2e:	dc04      	bgt.n	8009c3a <cmdGPIO+0x16>
        cmdGPIOUsage(chp);
 8009c30:	4628      	mov	r0, r5
    } else {
        cmdGPIOUsage(chp);
    }

    //TXA6408PrintStatus(&mixerControllerIO, chp);
}
 8009c32:	e8bd 47f0 	ldmia.w	sp!, {r4, r5, r6, r7, r8, r9, sl, lr}
        cmdGPIOUsage(chp);
 8009c36:	f7ff bfc1 	b.w	8009bbc <cmdGPIOUsage>
    if(!strcmp(argv[0], "status")) {
 8009c3a:	f8d3 8000 	ldr.w	r8, [r3]
 8009c3e:	4944      	ldr	r1, [pc, #272]	; (8009d50 <cmdGPIO+0x12c>)
 8009c40:	4640      	mov	r0, r8
 8009c42:	f7fa f869 	bl	8003d18 <strcmp>
 8009c46:	4604      	mov	r4, r0
 8009c48:	bb78      	cbnz	r0, 8009caa <cmdGPIO+0x86>
    for(uint8_t i=0; i<GPIODriverData.numPorts; i++) {
 8009c4a:	f8df 8128 	ldr.w	r8, [pc, #296]	; 8009d74 <cmdGPIO+0x150>
        chprintf(chp, "Port %u: ", i);
 8009c4e:	f8df 9128 	ldr.w	r9, [pc, #296]	; 8009d78 <cmdGPIO+0x154>
            chprintf(chp, "(Active, %u pins)", port->numPins);
 8009c52:	f8df a128 	ldr.w	sl, [pc, #296]	; 8009d7c <cmdGPIO+0x158>
 8009c56:	e021      	b.n	8009c9c <cmdGPIO+0x78>
        const GPIOPort* port = gpioGetPortDriver(i);
 8009c58:	4630      	mov	r0, r6
 8009c5a:	f7fb fc81 	bl	8005560 <gpioGetPortDriver>
        chprintf(chp, "Port %u: ", i);
 8009c5e:	4632      	mov	r2, r6
        const GPIOPort* port = gpioGetPortDriver(i);
 8009c60:	4607      	mov	r7, r0
        chprintf(chp, "Port %u: ", i);
 8009c62:	4649      	mov	r1, r9
 8009c64:	4628      	mov	r0, r5
 8009c66:	f7fe fdab 	bl	80087c0 <chprintf>
        if(GPIODriverData.registeredPorts & _BV(i)) {
 8009c6a:	f8d8 2008 	ldr.w	r2, [r8, #8]
 8009c6e:	40f2      	lsrs	r2, r6
 8009c70:	07d3      	lsls	r3, r2, #31
 8009c72:	d504      	bpl.n	8009c7e <cmdGPIO+0x5a>
            chprintf(chp, "(Active, %u pins)", port->numPins);
 8009c74:	4651      	mov	r1, sl
 8009c76:	4628      	mov	r0, r5
 8009c78:	687a      	ldr	r2, [r7, #4]
 8009c7a:	f7fe fda1 	bl	80087c0 <chprintf>
        chprintf(chp, SHELL_NEWLINE_STR);
 8009c7e:	4628      	mov	r0, r5
 8009c80:	4934      	ldr	r1, [pc, #208]	; (8009d54 <cmdGPIO+0x130>)
 8009c82:	f7fe fd9d 	bl	80087c0 <chprintf>
        if(port->functions->status) {
 8009c86:	68bb      	ldr	r3, [r7, #8]
 8009c88:	695b      	ldr	r3, [r3, #20]
 8009c8a:	b113      	cbz	r3, 8009c92 <cmdGPIO+0x6e>
            port->functions->status(port, chp);
 8009c8c:	4629      	mov	r1, r5
 8009c8e:	4638      	mov	r0, r7
 8009c90:	4798      	blx	r3
        chprintf(chp, SHELL_NEWLINE_STR);
 8009c92:	4628      	mov	r0, r5
 8009c94:	492f      	ldr	r1, [pc, #188]	; (8009d54 <cmdGPIO+0x130>)
 8009c96:	f7fe fd93 	bl	80087c0 <chprintf>
    for(uint8_t i=0; i<GPIODriverData.numPorts; i++) {
 8009c9a:	3401      	adds	r4, #1
 8009c9c:	f898 3004 	ldrb.w	r3, [r8, #4]
 8009ca0:	b2e6      	uxtb	r6, r4
 8009ca2:	42b3      	cmp	r3, r6
 8009ca4:	d8d8      	bhi.n	8009c58 <cmdGPIO+0x34>
}
 8009ca6:	e8bd 87f0 	ldmia.w	sp!, {r4, r5, r6, r7, r8, r9, sl, pc}
    if(argc == 3) {
 8009caa:	2e03      	cmp	r6, #3
 8009cac:	d1c0      	bne.n	8009c30 <cmdGPIO+0xc>
        uint8_t portId = strToInt(argv[0], 10);
 8009cae:	210a      	movs	r1, #10
 8009cb0:	4640      	mov	r0, r8
 8009cb2:	f7fc f865 	bl	8005d80 <strToInt>
        if(!strcmp(argv[1], "bus")) {
 8009cb6:	687c      	ldr	r4, [r7, #4]
        uint8_t portId = strToInt(argv[0], 10);
 8009cb8:	4606      	mov	r6, r0
        if(!strcmp(argv[1], "bus")) {
 8009cba:	4927      	ldr	r1, [pc, #156]	; (8009d58 <cmdGPIO+0x134>)
 8009cbc:	4620      	mov	r0, r4
 8009cbe:	f7fa f82b 	bl	8003d18 <strcmp>
 8009cc2:	4680      	mov	r8, r0
 8009cc4:	b968      	cbnz	r0, 8009ce2 <cmdGPIO+0xbe>
            if(!strcmp(argv[2], "off")) {
 8009cc6:	4925      	ldr	r1, [pc, #148]	; (8009d5c <cmdGPIO+0x138>)
 8009cc8:	68b8      	ldr	r0, [r7, #8]
        uint8_t portId = strToInt(argv[0], 10);
 8009cca:	b2f6      	uxtb	r6, r6
            if(!strcmp(argv[2], "off")) {
 8009ccc:	f7fa f824 	bl	8003d18 <strcmp>
 8009cd0:	b928      	cbnz	r0, 8009cde <cmdGPIO+0xba>
                gpioPortIoDisable(portId, true);
 8009cd2:	2101      	movs	r1, #1
                gpioPortIoDisable(portId, false);
 8009cd4:	4630      	mov	r0, r6
}
 8009cd6:	e8bd 47f0 	ldmia.w	sp!, {r4, r5, r6, r7, r8, r9, sl, lr}
                gpioPortIoDisable(portId, false);
 8009cda:	f7fb bc4f 	b.w	800557c <gpioPortIoDisable>
 8009cde:	4641      	mov	r1, r8
 8009ce0:	e7f8      	b.n	8009cd4 <cmdGPIO+0xb0>
            uint8_t pinId = strToInt(argv[1], 10);
 8009ce2:	210a      	movs	r1, #10
 8009ce4:	4620      	mov	r0, r4
 8009ce6:	f7fc f84b 	bl	8005d80 <strToInt>
            uint16_t pin = MAKE_GPIO(portId, pinId);
 8009cea:	b2c4      	uxtb	r4, r0
 8009cec:	ea44 2406 	orr.w	r4, r4, r6, lsl #8
            if(!strcmp(argv[2], "output")) {
 8009cf0:	68be      	ldr	r6, [r7, #8]
 8009cf2:	491b      	ldr	r1, [pc, #108]	; (8009d60 <cmdGPIO+0x13c>)
 8009cf4:	4630      	mov	r0, r6
            uint16_t pin = MAKE_GPIO(portId, pinId);
 8009cf6:	b2a4      	uxth	r4, r4
            if(!strcmp(argv[2], "output")) {
 8009cf8:	f7fa f80e 	bl	8003d18 <strcmp>
 8009cfc:	b928      	cbnz	r0, 8009d0a <cmdGPIO+0xe6>
                gpioSetPinMode(pin, PAL_MODE_OUTPUT_PUSHPULL);
 8009cfe:	2106      	movs	r1, #6
                gpioSetPinMode(pin, PAL_MODE_INPUT);
 8009d00:	4620      	mov	r0, r4
}
 8009d02:	e8bd 47f0 	ldmia.w	sp!, {r4, r5, r6, r7, r8, r9, sl, lr}
                gpioSetPinMode(pin, PAL_MODE_INPUT);
 8009d06:	f7fb bc43 	b.w	8005590 <gpioSetPinMode>
            } else if(!strcmp(argv[2], "input")) {
 8009d0a:	4630      	mov	r0, r6
 8009d0c:	4915      	ldr	r1, [pc, #84]	; (8009d64 <cmdGPIO+0x140>)
 8009d0e:	f7fa f803 	bl	8003d18 <strcmp>
 8009d12:	b908      	cbnz	r0, 8009d18 <cmdGPIO+0xf4>
                gpioSetPinMode(pin, PAL_MODE_INPUT);
 8009d14:	2102      	movs	r1, #2
 8009d16:	e7f3      	b.n	8009d00 <cmdGPIO+0xdc>
            } else if(!strcmp(argv[2], "set")) {
 8009d18:	4630      	mov	r0, r6
 8009d1a:	4913      	ldr	r1, [pc, #76]	; (8009d68 <cmdGPIO+0x144>)
 8009d1c:	f7f9 fffc 	bl	8003d18 <strcmp>
 8009d20:	b928      	cbnz	r0, 8009d2e <cmdGPIO+0x10a>
                gpioSetPin(pin, true);
 8009d22:	2101      	movs	r1, #1
 8009d24:	4620      	mov	r0, r4
}
 8009d26:	e8bd 47f0 	ldmia.w	sp!, {r4, r5, r6, r7, r8, r9, sl, lr}
                gpioSetPin(pin, false);
 8009d2a:	f7fb bc4f 	b.w	80055cc <gpioSetPin>
            } else if(!strcmp(argv[2], "clear")) {
 8009d2e:	490f      	ldr	r1, [pc, #60]	; (8009d6c <cmdGPIO+0x148>)
 8009d30:	4630      	mov	r0, r6
 8009d32:	f7f9 fff1 	bl	8003d18 <strcmp>
 8009d36:	4601      	mov	r1, r0
                gpioSetPin(pin, false);
 8009d38:	4620      	mov	r0, r4
            } else if(!strcmp(argv[2], "clear")) {
 8009d3a:	2900      	cmp	r1, #0
 8009d3c:	d0f3      	beq.n	8009d26 <cmdGPIO+0x102>
                chprintf(chp, "Value: %u"SHELL_NEWLINE_STR, gpioGetPin(pin));
 8009d3e:	f7fb fc33 	bl	80055a8 <gpioGetPin>
 8009d42:	490b      	ldr	r1, [pc, #44]	; (8009d70 <cmdGPIO+0x14c>)
 8009d44:	4602      	mov	r2, r0
 8009d46:	4628      	mov	r0, r5
}
 8009d48:	e8bd 47f0 	ldmia.w	sp!, {r4, r5, r6, r7, r8, r9, sl, lr}
                chprintf(chp, "Value: %u"SHELL_NEWLINE_STR, gpioGetPin(pin));
 8009d4c:	f7fe bd38 	b.w	80087c0 <chprintf>
 8009d50:	0800bb41 	.word	0x0800bb41
 8009d54:	0800c115 	.word	0x0800c115
 8009d58:	0800bd84 	.word	0x0800bd84
 8009d5c:	0800bd88 	.word	0x0800bd88
 8009d60:	0800bd8c 	.word	0x0800bd8c
 8009d64:	0800bd93 	.word	0x0800bd93
 8009d68:	0800bd99 	.word	0x0800bd99
 8009d6c:	0800bd9d 	.word	0x0800bd9d
 8009d70:	0800bda3 	.word	0x0800bda3
 8009d74:	20000928 	.word	0x20000928
 8009d78:	0800bd68 	.word	0x0800bd68
 8009d7c:	0800bd72 	.word	0x0800bd72

08009d80 <cmdTemp>:

#include <string.h>


void cmdTemp(void* user, BaseSequentialStream *chp, int argc, char *argv[])
{
 8009d80:	b510      	push	{r4, lr}
 8009d82:	460c      	mov	r4, r1
 8009d84:	f7ff f826 	bl	8008dd4 <MCP9804MeasureTemperature.part.0>
    (void)argv;
    MCP9804Driver* tempSens = (MCP9804Driver*)user;

    int32_t temp = MCP9804MeasureTemperature(tempSens, true);

    chprintf(chp, "Temperature: %d mC"SHELL_NEWLINE_STR, temp*1000/16);
 8009d88:	f44f 727a 	mov.w	r2, #1000	; 0x3e8
 8009d8c:	4342      	muls	r2, r0
 8009d8e:	bf48      	it	mi
 8009d90:	320f      	addmi	r2, #15
 8009d92:	4620      	mov	r0, r4
}
 8009d94:	e8bd 4010 	ldmia.w	sp!, {r4, lr}
    chprintf(chp, "Temperature: %d mC"SHELL_NEWLINE_STR, temp*1000/16);
 8009d98:	4901      	ldr	r1, [pc, #4]	; (8009da0 <cmdTemp+0x20>)
 8009d9a:	1112      	asrs	r2, r2, #4
 8009d9c:	f7fe bd10 	b.w	80087c0 <chprintf>
 8009da0:	0800bdaf 	.word	0x0800bdaf

08009da4 <cmdI2CUsage>:

#include <string.h>
#include <stdlib.h>

static void cmdI2CUsage(BaseSequentialStream *chp)
{
 8009da4:	b510      	push	{r4, lr}
 8009da6:	4604      	mov	r4, r0
    chprintf(chp, "Usage:"SHELL_NEWLINE_STR);
 8009da8:	490c      	ldr	r1, [pc, #48]	; (8009ddc <cmdI2CUsage+0x38>)
 8009daa:	f7fe fd09 	bl	80087c0 <chprintf>
    chprintf(chp, "\ti2c test"SHELL_NEWLINE_STR);
 8009dae:	4620      	mov	r0, r4
 8009db0:	490b      	ldr	r1, [pc, #44]	; (8009de0 <cmdI2CUsage+0x3c>)
 8009db2:	f7fe fd05 	bl	80087c0 <chprintf>
    chprintf(chp, "\ti2c scan"SHELL_NEWLINE_STR);
 8009db6:	4620      	mov	r0, r4
 8009db8:	490a      	ldr	r1, [pc, #40]	; (8009de4 <cmdI2CUsage+0x40>)
 8009dba:	f7fe fd01 	bl	80087c0 <chprintf>
    chprintf(chp, "\ti2c errors"SHELL_NEWLINE_STR);
 8009dbe:	4620      	mov	r0, r4
 8009dc0:	4909      	ldr	r1, [pc, #36]	; (8009de8 <cmdI2CUsage+0x44>)
 8009dc2:	f7fe fcfd 	bl	80087c0 <chprintf>
    chprintf(chp, "\ti2c get devAddr regAddr [stress]"SHELL_NEWLINE_STR);
 8009dc6:	4620      	mov	r0, r4
 8009dc8:	4908      	ldr	r1, [pc, #32]	; (8009dec <cmdI2CUsage+0x48>)
 8009dca:	f7fe fcf9 	bl	80087c0 <chprintf>
    chprintf(chp, "\ti2c set devAddr regAddr regValue [stress]"SHELL_NEWLINE_STR);
 8009dce:	4620      	mov	r0, r4
}
 8009dd0:	e8bd 4010 	ldmia.w	sp!, {r4, lr}
    chprintf(chp, "\ti2c set devAddr regAddr regValue [stress]"SHELL_NEWLINE_STR);
 8009dd4:	4906      	ldr	r1, [pc, #24]	; (8009df0 <cmdI2CUsage+0x4c>)
 8009dd6:	f7fe bcf3 	b.w	80087c0 <chprintf>
 8009dda:	bf00      	nop
 8009ddc:	0800b921 	.word	0x0800b921
 8009de0:	0800bdc4 	.word	0x0800bdc4
 8009de4:	0800bdd0 	.word	0x0800bdd0
 8009de8:	0800bddc 	.word	0x0800bddc
 8009dec:	0800bdea 	.word	0x0800bdea
 8009df0:	0800be0e 	.word	0x0800be0e

08009df4 <cmdI2C>:
    }
    chprintf(chp, SHELL_NEWLINE_STR);
}

void cmdI2C(void* user, BaseSequentialStream *chp, int argc, char *argv[])
{
 8009df4:	e92d 4ff0 	stmdb	sp!, {r4, r5, r6, r7, r8, r9, sl, fp, lr}
 8009df8:	4606      	mov	r6, r0
 8009dfa:	460c      	mov	r4, r1
 8009dfc:	4698      	mov	r8, r3
    I2CDriver* i2c = (I2CDriver*)user;

    if(argc == 0) {
 8009dfe:	4615      	mov	r5, r2
{
 8009e00:	b087      	sub	sp, #28
    if(argc == 0) {
 8009e02:	b92a      	cbnz	r2, 8009e10 <cmdI2C+0x1c>
        cmdI2CUsage(chp);
 8009e04:	4620      	mov	r0, r4
 8009e06:	f7ff ffcd 	bl	8009da4 <cmdI2CUsage>
        cmdI2CScan(i2c, chp);
    } else {
        cmdI2CUsage(chp);
        return;
    }
}
 8009e0a:	b007      	add	sp, #28
 8009e0c:	e8bd 8ff0 	ldmia.w	sp!, {r4, r5, r6, r7, r8, r9, sl, fp, pc}
    if(!strcmp(argv[0], "test")) {
 8009e10:	681f      	ldr	r7, [r3, #0]
 8009e12:	4969      	ldr	r1, [pc, #420]	; (8009fb8 <cmdI2C+0x1c4>)
 8009e14:	4638      	mov	r0, r7
 8009e16:	f7f9 ff7f 	bl	8003d18 <strcmp>
 8009e1a:	b990      	cbnz	r0, 8009e42 <cmdI2C+0x4e>
    i2cAcquireBus(i2c);
 8009e1c:	4630      	mov	r0, r6
 8009e1e:	f7fd fa2f 	bl	8007280 <i2cAcquireBus>
    i2c_result retVal = i2cSafeRawUnclogBus(i2c);
 8009e22:	4630      	mov	r0, r6
 8009e24:	f7fd febe 	bl	8007ba4 <i2cSafeRawUnclogBus>
 8009e28:	4605      	mov	r5, r0
    i2cReleaseBus(i2c);
 8009e2a:	4630      	mov	r0, r6
 8009e2c:	f7fe fa19 	bl	8008262 <i2cReleaseBus>
        chprintf(chp, "Verdict: %s"SHELL_NEWLINE_STR, i2cSafeResultToString(i2cSafeTestBus(i2c)));
 8009e30:	4628      	mov	r0, r5
 8009e32:	f7fb fc7b 	bl	800572c <i2cSafeResultToString>
 8009e36:	4602      	mov	r2, r0
 8009e38:	4960      	ldr	r1, [pc, #384]	; (8009fbc <cmdI2C+0x1c8>)
        chprintf(chp, "I2C Errors: %u"SHELL_NEWLINE_STR, i2cSafeGetNumberOfErrors(i2c));
 8009e3a:	4620      	mov	r0, r4
 8009e3c:	f7fe fcc0 	bl	80087c0 <chprintf>
 8009e40:	e7e3      	b.n	8009e0a <cmdI2C+0x16>
    if(!strcmp(argv[0], "set")) {
 8009e42:	4638      	mov	r0, r7
 8009e44:	495e      	ldr	r1, [pc, #376]	; (8009fc0 <cmdI2C+0x1cc>)
 8009e46:	f7f9 ff67 	bl	8003d18 <strcmp>
 8009e4a:	4681      	mov	r9, r0
 8009e4c:	2800      	cmp	r0, #0
 8009e4e:	d149      	bne.n	8009ee4 <cmdI2C+0xf0>
        if(argc<4) return false;
 8009e50:	2d03      	cmp	r5, #3
 8009e52:	dd63      	ble.n	8009f1c <cmdI2C+0x128>
        if(argc>4) stress = true;
 8009e54:	3d04      	subs	r5, #4
        regValue = strToInt(argv[3], 16);
 8009e56:	f04f 0110 	mov.w	r1, #16
 8009e5a:	f8d8 000c 	ldr.w	r0, [r8, #12]
        if(argc>4) stress = true;
 8009e5e:	bf18      	it	ne
 8009e60:	2501      	movne	r5, #1
        regValue = strToInt(argv[3], 16);
 8009e62:	f7fb ff8d 	bl	8005d80 <strToInt>
        wantToRead = false;
 8009e66:	464f      	mov	r7, r9
        regValue = strToInt(argv[3], 16);
 8009e68:	f88d 0016 	strb.w	r0, [sp, #22]
    uint8_t devAddr = strToInt(argv[1], 16);
 8009e6c:	2110      	movs	r1, #16
 8009e6e:	f8d8 0004 	ldr.w	r0, [r8, #4]
 8009e72:	f7fb ff85 	bl	8005d80 <strToInt>
    uint8_t regAddr = strToInt(argv[2], 16);
 8009e76:	2110      	movs	r1, #16
    uint8_t devAddr = strToInt(argv[1], 16);
 8009e78:	fa5f f980 	uxtb.w	r9, r0
    uint8_t regAddr = strToInt(argv[2], 16);
 8009e7c:	f8d8 0008 	ldr.w	r0, [r8, #8]
 8009e80:	f7fb ff7e 	bl	8005d80 <strToInt>
    uint32_t stressCnt = 0;
 8009e84:	f04f 0a00 	mov.w	sl, #0
    uint8_t regAddr = strToInt(argv[2], 16);
 8009e88:	9003      	str	r0, [sp, #12]
 8009e8a:	f89d b00c 	ldrb.w	fp, [sp, #12]
        if(wantToRead) {
 8009e8e:	b3af      	cbz	r7, 8009efc <cmdI2C+0x108>
            result = i2cSafeReadRegStandard(i2c, devAddr, regAddr, &regValue);
 8009e90:	465a      	mov	r2, fp
 8009e92:	4649      	mov	r1, r9
 8009e94:	4630      	mov	r0, r6
 8009e96:	f10d 0316 	add.w	r3, sp, #22
 8009e9a:	f7fe ffb9 	bl	8008e10 <i2cSafeReadRegStandard>
    return i2cSafeWriteRegBulkStandard(i2c, devAddr, addr, &value, 1);
 8009e9e:	4680      	mov	r8, r0
        if(result != I2C_BUS_OK) {
 8009ea0:	b110      	cbz	r0, 8009ea8 <cmdI2C+0xb4>
            regValue = 0;
 8009ea2:	2300      	movs	r3, #0
 8009ea4:	f88d 3016 	strb.w	r3, [sp, #22]
        if(stress) {
 8009ea8:	b12d      	cbz	r5, 8009eb6 <cmdI2C+0xc2>
            printfFixed(chp, 7, "%u", stressCnt);
 8009eaa:	4653      	mov	r3, sl
 8009eac:	2107      	movs	r1, #7
 8009eae:	4620      	mov	r0, r4
 8009eb0:	4a44      	ldr	r2, [pc, #272]	; (8009fc4 <cmdI2C+0x1d0>)
 8009eb2:	f7fe fc61 	bl	8008778 <printfFixed>
        chprintf(chp, "Status: %s, address: 0x%02x, register: 0x%02x, value: 0x%02x"SHELL_NEWLINE_STR,
 8009eb6:	4640      	mov	r0, r8
 8009eb8:	f7fb fc38 	bl	800572c <i2cSafeResultToString>
 8009ebc:	f89d 3016 	ldrb.w	r3, [sp, #22]
 8009ec0:	4602      	mov	r2, r0
 8009ec2:	9301      	str	r3, [sp, #4]
 8009ec4:	f89d 300c 	ldrb.w	r3, [sp, #12]
 8009ec8:	4620      	mov	r0, r4
 8009eca:	9300      	str	r3, [sp, #0]
 8009ecc:	493e      	ldr	r1, [pc, #248]	; (8009fc8 <cmdI2C+0x1d4>)
 8009ece:	464b      	mov	r3, r9
 8009ed0:	f7fe fc76 	bl	80087c0 <chprintf>
        stressCnt++;
 8009ed4:	f10a 0a01 	add.w	sl, sl, #1
    } while (stress && stressCnt <= 100000);
 8009ed8:	2d00      	cmp	r5, #0
 8009eda:	d096      	beq.n	8009e0a <cmdI2C+0x16>
 8009edc:	4b3b      	ldr	r3, [pc, #236]	; (8009fcc <cmdI2C+0x1d8>)
 8009ede:	459a      	cmp	sl, r3
 8009ee0:	d1d5      	bne.n	8009e8e <cmdI2C+0x9a>
 8009ee2:	e792      	b.n	8009e0a <cmdI2C+0x16>
    } else if(!strcmp(argv[0], "get")) {
 8009ee4:	4638      	mov	r0, r7
 8009ee6:	493a      	ldr	r1, [pc, #232]	; (8009fd0 <cmdI2C+0x1dc>)
 8009ee8:	f7f9 ff16 	bl	8003d18 <strcmp>
 8009eec:	b9b0      	cbnz	r0, 8009f1c <cmdI2C+0x128>
        if(argc<3) return false;
 8009eee:	2d02      	cmp	r5, #2
 8009ef0:	dd14      	ble.n	8009f1c <cmdI2C+0x128>
        if(argc>3) stress = true;
 8009ef2:	3d03      	subs	r5, #3
 8009ef4:	bf18      	it	ne
 8009ef6:	2501      	movne	r5, #1
        wantToRead = true;
 8009ef8:	2701      	movs	r7, #1
 8009efa:	e7b7      	b.n	8009e6c <cmdI2C+0x78>
            result = i2cSafeWriteRegStandard(i2c, devAddr, regAddr, regValue);
 8009efc:	f89d 3016 	ldrb.w	r3, [sp, #22]
 8009f00:	f88d 3017 	strb.w	r3, [sp, #23]
    osalDbgAssert(i2c != NULL, "i2c == NULL");
 8009f04:	b916      	cbnz	r6, 8009f0c <cmdI2C+0x118>
 8009f06:	f7fa fa1b 	bl	8004340 <vTaskEndScheduler>
 8009f0a:	e7fe      	b.n	8009f0a <cmdI2C+0x116>
    return i2cSafeWriteRegBulkStandard(i2c, devAddr, addr, &value, 1);
 8009f0c:	465a      	mov	r2, fp
 8009f0e:	4649      	mov	r1, r9
 8009f10:	4630      	mov	r0, r6
 8009f12:	f10d 0317 	add.w	r3, sp, #23
 8009f16:	f7fe ff17 	bl	8008d48 <i2cSafeWriteRegBulkStandard.constprop.0>
 8009f1a:	e7c0      	b.n	8009e9e <cmdI2C+0xaa>
    } else if(!strcmp(argv[0], "errors")) {
 8009f1c:	4638      	mov	r0, r7
 8009f1e:	492d      	ldr	r1, [pc, #180]	; (8009fd4 <cmdI2C+0x1e0>)
 8009f20:	f7f9 fefa 	bl	8003d18 <strcmp>
 8009f24:	b940      	cbnz	r0, 8009f38 <cmdI2C+0x144>

uint32_t i2cSafeGetNumberOfErrors(I2CDriver* i2c)
{
    osalSysLock();
 8009f26:	f7fa f95d 	bl	80041e4 <vPortEnterCritical>
    uint32_t result = i2c->i2cErrors;
 8009f2a:	f8d6 0084 	ldr.w	r0, [r6, #132]	; 0x84
    osalSysUnlock();
 8009f2e:	f7fb fc89 	bl	8005844 <osalSysUnlock.lto_priv.0>
        chprintf(chp, "I2C Errors: %u"SHELL_NEWLINE_STR, i2cSafeGetNumberOfErrors(i2c));
 8009f32:	4929      	ldr	r1, [pc, #164]	; (8009fd8 <cmdI2C+0x1e4>)
 8009f34:	4602      	mov	r2, r0
 8009f36:	e780      	b.n	8009e3a <cmdI2C+0x46>
    } else if(!strcmp(argv[0], "scan")) {
 8009f38:	4638      	mov	r0, r7
 8009f3a:	4928      	ldr	r1, [pc, #160]	; (8009fdc <cmdI2C+0x1e8>)
 8009f3c:	f7f9 feec 	bl	8003d18 <strcmp>
 8009f40:	4605      	mov	r5, r0
 8009f42:	2800      	cmp	r0, #0
 8009f44:	f47f af5e 	bne.w	8009e04 <cmdI2C+0x10>
    chprintf(chp, "   ");
 8009f48:	4620      	mov	r0, r4
 8009f4a:	4925      	ldr	r1, [pc, #148]	; (8009fe0 <cmdI2C+0x1ec>)
 8009f4c:	f7fe fc38 	bl	80087c0 <chprintf>
    for(int addr = 0; addr <= 0xF; addr++) {
 8009f50:	462f      	mov	r7, r5
        chprintf(chp, "%1x  ", addr);
 8009f52:	f8df 809c 	ldr.w	r8, [pc, #156]	; 8009ff0 <cmdI2C+0x1fc>
 8009f56:	463a      	mov	r2, r7
 8009f58:	4641      	mov	r1, r8
 8009f5a:	4620      	mov	r0, r4
    for(int addr = 0; addr <= 0xF; addr++) {
 8009f5c:	3701      	adds	r7, #1
        chprintf(chp, "%1x  ", addr);
 8009f5e:	f7fe fc2f 	bl	80087c0 <chprintf>
    for(int addr = 0; addr <= 0xF; addr++) {
 8009f62:	2f10      	cmp	r7, #16
 8009f64:	d1f7      	bne.n	8009f56 <cmdI2C+0x162>
            chprintf(chp, SHELL_NEWLINE_STR"%1x ", addr/16);
 8009f66:	4f1f      	ldr	r7, [pc, #124]	; (8009fe4 <cmdI2C+0x1f0>)
            chprintf(chp, "EE ");
 8009f68:	f8df 8088 	ldr.w	r8, [pc, #136]	; 8009ff4 <cmdI2C+0x200>
            chprintf(chp, "-- ");
 8009f6c:	f8df 9088 	ldr.w	r9, [pc, #136]	; 8009ff8 <cmdI2C+0x204>
        if(addr % 16 == 0) {
 8009f70:	072b      	lsls	r3, r5, #28
 8009f72:	d104      	bne.n	8009f7e <cmdI2C+0x18a>
            chprintf(chp, SHELL_NEWLINE_STR"%1x ", addr/16);
 8009f74:	4639      	mov	r1, r7
 8009f76:	4620      	mov	r0, r4
 8009f78:	112a      	asrs	r2, r5, #4
 8009f7a:	f7fe fc21 	bl	80087c0 <chprintf>
        i2c_result result = i2cSafeReadRegStandard(i2c, addr, 0, &regValue);
 8009f7e:	2200      	movs	r2, #0
 8009f80:	4630      	mov	r0, r6
 8009f82:	f10d 0317 	add.w	r3, sp, #23
 8009f86:	b2e9      	uxtb	r1, r5
 8009f88:	f7fe ff42 	bl	8008e10 <i2cSafeReadRegStandard>
        if(result == I2C_BUS_OK) {
 8009f8c:	b960      	cbnz	r0, 8009fa8 <cmdI2C+0x1b4>
            chprintf(chp, "%02x ", addr);
 8009f8e:	462a      	mov	r2, r5
 8009f90:	4620      	mov	r0, r4
 8009f92:	4915      	ldr	r1, [pc, #84]	; (8009fe8 <cmdI2C+0x1f4>)
 8009f94:	f7fe fc14 	bl	80087c0 <chprintf>
    for(int addr = 0; addr <= 0x7F; addr++) {
 8009f98:	3501      	adds	r5, #1
 8009f9a:	2d80      	cmp	r5, #128	; 0x80
 8009f9c:	d1e8      	bne.n	8009f70 <cmdI2C+0x17c>
    chprintf(chp, SHELL_NEWLINE_STR);
 8009f9e:	4620      	mov	r0, r4
 8009fa0:	4912      	ldr	r1, [pc, #72]	; (8009fec <cmdI2C+0x1f8>)
 8009fa2:	f7fe fc0d 	bl	80087c0 <chprintf>
 8009fa6:	e730      	b.n	8009e0a <cmdI2C+0x16>
        } else if(result == I2C_BUS_RESET) {
 8009fa8:	3002      	adds	r0, #2
            chprintf(chp, "-- ");
 8009faa:	bf0c      	ite	eq
 8009fac:	4649      	moveq	r1, r9
            chprintf(chp, "EE ");
 8009fae:	4641      	movne	r1, r8
 8009fb0:	4620      	mov	r0, r4
 8009fb2:	f7fe fc05 	bl	80087c0 <chprintf>
 8009fb6:	e7ef      	b.n	8009f98 <cmdI2C+0x1a4>
 8009fb8:	0800be3b 	.word	0x0800be3b
 8009fbc:	0800be40 	.word	0x0800be40
 8009fc0:	0800bd99 	.word	0x0800bd99
 8009fc4:	0800bb98 	.word	0x0800bb98
 8009fc8:	0800be52 	.word	0x0800be52
 8009fcc:	000186a1 	.word	0x000186a1
 8009fd0:	0800be4e 	.word	0x0800be4e
 8009fd4:	0800be91 	.word	0x0800be91
 8009fd8:	0800be98 	.word	0x0800be98
 8009fdc:	0800bea9 	.word	0x0800bea9
 8009fe0:	0800c4c8 	.word	0x0800c4c8
 8009fe4:	0800beb4 	.word	0x0800beb4
 8009fe8:	0800bebb 	.word	0x0800bebb
 8009fec:	0800c115 	.word	0x0800c115
 8009ff0:	0800beae 	.word	0x0800beae
 8009ff4:	0800bec5 	.word	0x0800bec5
 8009ff8:	0800bec1 	.word	0x0800bec1

08009ffc <cmdSof>:

void cmdSof(void* user, BaseSequentialStream *chp, int argc, char *argv[])
{
    (void) user;

    if(argc > 0) {
 8009ffc:	2a00      	cmp	r2, #0
{
 8009ffe:	b538      	push	{r3, r4, r5, lr}
 800a000:	460c      	mov	r4, r1
 800a002:	4d16      	ldr	r5, [pc, #88]	; (800a05c <cmdSof+0x60>)
    if(argc > 0) {
 800a004:	dd06      	ble.n	800a014 <cmdSof+0x18>
        if(!strcmp(argv[0],"1")) {
 800a006:	4916      	ldr	r1, [pc, #88]	; (800a060 <cmdSof+0x64>)
 800a008:	6818      	ldr	r0, [r3, #0]
 800a00a:	f7f9 fe85 	bl	8003d18 <strcmp>
 800a00e:	b9f0      	cbnz	r0, 800a04e <cmdSof+0x52>
    allowDisableSOF = doIt;
 800a010:	2301      	movs	r3, #1
 800a012:	702b      	strb	r3, [r5, #0]
            usbDisableSOF(true);
        } else {
            usbDisableSOF(false);
        }
    }
    printfFixed(chp, 21, "SoF Disable Allowed:");
 800a014:	2115      	movs	r1, #21
 800a016:	4a13      	ldr	r2, [pc, #76]	; (800a064 <cmdSof+0x68>)
 800a018:	4620      	mov	r0, r4
 800a01a:	f7fe fbad 	bl	8008778 <printfFixed>
    osalSysLock();
 800a01e:	f7fa f8e1 	bl	80041e4 <vPortEnterCritical>
    uint32_t count = sofCounter;
 800a022:	4b11      	ldr	r3, [pc, #68]	; (800a068 <cmdSof+0x6c>)
    if(sofDisableAllowed) *sofDisableAllowed=allowDisableSOF;
 800a024:	7828      	ldrb	r0, [r5, #0]
    uint32_t count = sofCounter;
 800a026:	681d      	ldr	r5, [r3, #0]
    osalSysUnlock();
 800a028:	f7fb fc0c 	bl	8005844 <osalSysUnlock.lto_priv.0>
    bool allowDisable;
    uint32_t cnt = usbGetSofCounter(&allowDisable);
    chprintf(chp, "%u"SHELL_NEWLINE_STR, allowDisable);
 800a02c:	490f      	ldr	r1, [pc, #60]	; (800a06c <cmdSof+0x70>)
 800a02e:	4602      	mov	r2, r0
 800a030:	4620      	mov	r0, r4
 800a032:	f7fe fbc5 	bl	80087c0 <chprintf>
    printfFixed(chp, 21, "SoF Count:");
 800a036:	2115      	movs	r1, #21
 800a038:	4620      	mov	r0, r4
 800a03a:	4a0d      	ldr	r2, [pc, #52]	; (800a070 <cmdSof+0x74>)
 800a03c:	f7fe fb9c 	bl	8008778 <printfFixed>
    chprintf(chp, "%u"SHELL_NEWLINE_STR, cnt);
 800a040:	462a      	mov	r2, r5
 800a042:	4620      	mov	r0, r4
}
 800a044:	e8bd 4038 	ldmia.w	sp!, {r3, r4, r5, lr}
    chprintf(chp, "%u"SHELL_NEWLINE_STR, cnt);
 800a048:	4908      	ldr	r1, [pc, #32]	; (800a06c <cmdSof+0x70>)
 800a04a:	f7fe bbb9 	b.w	80087c0 <chprintf>
    allowDisableSOF = doIt;
 800a04e:	2300      	movs	r3, #0
        sofNeededCallback(&USBD1, true);
 800a050:	2101      	movs	r1, #1
 800a052:	4808      	ldr	r0, [pc, #32]	; (800a074 <cmdSof+0x78>)
    allowDisableSOF = doIt;
 800a054:	702b      	strb	r3, [r5, #0]
        sofNeededCallback(&USBD1, true);
 800a056:	f7fb fd33 	bl	8005ac0 <sofNeededCallback>
 800a05a:	e7db      	b.n	800a014 <cmdSof+0x18>
 800a05c:	20000800 	.word	0x20000800
 800a060:	0800c49b 	.word	0x0800c49b
 800a064:	0800bec9 	.word	0x0800bec9
 800a068:	200012c8 	.word	0x200012c8
 800a06c:	0800bc1b 	.word	0x0800bc1b
 800a070:	0800bede 	.word	0x0800bede
 800a074:	20000f54 	.word	0x20000f54

0800a078 <cmdMaxUsage>:
#include <string.h>
#include <stdlib.h>


static void cmdMaxUsage(BaseSequentialStream* chp)
{
 800a078:	b510      	push	{r4, lr}
 800a07a:	4604      	mov	r4, r0
    chprintf(chp, "Usage:"SHELL_NEWLINE_STR);
 800a07c:	490e      	ldr	r1, [pc, #56]	; (800a0b8 <cmdMaxUsage+0x40>)
 800a07e:	f7fe fb9f 	bl	80087c0 <chprintf>
    chprintf(chp, "\tmax tune [freqkHz] [power] [forceVAS]"SHELL_NEWLINE_STR);
 800a082:	4620      	mov	r0, r4
 800a084:	490d      	ldr	r1, [pc, #52]	; (800a0bc <cmdMaxUsage+0x44>)
 800a086:	f7fe fb9b 	bl	80087c0 <chprintf>
    chprintf(chp, "\tmax status"SHELL_NEWLINE_STR);
 800a08a:	4620      	mov	r0, r4
 800a08c:	490c      	ldr	r1, [pc, #48]	; (800a0c0 <cmdMaxUsage+0x48>)
 800a08e:	f7fe fb97 	bl	80087c0 <chprintf>
    chprintf(chp, "\tmax vcocache"SHELL_NEWLINE_STR);
 800a092:	4620      	mov	r0, r4
 800a094:	490b      	ldr	r1, [pc, #44]	; (800a0c4 <cmdMaxUsage+0x4c>)
 800a096:	f7fe fb93 	bl	80087c0 <chprintf>
    chprintf(chp, "\tmax vcocache calibrate"SHELL_NEWLINE_STR);
 800a09a:	4620      	mov	r0, r4
 800a09c:	490a      	ldr	r1, [pc, #40]	; (800a0c8 <cmdMaxUsage+0x50>)
 800a09e:	f7fe fb8f 	bl	80087c0 <chprintf>
    chprintf(chp, "\tmax vcocache set index value"SHELL_NEWLINE_STR);
 800a0a2:	4620      	mov	r0, r4
 800a0a4:	4909      	ldr	r1, [pc, #36]	; (800a0cc <cmdMaxUsage+0x54>)
 800a0a6:	f7fe fb8b 	bl	80087c0 <chprintf>
    chprintf(chp, "\tmax dld"SHELL_NEWLINE_STR);
 800a0aa:	4620      	mov	r0, r4
}
 800a0ac:	e8bd 4010 	ldmia.w	sp!, {r4, lr}
    chprintf(chp, "\tmax dld"SHELL_NEWLINE_STR);
 800a0b0:	4907      	ldr	r1, [pc, #28]	; (800a0d0 <cmdMaxUsage+0x58>)
 800a0b2:	f7fe bb85 	b.w	80087c0 <chprintf>
 800a0b6:	bf00      	nop
 800a0b8:	0800b921 	.word	0x0800b921
 800a0bc:	0800bee9 	.word	0x0800bee9
 800a0c0:	0800bf12 	.word	0x0800bf12
 800a0c4:	0800bf20 	.word	0x0800bf20
 800a0c8:	0800bf30 	.word	0x0800bf30
 800a0cc:	0800bf4a 	.word	0x0800bf4a
 800a0d0:	0800bf6a 	.word	0x0800bf6a

0800a0d4 <cmdThreadInfo>:
    else if(state == eDeleted) printfFixed(chp, 9, "Deleted");
    else printfFixed(chp, 9, "Invalid");
}

void cmdThreadInfo(void* user, BaseSequentialStream *chp, int argc, char *argv[])
{
 800a0d4:	e92d 4ff7 	stmdb	sp!, {r0, r1, r2, r4, r5, r6, r7, r8, r9, sl, fp, lr}
    (void)argc;
    (void)argv;
    (void) user;

    unsigned int numberOfTasks = uxTaskGetNumberOfTasks();
    TaskStatus_t* taskStatusArray = pvPortMalloc(numberOfTasks * sizeof(TaskStatus_t));
 800a0d8:	2724      	movs	r7, #36	; 0x24
 800a0da:	f8df 82d0 	ldr.w	r8, [pc, #720]	; 800a3ac <cmdThreadInfo+0x2d8>
{
 800a0de:	460c      	mov	r4, r1
 800a0e0:	f8d8 5000 	ldr.w	r5, [r8]
    TaskStatus_t* taskStatusArray = pvPortMalloc(numberOfTasks * sizeof(TaskStatus_t));
 800a0e4:	fb07 f005 	mul.w	r0, r7, r5
 800a0e8:	f7fb f8a0 	bl	800522c <pvPortMalloc>
    if(!taskStatusArray) {
 800a0ec:	4606      	mov	r6, r0
 800a0ee:	2800      	cmp	r0, #0
 800a0f0:	f000 8097 	beq.w	800a222 <cmdThreadInfo+0x14e>
 800a0f4:	f7fa f91c 	bl	8004330 <vTaskSuspendAll>
 800a0f8:	f8d8 3000 	ldr.w	r3, [r8]
 800a0fc:	429d      	cmp	r5, r3
 800a0fe:	f0c0 8093 	bcc.w	800a228 <cmdThreadInfo+0x154>
 800a102:	f04f 0805 	mov.w	r8, #5
 800a106:	2500      	movs	r5, #0
 800a108:	f04f 0a14 	mov.w	sl, #20
 800a10c:	f8df 92a0 	ldr.w	r9, [pc, #672]	; 800a3b0 <cmdThreadInfo+0x2dc>
 800a110:	f108 38ff 	add.w	r8, r8, #4294967295	; 0xffffffff
 800a114:	fb07 6005 	mla	r0, r7, r5, r6
 800a118:	2201      	movs	r2, #1
 800a11a:	fb0a 9108 	mla	r1, sl, r8, r9
 800a11e:	f7fa fcc1 	bl	8004aa4 <prvListTasksWithinSingleList>
 800a122:	4405      	add	r5, r0
 800a124:	f1b8 0f00 	cmp.w	r8, #0
 800a128:	d1f2      	bne.n	800a110 <cmdThreadInfo+0x3c>
 800a12a:	4b83      	ldr	r3, [pc, #524]	; (800a338 <cmdThreadInfo+0x264>)
 800a12c:	2202      	movs	r2, #2
 800a12e:	6819      	ldr	r1, [r3, #0]
 800a130:	fb07 6005 	mla	r0, r7, r5, r6
 800a134:	f7fa fcb6 	bl	8004aa4 <prvListTasksWithinSingleList>
 800a138:	4b80      	ldr	r3, [pc, #512]	; (800a33c <cmdThreadInfo+0x268>)
 800a13a:	4405      	add	r5, r0
 800a13c:	6819      	ldr	r1, [r3, #0]
 800a13e:	2202      	movs	r2, #2
 800a140:	fb07 6005 	mla	r0, r7, r5, r6
 800a144:	f7fa fcae 	bl	8004aa4 <prvListTasksWithinSingleList>
 800a148:	4405      	add	r5, r0
 800a14a:	2204      	movs	r2, #4
 800a14c:	fb07 6005 	mla	r0, r7, r5, r6
 800a150:	497b      	ldr	r1, [pc, #492]	; (800a340 <cmdThreadInfo+0x26c>)
 800a152:	f7fa fca7 	bl	8004aa4 <prvListTasksWithinSingleList>
 800a156:	4405      	add	r5, r0
 800a158:	fb07 6005 	mla	r0, r7, r5, r6
 800a15c:	2203      	movs	r2, #3
 800a15e:	4979      	ldr	r1, [pc, #484]	; (800a344 <cmdThreadInfo+0x270>)
 800a160:	f7fa fca0 	bl	8004aa4 <prvListTasksWithinSingleList>
 800a164:	4405      	add	r5, r0
 800a166:	f7fa fc1d 	bl	80049a4 <xTaskResumeAll>
        return;
    }

    uint32_t totalRunTime;
    unsigned int  result = uxTaskGetSystemState(taskStatusArray, numberOfTasks, &totalRunTime);
    printfFixed(chp, 13, "Task ID");
 800a16a:	210d      	movs	r1, #13
 800a16c:	4a76      	ldr	r2, [pc, #472]	; (800a348 <cmdThreadInfo+0x274>)
 800a16e:	4620      	mov	r0, r4
 800a170:	f7fe fb02 	bl	8008778 <printfFixed>
    printfFixed(chp, 10, "Task Name");
 800a174:	210a      	movs	r1, #10
 800a176:	4a75      	ldr	r2, [pc, #468]	; (800a34c <cmdThreadInfo+0x278>)
 800a178:	4620      	mov	r0, r4
 800a17a:	f7fe fafd 	bl	8008778 <printfFixed>
    printfFixed(chp, 11, "Stack Base");
 800a17e:	210b      	movs	r1, #11
 800a180:	4a73      	ldr	r2, [pc, #460]	; (800a350 <cmdThreadInfo+0x27c>)
 800a182:	4620      	mov	r0, r4
 800a184:	f7fe faf8 	bl	8008778 <printfFixed>
    printfFixed(chp, 11, "Free Stack");
 800a188:	210b      	movs	r1, #11
 800a18a:	4a72      	ldr	r2, [pc, #456]	; (800a354 <cmdThreadInfo+0x280>)
 800a18c:	4620      	mov	r0, r4
 800a18e:	f7fe faf3 	bl	8008778 <printfFixed>
    printfFixed(chp, 6, "PrioB");
 800a192:	2106      	movs	r1, #6
 800a194:	4a70      	ldr	r2, [pc, #448]	; (800a358 <cmdThreadInfo+0x284>)
 800a196:	4620      	mov	r0, r4
 800a198:	f7fe faee 	bl	8008778 <printfFixed>
#if configUSE_MUTEXES
    printfFixed(chp, 6, "PrioC");
 800a19c:	2106      	movs	r1, #6
 800a19e:	4a6f      	ldr	r2, [pc, #444]	; (800a35c <cmdThreadInfo+0x288>)
 800a1a0:	4620      	mov	r0, r4
 800a1a2:	f7fe fae9 	bl	8008778 <printfFixed>
#endif
    printfFixed(chp, 9, "State");
 800a1a6:	2109      	movs	r1, #9
 800a1a8:	4a6d      	ldr	r2, [pc, #436]	; (800a360 <cmdThreadInfo+0x28c>)
 800a1aa:	4620      	mov	r0, r4
 800a1ac:	f7fe fae4 	bl	8008778 <printfFixed>
    chprintf(chp,SHELL_NEWLINE_STR);
 800a1b0:	4620      	mov	r0, r4
 800a1b2:	496c      	ldr	r1, [pc, #432]	; (800a364 <cmdThreadInfo+0x290>)
 800a1b4:	f7fe fb04 	bl	80087c0 <chprintf>
    for(unsigned int i = 0; i<result; i++) {
 800a1b8:	2024      	movs	r0, #36	; 0x24
 800a1ba:	4637      	mov	r7, r6
 800a1bc:	fb00 6505 	mla	r5, r0, r5, r6
        printfFixed(chp, 13, "%u=%08x ", taskStatusArray[i].xTaskNumber, taskStatusArray[i].xHandle);
 800a1c0:	f8df 81f0 	ldr.w	r8, [pc, #496]	; 800a3b4 <cmdThreadInfo+0x2e0>
        if(!strcmp("IDLE", taskStatusArray[i].pcTaskName)) {
 800a1c4:	f8df 91f0 	ldr.w	r9, [pc, #496]	; 800a3b8 <cmdThreadInfo+0x2e4>
            printfFixed(chp, 10, "Idle");
        } else {
            printfFixed(chp, 10, "%s", taskStatusArray[i].pcTaskName);
 800a1c8:	f8df a1f0 	ldr.w	sl, [pc, #496]	; 800a3bc <cmdThreadInfo+0x2e8>
    for(unsigned int i = 0; i<result; i++) {
 800a1cc:	42af      	cmp	r7, r5
 800a1ce:	d12d      	bne.n	800a22c <cmdThreadInfo+0x158>
            cmdThreadPrintState(chp, taskStatusArray[i].eCurrentState);
        }
        chprintf(chp,SHELL_NEWLINE_STR);
    }

    vPortFree(taskStatusArray);
 800a1d0:	4630      	mov	r0, r6
    printfFixed(chp, 11, "Descriptor");
    printfFixed(chp, 11, "Callback");
    chprintf(chp, "State"SHELL_NEWLINE_STR);

    MonitorEntry* entry = monThreadFirst;
    unsigned int index = 0;
 800a1d2:	2600      	movs	r6, #0
 800a1d4:	f7fa ff7e 	bl	80050d4 <vPortFree>
    chprintf(chp,SHELL_NEWLINE_STR);
 800a1d8:	4962      	ldr	r1, [pc, #392]	; (800a364 <cmdThreadInfo+0x290>)
 800a1da:	4620      	mov	r0, r4
 800a1dc:	f7fe faf0 	bl	80087c0 <chprintf>
    printfFixed(chp, 13, "Monitor ID");
 800a1e0:	210d      	movs	r1, #13
 800a1e2:	4a61      	ldr	r2, [pc, #388]	; (800a368 <cmdThreadInfo+0x294>)
 800a1e4:	4620      	mov	r0, r4
 800a1e6:	f7fe fac7 	bl	8008778 <printfFixed>
    printfFixed(chp, 10, "Task Name");
 800a1ea:	210a      	movs	r1, #10
 800a1ec:	4a57      	ldr	r2, [pc, #348]	; (800a34c <cmdThreadInfo+0x278>)
 800a1ee:	4620      	mov	r0, r4
 800a1f0:	f7fe fac2 	bl	8008778 <printfFixed>
    printfFixed(chp, 11, "Descriptor");
 800a1f4:	210b      	movs	r1, #11
 800a1f6:	4a5d      	ldr	r2, [pc, #372]	; (800a36c <cmdThreadInfo+0x298>)
 800a1f8:	4620      	mov	r0, r4
 800a1fa:	f7fe fabd 	bl	8008778 <printfFixed>
    printfFixed(chp, 11, "Callback");
 800a1fe:	210b      	movs	r1, #11
 800a200:	4a5b      	ldr	r2, [pc, #364]	; (800a370 <cmdThreadInfo+0x29c>)
 800a202:	4620      	mov	r0, r4
 800a204:	f7fe fab8 	bl	8008778 <printfFixed>
    chprintf(chp, "State"SHELL_NEWLINE_STR);
 800a208:	4620      	mov	r0, r4
 800a20a:	495a      	ldr	r1, [pc, #360]	; (800a374 <cmdThreadInfo+0x2a0>)
 800a20c:	f7fe fad8 	bl	80087c0 <chprintf>
    MonitorEntry* entry = monThreadFirst;
 800a210:	4b59      	ldr	r3, [pc, #356]	; (800a378 <cmdThreadInfo+0x2a4>)
    while(entry) {
        printfFixed(chp, 13, "%u", index);
 800a212:	4f5a      	ldr	r7, [pc, #360]	; (800a37c <cmdThreadInfo+0x2a8>)
    MonitorEntry* entry = monThreadFirst;
 800a214:	681d      	ldr	r5, [r3, #0]
        if(entry->name) {
            printfFixed(chp, 10, "%s",entry->name);
        } else {
            printfFixed(chp, 10, "");
 800a216:	f8df 81a8 	ldr.w	r8, [pc, #424]	; 800a3c0 <cmdThreadInfo+0x2ec>
            printfFixed(chp, 10, "%s",entry->name);
 800a21a:	f8df 91a0 	ldr.w	r9, [pc, #416]	; 800a3bc <cmdThreadInfo+0x2e8>
    while(entry) {
 800a21e:	2d00      	cmp	r5, #0
 800a220:	d15f      	bne.n	800a2e2 <cmdThreadInfo+0x20e>
    monitorPrintStatus(chp);
}
 800a222:	b003      	add	sp, #12
 800a224:	e8bd 8ff0 	ldmia.w	sp!, {r4, r5, r6, r7, r8, r9, sl, fp, pc}
 800a228:	2500      	movs	r5, #0
 800a22a:	e79c      	b.n	800a166 <cmdThreadInfo+0x92>
        printfFixed(chp, 13, "%u=%08x ", taskStatusArray[i].xTaskNumber, taskStatusArray[i].xHandle);
 800a22c:	683b      	ldr	r3, [r7, #0]
 800a22e:	210d      	movs	r1, #13
 800a230:	9300      	str	r3, [sp, #0]
 800a232:	4642      	mov	r2, r8
 800a234:	4620      	mov	r0, r4
 800a236:	68bb      	ldr	r3, [r7, #8]
 800a238:	f7fe fa9e 	bl	8008778 <printfFixed>
        if(!strcmp("IDLE", taskStatusArray[i].pcTaskName)) {
 800a23c:	f8d7 b004 	ldr.w	fp, [r7, #4]
 800a240:	4648      	mov	r0, r9
 800a242:	4659      	mov	r1, fp
 800a244:	f7f9 fd68 	bl	8003d18 <strcmp>
 800a248:	bb80      	cbnz	r0, 800a2ac <cmdThreadInfo+0x1d8>
            printfFixed(chp, 10, "Idle");
 800a24a:	210a      	movs	r1, #10
 800a24c:	4620      	mov	r0, r4
 800a24e:	4a4c      	ldr	r2, [pc, #304]	; (800a380 <cmdThreadInfo+0x2ac>)
 800a250:	f7fe fa92 	bl	8008778 <printfFixed>
        printfFixed(chp, 11, "%08x", taskStatusArray[i].pxStackBase);
 800a254:	210b      	movs	r1, #11
 800a256:	69fb      	ldr	r3, [r7, #28]
 800a258:	4a4a      	ldr	r2, [pc, #296]	; (800a384 <cmdThreadInfo+0x2b0>)
 800a25a:	4620      	mov	r0, r4
 800a25c:	f7fe fa8c 	bl	8008778 <printfFixed>
        printfFixed(chp, 11, "%u", (uint32_t)taskStatusArray[i].usStackHighWaterMark);
 800a260:	210b      	movs	r1, #11
 800a262:	8c3b      	ldrh	r3, [r7, #32]
 800a264:	4a45      	ldr	r2, [pc, #276]	; (800a37c <cmdThreadInfo+0x2a8>)
 800a266:	4620      	mov	r0, r4
 800a268:	f7fe fa86 	bl	8008778 <printfFixed>
        printfFixed(chp, 6, "%u", taskStatusArray[i].uxBasePriority);
 800a26c:	2106      	movs	r1, #6
 800a26e:	697b      	ldr	r3, [r7, #20]
 800a270:	4a42      	ldr	r2, [pc, #264]	; (800a37c <cmdThreadInfo+0x2a8>)
 800a272:	4620      	mov	r0, r4
 800a274:	f7fe fa80 	bl	8008778 <printfFixed>
        printfFixed(chp, 6, "%u", taskStatusArray[i].uxCurrentPriority);
 800a278:	2106      	movs	r1, #6
 800a27a:	693b      	ldr	r3, [r7, #16]
 800a27c:	4a3f      	ldr	r2, [pc, #252]	; (800a37c <cmdThreadInfo+0x2a8>)
 800a27e:	4620      	mov	r0, r4
 800a280:	f7fe fa7a 	bl	8008778 <printfFixed>
        if(taskStatusArray[i].xHandle == xGetCurrentTaskHandle()) {
 800a284:	6838      	ldr	r0, [r7, #0]
 800a286:	f7f9 ffad 	bl	80041e4 <vPortEnterCritical>
 800a28a:	4b3f      	ldr	r3, [pc, #252]	; (800a388 <cmdThreadInfo+0x2b4>)
 800a28c:	6819      	ldr	r1, [r3, #0]
 800a28e:	f7f9 ff9d 	bl	80041cc <vPortExitCritical>
 800a292:	4288      	cmp	r0, r1
 800a294:	d111      	bne.n	800a2ba <cmdThreadInfo+0x1e6>
    if(state == eRunning) printfFixed(chp, 9, "Running");
 800a296:	4a3d      	ldr	r2, [pc, #244]	; (800a38c <cmdThreadInfo+0x2b8>)
    else printfFixed(chp, 9, "Invalid");
 800a298:	2109      	movs	r1, #9
 800a29a:	4620      	mov	r0, r4
 800a29c:	f7fe fa6c 	bl	8008778 <printfFixed>
        chprintf(chp,SHELL_NEWLINE_STR);
 800a2a0:	4620      	mov	r0, r4
 800a2a2:	4930      	ldr	r1, [pc, #192]	; (800a364 <cmdThreadInfo+0x290>)
 800a2a4:	f7fe fa8c 	bl	80087c0 <chprintf>
    for(unsigned int i = 0; i<result; i++) {
 800a2a8:	3724      	adds	r7, #36	; 0x24
 800a2aa:	e78f      	b.n	800a1cc <cmdThreadInfo+0xf8>
            printfFixed(chp, 10, "%s", taskStatusArray[i].pcTaskName);
 800a2ac:	465b      	mov	r3, fp
 800a2ae:	4652      	mov	r2, sl
 800a2b0:	210a      	movs	r1, #10
 800a2b2:	4620      	mov	r0, r4
 800a2b4:	f7fe fa60 	bl	8008778 <printfFixed>
 800a2b8:	e7cc      	b.n	800a254 <cmdThreadInfo+0x180>
            cmdThreadPrintState(chp, taskStatusArray[i].eCurrentState);
 800a2ba:	7b3b      	ldrb	r3, [r7, #12]
    if(state == eRunning) printfFixed(chp, 9, "Running");
 800a2bc:	2b00      	cmp	r3, #0
 800a2be:	d0ea      	beq.n	800a296 <cmdThreadInfo+0x1c2>
    else if(state == eReady) printfFixed(chp, 9, "Ready");
 800a2c0:	2b01      	cmp	r3, #1
 800a2c2:	d101      	bne.n	800a2c8 <cmdThreadInfo+0x1f4>
 800a2c4:	4a32      	ldr	r2, [pc, #200]	; (800a390 <cmdThreadInfo+0x2bc>)
 800a2c6:	e7e7      	b.n	800a298 <cmdThreadInfo+0x1c4>
    else if(state == eBlocked) printfFixed(chp, 9, "Blocked");
 800a2c8:	2b02      	cmp	r3, #2
 800a2ca:	d101      	bne.n	800a2d0 <cmdThreadInfo+0x1fc>
 800a2cc:	4a31      	ldr	r2, [pc, #196]	; (800a394 <cmdThreadInfo+0x2c0>)
 800a2ce:	e7e3      	b.n	800a298 <cmdThreadInfo+0x1c4>
    else if(state == eSuspended) printfFixed(chp, 9, "Suspended");
 800a2d0:	2b03      	cmp	r3, #3
 800a2d2:	d101      	bne.n	800a2d8 <cmdThreadInfo+0x204>
 800a2d4:	4a30      	ldr	r2, [pc, #192]	; (800a398 <cmdThreadInfo+0x2c4>)
 800a2d6:	e7df      	b.n	800a298 <cmdThreadInfo+0x1c4>
    else if(state == eDeleted) printfFixed(chp, 9, "Deleted");
 800a2d8:	2b04      	cmp	r3, #4
 800a2da:	bf0c      	ite	eq
 800a2dc:	4a2f      	ldreq	r2, [pc, #188]	; (800a39c <cmdThreadInfo+0x2c8>)
    else printfFixed(chp, 9, "Invalid");
 800a2de:	4a30      	ldrne	r2, [pc, #192]	; (800a3a0 <cmdThreadInfo+0x2cc>)
 800a2e0:	e7da      	b.n	800a298 <cmdThreadInfo+0x1c4>
        printfFixed(chp, 13, "%u", index);
 800a2e2:	4633      	mov	r3, r6
 800a2e4:	463a      	mov	r2, r7
 800a2e6:	210d      	movs	r1, #13
 800a2e8:	4620      	mov	r0, r4
 800a2ea:	f7fe fa45 	bl	8008778 <printfFixed>
        if(entry->name) {
 800a2ee:	68eb      	ldr	r3, [r5, #12]
 800a2f0:	b1cb      	cbz	r3, 800a326 <cmdThreadInfo+0x252>
            printfFixed(chp, 10, "%s",entry->name);
 800a2f2:	464a      	mov	r2, r9
 800a2f4:	210a      	movs	r1, #10
 800a2f6:	4620      	mov	r0, r4
 800a2f8:	f7fe fa3e 	bl	8008778 <printfFixed>
        }
        printfFixed(chp, 11, "%08x", entry);
 800a2fc:	462b      	mov	r3, r5
 800a2fe:	210b      	movs	r1, #11
 800a300:	4a20      	ldr	r2, [pc, #128]	; (800a384 <cmdThreadInfo+0x2b0>)
 800a302:	4620      	mov	r0, r4
 800a304:	f7fe fa38 	bl	8008778 <printfFixed>
        printfFixed(chp, 11, "%08x", entry->callback);
 800a308:	682b      	ldr	r3, [r5, #0]
 800a30a:	210b      	movs	r1, #11
 800a30c:	4620      	mov	r0, r4
 800a30e:	4a1d      	ldr	r2, [pc, #116]	; (800a384 <cmdThreadInfo+0x2b0>)
 800a310:	f7fe fa32 	bl	8008778 <printfFixed>
        if(entry->active) {
 800a314:	7c2b      	ldrb	r3, [r5, #16]
 800a316:	b163      	cbz	r3, 800a332 <cmdThreadInfo+0x25e>
            chprintf(chp, "Active"SHELL_NEWLINE_STR);
 800a318:	4922      	ldr	r1, [pc, #136]	; (800a3a4 <cmdThreadInfo+0x2d0>)
        } else {
            chprintf(chp, "Idle"SHELL_NEWLINE_STR);
 800a31a:	4620      	mov	r0, r4
 800a31c:	f7fe fa50 	bl	80087c0 <chprintf>
        }
        index++;
 800a320:	3601      	adds	r6, #1
        entry = entry->next;
 800a322:	68ad      	ldr	r5, [r5, #8]
 800a324:	e77b      	b.n	800a21e <cmdThreadInfo+0x14a>
            printfFixed(chp, 10, "");
 800a326:	4642      	mov	r2, r8
 800a328:	210a      	movs	r1, #10
 800a32a:	4620      	mov	r0, r4
 800a32c:	f7fe fa24 	bl	8008778 <printfFixed>
 800a330:	e7e4      	b.n	800a2fc <cmdThreadInfo+0x228>
            chprintf(chp, "Idle"SHELL_NEWLINE_STR);
 800a332:	491d      	ldr	r1, [pc, #116]	; (800a3a8 <cmdThreadInfo+0x2d4>)
 800a334:	e7f1      	b.n	800a31a <cmdThreadInfo+0x246>
 800a336:	bf00      	nop
 800a338:	200011ac 	.word	0x200011ac
 800a33c:	200011b4 	.word	0x200011b4
 800a340:	20001634 	.word	0x20001634
 800a344:	20001620 	.word	0x20001620
 800a348:	0800bf75 	.word	0x0800bf75
 800a34c:	0800bf7d 	.word	0x0800bf7d
 800a350:	0800bf87 	.word	0x0800bf87
 800a354:	0800bf92 	.word	0x0800bf92
 800a358:	0800bf9d 	.word	0x0800bf9d
 800a35c:	0800bfa3 	.word	0x0800bfa3
 800a360:	0800bfa9 	.word	0x0800bfa9
 800a364:	0800c115 	.word	0x0800c115
 800a368:	0800bff7 	.word	0x0800bff7
 800a36c:	0800c002 	.word	0x0800c002
 800a370:	0800c00d 	.word	0x0800c00d
 800a374:	0800c016 	.word	0x0800c016
 800a378:	200011a0 	.word	0x200011a0
 800a37c:	0800bb98 	.word	0x0800bb98
 800a380:	0800bfbd 	.word	0x0800bfbd
 800a384:	0800bfc2 	.word	0x0800bfc2
 800a388:	200011a8 	.word	0x200011a8
 800a38c:	0800bfc7 	.word	0x0800bfc7
 800a390:	0800bfcf 	.word	0x0800bfcf
 800a394:	0800bfd5 	.word	0x0800bfd5
 800a398:	0800bfdd 	.word	0x0800bfdd
 800a39c:	0800bfe7 	.word	0x0800bfe7
 800a3a0:	0800bfef 	.word	0x0800bfef
 800a3a4:	0800c01e 	.word	0x0800c01e
 800a3a8:	0800c027 	.word	0x0800c027
 800a3ac:	2000135c 	.word	0x2000135c
 800a3b0:	200011b8 	.word	0x200011b8
 800a3b4:	0800bfaf 	.word	0x0800bfaf
 800a3b8:	0800bfb8 	.word	0x0800bfb8
 800a3bc:	0800bb9b 	.word	0x0800bb9b
 800a3c0:	0800c515 	.word	0x0800c515

0800a3c4 <shellTerminationCallback>:
 800a3c4:	4b0e      	ldr	r3, [pc, #56]	; (800a400 <shellTerminationCallback+0x3c>)
{
 800a3c6:	b570      	push	{r4, r5, r6, lr}
 800a3c8:	681b      	ldr	r3, [r3, #0]
 800a3ca:	6ddc      	ldr	r4, [r3, #92]	; 0x5c
    if(activeShell) {
 800a3cc:	b1bc      	cbz	r4, 800a3fe <shellTerminationCallback+0x3a>
        if(activeShell->shellCfg.sc_histbuf) {
 800a3ce:	68e0      	ldr	r0, [r4, #12]
 800a3d0:	b108      	cbz	r0, 800a3d6 <shellTerminationCallback+0x12>
            vPortFree(activeShell->shellCfg.sc_histbuf);
 800a3d2:	f7fa fe7f 	bl	80050d4 <vPortFree>
        chprintf(activeShell->stream, "Shell 0x%08x closed.", activeShell);
 800a3d6:	4622      	mov	r2, r4
 800a3d8:	490a      	ldr	r1, [pc, #40]	; (800a404 <shellTerminationCallback+0x40>)
 800a3da:	6960      	ldr	r0, [r4, #20]
 800a3dc:	f7fe f9f0 	bl	80087c0 <chprintf>
        syslog("Shell 0x%08x closed.", activeShell);
 800a3e0:	4808      	ldr	r0, [pc, #32]	; (800a404 <shellTerminationCallback+0x40>)
 800a3e2:	4621      	mov	r1, r4
 800a3e4:	f7fe fbda 	bl	8008b9c <syslog>
        void *param = activeShell->param;
 800a3e8:	e9d4 5606 	ldrd	r5, r6, [r4, #24]
        vPortFree(activeShell);
 800a3ec:	4620      	mov	r0, r4
 800a3ee:	f7fa fe71 	bl	80050d4 <vPortFree>
        if(callback) {
 800a3f2:	b125      	cbz	r5, 800a3fe <shellTerminationCallback+0x3a>
            callback(param);
 800a3f4:	4630      	mov	r0, r6
 800a3f6:	462b      	mov	r3, r5
}
 800a3f8:	e8bd 4070 	ldmia.w	sp!, {r4, r5, r6, lr}
            callback(param);
 800a3fc:	4718      	bx	r3
}
 800a3fe:	bd70      	pop	{r4, r5, r6, pc}
 800a400:	200011a8 	.word	0x200011a8
 800a404:	0800c02e 	.word	0x0800c02e

0800a408 <cmdLicense>:
{
 800a408:	4608      	mov	r0, r1
    chprintf(chp,"%s", &_binary_data_license_bin_start);
 800a40a:	4a02      	ldr	r2, [pc, #8]	; (800a414 <cmdLicense+0xc>)
 800a40c:	4902      	ldr	r1, [pc, #8]	; (800a418 <cmdLicense+0x10>)
 800a40e:	f7fe b9d7 	b.w	80087c0 <chprintf>
 800a412:	bf00      	nop
 800a414:	08002234 	.word	0x08002234
 800a418:	0800bb9b 	.word	0x0800bb9b

0800a41c <cmdMco>:
    if(argc != 1) {
 800a41c:	2a01      	cmp	r2, #1
{
 800a41e:	b510      	push	{r4, lr}
 800a420:	460c      	mov	r4, r1
    if(argc != 1) {
 800a422:	d009      	beq.n	800a438 <cmdMco+0x1c>
        chprintf(chp,"Usage:"SHELL_NEWLINE_STR);
 800a424:	4620      	mov	r0, r4
 800a426:	4909      	ldr	r1, [pc, #36]	; (800a44c <cmdMco+0x30>)
 800a428:	f7fe f9ca 	bl	80087c0 <chprintf>
        chprintf(chp,"\t mco [1/0]"SHELL_NEWLINE_STR);
 800a42c:	4620      	mov	r0, r4
}
 800a42e:	e8bd 4010 	ldmia.w	sp!, {r4, lr}
        chprintf(chp,"\t mco [1/0]"SHELL_NEWLINE_STR);
 800a432:	4907      	ldr	r1, [pc, #28]	; (800a450 <cmdMco+0x34>)
 800a434:	f7fe b9c4 	b.w	80087c0 <chprintf>
        systemEnableMCO(argv[0][0] == '1');
 800a438:	681b      	ldr	r3, [r3, #0]
}
 800a43a:	e8bd 4010 	ldmia.w	sp!, {r4, lr}
        systemEnableMCO(argv[0][0] == '1');
 800a43e:	7818      	ldrb	r0, [r3, #0]
 800a440:	f1a0 0331 	sub.w	r3, r0, #49	; 0x31
 800a444:	4258      	negs	r0, r3
 800a446:	4158      	adcs	r0, r3
 800a448:	f7fb bbde 	b.w	8005c08 <systemEnableMCO>
 800a44c:	0800b921 	.word	0x0800b921
 800a450:	0800c043 	.word	0x0800c043

0800a454 <cmdSyslog>:
{
 800a454:	e92d 4ff0 	stmdb	sp!, {r4, r5, r6, r7, r8, r9, sl, fp, lr}
    if(argc == 1 && !strcmp(argv[0], "clear")) {
 800a458:	2a01      	cmp	r2, #1
{
 800a45a:	460d      	mov	r5, r1
 800a45c:	461c      	mov	r4, r3
 800a45e:	b087      	sub	sp, #28
    if(argc == 1 && !strcmp(argv[0], "clear")) {
 800a460:	d115      	bne.n	800a48e <cmdSyslog+0x3a>
 800a462:	4940      	ldr	r1, [pc, #256]	; (800a564 <cmdSyslog+0x110>)
 800a464:	6818      	ldr	r0, [r3, #0]
 800a466:	f7f9 fc57 	bl	8003d18 <strcmp>
 800a46a:	4604      	mov	r4, r0
 800a46c:	b9e8      	cbnz	r0, 800a4aa <cmdSyslog+0x56>
 800a46e:	4b3e      	ldr	r3, [pc, #248]	; (800a568 <cmdSyslog+0x114>)
    xSemaphoreTake(syslogSemaphore, portMAX_DELAY);
 800a470:	f04f 31ff 	mov.w	r1, #4294967295	; 0xffffffff
 800a474:	681d      	ldr	r5, [r3, #0]
 800a476:	4628      	mov	r0, r5
 800a478:	f7fa fc98 	bl	8004dac <xQueueSemaphoreTake>
    memset(queue, 0, sizeof(*queue));
 800a47c:	221c      	movs	r2, #28
 800a47e:	4621      	mov	r1, r4
 800a480:	483a      	ldr	r0, [pc, #232]	; (800a56c <cmdSyslog+0x118>)
 800a482:	f7f9 fb95 	bl	8003bb0 <memset>
    xSemaphoreGive(syslogSemaphore);
 800a486:	4628      	mov	r0, r5
    xSemaphoreGive(syslogSemaphore);
 800a488:	f7fd fdb0 	bl	8007fec <xQueueGenericSend.constprop.0>
 800a48c:	e00a      	b.n	800a4a4 <cmdSyslog+0x50>
    } else if(argc == 2 && !strcmp(argv[0], "add")) {
 800a48e:	2a02      	cmp	r2, #2
 800a490:	d10b      	bne.n	800a4aa <cmdSyslog+0x56>
 800a492:	4937      	ldr	r1, [pc, #220]	; (800a570 <cmdSyslog+0x11c>)
 800a494:	6818      	ldr	r0, [r3, #0]
 800a496:	f7f9 fc3f 	bl	8003d18 <strcmp>
 800a49a:	b930      	cbnz	r0, 800a4aa <cmdSyslog+0x56>
        syslog("%s", argv[1]);
 800a49c:	6861      	ldr	r1, [r4, #4]
 800a49e:	4835      	ldr	r0, [pc, #212]	; (800a574 <cmdSyslog+0x120>)
 800a4a0:	f7fe fb7c 	bl	8008b9c <syslog>
}
 800a4a4:	b007      	add	sp, #28
 800a4a6:	e8bd 8ff0 	ldmia.w	sp!, {r4, r5, r6, r7, r8, r9, sl, fp, pc}
    xSemaphoreTake(syslogSemaphore, portMAX_DELAY);
 800a4aa:	4e2f      	ldr	r6, [pc, #188]	; (800a568 <cmdSyslog+0x114>)
    if(syslogQueue.numDropped) {
 800a4ac:	4c32      	ldr	r4, [pc, #200]	; (800a578 <cmdSyslog+0x124>)
    xSemaphoreTake(syslogSemaphore, portMAX_DELAY);
 800a4ae:	f04f 31ff 	mov.w	r1, #4294967295	; 0xffffffff
 800a4b2:	6830      	ldr	r0, [r6, #0]
 800a4b4:	f7fa fc7a 	bl	8004dac <xQueueSemaphoreTake>
    if(syslogQueue.numDropped) {
 800a4b8:	6a22      	ldr	r2, [r4, #32]
 800a4ba:	9600      	str	r6, [sp, #0]
 800a4bc:	b11a      	cbz	r2, 800a4c6 <cmdSyslog+0x72>
        chprintf(chp, "... %u dropped ..."SHELL_NEWLINE_STR, syslogQueue.numDropped);
 800a4be:	4628      	mov	r0, r5
 800a4c0:	492e      	ldr	r1, [pc, #184]	; (800a57c <cmdSyslog+0x128>)
 800a4c2:	f7fe f97d 	bl	80087c0 <chprintf>
    queue->readPtrStored = queue->readPtr;
 800a4c6:	68a3      	ldr	r3, [r4, #8]
        chnWrite(chp, (uint8_t*)SHELL_NEWLINE_STR, strlen(SHELL_NEWLINE_STR));
 800a4c8:	f8df a0b4 	ldr.w	sl, [pc, #180]	; 800a580 <cmdSyslog+0x12c>
 800a4cc:	60e3      	str	r3, [r4, #12]
    queue->pktCountStored = queue->pktCount;
 800a4ce:	8aa3      	ldrh	r3, [r4, #20]
 800a4d0:	82e3      	strh	r3, [r4, #22]
    if(!queue->pktCount) {
 800a4d2:	8aa3      	ldrh	r3, [r4, #20]
 800a4d4:	b943      	cbnz	r3, 800a4e8 <cmdSyslog+0x94>
        queue->readPtr = queue->readPtrStored;
 800a4d6:	68e3      	ldr	r3, [r4, #12]
 800a4d8:	60a3      	str	r3, [r4, #8]
        queue->pktCount = queue->pktCountStored;
 800a4da:	8ae3      	ldrh	r3, [r4, #22]
 800a4dc:	82a3      	strh	r3, [r4, #20]
    xSemaphoreGive(syslogSemaphore);
 800a4de:	9b00      	ldr	r3, [sp, #0]
 800a4e0:	6818      	ldr	r0, [r3, #0]
 800a4e2:	e7d1      	b.n	800a488 <cmdSyslog+0x34>
        return 0;
 800a4e4:	463e      	mov	r6, r7
 800a4e6:	e02a      	b.n	800a53e <cmdSyslog+0xea>
    queue->pktLen = (packetQueueReadByte(queue) << 8) |
 800a4e8:	f7f9 fda6 	bl	8004038 <packetQueueReadByte.constprop.0>
 800a4ec:	4606      	mov	r6, r0
                    (packetQueueReadByte(queue));
 800a4ee:	f7f9 fda3 	bl	8004038 <packetQueueReadByte.constprop.0>
    queue->pktLen = (packetQueueReadByte(queue) << 8) |
 800a4f2:	ea40 2006 	orr.w	r0, r0, r6, lsl #8
 800a4f6:	61a0      	str	r0, [r4, #24]
    return queue->pktLen;
 800a4f8:	fa1f f980 	uxth.w	r9, r0
    while((len = packetQueueReadPacket(&syslogQueue))) {
 800a4fc:	2800      	cmp	r0, #0
 800a4fe:	d0ea      	beq.n	800a4d6 <cmdSyslog+0x82>
        uint16_t i = 0;
 800a500:	f04f 0800 	mov.w	r8, #0
    if(!queue->pktLen) {
 800a504:	69a7      	ldr	r7, [r4, #24]
 800a506:	2f00      	cmp	r7, #0
 800a508:	d0ec      	beq.n	800a4e4 <cmdSyslog+0x90>
    if(bufLen > queue->pktLen) {
 800a50a:	2f0c      	cmp	r7, #12
 800a50c:	bf28      	it	cs
 800a50e:	270c      	movcs	r7, #12
        for(uint16_t i=0; i<bufLen; i++) {
 800a510:	f04f 0b00 	mov.w	fp, #0
 800a514:	b2be      	uxth	r6, r7
 800a516:	aa03      	add	r2, sp, #12
 800a518:	9201      	str	r2, [sp, #4]
            buffer[i] = packetQueueReadByte(queue);
 800a51a:	f7f9 fd8d 	bl	8004038 <packetQueueReadByte.constprop.0>
        for(uint16_t i=0; i<bufLen; i++) {
 800a51e:	f10b 0b01 	add.w	fp, fp, #1
            buffer[i] = packetQueueReadByte(queue);
 800a522:	9a01      	ldr	r2, [sp, #4]
        for(uint16_t i=0; i<bufLen; i++) {
 800a524:	fa1f fb8b 	uxth.w	fp, fp
 800a528:	45b3      	cmp	fp, r6
            buffer[i] = packetQueueReadByte(queue);
 800a52a:	f802 0b01 	strb.w	r0, [r2], #1
        for(uint16_t i=0; i<bufLen; i++) {
 800a52e:	d3f3      	bcc.n	800a518 <cmdSyslog+0xc4>
    queue->pktLen -= bufLen;
 800a530:	69a2      	ldr	r2, [r4, #24]
 800a532:	1bd7      	subs	r7, r2, r7
 800a534:	61a7      	str	r7, [r4, #24]
    if(!queue->pktLen) {
 800a536:	b917      	cbnz	r7, 800a53e <cmdSyslog+0xea>
        queue->pktCount--;
 800a538:	8aa2      	ldrh	r2, [r4, #20]
 800a53a:	3a01      	subs	r2, #1
 800a53c:	82a2      	strh	r2, [r4, #20]
            chnWrite(chp, tmpBuf, readBytes);
 800a53e:	682a      	ldr	r2, [r5, #0]
 800a540:	4628      	mov	r0, r5
 800a542:	6817      	ldr	r7, [r2, #0]
 800a544:	4632      	mov	r2, r6
            i += readBytes;
 800a546:	4446      	add	r6, r8
            chnWrite(chp, tmpBuf, readBytes);
 800a548:	a903      	add	r1, sp, #12
            i += readBytes;
 800a54a:	fa1f f886 	uxth.w	r8, r6
            chnWrite(chp, tmpBuf, readBytes);
 800a54e:	47b8      	blx	r7
        while(i < len) {
 800a550:	45c8      	cmp	r8, r9
 800a552:	d3d7      	bcc.n	800a504 <cmdSyslog+0xb0>
        chnWrite(chp, (uint8_t*)SHELL_NEWLINE_STR, strlen(SHELL_NEWLINE_STR));
 800a554:	682b      	ldr	r3, [r5, #0]
 800a556:	2202      	movs	r2, #2
 800a558:	4651      	mov	r1, sl
 800a55a:	4628      	mov	r0, r5
 800a55c:	681b      	ldr	r3, [r3, #0]
 800a55e:	4798      	blx	r3
 800a560:	e7b7      	b.n	800a4d2 <cmdSyslog+0x7e>
 800a562:	bf00      	nop
 800a564:	0800bd9d 	.word	0x0800bd9d
 800a568:	20001334 	.word	0x20001334
 800a56c:	20001318 	.word	0x20001318
 800a570:	0800c051 	.word	0x0800c051
 800a574:	0800bb9b 	.word	0x0800bb9b
 800a578:	20001310 	.word	0x20001310
 800a57c:	0800c055 	.word	0x0800c055
 800a580:	0800c115 	.word	0x0800c115

0800a584 <cmdReboot>:
{
 800a584:	b538      	push	{r3, r4, r5, lr}
 800a586:	460c      	mov	r4, r1
    if(argc == 0) {
 800a588:	b9ca      	cbnz	r2, 800a5be <cmdReboot+0x3a>
        chprintf(chp,"Usage:"SHELL_NEWLINE_STR);
 800a58a:	4927      	ldr	r1, [pc, #156]	; (800a628 <cmdReboot+0xa4>)
 800a58c:	4620      	mov	r0, r4
 800a58e:	f7fe f917 	bl	80087c0 <chprintf>
        chprintf(chp,"\t reboot nvic"SHELL_NEWLINE_STR);
 800a592:	4926      	ldr	r1, [pc, #152]	; (800a62c <cmdReboot+0xa8>)
 800a594:	4620      	mov	r0, r4
 800a596:	f7fe f913 	bl	80087c0 <chprintf>
        chprintf(chp,"\t reboot loader"SHELL_NEWLINE_STR);
 800a59a:	4925      	ldr	r1, [pc, #148]	; (800a630 <cmdReboot+0xac>)
 800a59c:	4620      	mov	r0, r4
 800a59e:	f7fe f90f 	bl	80087c0 <chprintf>
        chprintf(chp,"\t reboot loaderp"SHELL_NEWLINE_STR);
 800a5a2:	4924      	ldr	r1, [pc, #144]	; (800a634 <cmdReboot+0xb0>)
 800a5a4:	4620      	mov	r0, r4
 800a5a6:	f7fe f90b 	bl	80087c0 <chprintf>
        chprintf(chp,"\t reboot crash"SHELL_NEWLINE_STR);
 800a5aa:	4923      	ldr	r1, [pc, #140]	; (800a638 <cmdReboot+0xb4>)
 800a5ac:	4620      	mov	r0, r4
 800a5ae:	f7fe f907 	bl	80087c0 <chprintf>
        chprintf(chp,"\t reboot memexec"SHELL_NEWLINE_STR);
 800a5b2:	4922      	ldr	r1, [pc, #136]	; (800a63c <cmdReboot+0xb8>)
            chprintf(chp, "Wrong result!"SHELL_NEWLINE_STR);
 800a5b4:	4620      	mov	r0, r4
}
 800a5b6:	e8bd 4038 	ldmia.w	sp!, {r3, r4, r5, lr}
            chprintf(chp, "Wrong result!"SHELL_NEWLINE_STR);
 800a5ba:	f7fe b901 	b.w	80087c0 <chprintf>
    } else if(argc == 1 && !strcmp(argv[0], "loaderp")) {
 800a5be:	2a01      	cmp	r2, #1
 800a5c0:	d12f      	bne.n	800a622 <cmdReboot+0x9e>
 800a5c2:	681d      	ldr	r5, [r3, #0]
 800a5c4:	491e      	ldr	r1, [pc, #120]	; (800a640 <cmdReboot+0xbc>)
 800a5c6:	4628      	mov	r0, r5
 800a5c8:	f7f9 fba6 	bl	8003d18 <strcmp>
 800a5cc:	b1f0      	cbz	r0, 800a60c <cmdReboot+0x88>
    } else if(argc == 1 && !strcmp(argv[0], "loader")) {
 800a5ce:	4628      	mov	r0, r5
 800a5d0:	491c      	ldr	r1, [pc, #112]	; (800a644 <cmdReboot+0xc0>)
 800a5d2:	f7f9 fba1 	bl	8003d18 <strcmp>
 800a5d6:	b1d8      	cbz	r0, 800a610 <cmdReboot+0x8c>
    } else if(argc == 1 && !strcmp(argv[0], "crash")) {
 800a5d8:	4628      	mov	r0, r5
 800a5da:	491b      	ldr	r1, [pc, #108]	; (800a648 <cmdReboot+0xc4>)
 800a5dc:	f7f9 fb9c 	bl	8003d18 <strcmp>
 800a5e0:	b910      	cbnz	r0, 800a5e8 <cmdReboot+0x64>
        osalSysHalt("crash");
 800a5e2:	f7f9 fead 	bl	8004340 <vTaskEndScheduler>
 800a5e6:	e7fe      	b.n	800a5e6 <cmdReboot+0x62>
    } else if(argc == 1 && !strcmp(argv[0], "memexec")) {
 800a5e8:	4628      	mov	r0, r5
 800a5ea:	4918      	ldr	r1, [pc, #96]	; (800a64c <cmdReboot+0xc8>)
 800a5ec:	f7f9 fb94 	bl	8003d18 <strcmp>
 800a5f0:	b9b8      	cbnz	r0, 800a622 <cmdReboot+0x9e>
        if(callIt(4) == 5 && callIt(54) == 55) {
 800a5f2:	2004      	movs	r0, #4
        uint32_t (*callIt)(uint32_t) = (uint32_t(*)(uint32_t))(incr0bxlr+1); /* +1 for thumb mode */
 800a5f4:	4d16      	ldr	r5, [pc, #88]	; (800a650 <cmdReboot+0xcc>)
        if(callIt(4) == 5 && callIt(54) == 55) {
 800a5f6:	47a8      	blx	r5
 800a5f8:	2805      	cmp	r0, #5
 800a5fa:	d105      	bne.n	800a608 <cmdReboot+0x84>
 800a5fc:	2036      	movs	r0, #54	; 0x36
 800a5fe:	47a8      	blx	r5
 800a600:	2837      	cmp	r0, #55	; 0x37
 800a602:	d101      	bne.n	800a608 <cmdReboot+0x84>
            chprintf(chp, "Success!"SHELL_NEWLINE_STR);
 800a604:	4913      	ldr	r1, [pc, #76]	; (800a654 <cmdReboot+0xd0>)
 800a606:	e7d5      	b.n	800a5b4 <cmdReboot+0x30>
            chprintf(chp, "Wrong result!"SHELL_NEWLINE_STR);
 800a608:	4913      	ldr	r1, [pc, #76]	; (800a658 <cmdReboot+0xd4>)
 800a60a:	e7d3      	b.n	800a5b4 <cmdReboot+0x30>
        rebootCode = 0x424C;
 800a60c:	f244 204c 	movw	r0, #16972	; 0x424c
    RCC->APB1ENR |= (RCC_APB1ENR_PWREN | RCC_APB1ENR_BKPEN);
 800a610:	4a12      	ldr	r2, [pc, #72]	; (800a65c <cmdReboot+0xd8>)
 800a612:	69d3      	ldr	r3, [r2, #28]
 800a614:	f043 53c0 	orr.w	r3, r3, #402653184	; 0x18000000
 800a618:	61d3      	str	r3, [r2, #28]
    BKP->DR10 = rebootCode;
 800a61a:	4b11      	ldr	r3, [pc, #68]	; (800a660 <cmdReboot+0xdc>)
 800a61c:	6298      	str	r0, [r3, #40]	; 0x28
    NVIC_SystemReset();
 800a61e:	f7fb fb89 	bl	8005d34 <NVIC_SystemReset.lto_priv.0>
        rebootCode = 0x424D;
 800a622:	f244 204d 	movw	r0, #16973	; 0x424d
 800a626:	e7f3      	b.n	800a610 <cmdReboot+0x8c>
 800a628:	0800b921 	.word	0x0800b921
 800a62c:	0800c06a 	.word	0x0800c06a
 800a630:	0800c07a 	.word	0x0800c07a
 800a634:	0800c08c 	.word	0x0800c08c
 800a638:	0800c09f 	.word	0x0800c09f
 800a63c:	0800c0b0 	.word	0x0800c0b0
 800a640:	0800c0c3 	.word	0x0800c0c3
 800a644:	0800c0cb 	.word	0x0800c0cb
 800a648:	0800c0d2 	.word	0x0800c0d2
 800a64c:	0800c0d8 	.word	0x0800c0d8
 800a650:	2000084d 	.word	0x2000084d
 800a654:	0800c0e0 	.word	0x0800c0e0
 800a658:	0800c0eb 	.word	0x0800c0eb
 800a65c:	40021000 	.word	0x40021000
 800a660:	40006c00 	.word	0x40006c00

0800a664 <max2870StatusPrint>:

void max2870StatusPrint(MAX2870Driver* driver, BaseSequentialStream* stdout)
{
 800a664:	e92d 41f0 	stmdb	sp!, {r4, r5, r6, r7, r8, lr}
 800a668:	4605      	mov	r5, r0
 800a66a:	460c      	mov	r4, r1
    max2870SpiState(driver, true);
 800a66c:	f7fd fa26 	bl	8007abc <max2870SpiState.constprop.0>
    if(driver->enabled) {
 800a670:	792b      	ldrb	r3, [r5, #4]
 800a672:	2b00      	cmp	r3, #0
 800a674:	f000 80c8 	beq.w	800a808 <max2870StatusPrint+0x1a4>
        if(driver->currentTune.isLocked) {
 800a678:	7f2b      	ldrb	r3, [r5, #28]
 800a67a:	2b00      	cmp	r3, #0
 800a67c:	f000 8092 	beq.w	800a7a4 <max2870StatusPrint+0x140>
            chprintf(stdout, "PLL Locked"SHELL_NEWLINE_STR);
 800a680:	4964      	ldr	r1, [pc, #400]	; (800a814 <max2870StatusPrint+0x1b0>)
        } else {
            chprintf(stdout, "PLL UNLOCK!!!"SHELL_NEWLINE_STR);
 800a682:	4620      	mov	r0, r4
 800a684:	f7fe f89c 	bl	80087c0 <chprintf>
        }

        printfFixed(stdout, 30, "Divided VCO Frequency:");
 800a688:	211e      	movs	r1, #30
 800a68a:	4a63      	ldr	r2, [pc, #396]	; (800a818 <max2870StatusPrint+0x1b4>)
 800a68c:	4620      	mov	r0, r4
 800a68e:	f7fe f873 	bl	8008778 <printfFixed>
        chprintf(stdout, "%u kHz"SHELL_NEWLINE_STR, driver->currentTune.frequency/1000);
 800a692:	e9d5 0102 	ldrd	r0, r1, [r5, #8]
 800a696:	f44f 727a 	mov.w	r2, #1000	; 0x3e8
 800a69a:	2300      	movs	r3, #0
 800a69c:	f7f9 f896 	bl	80037cc <__aeabi_uldivmod>
 800a6a0:	4602      	mov	r2, r0
 800a6a2:	460b      	mov	r3, r1
 800a6a4:	4620      	mov	r0, r4
 800a6a6:	495d      	ldr	r1, [pc, #372]	; (800a81c <max2870StatusPrint+0x1b8>)
 800a6a8:	f7fe f88a 	bl	80087c0 <chprintf>
        printfFixed(stdout, 30, "Output A Power:");
 800a6ac:	4a5c      	ldr	r2, [pc, #368]	; (800a820 <max2870StatusPrint+0x1bc>)
 800a6ae:	211e      	movs	r1, #30
 800a6b0:	4620      	mov	r0, r4
 800a6b2:	f7fe f861 	bl	8008778 <printfFixed>
        if(driver->currentTune.powerA != -127) {
 800a6b6:	f995 2010 	ldrsb.w	r2, [r5, #16]
 800a6ba:	f112 0f7f 	cmn.w	r2, #127	; 0x7f
 800a6be:	d073      	beq.n	800a7a8 <max2870StatusPrint+0x144>
            chprintf(stdout, "%d dBm"SHELL_NEWLINE_STR, driver->currentTune.powerA);
 800a6c0:	4620      	mov	r0, r4
 800a6c2:	4958      	ldr	r1, [pc, #352]	; (800a824 <max2870StatusPrint+0x1c0>)
 800a6c4:	f7fe f87c 	bl	80087c0 <chprintf>
        } else {
            chprintf(stdout, "Off"SHELL_NEWLINE_STR);
        }
        printfFixed(stdout, 30, "Output B Power:");
 800a6c8:	4a57      	ldr	r2, [pc, #348]	; (800a828 <max2870StatusPrint+0x1c4>)
 800a6ca:	211e      	movs	r1, #30
 800a6cc:	4620      	mov	r0, r4
 800a6ce:	f7fe f853 	bl	8008778 <printfFixed>
        if(driver->currentTune.powerB != -127) {
 800a6d2:	f995 2011 	ldrsb.w	r2, [r5, #17]
 800a6d6:	f112 0f7f 	cmn.w	r2, #127	; 0x7f
 800a6da:	d06a      	beq.n	800a7b2 <max2870StatusPrint+0x14e>
            chprintf(stdout, "%d dBm"SHELL_NEWLINE_STR, driver->currentTune.powerB);
 800a6dc:	4620      	mov	r0, r4
 800a6de:	4951      	ldr	r1, [pc, #324]	; (800a824 <max2870StatusPrint+0x1c0>)
 800a6e0:	f7fe f86e 	bl	80087c0 <chprintf>
        } else {
            chprintf(stdout, "Off"SHELL_NEWLINE_STR);
        }
        if(driver->currentTune.isLocked) {
 800a6e4:	7f2b      	ldrb	r3, [r5, #28]
 800a6e6:	b14b      	cbz	r3, 800a6fc <max2870StatusPrint+0x98>
            printfFixed(stdout, 30, "Lock Time:");
 800a6e8:	211e      	movs	r1, #30
 800a6ea:	4a50      	ldr	r2, [pc, #320]	; (800a82c <max2870StatusPrint+0x1c8>)
 800a6ec:	4620      	mov	r0, r4
 800a6ee:	f7fe f843 	bl	8008778 <printfFixed>
            chprintf(stdout, "%u cycles"SHELL_NEWLINE_STR, driver->currentTune.lockTime);
 800a6f2:	4620      	mov	r0, r4
 800a6f4:	7eea      	ldrb	r2, [r5, #27]
 800a6f6:	494e      	ldr	r1, [pc, #312]	; (800a830 <max2870StatusPrint+0x1cc>)
 800a6f8:	f7fe f862 	bl	80087c0 <chprintf>
        }
        printfFixed(stdout, 30, "PFD Frequency:");
 800a6fc:	211e      	movs	r1, #30
 800a6fe:	4a4d      	ldr	r2, [pc, #308]	; (800a834 <max2870StatusPrint+0x1d0>)
 800a700:	4620      	mov	r0, r4
 800a702:	f7fe f839 	bl	8008778 <printfFixed>
        chprintf(stdout, "%u kHz"SHELL_NEWLINE_STR, driver->pfdFrequency/1000);
 800a706:	f44f 737a 	mov.w	r3, #1000	; 0x3e8
 800a70a:	f8d5 20b8 	ldr.w	r2, [r5, #184]	; 0xb8
 800a70e:	4943      	ldr	r1, [pc, #268]	; (800a81c <max2870StatusPrint+0x1b8>)
 800a710:	fbb2 f2f3 	udiv	r2, r2, r3
 800a714:	4620      	mov	r0, r4
 800a716:	f7fe f853 	bl	80087c0 <chprintf>
        printfFixed(stdout, 30, "Step Frequency:");
 800a71a:	211e      	movs	r1, #30
 800a71c:	4a46      	ldr	r2, [pc, #280]	; (800a838 <max2870StatusPrint+0x1d4>)
 800a71e:	4620      	mov	r0, r4
 800a720:	f7fe f82a 	bl	8008778 <printfFixed>
        chprintf(stdout, "%u Hz"SHELL_NEWLINE_STR, driver->config->stepFrequency);
 800a724:	682b      	ldr	r3, [r5, #0]
 800a726:	4945      	ldr	r1, [pc, #276]	; (800a83c <max2870StatusPrint+0x1d8>)
 800a728:	699a      	ldr	r2, [r3, #24]
 800a72a:	4620      	mov	r0, r4
 800a72c:	f7fe f848 	bl	80087c0 <chprintf>
        printfFixed(stdout, 30, "BS Divider:");
 800a730:	211e      	movs	r1, #30
 800a732:	4a43      	ldr	r2, [pc, #268]	; (800a840 <max2870StatusPrint+0x1dc>)
 800a734:	4620      	mov	r0, r4
 800a736:	f7fe f81f 	bl	8008778 <printfFixed>
        chprintf(stdout, "%u"SHELL_NEWLINE_STR, driver->bsValue);
 800a73a:	f8b5 20c4 	ldrh.w	r2, [r5, #196]	; 0xc4
 800a73e:	4941      	ldr	r1, [pc, #260]	; (800a844 <max2870StatusPrint+0x1e0>)
 800a740:	4620      	mov	r0, r4
 800a742:	f7fe f83d 	bl	80087c0 <chprintf>
        printfFixed(stdout, 30, "Reload Counter:");
 800a746:	211e      	movs	r1, #30
 800a748:	4a3f      	ldr	r2, [pc, #252]	; (800a848 <max2870StatusPrint+0x1e4>)
 800a74a:	4620      	mov	r0, r4
 800a74c:	f7fe f814 	bl	8008778 <printfFixed>
        chprintf(stdout, "%u"SHELL_NEWLINE_STR, driver->pllMonReloadCounter);
 800a750:	f895 20e4 	ldrb.w	r2, [r5, #228]	; 0xe4
 800a754:	493b      	ldr	r1, [pc, #236]	; (800a844 <max2870StatusPrint+0x1e0>)
 800a756:	4620      	mov	r0, r4
 800a758:	f7fe f832 	bl	80087c0 <chprintf>

        printfFixed(stdout, 30, "Current VCO Band From Cache:");
 800a75c:	211e      	movs	r1, #30
 800a75e:	4a3b      	ldr	r2, [pc, #236]	; (800a84c <max2870StatusPrint+0x1e8>)
 800a760:	4620      	mov	r0, r4
 800a762:	f7fe f809 	bl	8008778 <printfFixed>
        chprintf(stdout, "%u"SHELL_NEWLINE_STR, !driver->currentTune.usedVCOAutotune);
 800a766:	7f6a      	ldrb	r2, [r5, #29]
 800a768:	4936      	ldr	r1, [pc, #216]	; (800a844 <max2870StatusPrint+0x1e0>)
 800a76a:	f082 0201 	eor.w	r2, r2, #1
 800a76e:	4620      	mov	r0, r4
 800a770:	f7fe f826 	bl	80087c0 <chprintf>
        printfFixed(stdout, 30, "Current VCO Band:");
 800a774:	211e      	movs	r1, #30
 800a776:	4a36      	ldr	r2, [pc, #216]	; (800a850 <max2870StatusPrint+0x1ec>)
 800a778:	4620      	mov	r0, r4
 800a77a:	f7fd fffd 	bl	8008778 <printfFixed>
        chprintf(stdout, "%u"SHELL_NEWLINE_STR, driver->currentTune.usedVCO);
 800a77e:	7e6a      	ldrb	r2, [r5, #25]
 800a780:	4930      	ldr	r1, [pc, #192]	; (800a844 <max2870StatusPrint+0x1e0>)
 800a782:	4620      	mov	r0, r4
 800a784:	f7fe f81c 	bl	80087c0 <chprintf>

        printfFixed(stdout, 30, "Current VCO Tuning Voltage:");
 800a788:	211e      	movs	r1, #30
 800a78a:	4620      	mov	r0, r4
 800a78c:	4a31      	ldr	r2, [pc, #196]	; (800a854 <max2870StatusPrint+0x1f0>)
 800a78e:	f7fd fff3 	bl	8008778 <printfFixed>
        switch(driver->currentTune.adcVoltage) {
 800a792:	7eab      	ldrb	r3, [r5, #26]
 800a794:	2b06      	cmp	r3, #6
 800a796:	d835      	bhi.n	800a804 <max2870StatusPrint+0x1a0>
 800a798:	e8df f003 	tbb	[pc, r3]
 800a79c:	2e2e2c10 	.word	0x2e2e2c10
 800a7a0:	3030      	.short	0x3030
 800a7a2:	32          	.byte	0x32
 800a7a3:	00          	.byte	0x00
            chprintf(stdout, "PLL UNLOCK!!!"SHELL_NEWLINE_STR);
 800a7a4:	492c      	ldr	r1, [pc, #176]	; (800a858 <max2870StatusPrint+0x1f4>)
 800a7a6:	e76c      	b.n	800a682 <max2870StatusPrint+0x1e>
            chprintf(stdout, "Off"SHELL_NEWLINE_STR);
 800a7a8:	4620      	mov	r0, r4
 800a7aa:	492c      	ldr	r1, [pc, #176]	; (800a85c <max2870StatusPrint+0x1f8>)
 800a7ac:	f7fe f808 	bl	80087c0 <chprintf>
 800a7b0:	e78a      	b.n	800a6c8 <max2870StatusPrint+0x64>
            chprintf(stdout, "Off"SHELL_NEWLINE_STR);
 800a7b2:	4620      	mov	r0, r4
 800a7b4:	4929      	ldr	r1, [pc, #164]	; (800a85c <max2870StatusPrint+0x1f8>)
 800a7b6:	f7fe f803 	bl	80087c0 <chprintf>
 800a7ba:	e793      	b.n	800a6e4 <max2870StatusPrint+0x80>
            case 0:
                chprintf(stdout, "0.2");
 800a7bc:	4928      	ldr	r1, [pc, #160]	; (800a860 <max2870StatusPrint+0x1fc>)
                break;
            case 6:
                chprintf(stdout, "2.3");
                break;
            default:
                chprintf(stdout, "3");
 800a7be:	4620      	mov	r0, r4
 800a7c0:	f7fd fffe 	bl	80087c0 <chprintf>
                break;
        }
        chprintf(stdout, "V"SHELL_NEWLINE_STR"Registers:"SHELL_NEWLINE_STR);
 800a7c4:	4620      	mov	r0, r4
 800a7c6:	4927      	ldr	r1, [pc, #156]	; (800a864 <max2870StatusPrint+0x200>)
 800a7c8:	f7fd fffa 	bl	80087c0 <chprintf>
        for(int i=0; i<7; i++) {
 800a7cc:	2600      	movs	r6, #0
            chprintf(stdout, "\t%u: %08x"SHELL_NEWLINE_STR, i, driver->registers[i]);
 800a7ce:	f8df 80b0 	ldr.w	r8, [pc, #176]	; 800a880 <max2870StatusPrint+0x21c>
 800a7d2:	f105 07c8 	add.w	r7, r5, #200	; 0xc8
 800a7d6:	4632      	mov	r2, r6
 800a7d8:	4641      	mov	r1, r8
 800a7da:	4620      	mov	r0, r4
 800a7dc:	f857 3b04 	ldr.w	r3, [r7], #4
        for(int i=0; i<7; i++) {
 800a7e0:	3601      	adds	r6, #1
            chprintf(stdout, "\t%u: %08x"SHELL_NEWLINE_STR, i, driver->registers[i]);
 800a7e2:	f7fd ffed 	bl	80087c0 <chprintf>
        for(int i=0; i<7; i++) {
 800a7e6:	2e07      	cmp	r6, #7
 800a7e8:	d1f5      	bne.n	800a7d6 <max2870StatusPrint+0x172>
    if(enable) {
 800a7ea:	4628      	mov	r0, r5
        }
    } else {
        chprintf(stdout, "Low power mode"SHELL_NEWLINE_STR);
    }
    max2870SpiState(driver, false);
}
 800a7ec:	e8bd 41f0 	ldmia.w	sp!, {r4, r5, r6, r7, r8, lr}
 800a7f0:	f7fd bd22 	b.w	8008238 <max2870SpiState.part.0>
                chprintf(stdout, "0.6");
 800a7f4:	491c      	ldr	r1, [pc, #112]	; (800a868 <max2870StatusPrint+0x204>)
 800a7f6:	e7e2      	b.n	800a7be <max2870StatusPrint+0x15a>
                chprintf(stdout, "1");
 800a7f8:	491c      	ldr	r1, [pc, #112]	; (800a86c <max2870StatusPrint+0x208>)
 800a7fa:	e7e0      	b.n	800a7be <max2870StatusPrint+0x15a>
                chprintf(stdout, "1.7");
 800a7fc:	491c      	ldr	r1, [pc, #112]	; (800a870 <max2870StatusPrint+0x20c>)
 800a7fe:	e7de      	b.n	800a7be <max2870StatusPrint+0x15a>
                chprintf(stdout, "2.3");
 800a800:	491c      	ldr	r1, [pc, #112]	; (800a874 <max2870StatusPrint+0x210>)
 800a802:	e7dc      	b.n	800a7be <max2870StatusPrint+0x15a>
                chprintf(stdout, "3");
 800a804:	491c      	ldr	r1, [pc, #112]	; (800a878 <max2870StatusPrint+0x214>)
 800a806:	e7da      	b.n	800a7be <max2870StatusPrint+0x15a>
        chprintf(stdout, "Low power mode"SHELL_NEWLINE_STR);
 800a808:	4620      	mov	r0, r4
 800a80a:	491c      	ldr	r1, [pc, #112]	; (800a87c <max2870StatusPrint+0x218>)
 800a80c:	f7fd ffd8 	bl	80087c0 <chprintf>
 800a810:	e7eb      	b.n	800a7ea <max2870StatusPrint+0x186>
 800a812:	bf00      	nop
 800a814:	0800c0fb 	.word	0x0800c0fb
 800a818:	0800c118 	.word	0x0800c118
 800a81c:	0800bbc8 	.word	0x0800bbc8
 800a820:	0800c12f 	.word	0x0800c12f
 800a824:	0800c13f 	.word	0x0800c13f
 800a828:	0800c14e 	.word	0x0800c14e
 800a82c:	0800c15e 	.word	0x0800c15e
 800a830:	0800c169 	.word	0x0800c169
 800a834:	0800c175 	.word	0x0800c175
 800a838:	0800c184 	.word	0x0800c184
 800a83c:	0800c194 	.word	0x0800c194
 800a840:	0800c19c 	.word	0x0800c19c
 800a844:	0800bc1b 	.word	0x0800bc1b
 800a848:	0800c1a8 	.word	0x0800c1a8
 800a84c:	0800c1b8 	.word	0x0800c1b8
 800a850:	0800c1d5 	.word	0x0800c1d5
 800a854:	0800c1e7 	.word	0x0800c1e7
 800a858:	0800c108 	.word	0x0800c108
 800a85c:	0800c148 	.word	0x0800c148
 800a860:	0800c203 	.word	0x0800c203
 800a864:	0800c213 	.word	0x0800c213
 800a868:	0800c207 	.word	0x0800c207
 800a86c:	0800c49b 	.word	0x0800c49b
 800a870:	0800c20b 	.word	0x0800c20b
 800a874:	0800c20f 	.word	0x0800c20f
 800a878:	0800c211 	.word	0x0800c211
 800a87c:	0800c22f 	.word	0x0800c22f
 800a880:	0800c223 	.word	0x0800c223

0800a884 <cmdMax>:
    }
}


void cmdMax(void* user, BaseSequentialStream *chp, int argc, char *argv[])
{
 800a884:	e92d 43f0 	stmdb	sp!, {r4, r5, r6, r7, r8, r9, lr}
 800a888:	4604      	mov	r4, r0
 800a88a:	460d      	mov	r5, r1
 800a88c:	4698      	mov	r8, r3
    MAX2870Driver* pll = (MAX2870Driver*)user;

    if(argc == 0) {
 800a88e:	4616      	mov	r6, r2
{
 800a890:	b087      	sub	sp, #28
    if(argc == 0) {
 800a892:	b92a      	cbnz	r2, 800a8a0 <cmdMax+0x1c>
        cmdMaxUsage(chp);
 800a894:	4628      	mov	r0, r5
 800a896:	f7ff fbef 	bl	800a078 <cmdMaxUsage>
        chprintf(chp, "Digital Lock Detect: %u"SHELL_NEWLINE_STR, max2870GetDigitalLockDetect(pll));
    } else {
        cmdMaxUsage(chp);
        return;
    }
}
 800a89a:	b007      	add	sp, #28
 800a89c:	e8bd 83f0 	ldmia.w	sp!, {r4, r5, r6, r7, r8, r9, pc}
    if(!strcmp(argv[0], "tune")) {
 800a8a0:	681f      	ldr	r7, [r3, #0]
 800a8a2:	4981      	ldr	r1, [pc, #516]	; (800aaa8 <cmdMax+0x224>)
 800a8a4:	4638      	mov	r0, r7
 800a8a6:	f7f9 fa37 	bl	8003d18 <strcmp>
 800a8aa:	4684      	mov	ip, r0
 800a8ac:	2800      	cmp	r0, #0
 800a8ae:	d158      	bne.n	800a962 <cmdMax+0xde>
        cmdMaxTune(pll, chp, argc-1, argv+1);
 800a8b0:	f106 39ff 	add.w	r9, r6, #4294967295	; 0xffffffff
    MAX2870TuneRequest tune = *max2870getCurrentTuning(pll);
 800a8b4:	466e      	mov	r6, sp
 800a8b6:	f104 0708 	add.w	r7, r4, #8
 800a8ba:	cf0f      	ldmia	r7!, {r0, r1, r2, r3}
 800a8bc:	c60f      	stmia	r6!, {r0, r1, r2, r3}
 800a8be:	e897 0003 	ldmia.w	r7, {r0, r1}
    if(argc >= 1) {
 800a8c2:	f1b9 0f00 	cmp.w	r9, #0
    MAX2870TuneRequest tune = *max2870getCurrentTuning(pll);
 800a8c6:	e886 0003 	stmia.w	r6, {r0, r1}
    tune.fastLockDurationMicroseconds = 0;
 800a8ca:	f8cd c00c 	str.w	ip, [sp, #12]
    tune.useVCOAutotune = false;
 800a8ce:	f88d c010 	strb.w	ip, [sp, #16]
    if(argc >= 1) {
 800a8d2:	dd22      	ble.n	800a91a <cmdMax+0x96>
        tune.frequency = (uint64_t)strToInt(argv[0], 10) * 1000;
 800a8d4:	210a      	movs	r1, #10
 800a8d6:	f8d8 0004 	ldr.w	r0, [r8, #4]
 800a8da:	f7fb fa51 	bl	8005d80 <strToInt>
 800a8de:	f44f 737a 	mov.w	r3, #1000	; 0x3e8
 800a8e2:	fb80 0103 	smull	r0, r1, r0, r3
    if(argc >= 2) {
 800a8e6:	f1b9 0f01 	cmp.w	r9, #1
        tune.frequency = (uint64_t)strToInt(argv[0], 10) * 1000;
 800a8ea:	e9cd 0100 	strd	r0, r1, [sp]
    if(argc >= 2) {
 800a8ee:	d014      	beq.n	800a91a <cmdMax+0x96>
        tune.powerA = strToInt(argv[1], 10);
 800a8f0:	210a      	movs	r1, #10
 800a8f2:	f8d8 0008 	ldr.w	r0, [r8, #8]
 800a8f6:	f7fb fa43 	bl	8005d80 <strToInt>
    if(argc >= 3) {
 800a8fa:	f1b9 0f02 	cmp.w	r9, #2
        tune.powerA = strToInt(argv[1], 10);
 800a8fe:	f88d 0008 	strb.w	r0, [sp, #8]
    if(argc >= 3) {
 800a902:	d00a      	beq.n	800a91a <cmdMax+0x96>
        tune.useVCOAutotune = (strToInt(argv[2], 10) > 0);
 800a904:	210a      	movs	r1, #10
 800a906:	f8d8 000c 	ldr.w	r0, [r8, #12]
 800a90a:	f7fb fa39 	bl	8005d80 <strToInt>
 800a90e:	2800      	cmp	r0, #0
 800a910:	bfd4      	ite	le
 800a912:	2000      	movle	r0, #0
 800a914:	2001      	movgt	r0, #1
 800a916:	f88d 0010 	strb.w	r0, [sp, #16]
    MAX2870TuneResult result = max2870Tune(pll, &tune);
 800a91a:	4669      	mov	r1, sp
 800a91c:	4620      	mov	r0, r4
 800a91e:	f7fe fd29 	bl	8009374 <max2870Tune>
    if(result == TUNE_OK) {
 800a922:	2800      	cmp	r0, #0
 800a924:	f040 80bb 	bne.w	800aa9e <cmdMax+0x21a>
        max2870StatusPrint(pll, chp);
 800a928:	4629      	mov	r1, r5
 800a92a:	4620      	mov	r0, r4
 800a92c:	f7ff fe9a 	bl	800a664 <max2870StatusPrint>
        chprintf(chp, SHELL_NEWLINE_STR);
 800a930:	4628      	mov	r0, r5
 800a932:	495e      	ldr	r1, [pc, #376]	; (800aaac <cmdMax+0x228>)
 800a934:	f7fd ff44 	bl	80087c0 <chprintf>
    return lock == 0xFF;
}

const char* max2870TuneResultToString(MAX2870TuneResult result)
{
    if(result == TUNE_OK) return "OK";
 800a938:	4a5d      	ldr	r2, [pc, #372]	; (800aab0 <cmdMax+0x22c>)
    chprintf(chp, "Tuning result: %s"SHELL_NEWLINE_STR, max2870TuneResultToString(result));
 800a93a:	495e      	ldr	r1, [pc, #376]	; (800aab4 <cmdMax+0x230>)
        chprintf(chp, "Digital Lock Detect: %u"SHELL_NEWLINE_STR, max2870GetDigitalLockDetect(pll));
 800a93c:	4628      	mov	r0, r5
 800a93e:	f7fd ff3f 	bl	80087c0 <chprintf>
 800a942:	e7aa      	b.n	800a89a <cmdMax+0x16>
    if(result == TUNE_CANT_FASTLOCK) return "Invalid fastlock command";
    if(result == TUNE_NOT_LOCKED) return "Lock failed";
 800a944:	1d06      	adds	r6, r0, #4
 800a946:	d008      	beq.n	800a95a <cmdMax+0xd6>
    if(result == TUNE_PLL_N_OUT_OF_RANGE) return "N out of range";
 800a948:	1c84      	adds	r4, r0, #2
 800a94a:	d008      	beq.n	800a95e <cmdMax+0xda>
    if(result == TUNE_FREQUENCY_OUT_OF_RANGE) return "Frequency out of range";
 800a94c:	4a5a      	ldr	r2, [pc, #360]	; (800aab8 <cmdMax+0x234>)
 800a94e:	4b5b      	ldr	r3, [pc, #364]	; (800aabc <cmdMax+0x238>)
 800a950:	f1b0 3fff 	cmp.w	r0, #4294967295	; 0xffffffff
 800a954:	bf08      	it	eq
 800a956:	461a      	moveq	r2, r3
 800a958:	e7ef      	b.n	800a93a <cmdMax+0xb6>
    if(result == TUNE_NOT_LOCKED) return "Lock failed";
 800a95a:	4a59      	ldr	r2, [pc, #356]	; (800aac0 <cmdMax+0x23c>)
 800a95c:	e7ed      	b.n	800a93a <cmdMax+0xb6>
    if(result == TUNE_PLL_N_OUT_OF_RANGE) return "N out of range";
 800a95e:	4a59      	ldr	r2, [pc, #356]	; (800aac4 <cmdMax+0x240>)
 800a960:	e7eb      	b.n	800a93a <cmdMax+0xb6>
    } else if(!strcmp(argv[0], "status")) {
 800a962:	4638      	mov	r0, r7
 800a964:	4958      	ldr	r1, [pc, #352]	; (800aac8 <cmdMax+0x244>)
 800a966:	f7f9 f9d7 	bl	8003d18 <strcmp>
 800a96a:	b920      	cbnz	r0, 800a976 <cmdMax+0xf2>
        max2870StatusPrint(pll, chp);
 800a96c:	4629      	mov	r1, r5
 800a96e:	4620      	mov	r0, r4
 800a970:	f7ff fe78 	bl	800a664 <max2870StatusPrint>
 800a974:	e791      	b.n	800a89a <cmdMax+0x16>
    } else if(!strcmp(argv[0], "vcocache")) {
 800a976:	4638      	mov	r0, r7
 800a978:	4954      	ldr	r1, [pc, #336]	; (800aacc <cmdMax+0x248>)
 800a97a:	f7f9 f9cd 	bl	8003d18 <strcmp>
 800a97e:	2800      	cmp	r0, #0
 800a980:	d15c      	bne.n	800aa3c <cmdMax+0x1b8>
    if(argc == 0) {
 800a982:	1e77      	subs	r7, r6, #1
 800a984:	d121      	bne.n	800a9ca <cmdMax+0x146>
    uint32_t frequency = MAX2870_VCO_MIN_FREQUENCY/1000000 + MAX2870_VCO_INCREMENT/2000000;
 800a986:	f640 36c2 	movw	r6, #3010	; 0xbc2
        chprintf(stdout, "Frequency: %u MHz, VCO Band: ", frequency);
 800a98a:	4f51      	ldr	r7, [pc, #324]	; (800aad0 <cmdMax+0x24c>)
            chprintf(stdout, "Invalid"SHELL_NEWLINE_STR);
 800a98c:	f8df 8164 	ldr.w	r8, [pc, #356]	; 800aaf4 <cmdMax+0x270>
            chprintf(stdout, "%u"SHELL_NEWLINE_STR, vco & 0x3f);
 800a990:	f8df 9164 	ldr.w	r9, [pc, #356]	; 800aaf8 <cmdMax+0x274>
 800a994:	3420      	adds	r4, #32
        chprintf(stdout, "Frequency: %u MHz, VCO Band: ", frequency);
 800a996:	4632      	mov	r2, r6
 800a998:	4639      	mov	r1, r7
 800a99a:	4628      	mov	r0, r5
 800a99c:	f7fd ff10 	bl	80087c0 <chprintf>
        uint8_t vco = driver->vcoCache[i];
 800a9a0:	f814 2b01 	ldrb.w	r2, [r4], #1
        if(vco & 0x80) {
 800a9a4:	0610      	lsls	r0, r2, #24
 800a9a6:	d50b      	bpl.n	800a9c0 <cmdMax+0x13c>
            chprintf(stdout, "%u"SHELL_NEWLINE_STR, vco & 0x3f);
 800a9a8:	4649      	mov	r1, r9
 800a9aa:	4628      	mov	r0, r5
 800a9ac:	f002 023f 	and.w	r2, r2, #63	; 0x3f
 800a9b0:	f7fd ff06 	bl	80087c0 <chprintf>
    for(unsigned int i=0; i<sizeof(driver->vcoCache); i++) {
 800a9b4:	f241 737a 	movw	r3, #6010	; 0x177a
        frequency += MAX2870_VCO_INCREMENT/1000000;
 800a9b8:	3614      	adds	r6, #20
    for(unsigned int i=0; i<sizeof(driver->vcoCache); i++) {
 800a9ba:	429e      	cmp	r6, r3
 800a9bc:	d1eb      	bne.n	800a996 <cmdMax+0x112>
 800a9be:	e76c      	b.n	800a89a <cmdMax+0x16>
            chprintf(stdout, "Invalid"SHELL_NEWLINE_STR);
 800a9c0:	4641      	mov	r1, r8
 800a9c2:	4628      	mov	r0, r5
 800a9c4:	f7fd fefc 	bl	80087c0 <chprintf>
 800a9c8:	e7f4      	b.n	800a9b4 <cmdMax+0x130>
    } else if(!strcmp(argv[0], "calibrate")) {
 800a9ca:	f8d8 6004 	ldr.w	r6, [r8, #4]
 800a9ce:	4941      	ldr	r1, [pc, #260]	; (800aad4 <cmdMax+0x250>)
 800a9d0:	4630      	mov	r0, r6
 800a9d2:	f7f9 f9a1 	bl	8003d18 <strcmp>
 800a9d6:	b938      	cbnz	r0, 800a9e8 <cmdMax+0x164>
        max2870VcoPrecal(pll);
 800a9d8:	4620      	mov	r0, r4
 800a9da:	f7fe fc65 	bl	80092a8 <max2870VcoPrecal>
        chprintf(chp, "Done"SHELL_NEWLINE_STR);
 800a9de:	493e      	ldr	r1, [pc, #248]	; (800aad8 <cmdMax+0x254>)
            chprintf(chp, "The cow says moo!"SHELL_NEWLINE_STR);
 800a9e0:	4628      	mov	r0, r5
 800a9e2:	f7fd feed 	bl	80087c0 <chprintf>
 800a9e6:	e758      	b.n	800a89a <cmdMax+0x16>
    } else if(argc >= 2 && !strcmp(argv[0], "set")) {
 800a9e8:	2f01      	cmp	r7, #1
 800a9ea:	f77f af53 	ble.w	800a894 <cmdMax+0x10>
 800a9ee:	4630      	mov	r0, r6
 800a9f0:	493a      	ldr	r1, [pc, #232]	; (800aadc <cmdMax+0x258>)
 800a9f2:	f7f9 f991 	bl	8003d18 <strcmp>
 800a9f6:	4606      	mov	r6, r0
 800a9f8:	2800      	cmp	r0, #0
 800a9fa:	f47f af4b 	bne.w	800a894 <cmdMax+0x10>
        unsigned int a = strToInt(argv[1], 10);
 800a9fe:	210a      	movs	r1, #10
 800aa00:	f8d8 0008 	ldr.w	r0, [r8, #8]
 800aa04:	f7fb f9bc 	bl	8005d80 <strToInt>
        if(argc == 3) {
 800aa08:	2f03      	cmp	r7, #3
        unsigned int a = strToInt(argv[1], 10);
 800aa0a:	4681      	mov	r9, r0
        if(argc == 3) {
 800aa0c:	d10b      	bne.n	800aa26 <cmdMax+0x1a2>
            b = strToInt(argv[2], 10) | 0x80;
 800aa0e:	210a      	movs	r1, #10
 800aa10:	f8d8 000c 	ldr.w	r0, [r8, #12]
 800aa14:	f7fb f9b4 	bl	8005d80 <strToInt>
 800aa18:	f040 0380 	orr.w	r3, r0, #128	; 0x80
    return &driver->currentTune;
}

bool max2870VcoCacheSet(MAX2870Driver* driver, unsigned int vcoIndex, uint8_t value)
{
    if(vcoIndex > sizeof(driver->vcoCache)) {
 800aa1c:	f1b9 0f96 	cmp.w	r9, #150	; 0x96
 800aa20:	d903      	bls.n	800aa2a <cmdMax+0x1a6>
            chprintf(chp, "The cow says moo!"SHELL_NEWLINE_STR);
 800aa22:	492f      	ldr	r1, [pc, #188]	; (800aae0 <cmdMax+0x25c>)
 800aa24:	e7dc      	b.n	800a9e0 <cmdMax+0x15c>
        unsigned int b = 0;
 800aa26:	4633      	mov	r3, r6
 800aa28:	e7f8      	b.n	800aa1c <cmdMax+0x198>
        return false;
    }

    driver->vcoCache[vcoIndex] = value;
 800aa2a:	444c      	add	r4, r9
            chprintf(chp, "%u=0x%02x"SHELL_NEWLINE_STR,a,b);
 800aa2c:	464a      	mov	r2, r9
 800aa2e:	4628      	mov	r0, r5
 800aa30:	492c      	ldr	r1, [pc, #176]	; (800aae4 <cmdMax+0x260>)
        if(max2870VcoCacheSet(pll, a , b)) {
 800aa32:	f884 3020 	strb.w	r3, [r4, #32]
            chprintf(chp, "%u=0x%02x"SHELL_NEWLINE_STR,a,b);
 800aa36:	f7fd fec3 	bl	80087c0 <chprintf>
 800aa3a:	e72e      	b.n	800a89a <cmdMax+0x16>
    } else if(!strcmp(argv[0], "dld")) {
 800aa3c:	4638      	mov	r0, r7
 800aa3e:	492a      	ldr	r1, [pc, #168]	; (800aae8 <cmdMax+0x264>)
 800aa40:	f7f9 f96a 	bl	8003d18 <strcmp>
 800aa44:	2800      	cmp	r0, #0
 800aa46:	f47f af25 	bne.w	800a894 <cmdMax+0x10>
    max2870SpiState(driver, true);
 800aa4a:	4620      	mov	r0, r4
 800aa4c:	f7fd f836 	bl	8007abc <max2870SpiState.constprop.0>
    max2870SetMUXOut(driver, 0x6);
 800aa50:	4620      	mov	r0, r4
 800aa52:	2106      	movs	r1, #6
 800aa54:	f7fc fff4 	bl	8007a40 <max2870SetMUXOut>
    spiReceive(driver->config->spiPort, 1, &lock);
 800aa58:	6823      	ldr	r3, [r4, #0]
 800aa5a:	6818      	ldr	r0, [r3, #0]
  osalDbgCheck((spip != NULL) && (n > 0U) && (rxbuf != NULL));
 800aa5c:	b910      	cbnz	r0, 800aa64 <cmdMax+0x1e0>
 800aa5e:	f7f9 fc6f 	bl	8004340 <vTaskEndScheduler>
 800aa62:	e7fe      	b.n	800aa62 <cmdMax+0x1de>
  osalSysLock();
 800aa64:	f7f9 fbbe 	bl	80041e4 <vPortEnterCritical>
  osalDbgAssert(spip->state == SPI_READY, "not ready");
 800aa68:	7803      	ldrb	r3, [r0, #0]
 800aa6a:	2b02      	cmp	r3, #2
 800aa6c:	d002      	beq.n	800aa74 <cmdMax+0x1f0>
 800aa6e:	f7f9 fc67 	bl	8004340 <vTaskEndScheduler>
 800aa72:	e7fe      	b.n	800aa72 <cmdMax+0x1ee>
  osalDbgAssert(spip->config->end_cb == NULL, "has callback");
 800aa74:	6843      	ldr	r3, [r0, #4]
 800aa76:	681b      	ldr	r3, [r3, #0]
 800aa78:	b113      	cbz	r3, 800aa80 <cmdMax+0x1fc>
 800aa7a:	f7f9 fc61 	bl	8004340 <vTaskEndScheduler>
 800aa7e:	e7fe      	b.n	800aa7e <cmdMax+0x1fa>
 800aa80:	466a      	mov	r2, sp
 800aa82:	2101      	movs	r1, #1
 800aa84:	f7fc fb2a 	bl	80070dc <spiReceive.part.0>
    if(enable) {
 800aa88:	4620      	mov	r0, r4
 800aa8a:	f7fd fbd5 	bl	8008238 <max2870SpiState.part.0>
    return lock == 0xFF;
 800aa8e:	f89d 2000 	ldrb.w	r2, [sp]
        chprintf(chp, "Digital Lock Detect: %u"SHELL_NEWLINE_STR, max2870GetDigitalLockDetect(pll));
 800aa92:	f1a2 01ff 	sub.w	r1, r2, #255	; 0xff
 800aa96:	424a      	negs	r2, r1
 800aa98:	414a      	adcs	r2, r1
 800aa9a:	4914      	ldr	r1, [pc, #80]	; (800aaec <cmdMax+0x268>)
 800aa9c:	e74e      	b.n	800a93c <cmdMax+0xb8>
    if(result == TUNE_CANT_FASTLOCK) return "Invalid fastlock command";
 800aa9e:	1cc3      	adds	r3, r0, #3
 800aaa0:	f47f af50 	bne.w	800a944 <cmdMax+0xc0>
 800aaa4:	4a12      	ldr	r2, [pc, #72]	; (800aaf0 <cmdMax+0x26c>)
 800aaa6:	e748      	b.n	800a93a <cmdMax+0xb6>
 800aaa8:	0800c299 	.word	0x0800c299
 800aaac:	0800c115 	.word	0x0800c115
 800aab0:	0800b89d 	.word	0x0800b89d
 800aab4:	0800c29e 	.word	0x0800c29e
 800aab8:	0800c240 	.word	0x0800c240
 800aabc:	0800c269 	.word	0x0800c269
 800aac0:	0800c25d 	.word	0x0800c25d
 800aac4:	0800c24e 	.word	0x0800c24e
 800aac8:	0800bb41 	.word	0x0800bb41
 800aacc:	0800c2b2 	.word	0x0800c2b2
 800aad0:	0800c2bb 	.word	0x0800c2bb
 800aad4:	0800c2e3 	.word	0x0800c2e3
 800aad8:	0800c2ed 	.word	0x0800c2ed
 800aadc:	0800bd99 	.word	0x0800bd99
 800aae0:	0800c2f4 	.word	0x0800c2f4
 800aae4:	0800c308 	.word	0x0800c308
 800aae8:	0800c314 	.word	0x0800c314
 800aaec:	0800c318 	.word	0x0800c318
 800aaf0:	0800c280 	.word	0x0800c280
 800aaf4:	0800c2d9 	.word	0x0800c2d9
 800aaf8:	0800bc1b 	.word	0x0800bc1b

0800aafc <cmd_mem>:
#if (SHELL_CMD_MEM_ENABLED == TRUE) || defined(__DOXYGEN__)
static void cmd_mem(void* user, BaseSequentialStream *chp, int argc, char *argv[]) {
  size_t n, total, largest;
  (void)argv;
  (void)user;
  if (argc > 0) {
 800aafc:	2a00      	cmp	r2, #0
static void cmd_mem(void* user, BaseSequentialStream *chp, int argc, char *argv[]) {
 800aafe:	b5f8      	push	{r3, r4, r5, r6, r7, lr}
 800ab00:	460c      	mov	r4, r1
  if (argc > 0) {
 800ab02:	dd06      	ble.n	800ab12 <cmd_mem+0x16>
    shellUsage(chp, "mem");
 800ab04:	4a14      	ldr	r2, [pc, #80]	; (800ab58 <cmd_mem+0x5c>)
 800ab06:	4915      	ldr	r1, [pc, #84]	; (800ab5c <cmd_mem+0x60>)
  }
  n = chHeapStatus(NULL, &total, &largest);
  chprintf(chp, "core free memory : %u bytes"SHELL_NEWLINE_STR, chCoreGetStatusX());
  chprintf(chp, "heap fragments   : %u"SHELL_NEWLINE_STR, n);
  chprintf(chp, "heap free total  : %u bytes"SHELL_NEWLINE_STR, total);
  chprintf(chp, "heap free largest: %u bytes"SHELL_NEWLINE_STR, largest);
 800ab08:	4620      	mov	r0, r4
}
 800ab0a:	e8bd 40f8 	ldmia.w	sp!, {r3, r4, r5, r6, r7, lr}
  chprintf(chp, "heap free largest: %u bytes"SHELL_NEWLINE_STR, largest);
 800ab0e:	f7fd be57 	b.w	80087c0 <chprintf>
 800ab12:	2500      	movs	r5, #0
 800ab14:	462e      	mov	r6, r5
 800ab16:	4b12      	ldr	r3, [pc, #72]	; (800ab60 <cmd_mem+0x64>)
 800ab18:	681f      	ldr	r7, [r3, #0]
 800ab1a:	4b12      	ldr	r3, [pc, #72]	; (800ab64 <cmd_mem+0x68>)
 800ab1c:	681b      	ldr	r3, [r3, #0]
 800ab1e:	681a      	ldr	r2, [r3, #0]
 800ab20:	b98a      	cbnz	r2, 800ab46 <cmd_mem+0x4a>
  chprintf(chp, "core free memory : %u bytes"SHELL_NEWLINE_STR, chCoreGetStatusX());
 800ab22:	463a      	mov	r2, r7
 800ab24:	4910      	ldr	r1, [pc, #64]	; (800ab68 <cmd_mem+0x6c>)
 800ab26:	4620      	mov	r0, r4
 800ab28:	f7fd fe4a 	bl	80087c0 <chprintf>
  chprintf(chp, "heap fragments   : %u"SHELL_NEWLINE_STR, n);
 800ab2c:	4632      	mov	r2, r6
 800ab2e:	490f      	ldr	r1, [pc, #60]	; (800ab6c <cmd_mem+0x70>)
 800ab30:	4620      	mov	r0, r4
 800ab32:	f7fd fe45 	bl	80087c0 <chprintf>
  chprintf(chp, "heap free total  : %u bytes"SHELL_NEWLINE_STR, total);
 800ab36:	463a      	mov	r2, r7
 800ab38:	490d      	ldr	r1, [pc, #52]	; (800ab70 <cmd_mem+0x74>)
 800ab3a:	4620      	mov	r0, r4
 800ab3c:	f7fd fe40 	bl	80087c0 <chprintf>
  chprintf(chp, "heap free largest: %u bytes"SHELL_NEWLINE_STR, largest);
 800ab40:	462a      	mov	r2, r5
 800ab42:	490c      	ldr	r1, [pc, #48]	; (800ab74 <cmd_mem+0x78>)
 800ab44:	e7e0      	b.n	800ab08 <cmd_mem+0xc>
 800ab46:	685b      	ldr	r3, [r3, #4]
 800ab48:	b11b      	cbz	r3, 800ab52 <cmd_mem+0x56>
 800ab4a:	429d      	cmp	r5, r3
 800ab4c:	bf38      	it	cc
 800ab4e:	461d      	movcc	r5, r3
 800ab50:	3601      	adds	r6, #1
static void cmd_mem(void* user, BaseSequentialStream *chp, int argc, char *argv[]) {
 800ab52:	4613      	mov	r3, r2
 800ab54:	e7e3      	b.n	800ab1e <cmd_mem+0x22>
 800ab56:	bf00      	nop
 800ab58:	0800c332 	.word	0x0800c332
 800ab5c:	0800c336 	.word	0x0800c336
 800ab60:	200013a4 	.word	0x200013a4
 800ab64:	20001618 	.word	0x20001618
 800ab68:	0800c342 	.word	0x0800c342
 800ab6c:	0800c360 	.word	0x0800c360
 800ab70:	0800c378 	.word	0x0800c378
 800ab74:	0800c396 	.word	0x0800c396

0800ab78 <cmd_systime>:
  if (argc > 0) {
 800ab78:	2a00      	cmp	r2, #0
static void cmd_systime(void* user, BaseSequentialStream *chp, int argc, char *argv[]) {
 800ab7a:	4608      	mov	r0, r1
 800ab7c:	b508      	push	{r3, lr}
  if (argc > 0) {
 800ab7e:	dd05      	ble.n	800ab8c <cmd_systime+0x14>
    shellUsage(chp, "systime");
 800ab80:	4a05      	ldr	r2, [pc, #20]	; (800ab98 <cmd_systime+0x20>)
 800ab82:	4906      	ldr	r1, [pc, #24]	; (800ab9c <cmd_systime+0x24>)
}
 800ab84:	e8bd 4008 	ldmia.w	sp!, {r3, lr}
  chprintf(chp, "%lu"SHELL_NEWLINE_STR, (unsigned long)chVTGetSystemTime());
 800ab88:	f7fd be1a 	b.w	80087c0 <chprintf>
 800ab8c:	f7f9 faaa 	bl	80040e4 <vPortValidateInterruptPriority>
 800ab90:	4b03      	ldr	r3, [pc, #12]	; (800aba0 <cmd_systime+0x28>)
 800ab92:	4904      	ldr	r1, [pc, #16]	; (800aba4 <cmd_systime+0x2c>)
 800ab94:	681a      	ldr	r2, [r3, #0]
 800ab96:	e7f5      	b.n	800ab84 <cmd_systime+0xc>
 800ab98:	0800c3b4 	.word	0x0800c3b4
 800ab9c:	0800c336 	.word	0x0800c336
 800aba0:	20001648 	.word	0x20001648
 800aba4:	0800c3bc 	.word	0x0800c3bc

0800aba8 <cmd_echo>:
  if (argc != 1) {
 800aba8:	2a01      	cmp	r2, #1
static void cmd_echo(void* user, BaseSequentialStream *chp, int argc, char *argv[]) {
 800abaa:	4608      	mov	r0, r1
    shellUsage(chp, "echo \"message\"");
 800abac:	bf19      	ittee	ne
 800abae:	4a03      	ldrne	r2, [pc, #12]	; (800abbc <cmd_echo+0x14>)
 800abb0:	4903      	ldrne	r1, [pc, #12]	; (800abc0 <cmd_echo+0x18>)
  chprintf(chp, "%s"SHELL_NEWLINE_STR, argv[0]);
 800abb2:	681a      	ldreq	r2, [r3, #0]
 800abb4:	4903      	ldreq	r1, [pc, #12]	; (800abc4 <cmd_echo+0x1c>)
 800abb6:	f7fd be03 	b.w	80087c0 <chprintf>
 800abba:	bf00      	nop
 800abbc:	0800c3c2 	.word	0x0800c3c2
 800abc0:	0800c336 	.word	0x0800c336
 800abc4:	0800c488 	.word	0x0800c488

0800abc8 <cmd_info>:
  if (argc > 0) {
 800abc8:	2a00      	cmp	r2, #0
static void cmd_info(void* user, BaseSequentialStream *chp, int argc, char *argv[]) {
 800abca:	b5f7      	push	{r0, r1, r2, r4, r5, r6, r7, lr}
 800abcc:	460c      	mov	r4, r1
  if (argc > 0) {
 800abce:	dd07      	ble.n	800abe0 <cmd_info+0x18>
    shellUsage(chp, "info");
 800abd0:	4620      	mov	r0, r4
 800abd2:	4a1d      	ldr	r2, [pc, #116]	; (800ac48 <cmd_info+0x80>)
 800abd4:	491d      	ldr	r1, [pc, #116]	; (800ac4c <cmd_info+0x84>)
}
 800abd6:	b003      	add	sp, #12
 800abd8:	e8bd 40f0 	ldmia.w	sp!, {r4, r5, r6, r7, lr}
    shellUsage(chp, "info");
 800abdc:	f7fd bdf0 	b.w	80087c0 <chprintf>
  chprintf(chp, "Kernel:       %s"SHELL_NEWLINE_STR, CH_KERNEL_VERSION);
 800abe0:	4a1b      	ldr	r2, [pc, #108]	; (800ac50 <cmd_info+0x88>)
 800abe2:	491c      	ldr	r1, [pc, #112]	; (800ac54 <cmd_info+0x8c>)
 800abe4:	4620      	mov	r0, r4
 800abe6:	f7fd fdeb 	bl	80087c0 <chprintf>
  chprintf(chp, "Architecture: %s"SHELL_NEWLINE_STR, PORT_ARCHITECTURE_NAME);
 800abea:	4a1b      	ldr	r2, [pc, #108]	; (800ac58 <cmd_info+0x90>)
 800abec:	491b      	ldr	r1, [pc, #108]	; (800ac5c <cmd_info+0x94>)
 800abee:	4620      	mov	r0, r4
 800abf0:	f7fd fde6 	bl	80087c0 <chprintf>
  chprintf(chp, "Platform:     %s"SHELL_NEWLINE_STR, PLATFORM_NAME);
 800abf4:	4a1a      	ldr	r2, [pc, #104]	; (800ac60 <cmd_info+0x98>)
 800abf6:	491b      	ldr	r1, [pc, #108]	; (800ac64 <cmd_info+0x9c>)
 800abf8:	4620      	mov	r0, r4
 800abfa:	f7fd fde1 	bl	80087c0 <chprintf>
  chprintf(chp, "Board:        %s"SHELL_NEWLINE_STR, BOARD_NAME);
 800abfe:	4a1a      	ldr	r2, [pc, #104]	; (800ac68 <cmd_info+0xa0>)
 800ac00:	491a      	ldr	r1, [pc, #104]	; (800ac6c <cmd_info+0xa4>)
 800ac02:	4620      	mov	r0, r4
 800ac04:	f7fd fddc 	bl	80087c0 <chprintf>
  chprintf(chp, "Build time:   %s%s%s"SHELL_NEWLINE_STR, __DATE__, " - ", __TIME__);
 800ac08:	4b19      	ldr	r3, [pc, #100]	; (800ac70 <cmd_info+0xa8>)
 800ac0a:	4a1a      	ldr	r2, [pc, #104]	; (800ac74 <cmd_info+0xac>)
 800ac0c:	491a      	ldr	r1, [pc, #104]	; (800ac78 <cmd_info+0xb0>)
 800ac0e:	9300      	str	r3, [sp, #0]
 800ac10:	4620      	mov	r0, r4
 800ac12:	4b1a      	ldr	r3, [pc, #104]	; (800ac7c <cmd_info+0xb4>)
 800ac14:	f7fd fdd4 	bl	80087c0 <chprintf>
  chprintf(chp, "Build ID:     ");
 800ac18:	4620      	mov	r0, r4
 800ac1a:	4919      	ldr	r1, [pc, #100]	; (800ac80 <cmd_info+0xb8>)
 800ac1c:	f7fd fdd0 	bl	80087c0 <chprintf>
  for(uint8_t* i=&__buildid_base__+16; i<&__buildid_end__; i++){
 800ac20:	4d18      	ldr	r5, [pc, #96]	; (800ac84 <cmd_info+0xbc>)
 800ac22:	4e19      	ldr	r6, [pc, #100]	; (800ac88 <cmd_info+0xc0>)
    chprintf(chp, "%02x", *i);
 800ac24:	4f19      	ldr	r7, [pc, #100]	; (800ac8c <cmd_info+0xc4>)
  for(uint8_t* i=&__buildid_base__+16; i<&__buildid_end__; i++){
 800ac26:	42b5      	cmp	r5, r6
 800ac28:	d306      	bcc.n	800ac38 <cmd_info+0x70>
  chprintf(chp, SHELL_NEWLINE_STR);
 800ac2a:	4620      	mov	r0, r4
 800ac2c:	4918      	ldr	r1, [pc, #96]	; (800ac90 <cmd_info+0xc8>)
}
 800ac2e:	b003      	add	sp, #12
 800ac30:	e8bd 40f0 	ldmia.w	sp!, {r4, r5, r6, r7, lr}
  chprintf(chp, SHELL_NEWLINE_STR);
 800ac34:	f7fd bdc4 	b.w	80087c0 <chprintf>
    chprintf(chp, "%02x", *i);
 800ac38:	4639      	mov	r1, r7
 800ac3a:	4620      	mov	r0, r4
 800ac3c:	f815 2b01 	ldrb.w	r2, [r5], #1
 800ac40:	f7fd fdbe 	bl	80087c0 <chprintf>
  for(uint8_t* i=&__buildid_base__+16; i<&__buildid_end__; i++){
 800ac44:	e7ef      	b.n	800ac26 <cmd_info+0x5e>
 800ac46:	bf00      	nop
 800ac48:	0800c3d1 	.word	0x0800c3d1
 800ac4c:	0800c336 	.word	0x0800c336
 800ac50:	0800c3d6 	.word	0x0800c3d6
 800ac54:	0800c3e3 	.word	0x0800c3e3
 800ac58:	0800c3f6 	.word	0x0800c3f6
 800ac5c:	0800c403 	.word	0x0800c403
 800ac60:	0800c416 	.word	0x0800c416
 800ac64:	0800c440 	.word	0x0800c440
 800ac68:	0800c453 	.word	0x0800c453
 800ac6c:	0800c47a 	.word	0x0800c47a
 800ac70:	0800c4b4 	.word	0x0800c4b4
 800ac74:	0800c491 	.word	0x0800c491
 800ac78:	0800c49d 	.word	0x0800c49d
 800ac7c:	0800c48d 	.word	0x0800c48d
 800ac80:	0800c4bd 	.word	0x0800c4bd
 800ac84:	0800cb94 	.word	0x0800cb94
 800ac88:	0800cba8 	.word	0x0800cba8
 800ac8c:	0800c4cc 	.word	0x0800c4cc
 800ac90:	0800c115 	.word	0x0800c115

0800ac94 <cmd_exit>:
  if (argc > 0) {
 800ac94:	2a00      	cmp	r2, #0
static void cmd_exit(void* user, BaseSequentialStream *chp, int argc, char *argv[]) {
 800ac96:	4608      	mov	r0, r1
 800ac98:	b508      	push	{r3, lr}
  if (argc > 0) {
 800ac9a:	dd05      	ble.n	800aca8 <cmd_exit+0x14>
}
 800ac9c:	e8bd 4008 	ldmia.w	sp!, {r3, lr}
    shellUsage(chp, "exit");
 800aca0:	4a06      	ldr	r2, [pc, #24]	; (800acbc <cmd_exit+0x28>)
 800aca2:	4907      	ldr	r1, [pc, #28]	; (800acc0 <cmd_exit+0x2c>)
 800aca4:	f7fd bd8c 	b.w	80087c0 <chprintf>
 */
void shellExit(msg_t msg) {

  /* Atomically broadcasting the event source and terminating the thread,
     there is not a chSysUnlock() because the thread terminates upon return.*/
  chSysLock();
 800aca8:	f7f9 fa9c 	bl	80041e4 <vPortEnterCritical>
}
static inline void chEvtBroadcast(event_source_t* event_source){
    osalEventBroadcastFlags(event_source, 1);
}
static inline void chEvtBroadcastI(event_source_t* event_source){
    osalEventBroadcastFlagsI(event_source, 1);
 800acac:	2101      	movs	r1, #1
 800acae:	4805      	ldr	r0, [pc, #20]	; (800acc4 <cmd_exit+0x30>)
 800acb0:	f7f9 fc29 	bl	8004506 <osalEventBroadcastFlagsI>
}
 800acb4:	e8bd 4008 	ldmia.w	sp!, {r3, lr}
    vTaskDelete(NULL);
 800acb8:	f7fa ba46 	b.w	8005148 <vTaskDelete.constprop.0>
 800acbc:	0800c4d1 	.word	0x0800c4d1
 800acc0:	0800c336 	.word	0x0800c336
 800acc4:	200012b8 	.word	0x200012b8

0800acc8 <syslogISRUnknownPriority>:
{
 800acc8:	b40f      	push	{r0, r1, r2, r3}
    if(__atomic_test_and_set(&syslogISRHasSomething, __ATOMIC_ACQUIRE)) {
 800acca:	f04f 0201 	mov.w	r2, #1
{
 800acce:	b530      	push	{r4, r5, lr}
    if(__atomic_test_and_set(&syslogISRHasSomething, __ATOMIC_ACQUIRE)) {
 800acd0:	4b11      	ldr	r3, [pc, #68]	; (800ad18 <syslogISRUnknownPriority+0x50>)
{
 800acd2:	b087      	sub	sp, #28
    if(__atomic_test_and_set(&syslogISRHasSomething, __ATOMIC_ACQUIRE)) {
 800acd4:	e8d3 5f4f 	ldrexb	r5, [r3]
 800acd8:	e8c3 2f41 	strexb	r1, r2, [r3]
 800acdc:	2900      	cmp	r1, #0
 800acde:	d1f9      	bne.n	800acd4 <syslogISRUnknownPriority+0xc>
 800ace0:	b2eb      	uxtb	r3, r5
 800ace2:	f3bf 8f5b 	dmb	ish
 800ace6:	b9ab      	cbnz	r3, 800ad14 <syslogISRUnknownPriority+0x4c>
 *                      for ROM streams.
 */
void msObjectInit(MemoryStream *msp, uint8_t *buffer,
                  size_t size, size_t eos) {

  msp->vmt    = &vmt;
 800ace8:	490c      	ldr	r1, [pc, #48]	; (800ad1c <syslogISRUnknownPriority+0x54>)
  msp->buffer = buffer;
 800acea:	4c0d      	ldr	r4, [pc, #52]	; (800ad20 <syslogISRUnknownPriority+0x58>)
  msp->vmt    = &vmt;
 800acec:	9101      	str	r1, [sp, #4]
  msp->size   = size;
 800acee:	213f      	movs	r1, #63	; 0x3f
    va_start(args, format);
 800acf0:	aa0b      	add	r2, sp, #44	; 0x2c
  msp->eos    = eos;
 800acf2:	e9cd 1303 	strd	r1, r3, [sp, #12]
    chvprintf(chp, format, args);
 800acf6:	a801      	add	r0, sp, #4
 800acf8:	990a      	ldr	r1, [sp, #40]	; 0x28
  msp->offset = 0;
 800acfa:	9305      	str	r3, [sp, #20]
    va_start(args, format);
 800acfc:	9200      	str	r2, [sp, #0]
  msp->buffer = buffer;
 800acfe:	9402      	str	r4, [sp, #8]
    chvprintf(chp, format, args);
 800ad00:	f7fb f888 	bl	8005e14 <chvprintf>
    return true;
 800ad04:	2001      	movs	r0, #1
    syslogISRBuffer[ms.eos] = 0;
 800ad06:	9b04      	ldr	r3, [sp, #16]
 800ad08:	54e5      	strb	r5, [r4, r3]
}
 800ad0a:	b007      	add	sp, #28
 800ad0c:	e8bd 4030 	ldmia.w	sp!, {r4, r5, lr}
 800ad10:	b004      	add	sp, #16
 800ad12:	4770      	bx	lr
        return false;
 800ad14:	2000      	movs	r0, #0
 800ad16:	e7f8      	b.n	800ad0a <syslogISRUnknownPriority+0x42>
 800ad18:	2000130c 	.word	0x2000130c
 800ad1c:	0800cb68 	.word	0x0800cb68
 800ad20:	200012cc 	.word	0x200012cc

0800ad24 <usb_event>:
{
 800ad24:	b538      	push	{r3, r4, r5, lr}
 800ad26:	4604      	mov	r4, r0
 800ad28:	2905      	cmp	r1, #5
 800ad2a:	d878      	bhi.n	800ae1e <usb_event+0xfa>
 800ad2c:	e8df f001 	tbb	[pc, r1]
 800ad30:	4e08034e 	.word	0x4e08034e
 800ad34:	6a4e      	.short	0x6a4e
            syslogISRUnknownPriority("USB address assigned.");
 800ad36:	483a      	ldr	r0, [pc, #232]	; (800ae20 <usb_event+0xfc>)
}
 800ad38:	e8bd 4038 	ldmia.w	sp!, {r3, r4, r5, lr}
            syslogISRUnknownPriority("USB address assigned.");
 800ad3c:	f7ff bfc4 	b.w	800acc8 <syslogISRUnknownPriority>
            osalSysLockFromISR();
 800ad40:	f7fa ff4c 	bl	8005bdc <osalSysLockFromISR.lto_priv.0>
            usbInitEndpointI(usbp, USBD1_DATA_REQUEST_EP, &ep1config);
 800ad44:	4620      	mov	r0, r4
 800ad46:	2101      	movs	r1, #1
 800ad48:	4a36      	ldr	r2, [pc, #216]	; (800ae24 <usb_event+0x100>)
 800ad4a:	f7fd fcce 	bl	80086ea <usbInitEndpointI>
            usbInitEndpointI(usbp, USBD1_INTERRUPT_REQUEST_EP, &ep2config);
 800ad4e:	2102      	movs	r1, #2
 800ad50:	4620      	mov	r0, r4
 800ad52:	4a35      	ldr	r2, [pc, #212]	; (800ae28 <usb_event+0x104>)
 800ad54:	f7fd fcc9 	bl	80086ea <usbInitEndpointI>
	__asm volatile( "mrs %0, basepri" : "=r"( ulBasePri ) );
 800ad58:	f3ef 8311 	mrs	r3, BASEPRI
	return (ulBasePri > 0)? pdTRUE : pdFALSE;
 800ad5c:	b19b      	cbz	r3, 800ad86 <usb_event+0x62>
  ibqp->bcounter  = 0;
 800ad5e:	2500      	movs	r5, #0
 800ad60:	4c32      	ldr	r4, [pc, #200]	; (800ae2c <usb_event+0x108>)
  ibqp->brdptr    = ibqp->buffers;
 800ad62:	6be3      	ldr	r3, [r4, #60]	; 0x3c
  ibqp->top       = NULL;
 800ad64:	e9c4 5510 	strd	r5, r5, [r4, #64]	; 0x40
  ibqp->bwrptr    = ibqp->buffers;
 800ad68:	e9c4 330a 	strd	r3, r3, [r4, #40]	; 0x28
  ibqp->bcounter  = 0;
 800ad6c:	6265      	str	r5, [r4, #36]	; 0x24
  osalThreadDequeueAllI(&ibqp->waiting, MSG_RESET);
 800ad6e:	f104 0018 	add.w	r0, r4, #24
 800ad72:	f7f9 fc0c 	bl	800458e <osalThreadDequeueAllI.constprop.0>
  bqResumeX(&sdup->ibqueue);
 800ad76:	f884 5020 	strb.w	r5, [r4, #32]
	__asm volatile( "mrs %0, basepri" : "=r"( ulBasePri ) );
 800ad7a:	f3ef 8311 	mrs	r3, BASEPRI
	return (ulBasePri > 0)? pdTRUE : pdFALSE;
 800ad7e:	b92b      	cbnz	r3, 800ad8c <usb_event+0x68>
  osalDbgCheckClassI();
 800ad80:	f7f9 fade 	bl	8004340 <vTaskEndScheduler>
 800ad84:	e7fe      	b.n	800ad84 <usb_event+0x60>
  osalDbgCheckClassI();
 800ad86:	f7f9 fadb 	bl	8004340 <vTaskEndScheduler>
 800ad8a:	e7fe      	b.n	800ad8a <usb_event+0x66>
  obqp->bcounter  = bqSizeX(obqp);
 800ad8c:	6f23      	ldr	r3, [r4, #112]	; 0x70
  osalThreadDequeueAllI(&obqp->waiting, MSG_RESET);
 800ad8e:	f104 0050 	add.w	r0, r4, #80	; 0x50
  obqp->bcounter  = bqSizeX(obqp);
 800ad92:	65e3      	str	r3, [r4, #92]	; 0x5c
  obqp->brdptr    = obqp->buffers;
 800ad94:	6f63      	ldr	r3, [r4, #116]	; 0x74
  obqp->top       = NULL;
 800ad96:	e9c4 551e 	strd	r5, r5, [r4, #120]	; 0x78
  obqp->bwrptr    = obqp->buffers;
 800ad9a:	e9c4 3318 	strd	r3, r3, [r4, #96]	; 0x60
  osalThreadDequeueAllI(&obqp->waiting, MSG_RESET);
 800ad9e:	f7f9 fbf6 	bl	800458e <osalThreadDequeueAllI.constprop.0>
  chnAddFlagsI(sdup, CHN_CONNECTED);
 800ada2:	1d20      	adds	r0, r4, #4
 800ada4:	2101      	movs	r1, #1
  bqResumeX(&sdup->obqueue);
 800ada6:	f884 5058 	strb.w	r5, [r4, #88]	; 0x58
  chnAddFlagsI(sdup, CHN_CONNECTED);
 800adaa:	f7f9 fbac 	bl	8004506 <osalEventBroadcastFlagsI>
  (void) sdu_start_receive(sdup);
 800adae:	4620      	mov	r0, r4
        if(!usbConnectState) {
 800adb0:	4c1f      	ldr	r4, [pc, #124]	; (800ae30 <usb_event+0x10c>)
 800adb2:	f7fc f9db 	bl	800716c <sdu_start_receive>
 800adb6:	7822      	ldrb	r2, [r4, #0]
 800adb8:	b912      	cbnz	r2, 800adc0 <usb_event+0x9c>
            syslogISRUnknownPriority("USB up.");
 800adba:	481e      	ldr	r0, [pc, #120]	; (800ae34 <usb_event+0x110>)
 800adbc:	f7ff ff84 	bl	800acc8 <syslogISRUnknownPriority>
    usbConnectState = up;
 800adc0:	2301      	movs	r3, #1
 800adc2:	7023      	strb	r3, [r4, #0]
}
 800adc4:	e8bd 4038 	ldmia.w	sp!, {r3, r4, r5, lr}
            osalSysUnlockFromISR();
 800adc8:	f7fa bf02 	b.w	8005bd0 <osalSysUnlockFromISR.lto_priv.0>
  bqSuspendI(&sdup->ibqueue);
 800adcc:	2501      	movs	r5, #1
  chnAddFlagsI(sdup, CHN_DISCONNECTED);
 800adce:	4c17      	ldr	r4, [pc, #92]	; (800ae2c <usb_event+0x108>)
            osalSysLockFromISR();
 800add0:	f7fa ff04 	bl	8005bdc <osalSysLockFromISR.lto_priv.0>
 800add4:	2102      	movs	r1, #2
 800add6:	1d20      	adds	r0, r4, #4
 800add8:	f7f9 fb95 	bl	8004506 <osalEventBroadcastFlagsI>
  bqSuspendI(&sdup->ibqueue);
 800addc:	f104 0018 	add.w	r0, r4, #24
 800ade0:	f884 5020 	strb.w	r5, [r4, #32]
 800ade4:	f7f9 fbd3 	bl	800458e <osalThreadDequeueAllI.constprop.0>
  bqSuspendI(&sdup->obqueue);
 800ade8:	f884 5058 	strb.w	r5, [r4, #88]	; 0x58
 800adec:	f104 0050 	add.w	r0, r4, #80	; 0x50
        if(usbConnectState) {
 800adf0:	4c0f      	ldr	r4, [pc, #60]	; (800ae30 <usb_event+0x10c>)
 800adf2:	f7f9 fbcc 	bl	800458e <osalThreadDequeueAllI.constprop.0>
 800adf6:	7822      	ldrb	r2, [r4, #0]
 800adf8:	b112      	cbz	r2, 800ae00 <usb_event+0xdc>
            syslogISRUnknownPriority("USB down.");
 800adfa:	480f      	ldr	r0, [pc, #60]	; (800ae38 <usb_event+0x114>)
 800adfc:	f7ff ff64 	bl	800acc8 <syslogISRUnknownPriority>
    usbConnectState = up;
 800ae00:	2300      	movs	r3, #0
 800ae02:	e7de      	b.n	800adc2 <usb_event+0x9e>
  chnAddFlagsI(sdup, CHN_CONNECTED);
 800ae04:	4c09      	ldr	r4, [pc, #36]	; (800ae2c <usb_event+0x108>)
            osalSysLockFromISR();
 800ae06:	f7fa fee9 	bl	8005bdc <osalSysLockFromISR.lto_priv.0>
 800ae0a:	2101      	movs	r1, #1
 800ae0c:	1d20      	adds	r0, r4, #4
 800ae0e:	f7f9 fb7a 	bl	8004506 <osalEventBroadcastFlagsI>
  bqResumeX(&sdup->ibqueue);
 800ae12:	2300      	movs	r3, #0
 800ae14:	f884 3020 	strb.w	r3, [r4, #32]
  bqResumeX(&sdup->obqueue);
 800ae18:	f884 3058 	strb.w	r3, [r4, #88]	; 0x58
 800ae1c:	e7d2      	b.n	800adc4 <usb_event+0xa0>
}
 800ae1e:	bd38      	pop	{r3, r4, r5, pc}
 800ae20:	0800c4d6 	.word	0x0800c4d6
 800ae24:	0800c800 	.word	0x0800c800
 800ae28:	0800c824 	.word	0x0800c824
 800ae2c:	20000a44 	.word	0x20000a44
 800ae30:	20001354 	.word	0x20001354
 800ae34:	0800c4ec 	.word	0x0800c4ec
 800ae38:	0800c4f4 	.word	0x0800c4f4

0800ae3c <BusFault_Handler>:
#error "the constant CORTEX_NUM_VECTORS must be between 8 and 240 inclusive"
#endif

extern void unhandledException(void);

void _unhandled_exception(void){
 800ae3c:	b508      	push	{r3, lr}
}

void unhandledException(void)
{
    /* Check which vector is active */
    unsigned int vectorId = NVIC_ICSR & 0x1ff;
 800ae3e:	4b0e      	ldr	r3, [pc, #56]	; (800ae78 <BusFault_Handler+0x3c>)
 800ae40:	6819      	ldr	r1, [r3, #0]

    if(vectorId >= 16) {
 800ae42:	f411 7ff8 	tst.w	r1, #496	; 0x1f0
 800ae46:	d013      	beq.n	800ae70 <BusFault_Handler+0x34>
    *pendReg = _BV(vectorId%32);
 800ae48:	2301      	movs	r3, #1
    unsigned int vectorId = NVIC_ICSR & 0x1ff;
 800ae4a:	f3c1 0108 	ubfx	r1, r1, #0, #9
        /* This can be masked */
        vectorId -= 16;
 800ae4e:	3910      	subs	r1, #16
    *pendReg = _BV(vectorId%32);
 800ae50:	f001 001f 	and.w	r0, r1, #31
 800ae54:	4083      	lsls	r3, r0
 800ae56:	4809      	ldr	r0, [pc, #36]	; (800ae7c <BusFault_Handler+0x40>)
    volatile uint32_t* pendReg = (&NVIC_CPR) + (vectorId / 32);
 800ae58:	094a      	lsrs	r2, r1, #5
    *pendReg = _BV(vectorId%32);
 800ae5a:	f840 3022 	str.w	r3, [r0, r2, lsl #2]
        volatile uint32_t* ceReg = (&NVIC_CER) + (vectorId / 32);
 800ae5e:	f5a0 7080 	sub.w	r0, r0, #256	; 0x100
        *ceReg = _BV(vectorId%32);
 800ae62:	f840 3022 	str.w	r3, [r0, r2, lsl #2]
        clearInterrupt(vectorId, true);

        /* Report it */
        syslogISRUnknownPriority("Unhandled vector %u.", vectorId);
 800ae66:	4806      	ldr	r0, [pc, #24]	; (800ae80 <BusFault_Handler+0x44>)
	unhandledException();
}
 800ae68:	e8bd 4008 	ldmia.w	sp!, {r3, lr}
 800ae6c:	f7ff bf2c 	b.w	800acc8 <syslogISRUnknownPriority>
    } else {
        osalSysHalt("Fault");
 800ae70:	f7f9 fa66 	bl	8004340 <vTaskEndScheduler>
 800ae74:	e7fe      	b.n	800ae74 <BusFault_Handler+0x38>
 800ae76:	bf00      	nop
 800ae78:	e000ed04 	.word	0xe000ed04
 800ae7c:	e000e280 	.word	0xe000e280
 800ae80:	0800c4fe 	.word	0x0800c4fe

0800ae84 <parse_arguments>:
static char *parse_arguments(char *str, char **saveptr) {
 800ae84:	b570      	push	{r4, r5, r6, lr}
 800ae86:	460d      	mov	r5, r1
  if (str != NULL)
 800ae88:	b100      	cbz	r0, 800ae8c <parse_arguments+0x8>
    *saveptr = str;
 800ae8a:	6008      	str	r0, [r1, #0]
  p = *saveptr;
 800ae8c:	682e      	ldr	r6, [r5, #0]
  if (!p) {
 800ae8e:	b17e      	cbz	r6, 800aeb0 <parse_arguments+0x2c>
  p += strspn(p, " \t");
 800ae90:	490e      	ldr	r1, [pc, #56]	; (800aecc <parse_arguments+0x48>)
 800ae92:	4630      	mov	r0, r6
 800ae94:	f7f9 f86e 	bl	8003f74 <strspn>
  if (*p == '"') {
 800ae98:	5c31      	ldrb	r1, [r6, r0]
  p += strspn(p, " \t");
 800ae9a:	1834      	adds	r4, r6, r0
  if (*p == '"') {
 800ae9c:	2922      	cmp	r1, #34	; 0x22
 800ae9e:	d10a      	bne.n	800aeb6 <parse_arguments+0x32>
    p++;
 800aea0:	3401      	adds	r4, #1
    *saveptr = strpbrk(p, "\"");
 800aea2:	4620      	mov	r0, r4
 800aea4:	f7f8 fed4 	bl	8003c50 <strchr>
  if (*saveptr != NULL) {
 800aea8:	b950      	cbnz	r0, 800aec0 <parse_arguments+0x3c>
 800aeaa:	6028      	str	r0, [r5, #0]
  return *p != '\0' ? p : NULL;
 800aeac:	7823      	ldrb	r3, [r4, #0]
 800aeae:	b903      	cbnz	r3, 800aeb2 <parse_arguments+0x2e>
 800aeb0:	2400      	movs	r4, #0
}
 800aeb2:	4620      	mov	r0, r4
 800aeb4:	bd70      	pop	{r4, r5, r6, pc}
    *saveptr = strpbrk(p, " \t");
 800aeb6:	4620      	mov	r0, r4
 800aeb8:	4904      	ldr	r1, [pc, #16]	; (800aecc <parse_arguments+0x48>)
 800aeba:	f7f9 f839 	bl	8003f30 <strpbrk>
 800aebe:	e7f3      	b.n	800aea8 <parse_arguments+0x24>
    *(*saveptr)++ = '\0';
 800aec0:	1c43      	adds	r3, r0, #1
 800aec2:	602b      	str	r3, [r5, #0]
 800aec4:	2300      	movs	r3, #0
 800aec6:	7003      	strb	r3, [r0, #0]
 800aec8:	e7f0      	b.n	800aeac <parse_arguments+0x28>
 800aeca:	bf00      	nop
 800aecc:	0800c513 	.word	0x0800c513

0800aed0 <shellStartThread>:
{
 800aed0:	e92d 4ff0 	stmdb	sp!, {r4, r5, r6, r7, r8, r9, sl, fp, lr}
 800aed4:	4681      	mov	r9, r0
  *(scfg->sc_histbuf) = 0;
 800aed6:	2400      	movs	r4, #0
 800aed8:	4bb9      	ldr	r3, [pc, #740]	; (800b1c0 <shellStartThread+0x2f0>)
 800aeda:	b0a5      	sub	sp, #148	; 0x94
 800aedc:	681b      	ldr	r3, [r3, #0]
    syslog("Shell 0x%08x started (%s).", activeShell, activeShell->taskName);
 800aede:	4601      	mov	r1, r0
 800aee0:	6802      	ldr	r2, [r0, #0]
 800aee2:	65d8      	str	r0, [r3, #92]	; 0x5c
 800aee4:	48b7      	ldr	r0, [pc, #732]	; (800b1c4 <shellStartThread+0x2f4>)
 800aee6:	f7fd fe59 	bl	8008b9c <syslog>
  const ShellCommand *scp = scfg->sc_commands;
 800aeea:	e9d9 7301 	ldrd	r7, r3, [r9, #4]
 800aeee:	9303      	str	r3, [sp, #12]
  *(scfg->sc_histbuf) = 0;
 800aef0:	f8d9 300c 	ldr.w	r3, [r9, #12]
  chprintf(chp, SHELL_NEWLINE_STR);
 800aef4:	4638      	mov	r0, r7
  *(scfg->sc_histbuf) = 0;
 800aef6:	701c      	strb	r4, [r3, #0]
  ShellHistory hist = {
 800aef8:	f8d9 300c 	ldr.w	r3, [r9, #12]
  chprintf(chp, SHELL_NEWLINE_STR);
 800aefc:	49b2      	ldr	r1, [pc, #712]	; (800b1c8 <shellStartThread+0x2f8>)
  ShellHistory hist = {
 800aefe:	9309      	str	r3, [sp, #36]	; 0x24
 800af00:	f8d9 3010 	ldr.w	r3, [r9, #16]
    }
    if (c == 16) {
      int len = get_history(shp, line, SHELL_HIST_DIR_BK);

      if (len > 0) {
        _shell_reset_cur(chp);
 800af04:	f8df b2e8 	ldr.w	fp, [pc, #744]	; 800b1f0 <shellStartThread+0x320>
  ShellHistory hist = {
 800af08:	e9cd 340a 	strd	r3, r4, [sp, #40]	; 0x28
 800af0c:	e9cd 440c 	strd	r4, r4, [sp, #48]	; 0x30
  chprintf(chp, SHELL_NEWLINE_STR);
 800af10:	f7fd fc56 	bl	80087c0 <chprintf>
  bool bracket = false;
 800af14:	9404      	str	r4, [sp, #16]
 800af16:	f04f 0800 	mov.w	r8, #0
  char *p = line;
 800af1a:	ad14      	add	r5, sp, #80	; 0x50
  bool escape = false;
 800af1c:	46c2      	mov	sl, r8
 800af1e:	462e      	mov	r6, r5
    chprintf(chp, SHELL_PROMPT_STR);
 800af20:	4638      	mov	r0, r7
 800af22:	49aa      	ldr	r1, [pc, #680]	; (800b1cc <shellStartThread+0x2fc>)
 800af24:	f7fd fc4c 	bl	80087c0 <chprintf>
  BaseSequentialStream *chp = scfg->sc_channel;
 800af28:	f8d9 4004 	ldr.w	r4, [r9, #4]
    if (streamRead(chp, (uint8_t *)&c, 1) == 0)
 800af2c:	6823      	ldr	r3, [r4, #0]
 800af2e:	2201      	movs	r2, #1
 800af30:	4620      	mov	r0, r4
 800af32:	685b      	ldr	r3, [r3, #4]
 800af34:	f10d 011f 	add.w	r1, sp, #31
 800af38:	4798      	blx	r3
 800af3a:	2800      	cmp	r0, #0
 800af3c:	d041      	beq.n	800afc2 <shellStartThread+0xf2>
    if (c == 27) {
 800af3e:	f89d 101f 	ldrb.w	r1, [sp, #31]
 800af42:	291b      	cmp	r1, #27
 800af44:	f000 812a 	beq.w	800b19c <shellStartThread+0x2cc>
    if (escape) {
 800af48:	f1ba 0f00 	cmp.w	sl, #0
 800af4c:	d033      	beq.n	800afb6 <shellStartThread+0xe6>
      if (c == '[') {
 800af4e:	295b      	cmp	r1, #91	; 0x5b
 800af50:	f000 8127 	beq.w	800b1a2 <shellStartThread+0x2d2>
      if (bracket) {
 800af54:	f1b8 0f00 	cmp.w	r8, #0
 800af58:	d02b      	beq.n	800afb2 <shellStartThread+0xe2>
        if (c == 'A') {
 800af5a:	2941      	cmp	r1, #65	; 0x41
 800af5c:	d119      	bne.n	800af92 <shellStartThread+0xc2>
          int len = get_history(shp, line, SHELL_HIST_DIR_BK);
 800af5e:	2200      	movs	r2, #0
 800af60:	4631      	mov	r1, r6
 800af62:	a809      	add	r0, sp, #36	; 0x24
 800af64:	f7fd fb64 	bl	8008630 <get_history>
          if (len > 0) {
 800af68:	f1b0 0800 	subs.w	r8, r0, #0
 800af6c:	dd1f      	ble.n	800afae <shellStartThread+0xde>
            _shell_reset_cur(chp);
 800af6e:	2308      	movs	r3, #8
 800af70:	224a      	movs	r2, #74	; 0x4a
 800af72:	4659      	mov	r1, fp
 800af74:	4620      	mov	r0, r4
 800af76:	f7fd fc23 	bl	80087c0 <chprintf>
            _shell_clr_line(chp);
 800af7a:	4995      	ldr	r1, [pc, #596]	; (800b1d0 <shellStartThread+0x300>)
 800af7c:	4620      	mov	r0, r4
 800af7e:	f7fd fc1f 	bl	80087c0 <chprintf>
            chprintf(chp, "%s", line);
 800af82:	4632      	mov	r2, r6
 800af84:	4620      	mov	r0, r4
 800af86:	4993      	ldr	r1, [pc, #588]	; (800b1d4 <shellStartThread+0x304>)
 800af88:	f7fd fc1a 	bl	80087c0 <chprintf>
            p = line + len;
 800af8c:	eb06 0508 	add.w	r5, r6, r8
 800af90:	e00d      	b.n	800afae <shellStartThread+0xde>
        if (c == 'B') {
 800af92:	2942      	cmp	r1, #66	; 0x42
 800af94:	d10b      	bne.n	800afae <shellStartThread+0xde>
          int len = get_history(shp, line, SHELL_HIST_DIR_FW);
 800af96:	2201      	movs	r2, #1
 800af98:	4631      	mov	r1, r6
 800af9a:	a809      	add	r0, sp, #36	; 0x24
 800af9c:	f7fd fb48 	bl	8008630 <get_history>
          if (len == 0)
 800afa0:	f1b0 0800 	subs.w	r8, r0, #0
 800afa4:	d102      	bne.n	800afac <shellStartThread+0xdc>
            *line = 0;
 800afa6:	f88d 8050 	strb.w	r8, [sp, #80]	; 0x50
 800afaa:	e7e0      	b.n	800af6e <shellStartThread+0x9e>
          if (len >= 0) {
 800afac:	dadf      	bge.n	800af6e <shellStartThread+0x9e>
        bracket = false;
 800afae:	f04f 0800 	mov.w	r8, #0
      escape = false;
 800afb2:	46c2      	mov	sl, r8
 800afb4:	e7ba      	b.n	800af2c <shellStartThread+0x5c>
    if (c == 4) {
 800afb6:	2904      	cmp	r1, #4
 800afb8:	d116      	bne.n	800afe8 <shellStartThread+0x118>
      chprintf(chp, "^D");
 800afba:	4620      	mov	r0, r4
 800afbc:	4986      	ldr	r1, [pc, #536]	; (800b1d8 <shellStartThread+0x308>)
 800afbe:	f7fd fbff 	bl	80087c0 <chprintf>
      chprintf(chp, SHELL_NEWLINE_STR);
 800afc2:	4638      	mov	r0, r7
 800afc4:	4980      	ldr	r1, [pc, #512]	; (800b1c8 <shellStartThread+0x2f8>)
 800afc6:	f7fd fbfb 	bl	80087c0 <chprintf>
      chprintf(chp, "logout");
 800afca:	4984      	ldr	r1, [pc, #528]	; (800b1dc <shellStartThread+0x30c>)
 800afcc:	4638      	mov	r0, r7
 800afce:	f7fd fbf7 	bl	80087c0 <chprintf>
  chSysLock();
 800afd2:	f7f9 f907 	bl	80041e4 <vPortEnterCritical>
    osalEventBroadcastFlagsI(event_source, 1);
 800afd6:	2101      	movs	r1, #1
 800afd8:	4881      	ldr	r0, [pc, #516]	; (800b1e0 <shellStartThread+0x310>)
 800afda:	f7f9 fa94 	bl	8004506 <osalEventBroadcastFlagsI>
    vTaskDelete(NULL);
 800afde:	f7fa f8b3 	bl	8005148 <vTaskDelete.constprop.0>
}
 800afe2:	b025      	add	sp, #148	; 0x94
 800afe4:	e8bd 8ff0 	ldmia.w	sp!, {r4, r5, r6, r7, r8, r9, sl, fp, pc}
    if ((c == 8) || (c == 127)) {
 800afe8:	2908      	cmp	r1, #8
 800afea:	d001      	beq.n	800aff0 <shellStartThread+0x120>
 800afec:	297f      	cmp	r1, #127	; 0x7f
 800afee:	d112      	bne.n	800b016 <shellStartThread+0x146>
      if (p != line) {
 800aff0:	42b5      	cmp	r5, r6
 800aff2:	d09b      	beq.n	800af2c <shellStartThread+0x5c>
        streamPut(chp, 0x08);
 800aff4:	6823      	ldr	r3, [r4, #0]
 800aff6:	2108      	movs	r1, #8
 800aff8:	689b      	ldr	r3, [r3, #8]
 800affa:	4620      	mov	r0, r4
 800affc:	4798      	blx	r3
        streamPut(chp, 0x20);
 800affe:	6823      	ldr	r3, [r4, #0]
 800b000:	2120      	movs	r1, #32
 800b002:	689b      	ldr	r3, [r3, #8]
 800b004:	4620      	mov	r0, r4
 800b006:	4798      	blx	r3
        streamPut(chp, 0x08);
 800b008:	6823      	ldr	r3, [r4, #0]
 800b00a:	2108      	movs	r1, #8
 800b00c:	4620      	mov	r0, r4
 800b00e:	689b      	ldr	r3, [r3, #8]
 800b010:	4798      	blx	r3
        p--;
 800b012:	3d01      	subs	r5, #1
 800b014:	e78a      	b.n	800af2c <shellStartThread+0x5c>
    if (c == '\r') {
 800b016:	290d      	cmp	r1, #13
 800b018:	f040 8081 	bne.w	800b11e <shellStartThread+0x24e>
      chprintf(chp, SHELL_NEWLINE_STR);
 800b01c:	4620      	mov	r0, r4
 800b01e:	496a      	ldr	r1, [pc, #424]	; (800b1c8 <shellStartThread+0x2f8>)
 800b020:	f7fd fbce 	bl	80087c0 <chprintf>
  if (length > shp->sh_size - 2)
 800b024:	990a      	ldr	r1, [sp, #40]	; 0x28
      save_history(shp, line, p - line);
 800b026:	1bac      	subs	r4, r5, r6
  if (length > shp->sh_size - 2)
 800b028:	1e4b      	subs	r3, r1, #1
 800b02a:	429c      	cmp	r4, r3
 800b02c:	da06      	bge.n	800b03c <shellStartThread+0x16c>
 800b02e:	462b      	mov	r3, r5
  while ((*(line + length -1) == ' ') && (length > 0))
 800b030:	f813 2d01 	ldrb.w	r2, [r3, #-1]!
 800b034:	2a20      	cmp	r2, #32
 800b036:	d12d      	bne.n	800b094 <shellStartThread+0x1c4>
 800b038:	2c00      	cmp	r4, #0
 800b03a:	dc29      	bgt.n	800b090 <shellStartThread+0x1c0>
      *p = 0;
 800b03c:	9b04      	ldr	r3, [sp, #16]
    lp = parse_arguments(line, &tokp);
 800b03e:	4630      	mov	r0, r6
      *p = 0;
 800b040:	702b      	strb	r3, [r5, #0]
    lp = parse_arguments(line, &tokp);
 800b042:	a908      	add	r1, sp, #32
 800b044:	f7ff ff1e 	bl	800ae84 <parse_arguments>
 800b048:	f10d 0838 	add.w	r8, sp, #56	; 0x38
 800b04c:	4604      	mov	r4, r0
    n = 0;
 800b04e:	2600      	movs	r6, #0
 800b050:	4645      	mov	r5, r8
    while ((lp = parse_arguments(NULL, &tokp)) != NULL) {
 800b052:	2000      	movs	r0, #0
 800b054:	a908      	add	r1, sp, #32
 800b056:	f7ff ff15 	bl	800ae84 <parse_arguments>
 800b05a:	2800      	cmp	r0, #0
 800b05c:	f040 80a3 	bne.w	800b1a6 <shellStartThread+0x2d6>
    args[n] = NULL;
 800b060:	ab24      	add	r3, sp, #144	; 0x90
 800b062:	eb03 0386 	add.w	r3, r3, r6, lsl #2
 800b066:	f843 0c58 	str.w	r0, [r3, #-88]
    if (cmd != NULL) {
 800b06a:	2c00      	cmp	r4, #0
 800b06c:	f43f af53 	beq.w	800af16 <shellStartThread+0x46>
      if (strcmp(cmd, "help") == 0) {
 800b070:	4620      	mov	r0, r4
 800b072:	495c      	ldr	r1, [pc, #368]	; (800b1e4 <shellStartThread+0x314>)
 800b074:	f7f8 fe50 	bl	8003d18 <strcmp>
 800b078:	2800      	cmp	r0, #0
 800b07a:	f040 80dc 	bne.w	800b236 <shellStartThread+0x366>
        if (n > 0) {
 800b07e:	2e00      	cmp	r6, #0
 800b080:	f000 80b8 	beq.w	800b1f4 <shellStartThread+0x324>
          shellUsage(chp, "help");
 800b084:	4638      	mov	r0, r7
 800b086:	4a57      	ldr	r2, [pc, #348]	; (800b1e4 <shellStartThread+0x314>)
 800b088:	4957      	ldr	r1, [pc, #348]	; (800b1e8 <shellStartThread+0x318>)
 800b08a:	f7fd fb99 	bl	80087c0 <chprintf>
          continue;
 800b08e:	e742      	b.n	800af16 <shellStartThread+0x46>
    length--;
 800b090:	3c01      	subs	r4, #1
 800b092:	e7cd      	b.n	800b030 <shellStartThread+0x160>
  if (length <= 0)
 800b094:	2c00      	cmp	r4, #0
 800b096:	ddd1      	ble.n	800b03c <shellStartThread+0x16c>
  if (shp->sh_end >= shp->sh_beg) {
 800b098:	9a0c      	ldr	r2, [sp, #48]	; 0x30
  int pos = shp->sh_beg + *(shp->sh_buffer + shp->sh_beg) + 1;
 800b09a:	9809      	ldr	r0, [sp, #36]	; 0x24
  if (shp->sh_end >= shp->sh_beg) {
 800b09c:	f8dd c02c 	ldr.w	ip, [sp, #44]	; 0x2c
 800b0a0:	4562      	cmp	r2, ip
    if (length < (shp->sh_size - (shp->sh_end - shp->sh_beg + 1)))
 800b0a2:	bfa5      	ittet	ge
 800b0a4:	eba2 030c 	subge.w	r3, r2, ip
 800b0a8:	3301      	addge	r3, #1
    if (length < (shp->sh_beg - shp->sh_end - 1))
 800b0aa:	ebac 0302 	sublt.w	r3, ip, r2
    if (length < (shp->sh_size - (shp->sh_end - shp->sh_beg + 1)))
 800b0ae:	1acb      	subge	r3, r1, r3
    if (length < (shp->sh_beg - shp->sh_end - 1))
 800b0b0:	bfb8      	it	lt
 800b0b2:	f103 33ff 	addlt.w	r3, r3, #4294967295	; 0xffffffff
 800b0b6:	429c      	cmp	r4, r3
 800b0b8:	da1e      	bge.n	800b0f8 <shellStartThread+0x228>
  if (length < shp->sh_size - shp->sh_end - 1)
 800b0ba:	eba1 0802 	sub.w	r8, r1, r2
 800b0be:	f108 38ff 	add.w	r8, r8, #4294967295	; 0xffffffff
 800b0c2:	3201      	adds	r2, #1
 800b0c4:	4544      	cmp	r4, r8
 800b0c6:	4410      	add	r0, r2
 800b0c8:	da1f      	bge.n	800b10a <shellStartThread+0x23a>
    memcpy(shp->sh_buffer + shp->sh_end + 1, line, length);
 800b0ca:	4622      	mov	r2, r4
 800b0cc:	4631      	mov	r1, r6
    memcpy(shp->sh_buffer, line + part_len, length - part_len);
 800b0ce:	f7f8 fcf9 	bl	8003ac4 <memcpy>
  *(shp->sh_buffer + shp->sh_end) = (char)length;
 800b0d2:	9b0c      	ldr	r3, [sp, #48]	; 0x30
 800b0d4:	9a09      	ldr	r2, [sp, #36]	; 0x24
  *(shp->sh_buffer + shp->sh_end) = 0;
 800b0d6:	9904      	ldr	r1, [sp, #16]
  *(shp->sh_buffer + shp->sh_end) = (char)length;
 800b0d8:	54d4      	strb	r4, [r2, r3]
  shp->sh_end += length + 1;
 800b0da:	9b0c      	ldr	r3, [sp, #48]	; 0x30
 800b0dc:	3401      	adds	r4, #1
 800b0de:	441c      	add	r4, r3
  if (shp->sh_end >= shp->sh_size)
 800b0e0:	9b0a      	ldr	r3, [sp, #40]	; 0x28
  shp->sh_end += length + 1;
 800b0e2:	940c      	str	r4, [sp, #48]	; 0x30
  if (shp->sh_end >= shp->sh_size)
 800b0e4:	429c      	cmp	r4, r3
    shp->sh_end -= shp->sh_size;
 800b0e6:	bfa4      	itt	ge
 800b0e8:	1ae4      	subge	r4, r4, r3
 800b0ea:	940c      	strge	r4, [sp, #48]	; 0x30
  *(shp->sh_buffer + shp->sh_end) = 0;
 800b0ec:	9b0c      	ldr	r3, [sp, #48]	; 0x30
 800b0ee:	9a09      	ldr	r2, [sp, #36]	; 0x24
 800b0f0:	54d1      	strb	r1, [r2, r3]
  shp->sh_cur = 0;
 800b0f2:	2300      	movs	r3, #0
 800b0f4:	930d      	str	r3, [sp, #52]	; 0x34
 800b0f6:	e7a1      	b.n	800b03c <shellStartThread+0x16c>
  int pos = shp->sh_beg + *(shp->sh_buffer + shp->sh_beg) + 1;
 800b0f8:	f810 300c 	ldrb.w	r3, [r0, ip]
 800b0fc:	4463      	add	r3, ip
 800b0fe:	3301      	adds	r3, #1
  if (pos >= shp->sh_size)
 800b100:	4299      	cmp	r1, r3
    pos -= shp->sh_size;
 800b102:	bfd8      	it	le
 800b104:	1a5b      	suble	r3, r3, r1
  shp->sh_beg = pos;
 800b106:	930b      	str	r3, [sp, #44]	; 0x2c
 800b108:	e7c8      	b.n	800b09c <shellStartThread+0x1cc>
    memcpy(shp->sh_buffer + shp->sh_end + 1, line, part_len);
 800b10a:	4642      	mov	r2, r8
 800b10c:	4631      	mov	r1, r6
 800b10e:	f7f8 fcd9 	bl	8003ac4 <memcpy>
    memcpy(shp->sh_buffer, line + part_len, length - part_len);
 800b112:	9809      	ldr	r0, [sp, #36]	; 0x24
 800b114:	eba4 0208 	sub.w	r2, r4, r8
 800b118:	eb06 0108 	add.w	r1, r6, r8
 800b11c:	e7d7      	b.n	800b0ce <shellStartThread+0x1fe>
    if (c == 14) {
 800b11e:	290e      	cmp	r1, #14
 800b120:	d11f      	bne.n	800b162 <shellStartThread+0x292>
      int len = get_history(shp, line, SHELL_HIST_DIR_FW);
 800b122:	2201      	movs	r2, #1
 800b124:	4631      	mov	r1, r6
 800b126:	a809      	add	r0, sp, #36	; 0x24
 800b128:	f7fd fa82 	bl	8008630 <get_history>
      if (len == 0)
 800b12c:	1e03      	subs	r3, r0, #0
 800b12e:	9305      	str	r3, [sp, #20]
 800b130:	d114      	bne.n	800b15c <shellStartThread+0x28c>
        *line = 0;
 800b132:	f88d a050 	strb.w	sl, [sp, #80]	; 0x50
        _shell_reset_cur(chp);
 800b136:	2308      	movs	r3, #8
 800b138:	224a      	movs	r2, #74	; 0x4a
 800b13a:	4659      	mov	r1, fp
 800b13c:	4620      	mov	r0, r4
 800b13e:	f7fd fb3f 	bl	80087c0 <chprintf>
        _shell_clr_line(chp);
 800b142:	4923      	ldr	r1, [pc, #140]	; (800b1d0 <shellStartThread+0x300>)
 800b144:	4620      	mov	r0, r4
 800b146:	f7fd fb3b 	bl	80087c0 <chprintf>
        chprintf(chp, "%s", line);
 800b14a:	4632      	mov	r2, r6
 800b14c:	4620      	mov	r0, r4
 800b14e:	4921      	ldr	r1, [pc, #132]	; (800b1d4 <shellStartThread+0x304>)
 800b150:	f7fd fb36 	bl	80087c0 <chprintf>
        p = line + len;
 800b154:	9b05      	ldr	r3, [sp, #20]
 800b156:	4433      	add	r3, r6
 800b158:	461d      	mov	r5, r3
 800b15a:	e6e7      	b.n	800af2c <shellStartThread+0x5c>
      if (len >= 0) {
 800b15c:	f6ff aee6 	blt.w	800af2c <shellStartThread+0x5c>
 800b160:	e7e9      	b.n	800b136 <shellStartThread+0x266>
    if (c == 16) {
 800b162:	2910      	cmp	r1, #16
 800b164:	d109      	bne.n	800b17a <shellStartThread+0x2aa>
      int len = get_history(shp, line, SHELL_HIST_DIR_BK);
 800b166:	4652      	mov	r2, sl
 800b168:	4631      	mov	r1, r6
 800b16a:	a809      	add	r0, sp, #36	; 0x24
 800b16c:	f7fd fa60 	bl	8008630 <get_history>
      if (len > 0) {
 800b170:	1e03      	subs	r3, r0, #0
 800b172:	9305      	str	r3, [sp, #20]
 800b174:	f77f aeda 	ble.w	800af2c <shellStartThread+0x5c>
 800b178:	e7dd      	b.n	800b136 <shellStartThread+0x266>
      }
      continue;
    }
#endif
    if (c < 0x20)
 800b17a:	291f      	cmp	r1, #31
 800b17c:	f67f aed6 	bls.w	800af2c <shellStartThread+0x5c>
      continue;
    if (p < line + size - 1) {
 800b180:	f10d 038f 	add.w	r3, sp, #143	; 0x8f
 800b184:	429d      	cmp	r5, r3
 800b186:	f4bf aed1 	bcs.w	800af2c <shellStartThread+0x5c>
      streamPut(chp, c);
 800b18a:	6823      	ldr	r3, [r4, #0]
 800b18c:	4620      	mov	r0, r4
 800b18e:	689b      	ldr	r3, [r3, #8]
 800b190:	4798      	blx	r3
      *p++ = (char)c;
 800b192:	f89d 301f 	ldrb.w	r3, [sp, #31]
 800b196:	f805 3b01 	strb.w	r3, [r5], #1
 800b19a:	e6c7      	b.n	800af2c <shellStartThread+0x5c>
      escape = true;
 800b19c:	f04f 0a01 	mov.w	sl, #1
 800b1a0:	e6c4      	b.n	800af2c <shellStartThread+0x5c>
        bracket = true;
 800b1a2:	46d0      	mov	r8, sl
 800b1a4:	e6c2      	b.n	800af2c <shellStartThread+0x5c>
      if (n >= SHELL_MAX_ARGUMENTS) {
 800b1a6:	2e05      	cmp	r6, #5
 800b1a8:	d106      	bne.n	800b1b8 <shellStartThread+0x2e8>
        chprintf(chp, "too many arguments"SHELL_NEWLINE_STR);
 800b1aa:	4638      	mov	r0, r7
 800b1ac:	490f      	ldr	r1, [pc, #60]	; (800b1ec <shellStartThread+0x31c>)
 800b1ae:	f7fd fb07 	bl	80087c0 <chprintf>
    args[n] = NULL;
 800b1b2:	2300      	movs	r3, #0
 800b1b4:	9313      	str	r3, [sp, #76]	; 0x4c
    if (cmd != NULL) {
 800b1b6:	e6ae      	b.n	800af16 <shellStartThread+0x46>
      args[n++] = lp;
 800b1b8:	3601      	adds	r6, #1
 800b1ba:	f848 0b04 	str.w	r0, [r8], #4
 800b1be:	e748      	b.n	800b052 <shellStartThread+0x182>
 800b1c0:	200011a8 	.word	0x200011a8
 800b1c4:	0800c516 	.word	0x0800c516
 800b1c8:	0800c115 	.word	0x0800c115
 800b1cc:	0800c531 	.word	0x0800c531
 800b1d0:	0800c545 	.word	0x0800c545
 800b1d4:	0800bb9b 	.word	0x0800bb9b
 800b1d8:	0800c549 	.word	0x0800c549
 800b1dc:	0800c54c 	.word	0x0800c54c
 800b1e0:	200012b8 	.word	0x200012b8
 800b1e4:	0800c568 	.word	0x0800c568
 800b1e8:	0800c336 	.word	0x0800c336
 800b1ec:	0800c553 	.word	0x0800c553
 800b1f0:	0800c53a 	.word	0x0800c53a
        chprintf(chp, "Commands: help ");
 800b1f4:	4638      	mov	r0, r7
 800b1f6:	491e      	ldr	r1, [pc, #120]	; (800b270 <shellStartThread+0x3a0>)
 800b1f8:	f7fd fae2 	bl	80087c0 <chprintf>
 800b1fc:	4c1d      	ldr	r4, [pc, #116]	; (800b274 <shellStartThread+0x3a4>)
    chprintf(chp, "%s ", scp->sc_name);
 800b1fe:	4d1e      	ldr	r5, [pc, #120]	; (800b278 <shellStartThread+0x3a8>)
  while (scp->sc_name != NULL) {
 800b200:	6822      	ldr	r2, [r4, #0]
 800b202:	b96a      	cbnz	r2, 800b220 <shellStartThread+0x350>
        if (scp != NULL)
 800b204:	9b03      	ldr	r3, [sp, #12]
 800b206:	b133      	cbz	r3, 800b216 <shellStartThread+0x346>
    chprintf(chp, "%s ", scp->sc_name);
 800b208:	4d1b      	ldr	r5, [pc, #108]	; (800b278 <shellStartThread+0x3a8>)
 800b20a:	f103 040c 	add.w	r4, r3, #12
  while (scp->sc_name != NULL) {
 800b20e:	f854 2c0c 	ldr.w	r2, [r4, #-12]
 800b212:	340c      	adds	r4, #12
 800b214:	b952      	cbnz	r2, 800b22c <shellStartThread+0x35c>
        chprintf(chp, SHELL_NEWLINE_STR);
 800b216:	4919      	ldr	r1, [pc, #100]	; (800b27c <shellStartThread+0x3ac>)
        chprintf(chp, " ?"SHELL_NEWLINE_STR);
 800b218:	4638      	mov	r0, r7
 800b21a:	f7fd fad1 	bl	80087c0 <chprintf>
 800b21e:	e67a      	b.n	800af16 <shellStartThread+0x46>
    chprintf(chp, "%s ", scp->sc_name);
 800b220:	4629      	mov	r1, r5
 800b222:	4638      	mov	r0, r7
 800b224:	f7fd facc 	bl	80087c0 <chprintf>
    scp++;
 800b228:	340c      	adds	r4, #12
 800b22a:	e7e9      	b.n	800b200 <shellStartThread+0x330>
    chprintf(chp, "%s ", scp->sc_name);
 800b22c:	4629      	mov	r1, r5
 800b22e:	4638      	mov	r0, r7
 800b230:	f7fd fac6 	bl	80087c0 <chprintf>
    scp++;
 800b234:	e7eb      	b.n	800b20e <shellStartThread+0x33e>
      else if (cmdexec(shell_local_commands, chp, cmd, n, args) &&
 800b236:	4633      	mov	r3, r6
 800b238:	4622      	mov	r2, r4
 800b23a:	4639      	mov	r1, r7
 800b23c:	480d      	ldr	r0, [pc, #52]	; (800b274 <shellStartThread+0x3a4>)
 800b23e:	9500      	str	r5, [sp, #0]
 800b240:	f7fd fa80 	bl	8008744 <cmdexec>
 800b244:	2800      	cmp	r0, #0
 800b246:	f43f ae66 	beq.w	800af16 <shellStartThread+0x46>
 800b24a:	9b03      	ldr	r3, [sp, #12]
 800b24c:	b933      	cbnz	r3, 800b25c <shellStartThread+0x38c>
        chprintf(chp, "%s", cmd);
 800b24e:	490c      	ldr	r1, [pc, #48]	; (800b280 <shellStartThread+0x3b0>)
 800b250:	4622      	mov	r2, r4
 800b252:	4638      	mov	r0, r7
 800b254:	f7fd fab4 	bl	80087c0 <chprintf>
        chprintf(chp, " ?"SHELL_NEWLINE_STR);
 800b258:	490a      	ldr	r1, [pc, #40]	; (800b284 <shellStartThread+0x3b4>)
 800b25a:	e7dd      	b.n	800b218 <shellStartThread+0x348>
          ((scp == NULL) || cmdexec(scp, chp, cmd, n, args))) {
 800b25c:	4633      	mov	r3, r6
 800b25e:	4622      	mov	r2, r4
 800b260:	4639      	mov	r1, r7
 800b262:	9803      	ldr	r0, [sp, #12]
 800b264:	9500      	str	r5, [sp, #0]
 800b266:	f7fd fa6d 	bl	8008744 <cmdexec>
 800b26a:	2800      	cmp	r0, #0
 800b26c:	d1ef      	bne.n	800b24e <shellStartThread+0x37e>
 800b26e:	e652      	b.n	800af16 <shellStartThread+0x46>
 800b270:	0800c56d 	.word	0x0800c56d
 800b274:	0800c9a0 	.word	0x0800c9a0
 800b278:	0800c57d 	.word	0x0800c57d
 800b27c:	0800c115 	.word	0x0800c115
 800b280:	0800bb9b 	.word	0x0800bb9b
 800b284:	0800c581 	.word	0x0800c581

0800b288 <vTaskSwitchContext>:
 800b288:	4b1e      	ldr	r3, [pc, #120]	; (800b304 <vTaskSwitchContext+0x7c>)
 800b28a:	b530      	push	{r4, r5, lr}
 800b28c:	681a      	ldr	r2, [r3, #0]
 800b28e:	4b1e      	ldr	r3, [pc, #120]	; (800b308 <vTaskSwitchContext+0x80>)
 800b290:	b112      	cbz	r2, 800b298 <vTaskSwitchContext+0x10>
 800b292:	2201      	movs	r2, #1
 800b294:	601a      	str	r2, [r3, #0]
 800b296:	bd30      	pop	{r4, r5, pc}
 800b298:	491c      	ldr	r1, [pc, #112]	; (800b30c <vTaskSwitchContext+0x84>)
 800b29a:	601a      	str	r2, [r3, #0]
 800b29c:	680b      	ldr	r3, [r1, #0]
 800b29e:	6b1b      	ldr	r3, [r3, #48]	; 0x30
 800b2a0:	681a      	ldr	r2, [r3, #0]
 800b2a2:	f1b2 3fa5 	cmp.w	r2, #2779096485	; 0xa5a5a5a5
 800b2a6:	d10b      	bne.n	800b2c0 <vTaskSwitchContext+0x38>
 800b2a8:	685a      	ldr	r2, [r3, #4]
 800b2aa:	f1b2 3fa5 	cmp.w	r2, #2779096485	; 0xa5a5a5a5
 800b2ae:	d107      	bne.n	800b2c0 <vTaskSwitchContext+0x38>
 800b2b0:	689a      	ldr	r2, [r3, #8]
 800b2b2:	f1b2 3fa5 	cmp.w	r2, #2779096485	; 0xa5a5a5a5
 800b2b6:	d103      	bne.n	800b2c0 <vTaskSwitchContext+0x38>
 800b2b8:	68db      	ldr	r3, [r3, #12]
 800b2ba:	f1b3 3fa5 	cmp.w	r3, #2779096485	; 0xa5a5a5a5
 800b2be:	d002      	beq.n	800b2c6 <vTaskSwitchContext+0x3e>
 800b2c0:	680b      	ldr	r3, [r1, #0]
 800b2c2:	680b      	ldr	r3, [r1, #0]
 800b2c4:	e7fe      	b.n	800b2c4 <vTaskSwitchContext+0x3c>
 800b2c6:	4b12      	ldr	r3, [pc, #72]	; (800b310 <vTaskSwitchContext+0x88>)
 800b2c8:	681b      	ldr	r3, [r3, #0]
 800b2ca:	fab3 f383 	clz	r3, r3
 800b2ce:	2214      	movs	r2, #20
 800b2d0:	b2db      	uxtb	r3, r3
 800b2d2:	f1c3 031f 	rsb	r3, r3, #31
 800b2d6:	435a      	muls	r2, r3
 800b2d8:	480e      	ldr	r0, [pc, #56]	; (800b314 <vTaskSwitchContext+0x8c>)
 800b2da:	5885      	ldr	r5, [r0, r2]
 800b2dc:	1884      	adds	r4, r0, r2
 800b2de:	b905      	cbnz	r5, 800b2e2 <vTaskSwitchContext+0x5a>
 800b2e0:	e7fe      	b.n	800b2e0 <vTaskSwitchContext+0x58>
 800b2e2:	6865      	ldr	r5, [r4, #4]
 800b2e4:	3208      	adds	r2, #8
 800b2e6:	686d      	ldr	r5, [r5, #4]
 800b2e8:	4402      	add	r2, r0
 800b2ea:	4295      	cmp	r5, r2
 800b2ec:	bf08      	it	eq
 800b2ee:	686a      	ldreq	r2, [r5, #4]
 800b2f0:	6065      	str	r5, [r4, #4]
 800b2f2:	bf08      	it	eq
 800b2f4:	6062      	streq	r2, [r4, #4]
 800b2f6:	2214      	movs	r2, #20
 800b2f8:	fb02 0303 	mla	r3, r2, r3, r0
 800b2fc:	685b      	ldr	r3, [r3, #4]
 800b2fe:	68db      	ldr	r3, [r3, #12]
 800b300:	600b      	str	r3, [r1, #0]
 800b302:	e7c8      	b.n	800b296 <vTaskSwitchContext+0xe>
 800b304:	2000136c 	.word	0x2000136c
 800b308:	2000164c 	.word	0x2000164c
 800b30c:	200011a8 	.word	0x200011a8
 800b310:	20001374 	.word	0x20001374
 800b314:	200011b8 	.word	0x200011b8

0800b318 <mixLedTask>:
{
 800b318:	4605      	mov	r5, r0
 800b31a:	b580      	push	{r7, lr}
 800b31c:	4e41      	ldr	r6, [pc, #260]	; (800b424 <mixLedTask+0x10c>)
 800b31e:	4f42      	ldr	r7, [pc, #264]	; (800b428 <mixLedTask+0x110>)
        gpioSetPin(GPIO_LED_MIX, true);
 800b320:	2101      	movs	r1, #1
 800b322:	f240 1005 	movw	r0, #261	; 0x105
 800b326:	f7fa f951 	bl	80055cc <gpioSetPin>
        if(!*delay) {
 800b32a:	682b      	ldr	r3, [r5, #0]
 800b32c:	2b00      	cmp	r3, #0
 800b32e:	d15d      	bne.n	800b3ec <mixLedTask+0xd4>
 800b330:	f7f8 ff58 	bl	80041e4 <vPortEnterCritical>
 800b334:	683c      	ldr	r4, [r7, #0]
 800b336:	f104 0804 	add.w	r8, r4, #4
 800b33a:	4640      	mov	r0, r8
 800b33c:	f7f9 f858 	bl	80043f0 <uxListRemove>
 800b340:	b978      	cbnz	r0, 800b362 <mixLedTask+0x4a>
 800b342:	2014      	movs	r0, #20
 800b344:	f8d4 c02c 	ldr.w	ip, [r4, #44]	; 0x2c
 800b348:	4b38      	ldr	r3, [pc, #224]	; (800b42c <mixLedTask+0x114>)
 800b34a:	fb00 f00c 	mul.w	r0, r0, ip
 800b34e:	581b      	ldr	r3, [r3, r0]
 800b350:	b93b      	cbnz	r3, 800b362 <mixLedTask+0x4a>
 800b352:	2201      	movs	r2, #1
 800b354:	4936      	ldr	r1, [pc, #216]	; (800b430 <mixLedTask+0x118>)
 800b356:	fa02 f20c 	lsl.w	r2, r2, ip
 800b35a:	680b      	ldr	r3, [r1, #0]
 800b35c:	ea23 0302 	bic.w	r3, r3, r2
 800b360:	600b      	str	r3, [r1, #0]
 800b362:	6aa3      	ldr	r3, [r4, #40]	; 0x28
 800b364:	b11b      	cbz	r3, 800b36e <mixLedTask+0x56>
 800b366:	f104 0018 	add.w	r0, r4, #24
 800b36a:	f7f9 f841 	bl	80043f0 <uxListRemove>
 800b36e:	4831      	ldr	r0, [pc, #196]	; (800b434 <mixLedTask+0x11c>)
 800b370:	4641      	mov	r1, r8
 800b372:	f7f9 f864 	bl	800443e <vListInsertEnd>
 800b376:	f894 3064 	ldrb.w	r3, [r4, #100]	; 0x64
 800b37a:	2b01      	cmp	r3, #1
 800b37c:	bf04      	itt	eq
 800b37e:	2300      	moveq	r3, #0
 800b380:	f884 3064 	strbeq.w	r3, [r4, #100]	; 0x64
 800b384:	f7f8 ff22 	bl	80041cc <vPortExitCritical>
 800b388:	482b      	ldr	r0, [pc, #172]	; (800b438 <mixLedTask+0x120>)
 800b38a:	6803      	ldr	r3, [r0, #0]
 800b38c:	b12b      	cbz	r3, 800b39a <mixLedTask+0x82>
 800b38e:	f7f8 ff29 	bl	80041e4 <vPortEnterCritical>
 800b392:	f7f8 ff73 	bl	800427c <prvResetNextTaskUnblockTime>
 800b396:	f7f8 ff19 	bl	80041cc <vPortExitCritical>
 800b39a:	683b      	ldr	r3, [r7, #0]
 800b39c:	429c      	cmp	r4, r3
 800b39e:	d1bf      	bne.n	800b320 <mixLedTask+0x8>
 800b3a0:	6803      	ldr	r3, [r0, #0]
 800b3a2:	b1c3      	cbz	r3, 800b3d6 <mixLedTask+0xbe>
 800b3a4:	4b25      	ldr	r3, [pc, #148]	; (800b43c <mixLedTask+0x124>)
 800b3a6:	681b      	ldr	r3, [r3, #0]
 800b3a8:	b103      	cbz	r3, 800b3ac <mixLedTask+0x94>
 800b3aa:	e7fe      	b.n	800b3aa <mixLedTask+0x92>
 800b3ac:	4b24      	ldr	r3, [pc, #144]	; (800b440 <mixLedTask+0x128>)
 800b3ae:	6832      	ldr	r2, [r6, #0]
 800b3b0:	601a      	str	r2, [r3, #0]
 800b3b2:	4b24      	ldr	r3, [pc, #144]	; (800b444 <mixLedTask+0x12c>)
 800b3b4:	681b      	ldr	r3, [r3, #0]
 800b3b6:	b12b      	cbz	r3, 800b3c4 <mixLedTask+0xac>
 800b3b8:	6833      	ldr	r3, [r6, #0]
 800b3ba:	f423 037f 	bic.w	r3, r3, #16711680	; 0xff0000
 800b3be:	6033      	str	r3, [r6, #0]
 800b3c0:	6833      	ldr	r3, [r6, #0]
 800b3c2:	6033      	str	r3, [r6, #0]
 800b3c4:	f04f 5280 	mov.w	r2, #268435456	; 0x10000000
 800b3c8:	4b1f      	ldr	r3, [pc, #124]	; (800b448 <mixLedTask+0x130>)
 800b3ca:	601a      	str	r2, [r3, #0]
 800b3cc:	f3bf 8f4f 	dsb	sy
 800b3d0:	f3bf 8f6f 	isb	sy
 800b3d4:	e7a4      	b.n	800b320 <mixLedTask+0x8>
 800b3d6:	4a17      	ldr	r2, [pc, #92]	; (800b434 <mixLedTask+0x11c>)
 800b3d8:	6811      	ldr	r1, [r2, #0]
 800b3da:	4a1c      	ldr	r2, [pc, #112]	; (800b44c <mixLedTask+0x134>)
 800b3dc:	6812      	ldr	r2, [r2, #0]
 800b3de:	4291      	cmp	r1, r2
 800b3e0:	d101      	bne.n	800b3e6 <mixLedTask+0xce>
 800b3e2:	603b      	str	r3, [r7, #0]
 800b3e4:	e79c      	b.n	800b320 <mixLedTask+0x8>
 800b3e6:	f7ff ff4f 	bl	800b288 <vTaskSwitchContext>
 800b3ea:	e799      	b.n	800b320 <mixLedTask+0x8>
        osalThreadSleepMilliseconds(*delay);
 800b3ec:	f44f 747a 	mov.w	r4, #1000	; 0x3e8
 800b3f0:	6828      	ldr	r0, [r5, #0]
 800b3f2:	4360      	muls	r0, r4
 800b3f4:	f200 30e7 	addw	r0, r0, #999	; 0x3e7
 800b3f8:	fbb0 f0f4 	udiv	r0, r0, r4
 800b3fc:	f7f9 fbb4 	bl	8004b68 <vTaskDelay>
        gpioSetPin(GPIO_LED_MIX, false);
 800b400:	2100      	movs	r1, #0
 800b402:	f240 1005 	movw	r0, #261	; 0x105
 800b406:	f7fa f8e1 	bl	80055cc <gpioSetPin>
        if(*delay) {
 800b40a:	682b      	ldr	r3, [r5, #0]
 800b40c:	2b00      	cmp	r3, #0
 800b40e:	d087      	beq.n	800b320 <mixLedTask+0x8>
            osalThreadSleepMilliseconds(*delay);
 800b410:	6828      	ldr	r0, [r5, #0]
 800b412:	4360      	muls	r0, r4
 800b414:	f200 30e7 	addw	r0, r0, #999	; 0x3e7
 800b418:	fbb0 f0f4 	udiv	r0, r0, r4
 800b41c:	f7f9 fba4 	bl	8004b68 <vTaskDelay>
 800b420:	e77e      	b.n	800b320 <mixLedTask+0x8>
 800b422:	bf00      	nop
 800b424:	e000ed20 	.word	0xe000ed20
 800b428:	200011a8 	.word	0x200011a8
 800b42c:	200011b8 	.word	0x200011b8
 800b430:	20001374 	.word	0x20001374
 800b434:	20001620 	.word	0x20001620
 800b438:	20001614 	.word	0x20001614
 800b43c:	2000136c 	.word	0x2000136c
 800b440:	2000134c 	.word	0x2000134c
 800b444:	20001358 	.word	0x20001358
 800b448:	e000ed04 	.word	0xe000ed04
 800b44c:	2000135c 	.word	0x2000135c

0800b450 <main>:
 * @notapi
 */
void hal_lld_init(void) {

  /* Reset of all peripherals.*/
  rccResetAPB1(0xFFFFFFFF);
 800b450:	4baa      	ldr	r3, [pc, #680]	; (800b6fc <main+0x2ac>)
 800b452:	f04f 31ff 	mov.w	r1, #4294967295	; 0xffffffff
 800b456:	691a      	ldr	r2, [r3, #16]
 800b458:	2200      	movs	r2, #0
    _stm32_dma_streams[i].channel->CCR = 0U;
 800b45a:	4614      	mov	r4, r2
/*
 * This main function starts FreeRTOS, we also create one thread that
 * will eventually run main_.
 */
int main(void)
{
 800b45c:	b580      	push	{r7, lr}
 800b45e:	6119      	str	r1, [r3, #16]
 800b460:	611a      	str	r2, [r3, #16]
  rccResetAPB2(0xFFFFFFFF);
 800b462:	68d8      	ldr	r0, [r3, #12]
 800b464:	60d9      	str	r1, [r3, #12]
 800b466:	60da      	str	r2, [r3, #12]

  /* PWR and BD clocks enabled.*/
  rccEnablePWRInterface(FALSE);
 800b468:	69d9      	ldr	r1, [r3, #28]
  PWR->CR |= PWR_CR_DBP;
 800b46a:	48a5      	ldr	r0, [pc, #660]	; (800b700 <main+0x2b0>)
  rccEnablePWRInterface(FALSE);
 800b46c:	f041 5180 	orr.w	r1, r1, #268435456	; 0x10000000
 800b470:	61d9      	str	r1, [r3, #28]
  rccEnableBKPInterface(FALSE);
 800b472:	69d9      	ldr	r1, [r3, #28]
 800b474:	b088      	sub	sp, #32
 800b476:	f041 6100 	orr.w	r1, r1, #134217728	; 0x8000000
 800b47a:	61d9      	str	r1, [r3, #28]
  PWR->CR |= PWR_CR_DBP;
 800b47c:	6801      	ldr	r1, [r0, #0]
 800b47e:	f441 7180 	orr.w	r1, r1, #256	; 0x100
 800b482:	6001      	str	r1, [r0, #0]
  dma_streams_mask = 0U;
 800b484:	499f      	ldr	r1, [pc, #636]	; (800b704 <main+0x2b4>)
    _stm32_dma_isr_redir[i].dma_func = NULL;
 800b486:	48a0      	ldr	r0, [pc, #640]	; (800b708 <main+0x2b8>)
  dma_streams_mask = 0U;
 800b488:	600a      	str	r2, [r1, #0]
  for (i = 0; i < STM32_DMA_STREAMS; i++) {
 800b48a:	49a0      	ldr	r1, [pc, #640]	; (800b70c <main+0x2bc>)
    _stm32_dma_streams[i].channel->CCR = 0U;
 800b48c:	684d      	ldr	r5, [r1, #4]
 800b48e:	3114      	adds	r1, #20
 800b490:	602c      	str	r4, [r5, #0]
    _stm32_dma_isr_redir[i].dma_func = NULL;
 800b492:	f840 4032 	str.w	r4, [r0, r2, lsl #3]
  for (i = 0; i < STM32_DMA_STREAMS; i++) {
 800b496:	3201      	adds	r2, #1
 800b498:	2a07      	cmp	r2, #7
 800b49a:	d1f7      	bne.n	800b48c <main+0x3c>
  DMA1->IFCR = 0xFFFFFFFFU;
 800b49c:	f04f 32ff 	mov.w	r2, #4294967295	; 0xffffffff
 800b4a0:	499b      	ldr	r1, [pc, #620]	; (800b710 <main+0x2c0>)
  i2cp->state  = I2C_STOP;
 800b4a2:	2701      	movs	r7, #1
 800b4a4:	604a      	str	r2, [r1, #4]
  rccEnableAPB2(APB2_EN_MASK, FALSE);
 800b4a6:	6999      	ldr	r1, [r3, #24]
 800b4a8:	4d9a      	ldr	r5, [pc, #616]	; (800b714 <main+0x2c4>)
 800b4aa:	f041 017d 	orr.w	r1, r1, #125	; 0x7d
 800b4ae:	6199      	str	r1, [r3, #24]
  GPIOA->ODR = config->PAData.odr;
 800b4b0:	f46f 1340 	mvn.w	r3, #3145728	; 0x300000
 800b4b4:	4998      	ldr	r1, [pc, #608]	; (800b718 <main+0x2c8>)
    mutex->handle = xSemaphoreCreateMutexStatic(&mutex->staticData);
 800b4b6:	f105 0010 	add.w	r0, r5, #16
 800b4ba:	60cb      	str	r3, [r1, #12]
  GPIOA->CRH = config->PAData.crh;
 800b4bc:	4b97      	ldr	r3, [pc, #604]	; (800b71c <main+0x2cc>)
  I2CD1.dmarx  = STM32_DMA_STREAM(STM32_I2C_I2C1_RX_DMA_STREAM);
 800b4be:	4e98      	ldr	r6, [pc, #608]	; (800b720 <main+0x2d0>)
 800b4c0:	604b      	str	r3, [r1, #4]
  GPIOA->CRL = config->PAData.crl;
 800b4c2:	f04f 3388 	mov.w	r3, #2290649224	; 0x88888888
 800b4c6:	600b      	str	r3, [r1, #0]
  GPIOB->ODR = config->PBData.odr;
 800b4c8:	f8c1 240c 	str.w	r2, [r1, #1036]	; 0x40c
  GPIOB->CRH = config->PBData.crh;
 800b4cc:	f8c1 3404 	str.w	r3, [r1, #1028]	; 0x404
  GPIOB->CRL = config->PBData.crl;
 800b4d0:	f8c1 3400 	str.w	r3, [r1, #1024]	; 0x400
  GPIOC->ODR = config->PCData.odr;
 800b4d4:	f8c1 280c 	str.w	r2, [r1, #2060]	; 0x80c
  GPIOC->CRH = config->PCData.crh;
 800b4d8:	f8c1 3804 	str.w	r3, [r1, #2052]	; 0x804
  GPIOC->CRL = config->PCData.crl;
 800b4dc:	f8c1 3800 	str.w	r3, [r1, #2048]	; 0x800
  GPIOD->ODR = config->PDData.odr;
 800b4e0:	f8c1 2c0c 	str.w	r2, [r1, #3084]	; 0xc0c
  GPIOD->CRH = config->PDData.crh;
 800b4e4:	f8c1 3c04 	str.w	r3, [r1, #3076]	; 0xc04
  GPIOD->CRL = config->PDData.crl;
 800b4e8:	f8c1 3c00 	str.w	r3, [r1, #3072]	; 0xc00
  GPIOB->ODR = config->PBData.odr;
 800b4ec:	f501 6180 	add.w	r1, r1, #1024	; 0x400
  GPIOE->ODR = config->PEData.odr;
 800b4f0:	f8c1 2c0c 	str.w	r2, [r1, #3084]	; 0xc0c
  GPIOE->CRH = config->PEData.crh;
 800b4f4:	f8c1 3c04 	str.w	r3, [r1, #3076]	; 0xc04
  GPIOE->CRL = config->PEData.crl;
 800b4f8:	f8c1 3c00 	str.w	r3, [r1, #3072]	; 0xc00
 800b4fc:	702f      	strb	r7, [r5, #0]
  i2cp->config = NULL;
 800b4fe:	606c      	str	r4, [r5, #4]
 800b500:	f7fc fe7e 	bl	8008200 <xQueueCreateMutexStatic.constprop.0>
  oqp->q_counter = size;
 800b504:	2110      	movs	r1, #16
  I2CD1.i2c    = I2C1;
 800b506:	4b87      	ldr	r3, [pc, #540]	; (800b724 <main+0x2d4>)
  sdp->vmt = &vmt;
 800b508:	4a87      	ldr	r2, [pc, #540]	; (800b728 <main+0x2d8>)
 800b50a:	67ab      	str	r3, [r5, #120]	; 0x78
  I2CD1.dmatx  = STM32_DMA_STREAM(STM32_I2C_I2C1_TX_DMA_STREAM);
 800b50c:	f1a6 0314 	sub.w	r3, r6, #20
 800b510:	676b      	str	r3, [r5, #116]	; 0x74
 800b512:	4b86      	ldr	r3, [pc, #536]	; (800b72c <main+0x2dc>)
 800b514:	60e8      	str	r0, [r5, #12]
 800b516:	601a      	str	r2, [r3, #0]
  iqp->q_buffer  = bp;
 800b518:	f103 0260 	add.w	r2, r3, #96	; 0x60
  iqp->q_wrptr   = bp;
 800b51c:	e9c3 220b 	strd	r2, r2, [r3, #44]	; 0x2c
  iqp->q_buffer  = bp;
 800b520:	625a      	str	r2, [r3, #36]	; 0x24
  iqp->q_top     = bp + size;
 800b522:	f103 0270 	add.w	r2, r3, #112	; 0x70
  oqp->q_wrptr   = bp;
 800b526:	e9c3 2214 	strd	r2, r2, [r3, #80]	; 0x50
  iqp->q_top     = bp + size;
 800b52a:	629a      	str	r2, [r3, #40]	; 0x28
  oqp->q_buffer  = bp;
 800b52c:	649a      	str	r2, [r3, #72]	; 0x48
  oqp->q_top     = bp + size;
 800b52e:	f103 0280 	add.w	r2, r3, #128	; 0x80
 800b532:	64da      	str	r2, [r3, #76]	; 0x4c
  oqp->q_notify  = onfy;
 800b534:	4a7e      	ldr	r2, [pc, #504]	; (800b730 <main+0x2e0>)
  I2CD1.dmarx  = STM32_DMA_STREAM(STM32_I2C_I2C1_RX_DMA_STREAM);
 800b536:	672e      	str	r6, [r5, #112]	; 0x70
  I2CD1.thread = NULL;
 800b538:	662c      	str	r4, [r5, #96]	; 0x60
  spip->state = SPI_STOP;
 800b53a:	4d7e      	ldr	r5, [pc, #504]	; (800b734 <main+0x2e4>)
  oqp->q_link    = link;
 800b53c:	e9c3 2316 	strd	r2, r3, [r3, #88]	; 0x58
  SD3.usart = USART3;
 800b540:	4a7d      	ldr	r2, [pc, #500]	; (800b738 <main+0x2e8>)
  iqp->q_counter = 0;
 800b542:	621c      	str	r4, [r3, #32]
 800b544:	1868      	adds	r0, r5, r1
  oqp->q_counter = size;
 800b546:	6459      	str	r1, [r3, #68]	; 0x44
    event_source->firstRepeater = NULL;
 800b548:	e9c3 4401 	strd	r4, r4, [r3, #4]
    thread_queue->tail = NULL;
 800b54c:	e9c3 4406 	strd	r4, r4, [r3, #24]
  iqp->q_link    = link;
 800b550:	e9c3 430d 	strd	r4, r3, [r3, #52]	; 0x34
 800b554:	e9c3 440f 	strd	r4, r4, [r3, #60]	; 0x3c
    event_source->waitThread = NULL;
 800b558:	60dc      	str	r4, [r3, #12]
 800b55a:	f8c3 2080 	str.w	r2, [r3, #128]	; 0x80
  spip->thread = NULL;
 800b55e:	e9c5 4401 	strd	r4, r4, [r5, #4]
  sdp->state = SD_STOP;
 800b562:	751f      	strb	r7, [r3, #20]
  spip->state = SPI_STOP;
 800b564:	702f      	strb	r7, [r5, #0]
    mutex->handle = xSemaphoreCreateMutexStatic(&mutex->staticData);
 800b566:	f7fc fe4b 	bl	8008200 <xQueueCreateMutexStatic.constprop.0>
  SPID1.spi       = SPI1;
 800b56a:	4b74      	ldr	r3, [pc, #464]	; (800b73c <main+0x2ec>)
  SPID1.txdmamode = STM32_DMA_CR_CHSEL(SPI1_TX_DMA_CHANNEL) |
 800b56c:	f241 010a 	movw	r1, #4106	; 0x100a
  SPID1.spi       = SPI1;
 800b570:	662b      	str	r3, [r5, #96]	; 0x60
  SPID1.dmarx     = STM32_DMA_STREAM(STM32_SPI_SPI1_RX_DMA_STREAM);
 800b572:	f1a6 0364 	sub.w	r3, r6, #100	; 0x64
 800b576:	666b      	str	r3, [r5, #100]	; 0x64
  SPID1.txdmamode = STM32_DMA_CR_CHSEL(SPI1_TX_DMA_CHANNEL) |
 800b578:	f241 0318 	movw	r3, #4120	; 0x1018
  SPID1.dmatx     = STM32_DMA_STREAM(STM32_SPI_SPI1_TX_DMA_STREAM);
 800b57c:	3e50      	subs	r6, #80	; 0x50
  SPID1.txdmamode = STM32_DMA_CR_CHSEL(SPI1_TX_DMA_CHANNEL) |
 800b57e:	e9c5 131b 	strd	r1, r3, [r5, #108]	; 0x6c
 800b582:	60e8      	str	r0, [r5, #12]
  SPID1.dmatx     = STM32_DMA_STREAM(STM32_SPI_SPI1_TX_DMA_STREAM);
 800b584:	66ae      	str	r6, [r5, #104]	; 0x68
  for (i = 0; i < (unsigned)USB_MAX_ENDPOINTS; i++) {
 800b586:	2500      	movs	r5, #0
    usbp->in_params[i]  = NULL;
 800b588:	462a      	mov	r2, r5
  usbp->state        = USB_STOP;
 800b58a:	4b6d      	ldr	r3, [pc, #436]	; (800b740 <main+0x2f0>)
 800b58c:	701f      	strb	r7, [r3, #0]
  usbp->config       = NULL;
 800b58e:	605c      	str	r4, [r3, #4]
 800b590:	f103 012c 	add.w	r1, r3, #44	; 0x2c
  for (i = 0; i < (unsigned)USB_MAX_ENDPOINTS; i++) {
 800b594:	3501      	adds	r5, #1
    usbp->in_params[i]  = NULL;
 800b596:	f841 2b04 	str.w	r2, [r1], #4
  for (i = 0; i < (unsigned)USB_MAX_ENDPOINTS; i++) {
 800b59a:	2d07      	cmp	r5, #7
    usbp->out_params[i] = NULL;
 800b59c:	618a      	str	r2, [r1, #24]
  for (i = 0; i < (unsigned)USB_MAX_ENDPOINTS; i++) {
 800b59e:	d1f9      	bne.n	800b594 <main+0x144>
  usbp->transmitting = 0;
 800b5a0:	609a      	str	r2, [r3, #8]
  WDGD1.state = WDG_STOP;
 800b5a2:	2301      	movs	r3, #1
/*
 * Board-specific initialization code.
 */
void boardInit(void) {
    /* Use SWD only */
    AFIO->MAPR = AFIO_MAPR_SWJ_CFG_JTAGDISABLE;
 800b5a4:	f04f 7200 	mov.w	r2, #33554432	; 0x2000000
 800b5a8:	4866      	ldr	r0, [pc, #408]	; (800b744 <main+0x2f4>)
 800b5aa:	7003      	strb	r3, [r0, #0]
  WDGD1.wdg   = IWDG;
 800b5ac:	4b66      	ldr	r3, [pc, #408]	; (800b748 <main+0x2f8>)
 800b5ae:	6083      	str	r3, [r0, #8]
 800b5b0:	f503 4350 	add.w	r3, r3, #53248	; 0xd000
 800b5b4:	605a      	str	r2, [r3, #4]
  osalSysLock();
 800b5b6:	f7f8 fe15 	bl	80041e4 <vPortEnterCritical>
  osalDbgAssert((wdgp->state == WDG_STOP) || (wdgp->state == WDG_READY),
 800b5ba:	7803      	ldrb	r3, [r0, #0]
 800b5bc:	3b01      	subs	r3, #1
 800b5be:	2b01      	cmp	r3, #1
 800b5c0:	d902      	bls.n	800b5c8 <main+0x178>
 800b5c2:	f7f8 febd 	bl	8004340 <vTaskEndScheduler>
 800b5c6:	e7fe      	b.n	800b5c6 <main+0x176>
  wdgp->wdg->KR   = KR_KEY_WRITE;
 800b5c8:	f245 5255 	movw	r2, #21845	; 0x5555
  wdgp->config = config;
 800b5cc:	4b5f      	ldr	r3, [pc, #380]	; (800b74c <main+0x2fc>)
 800b5ce:	6043      	str	r3, [r0, #4]
 800b5d0:	6883      	ldr	r3, [r0, #8]
 800b5d2:	601a      	str	r2, [r3, #0]
  while (wdgp->wdg->SR != 0)
 800b5d4:	68dc      	ldr	r4, [r3, #12]
 800b5d6:	2c00      	cmp	r4, #0
 800b5d8:	d1fc      	bne.n	800b5d4 <main+0x184>
  wdgp->wdg->PR   = wdgp->config->pr;
 800b5da:	2206      	movs	r2, #6
 800b5dc:	605a      	str	r2, [r3, #4]
  wdgp->wdg->RLR  = wdgp->config->rlr;
 800b5de:	f640 72ff 	movw	r2, #4095	; 0xfff
 800b5e2:	609a      	str	r2, [r3, #8]
  wdgp->wdg->KR   = KR_KEY_RELOAD;
 800b5e4:	f64a 22aa 	movw	r2, #43690	; 0xaaaa
 800b5e8:	601a      	str	r2, [r3, #0]
  wdgp->wdg->KR   = KR_KEY_ENABLE;
 800b5ea:	f64c 42cc 	movw	r2, #52428	; 0xcccc
  wdgp->state = WDG_READY;
 800b5ee:	f04f 0802 	mov.w	r8, #2

    /* Before anything else, start watchdog (~25 seconds timeout) */
    wdgStart(&WDGD1, &watchdogConfig);

    TaskHandle_t handle;
    xTaskCreate(runInThreadBody, "Init", 256, main_, 1, &handle);
 800b5f2:	2701      	movs	r7, #1
 800b5f4:	601a      	str	r2, [r3, #0]
 800b5f6:	f880 8000 	strb.w	r8, [r0]
  osalSysUnlock();
 800b5fa:	f7fa f923 	bl	8005844 <osalSysUnlock.lto_priv.0>
 800b5fe:	ab05      	add	r3, sp, #20
 800b600:	9301      	str	r3, [sp, #4]
 800b602:	f44f 7280 	mov.w	r2, #256	; 0x100
 800b606:	4b52      	ldr	r3, [pc, #328]	; (800b750 <main+0x300>)
 800b608:	4952      	ldr	r1, [pc, #328]	; (800b754 <main+0x304>)
 800b60a:	4853      	ldr	r0, [pc, #332]	; (800b758 <main+0x308>)
 800b60c:	9700      	str	r7, [sp, #0]
 800b60e:	f7fc ffab 	bl	8008568 <xTaskCreate>
 800b612:	2368      	movs	r3, #104	; 0x68
 800b614:	9306      	str	r3, [sp, #24]
 800b616:	9b06      	ldr	r3, [sp, #24]
 800b618:	2b68      	cmp	r3, #104	; 0x68
 800b61a:	d000      	beq.n	800b61e <main+0x1ce>
 800b61c:	e7fe      	b.n	800b61c <main+0x1cc>
 800b61e:	4e4f      	ldr	r6, [pc, #316]	; (800b75c <main+0x30c>)
 800b620:	4b4f      	ldr	r3, [pc, #316]	; (800b760 <main+0x310>)
 800b622:	f886 8065 	strb.w	r8, [r6, #101]	; 0x65
 800b626:	6333      	str	r3, [r6, #48]	; 0x30
 800b628:	ab07      	add	r3, sp, #28
 800b62a:	2278      	movs	r2, #120	; 0x78
 800b62c:	e9cd 4300 	strd	r4, r3, [sp]
 800b630:	494c      	ldr	r1, [pc, #304]	; (800b764 <main+0x314>)
 800b632:	4623      	mov	r3, r4
 800b634:	484c      	ldr	r0, [pc, #304]	; (800b768 <main+0x318>)
 800b636:	9602      	str	r6, [sp, #8]
 800b638:	f7fc ff48 	bl	80084cc <prvInitialiseNewTask.isra.0>
 800b63c:	4630      	mov	r0, r6
 800b63e:	f7f9 fac3 	bl	8004bc8 <prvAddNewTaskToReadyList>
 800b642:	9b07      	ldr	r3, [sp, #28]
 800b644:	2b00      	cmp	r3, #0
 800b646:	d056      	beq.n	800b6f6 <main+0x2a6>
 800b648:	f7f8 fdcc 	bl	80041e4 <vPortEnterCritical>
 800b64c:	f04f 31ff 	mov.w	r1, #4294967295	; 0xffffffff
 800b650:	4b46      	ldr	r3, [pc, #280]	; (800b76c <main+0x31c>)
 800b652:	6019      	str	r1, [r3, #0]
 800b654:	4b46      	ldr	r3, [pc, #280]	; (800b770 <main+0x320>)
 800b656:	601f      	str	r7, [r3, #0]
 800b658:	4b46      	ldr	r3, [pc, #280]	; (800b774 <main+0x324>)
 800b65a:	601c      	str	r4, [r3, #0]
 800b65c:	4b46      	ldr	r3, [pc, #280]	; (800b778 <main+0x328>)
 800b65e:	781a      	ldrb	r2, [r3, #0]
 800b660:	b2d2      	uxtb	r2, r2
 800b662:	9207      	str	r2, [sp, #28]
 800b664:	7019      	strb	r1, [r3, #0]
 800b666:	781b      	ldrb	r3, [r3, #0]
 800b668:	4a44      	ldr	r2, [pc, #272]	; (800b77c <main+0x32c>)
 800b66a:	b2db      	uxtb	r3, r3
 800b66c:	f88d 3013 	strb.w	r3, [sp, #19]
 800b670:	f89d 3013 	ldrb.w	r3, [sp, #19]
 800b674:	f003 03bf 	and.w	r3, r3, #191	; 0xbf
 800b678:	7013      	strb	r3, [r2, #0]
 800b67a:	2207      	movs	r2, #7
 800b67c:	4b40      	ldr	r3, [pc, #256]	; (800b780 <main+0x330>)
 800b67e:	601a      	str	r2, [r3, #0]
 800b680:	f89d 2013 	ldrb.w	r2, [sp, #19]
 800b684:	1e69      	subs	r1, r5, #1
 800b686:	0612      	lsls	r2, r2, #24
 800b688:	d42c      	bmi.n	800b6e4 <main+0x294>
 800b68a:	b104      	cbz	r4, 800b68e <main+0x23e>
 800b68c:	601d      	str	r5, [r3, #0]
 800b68e:	681a      	ldr	r2, [r3, #0]
 800b690:	0212      	lsls	r2, r2, #8
 800b692:	f402 62e0 	and.w	r2, r2, #1792	; 0x700
 800b696:	601a      	str	r2, [r3, #0]
 800b698:	9b07      	ldr	r3, [sp, #28]
 800b69a:	4a37      	ldr	r2, [pc, #220]	; (800b778 <main+0x328>)
 800b69c:	b2db      	uxtb	r3, r3
 800b69e:	7013      	strb	r3, [r2, #0]
 800b6a0:	4b38      	ldr	r3, [pc, #224]	; (800b784 <main+0x334>)
 800b6a2:	681a      	ldr	r2, [r3, #0]
 800b6a4:	f442 027f 	orr.w	r2, r2, #16711680	; 0xff0000
 800b6a8:	601a      	str	r2, [r3, #0]
 800b6aa:	681a      	ldr	r2, [r3, #0]
 800b6ac:	f042 427f 	orr.w	r2, r2, #4278190080	; 0xff000000
 800b6b0:	601a      	str	r2, [r3, #0]
 800b6b2:	f242 3228 	movw	r2, #9000	; 0x2328
 800b6b6:	4b34      	ldr	r3, [pc, #208]	; (800b788 <main+0x338>)
 800b6b8:	601a      	str	r2, [r3, #0]
 800b6ba:	f44f 62e9 	mov.w	r2, #1864	; 0x748
 800b6be:	4b33      	ldr	r3, [pc, #204]	; (800b78c <main+0x33c>)
 800b6c0:	601a      	str	r2, [r3, #0]
 800b6c2:	2205      	movs	r2, #5
 800b6c4:	4b32      	ldr	r3, [pc, #200]	; (800b790 <main+0x340>)
 800b6c6:	601a      	str	r2, [r3, #0]
 800b6c8:	f242 3227 	movw	r2, #8999	; 0x2327
 800b6cc:	4b31      	ldr	r3, [pc, #196]	; (800b794 <main+0x344>)
 800b6ce:	601a      	str	r2, [r3, #0]
 800b6d0:	2203      	movs	r2, #3
 800b6d2:	f843 2c04 	str.w	r2, [r3, #-4]
 800b6d6:	2200      	movs	r2, #0
 800b6d8:	4b2f      	ldr	r3, [pc, #188]	; (800b798 <main+0x348>)
 800b6da:	601a      	str	r2, [r3, #0]
 800b6dc:	f7f8 fd92 	bl	8004204 <prvPortStartFirstTask>
 800b6e0:	f7f8 fdc0 	bl	8004264 <prvTaskExitError>
 800b6e4:	f89d 2013 	ldrb.w	r2, [sp, #19]
 800b6e8:	460d      	mov	r5, r1
 800b6ea:	0052      	lsls	r2, r2, #1
 800b6ec:	b2d2      	uxtb	r2, r2
 800b6ee:	2401      	movs	r4, #1
 800b6f0:	f88d 2013 	strb.w	r2, [sp, #19]
 800b6f4:	e7c4      	b.n	800b680 <main+0x230>

    osalSysEnable();

    /* Does not happen */
    osalSysHalt("Return in main?");
 800b6f6:	f7f8 fe23 	bl	8004340 <vTaskEndScheduler>
 800b6fa:	e7fe      	b.n	800b6fa <main+0x2aa>
 800b6fc:	40021000 	.word	0x40021000
 800b700:	40007000 	.word	0x40007000
 800b704:	20001044 	.word	0x20001044
 800b708:	20000fe8 	.word	0x20000fe8
 800b70c:	0800c680 	.word	0x0800c680
 800b710:	40020000 	.word	0x40020000
 800b714:	20000934 	.word	0x20000934
 800b718:	40010800 	.word	0x40010800
 800b71c:	88888288 	.word	0x88888288
 800b720:	0800c6f8 	.word	0x0800c6f8
 800b724:	40005400 	.word	0x40005400
 800b728:	0800cb28 	.word	0x0800cb28
 800b72c:	200009bc 	.word	0x200009bc
 800b730:	08005bf9 	.word	0x08005bf9
 800b734:	20000ee0 	.word	0x20000ee0
 800b738:	40004800 	.word	0x40004800
 800b73c:	40013000 	.word	0x40013000
 800b740:	20000f54 	.word	0x20000f54
 800b744:	20000fdc 	.word	0x20000fdc
 800b748:	40003000 	.word	0x40003000
 800b74c:	0800cb78 	.word	0x0800cb78
 800b750:	0800943d 	.word	0x0800943d
 800b754:	0800c586 	.word	0x0800c586
 800b758:	08005bed 	.word	0x08005bed
 800b75c:	20001588 	.word	0x20001588
 800b760:	200013a8 	.word	0x200013a8
 800b764:	0800bfb8 	.word	0x0800bfb8
 800b768:	080087dd 	.word	0x080087dd
 800b76c:	200015f8 	.word	0x200015f8
 800b770:	20001614 	.word	0x20001614
 800b774:	20001648 	.word	0x20001648
 800b778:	e000e400 	.word	0xe000e400
 800b77c:	20001340 	.word	0x20001340
 800b780:	20001344 	.word	0x20001344
 800b784:	e000ed20 	.word	0xe000ed20
 800b788:	20001350 	.word	0x20001350
 800b78c:	200015f0 	.word	0x200015f0
 800b790:	20001348 	.word	0x20001348
 800b794:	e000e014 	.word	0xe000e014
 800b798:	20001358 	.word	0x20001358

0800b79c <__early_init>:
void stm32_clock_init(void) {

#if !STM32_NO_INIT
  /* HSI setup, it enforces the reset situation in order to handle possible
     problems with JTAG probes and re-initializations.*/
  RCC->CR |= RCC_CR_HSION;                  /* Make sure HSI is ON.         */
 800b79c:	4b1c      	ldr	r3, [pc, #112]	; (800b810 <__early_init+0x74>)
 800b79e:	681a      	ldr	r2, [r3, #0]
 800b7a0:	f042 0201 	orr.w	r2, r2, #1
 800b7a4:	601a      	str	r2, [r3, #0]
  while (!(RCC->CR & RCC_CR_HSIRDY))
 800b7a6:	681a      	ldr	r2, [r3, #0]
 800b7a8:	0792      	lsls	r2, r2, #30
 800b7aa:	d5fc      	bpl.n	800b7a6 <__early_init+0xa>
    ;                                       /* Wait until HSI is stable.    */
  RCC->CR &= RCC_CR_HSITRIM | RCC_CR_HSION; /* CR Reset value.              */
 800b7ac:	681a      	ldr	r2, [r3, #0]
 800b7ae:	f002 02f9 	and.w	r2, r2, #249	; 0xf9
 800b7b2:	601a      	str	r2, [r3, #0]
  RCC->CFGR = 0;                            /* CFGR reset value.            */
 800b7b4:	2200      	movs	r2, #0
 800b7b6:	605a      	str	r2, [r3, #4]
  while ((RCC->CFGR & RCC_CFGR_SWS) != RCC_CFGR_SWS_HSI)
 800b7b8:	685a      	ldr	r2, [r3, #4]
 800b7ba:	f012 0f0c 	tst.w	r2, #12
 800b7be:	d1fb      	bne.n	800b7b8 <__early_init+0x1c>
#if defined(STM32_HSE_BYPASS)
  /* HSE Bypass.*/
  RCC->CR |= RCC_CR_HSEON | RCC_CR_HSEBYP;
#endif
  /* HSE activation.*/
  RCC->CR |= RCC_CR_HSEON;
 800b7c0:	681a      	ldr	r2, [r3, #0]
 800b7c2:	f442 3280 	orr.w	r2, r2, #65536	; 0x10000
 800b7c6:	601a      	str	r2, [r3, #0]
  while (!(RCC->CR & RCC_CR_HSERDY))
 800b7c8:	681a      	ldr	r2, [r3, #0]
 800b7ca:	0390      	lsls	r0, r2, #14
 800b7cc:	d5fc      	bpl.n	800b7c8 <__early_init+0x2c>
    ;                                       /* Waits until HSE is stable.   */
#endif

#if STM32_LSI_ENABLED
  /* LSI activation.*/
  RCC->CSR |= RCC_CSR_LSION;
 800b7ce:	6a5a      	ldr	r2, [r3, #36]	; 0x24
 800b7d0:	f042 0201 	orr.w	r2, r2, #1
 800b7d4:	625a      	str	r2, [r3, #36]	; 0x24
  while ((RCC->CSR & RCC_CSR_LSIRDY) == 0)
 800b7d6:	6a5a      	ldr	r2, [r3, #36]	; 0x24
 800b7d8:	0791      	lsls	r1, r2, #30
 800b7da:	d5fc      	bpl.n	800b7d6 <__early_init+0x3a>
    ;                                       /* Waits until LSI is stable.   */
#endif

#if STM32_ACTIVATE_PLL
  /* PLL activation.*/
  RCC->CFGR |= STM32_PLLMUL | STM32_PLLXTPRE | STM32_PLLSRC;
 800b7dc:	685a      	ldr	r2, [r3, #4]
 800b7de:	f442 12f8 	orr.w	r2, r2, #2031616	; 0x1f0000
 800b7e2:	605a      	str	r2, [r3, #4]
  RCC->CR   |= RCC_CR_PLLON;
 800b7e4:	681a      	ldr	r2, [r3, #0]
 800b7e6:	f042 7280 	orr.w	r2, r2, #16777216	; 0x1000000
 800b7ea:	601a      	str	r2, [r3, #0]
  while (!(RCC->CR & RCC_CR_PLLRDY))
 800b7ec:	681a      	ldr	r2, [r3, #0]
 800b7ee:	0192      	lsls	r2, r2, #6
 800b7f0:	d5fc      	bpl.n	800b7ec <__early_init+0x50>
              STM32_PLLSRC | STM32_ADCPRE | STM32_PPRE2  | STM32_PPRE1    |
              STM32_HPRE;
#endif

  /* Flash setup and final clock selection.   */
  FLASH->ACR = STM32_FLASHBITS;
 800b7f2:	2112      	movs	r1, #18
  RCC->CFGR = STM32_MCOSEL | STM32_USBPRE | STM32_PLLMUL | STM32_PLLXTPRE |
 800b7f4:	4a07      	ldr	r2, [pc, #28]	; (800b814 <__early_init+0x78>)
 800b7f6:	605a      	str	r2, [r3, #4]
  FLASH->ACR = STM32_FLASHBITS;
 800b7f8:	4a07      	ldr	r2, [pc, #28]	; (800b818 <__early_init+0x7c>)
 800b7fa:	6011      	str	r1, [r2, #0]

  /* Switching to the configured clock source if it is different from HSI.*/
#if (STM32_SW != STM32_SW_HSI)
  /* Switches clock source.*/
  RCC->CFGR |= STM32_SW;
 800b7fc:	685a      	ldr	r2, [r3, #4]
 800b7fe:	f042 0202 	orr.w	r2, r2, #2
 800b802:	605a      	str	r2, [r3, #4]
  while ((RCC->CFGR & RCC_CFGR_SWS) != (STM32_SW << 2))
 800b804:	685a      	ldr	r2, [r3, #4]
 800b806:	f002 020c 	and.w	r2, r2, #12
 800b80a:	2a08      	cmp	r2, #8
 800b80c:	d1fa      	bne.n	800b804 <__early_init+0x68>
}
 800b80e:	4770      	bx	lr
 800b810:	40021000 	.word	0x40021000
 800b814:	001f6400 	.word	0x001f6400
 800b818:	40022000 	.word	0x40022000

0800b81c <__init_ram_areas>:
}

/**
 * @brief   Performs the initialization of the various RAM areas.
 */
void __init_ram_areas(void) {
 800b81c:	b5f0      	push	{r4, r5, r6, r7, lr}
 800b81e:	2008      	movs	r0, #8
      tp++;
    }

    /* Zeroing clear area.*/
    while (p < rap->no_init_area) {
      *p = 0;
 800b820:	2600      	movs	r6, #0
  const ram_init_area_t *rap = ram_areas;
 800b822:	4910      	ldr	r1, [pc, #64]	; (800b864 <__init_ram_areas+0x48>)
    while (p < rap->clear_area) {
 800b824:	e9d1 3401 	ldrd	r3, r4, [r1, #4]
    uint32_t *p = rap->init_area;
 800b828:	461d      	mov	r5, r3
 800b82a:	680a      	ldr	r2, [r1, #0]
 800b82c:	3a04      	subs	r2, #4
    while (p < rap->clear_area) {
 800b82e:	42ac      	cmp	r4, r5
 800b830:	d810      	bhi.n	800b854 <__init_ram_areas+0x38>
 800b832:	1ce2      	adds	r2, r4, #3
 800b834:	1ad2      	subs	r2, r2, r3
 800b836:	1edd      	subs	r5, r3, #3
 800b838:	f022 0203 	bic.w	r2, r2, #3
 800b83c:	42ac      	cmp	r4, r5
 800b83e:	bf38      	it	cc
 800b840:	2200      	movcc	r2, #0
 800b842:	4413      	add	r3, r2
    while (p < rap->no_init_area) {
 800b844:	68ca      	ldr	r2, [r1, #12]
 800b846:	429a      	cmp	r2, r3
 800b848:	d809      	bhi.n	800b85e <__init_ram_areas+0x42>
      p++;
    }
    rap++;
  }
  while (rap < &ram_areas[CRT1_AREAS_NUMBER]);
 800b84a:	3801      	subs	r0, #1
    rap++;
 800b84c:	f101 0110 	add.w	r1, r1, #16
  while (rap < &ram_areas[CRT1_AREAS_NUMBER]);
 800b850:	d1e8      	bne.n	800b824 <__init_ram_areas+0x8>
#endif
}
 800b852:	bdf0      	pop	{r4, r5, r6, r7, pc}
      *p = *tp;
 800b854:	f852 7f04 	ldr.w	r7, [r2, #4]!
 800b858:	f845 7b04 	str.w	r7, [r5], #4
      tp++;
 800b85c:	e7e7      	b.n	800b82e <__init_ram_areas+0x12>
      *p = 0;
 800b85e:	f843 6b04 	str.w	r6, [r3], #4
      p++;
 800b862:	e7f0      	b.n	800b846 <__init_ram_areas+0x2a>
 800b864:	0800c914 	.word	0x0800c914

0800b868 <__default_exit>:
  while (true) {
 800b868:	e7fe      	b.n	800b868 <__default_exit>

0800b86a <__late_init>:
 800b86a:	4770      	bx	lr

0800b86c <__core_init>:
}
 800b86c:	4770      	bx	lr
